ARM GAS  /tmp/ccysU9ly.s 			page 1


   1              		.cpu cortex-m4
   2              		.arch armv7e-m
   3              		.fpu fpv4-sp-d16
   4              		.eabi_attribute 27, 1
   5              		.eabi_attribute 28, 1
   6              		.eabi_attribute 20, 1
   7              		.eabi_attribute 21, 1
   8              		.eabi_attribute 23, 3
   9              		.eabi_attribute 24, 1
  10              		.eabi_attribute 25, 1
  11              		.eabi_attribute 26, 1
  12              		.eabi_attribute 30, 1
  13              		.eabi_attribute 34, 1
  14              		.eabi_attribute 18, 4
  15              		.file	"board.cpp"
  16              		.text
  17              	.Ltext0:
  18              		.cfi_sections	.debug_frame
  19              		.section	.text.cpu_enter_critical,"axG",%progbits,_ZN10Stm32Timer24start_synchronously_implILj3EJL
  20              		.align	1
  21              		.p2align 2,,3
  22              		.syntax unified
  23              		.thumb
  24              		.thumb_func
  26              	cpu_enter_critical:
  27              		.fnstart
  28              	.LFB1066:
  29              		.file 1 "./Drivers/STM32/stm32_system.h"
   1:./Drivers/STM32/stm32_system.h **** #ifndef __STM32_SYSTEM_H
   2:./Drivers/STM32/stm32_system.h **** #define __STM32_SYSTEM_H
   3:./Drivers/STM32/stm32_system.h **** 
   4:./Drivers/STM32/stm32_system.h **** #if defined(STM32F405xx)
   5:./Drivers/STM32/stm32_system.h **** #include <stm32f405xx.h>
   6:./Drivers/STM32/stm32_system.h **** #elif defined(STM32F722xx)
   7:./Drivers/STM32/stm32_system.h **** #include <stm32f722xx.h>
   8:./Drivers/STM32/stm32_system.h **** #else
   9:./Drivers/STM32/stm32_system.h **** #error "unknown STM32 microcontroller"
  10:./Drivers/STM32/stm32_system.h **** #endif
  11:./Drivers/STM32/stm32_system.h **** 
  12:./Drivers/STM32/stm32_system.h **** // C/C++ definitions
  13:./Drivers/STM32/stm32_system.h **** 
  14:./Drivers/STM32/stm32_system.h **** #ifdef __cplusplus
  15:./Drivers/STM32/stm32_system.h **** extern "C" {
  16:./Drivers/STM32/stm32_system.h **** #endif
  17:./Drivers/STM32/stm32_system.h **** 
  18:./Drivers/STM32/stm32_system.h **** // Uncomment the following line to sacrifice 1kB of RAM for the ability to
  19:./Drivers/STM32/stm32_system.h **** // monitor the number of times each interrupt fires.
  20:./Drivers/STM32/stm32_system.h **** //#define ENABLE_IRQ_COUNTER
  21:./Drivers/STM32/stm32_system.h **** 
  22:./Drivers/STM32/stm32_system.h **** #ifdef ENABLE_IRQ_COUNTER
  23:./Drivers/STM32/stm32_system.h **** extern uint32_t irq_counters[];
  24:./Drivers/STM32/stm32_system.h **** #define COUNT_IRQ(irqn) (++irq_counters[irqn + 14])
  25:./Drivers/STM32/stm32_system.h **** #define GET_IRQ_COUNTER(irqn) irq_counters[irqn + 14]
  26:./Drivers/STM32/stm32_system.h **** #else
  27:./Drivers/STM32/stm32_system.h **** #define COUNT_IRQ(irqn) ((void)0)
  28:./Drivers/STM32/stm32_system.h **** #define GET_IRQ_COUNTER(irqn) 0
  29:./Drivers/STM32/stm32_system.h **** #endif
ARM GAS  /tmp/ccysU9ly.s 			page 2


  30:./Drivers/STM32/stm32_system.h **** 
  31:./Drivers/STM32/stm32_system.h **** static inline uint32_t cpu_enter_critical() {
  30              		.loc 1 31 45 view -0
  31              		.cfi_startproc
  32              		@ args = 0, pretend = 0, frame = 0
  33              		@ frame_needed = 0, uses_anonymous_args = 0
  34              		@ link register save eliminated.
  32:./Drivers/STM32/stm32_system.h ****     uint32_t primask = __get_PRIMASK();
  35              		.loc 1 32 5 view .LVU1
  36              	.LBB428:
  37              	.LBI428:
  38              		.file 2 "ThirdParty/CMSIS/Include/cmsis_gcc.h"
   1:ThirdParty/CMSIS/Include/cmsis_gcc.h **** /**************************************************************************//**
   2:ThirdParty/CMSIS/Include/cmsis_gcc.h ****  * @file     cmsis_gcc.h
   3:ThirdParty/CMSIS/Include/cmsis_gcc.h ****  * @brief    CMSIS compiler GCC header file
   4:ThirdParty/CMSIS/Include/cmsis_gcc.h ****  * @version  V5.0.4
   5:ThirdParty/CMSIS/Include/cmsis_gcc.h ****  * @date     09. April 2018
   6:ThirdParty/CMSIS/Include/cmsis_gcc.h ****  ******************************************************************************/
   7:ThirdParty/CMSIS/Include/cmsis_gcc.h **** /*
   8:ThirdParty/CMSIS/Include/cmsis_gcc.h ****  * Copyright (c) 2009-2018 Arm Limited. All rights reserved.
   9:ThirdParty/CMSIS/Include/cmsis_gcc.h ****  *
  10:ThirdParty/CMSIS/Include/cmsis_gcc.h ****  * SPDX-License-Identifier: Apache-2.0
  11:ThirdParty/CMSIS/Include/cmsis_gcc.h ****  *
  12:ThirdParty/CMSIS/Include/cmsis_gcc.h ****  * Licensed under the Apache License, Version 2.0 (the License); you may
  13:ThirdParty/CMSIS/Include/cmsis_gcc.h ****  * not use this file except in compliance with the License.
  14:ThirdParty/CMSIS/Include/cmsis_gcc.h ****  * You may obtain a copy of the License at
  15:ThirdParty/CMSIS/Include/cmsis_gcc.h ****  *
  16:ThirdParty/CMSIS/Include/cmsis_gcc.h ****  * www.apache.org/licenses/LICENSE-2.0
  17:ThirdParty/CMSIS/Include/cmsis_gcc.h ****  *
  18:ThirdParty/CMSIS/Include/cmsis_gcc.h ****  * Unless required by applicable law or agreed to in writing, software
  19:ThirdParty/CMSIS/Include/cmsis_gcc.h ****  * distributed under the License is distributed on an AS IS BASIS, WITHOUT
  20:ThirdParty/CMSIS/Include/cmsis_gcc.h ****  * WARRANTIES OR CONDITIONS OF ANY KIND, either express or implied.
  21:ThirdParty/CMSIS/Include/cmsis_gcc.h ****  * See the License for the specific language governing permissions and
  22:ThirdParty/CMSIS/Include/cmsis_gcc.h ****  * limitations under the License.
  23:ThirdParty/CMSIS/Include/cmsis_gcc.h ****  */
  24:ThirdParty/CMSIS/Include/cmsis_gcc.h **** 
  25:ThirdParty/CMSIS/Include/cmsis_gcc.h **** #ifndef __CMSIS_GCC_H
  26:ThirdParty/CMSIS/Include/cmsis_gcc.h **** #define __CMSIS_GCC_H
  27:ThirdParty/CMSIS/Include/cmsis_gcc.h **** 
  28:ThirdParty/CMSIS/Include/cmsis_gcc.h **** /* ignore some GCC warnings */
  29:ThirdParty/CMSIS/Include/cmsis_gcc.h **** #pragma GCC diagnostic push
  30:ThirdParty/CMSIS/Include/cmsis_gcc.h **** #pragma GCC diagnostic ignored "-Wsign-conversion"
  31:ThirdParty/CMSIS/Include/cmsis_gcc.h **** #pragma GCC diagnostic ignored "-Wconversion"
  32:ThirdParty/CMSIS/Include/cmsis_gcc.h **** #pragma GCC diagnostic ignored "-Wunused-parameter"
  33:ThirdParty/CMSIS/Include/cmsis_gcc.h **** 
  34:ThirdParty/CMSIS/Include/cmsis_gcc.h **** /* Fallback for __has_builtin */
  35:ThirdParty/CMSIS/Include/cmsis_gcc.h **** #ifndef __has_builtin
  36:ThirdParty/CMSIS/Include/cmsis_gcc.h ****   #define __has_builtin(x) (0)
  37:ThirdParty/CMSIS/Include/cmsis_gcc.h **** #endif
  38:ThirdParty/CMSIS/Include/cmsis_gcc.h **** 
  39:ThirdParty/CMSIS/Include/cmsis_gcc.h **** /* CMSIS compiler specific defines */
  40:ThirdParty/CMSIS/Include/cmsis_gcc.h **** #ifndef   __ASM
  41:ThirdParty/CMSIS/Include/cmsis_gcc.h ****   #define __ASM                                  __asm
  42:ThirdParty/CMSIS/Include/cmsis_gcc.h **** #endif
  43:ThirdParty/CMSIS/Include/cmsis_gcc.h **** #ifndef   __INLINE
  44:ThirdParty/CMSIS/Include/cmsis_gcc.h ****   #define __INLINE                               inline
  45:ThirdParty/CMSIS/Include/cmsis_gcc.h **** #endif
ARM GAS  /tmp/ccysU9ly.s 			page 3


  46:ThirdParty/CMSIS/Include/cmsis_gcc.h **** #ifndef   __STATIC_INLINE
  47:ThirdParty/CMSIS/Include/cmsis_gcc.h ****   #define __STATIC_INLINE                        static inline
  48:ThirdParty/CMSIS/Include/cmsis_gcc.h **** #endif
  49:ThirdParty/CMSIS/Include/cmsis_gcc.h **** #ifndef   __STATIC_FORCEINLINE                 
  50:ThirdParty/CMSIS/Include/cmsis_gcc.h ****   #define __STATIC_FORCEINLINE                   __attribute__((always_inline)) static inline
  51:ThirdParty/CMSIS/Include/cmsis_gcc.h **** #endif                                           
  52:ThirdParty/CMSIS/Include/cmsis_gcc.h **** #ifndef   __NO_RETURN
  53:ThirdParty/CMSIS/Include/cmsis_gcc.h ****   #define __NO_RETURN                            __attribute__((__noreturn__))
  54:ThirdParty/CMSIS/Include/cmsis_gcc.h **** #endif
  55:ThirdParty/CMSIS/Include/cmsis_gcc.h **** #ifndef   __USED
  56:ThirdParty/CMSIS/Include/cmsis_gcc.h ****   #define __USED                                 __attribute__((used))
  57:ThirdParty/CMSIS/Include/cmsis_gcc.h **** #endif
  58:ThirdParty/CMSIS/Include/cmsis_gcc.h **** #ifndef   __WEAK
  59:ThirdParty/CMSIS/Include/cmsis_gcc.h ****   #define __WEAK                                 __attribute__((weak))
  60:ThirdParty/CMSIS/Include/cmsis_gcc.h **** #endif
  61:ThirdParty/CMSIS/Include/cmsis_gcc.h **** #ifndef   __PACKED
  62:ThirdParty/CMSIS/Include/cmsis_gcc.h ****   #define __PACKED                               __attribute__((packed, aligned(1)))
  63:ThirdParty/CMSIS/Include/cmsis_gcc.h **** #endif
  64:ThirdParty/CMSIS/Include/cmsis_gcc.h **** #ifndef   __PACKED_STRUCT
  65:ThirdParty/CMSIS/Include/cmsis_gcc.h ****   #define __PACKED_STRUCT                        struct __attribute__((packed, aligned(1)))
  66:ThirdParty/CMSIS/Include/cmsis_gcc.h **** #endif
  67:ThirdParty/CMSIS/Include/cmsis_gcc.h **** #ifndef   __PACKED_UNION
  68:ThirdParty/CMSIS/Include/cmsis_gcc.h ****   #define __PACKED_UNION                         union __attribute__((packed, aligned(1)))
  69:ThirdParty/CMSIS/Include/cmsis_gcc.h **** #endif
  70:ThirdParty/CMSIS/Include/cmsis_gcc.h **** #ifndef   __UNALIGNED_UINT32        /* deprecated */
  71:ThirdParty/CMSIS/Include/cmsis_gcc.h ****   #pragma GCC diagnostic push
  72:ThirdParty/CMSIS/Include/cmsis_gcc.h ****   #pragma GCC diagnostic ignored "-Wpacked"
  73:ThirdParty/CMSIS/Include/cmsis_gcc.h ****   #pragma GCC diagnostic ignored "-Wattributes"
  74:ThirdParty/CMSIS/Include/cmsis_gcc.h ****   struct __attribute__((packed)) T_UINT32 { uint32_t v; };
  75:ThirdParty/CMSIS/Include/cmsis_gcc.h ****   #pragma GCC diagnostic pop
  76:ThirdParty/CMSIS/Include/cmsis_gcc.h ****   #define __UNALIGNED_UINT32(x)                  (((struct T_UINT32 *)(x))->v)
  77:ThirdParty/CMSIS/Include/cmsis_gcc.h **** #endif
  78:ThirdParty/CMSIS/Include/cmsis_gcc.h **** #ifndef   __UNALIGNED_UINT16_WRITE
  79:ThirdParty/CMSIS/Include/cmsis_gcc.h ****   #pragma GCC diagnostic push
  80:ThirdParty/CMSIS/Include/cmsis_gcc.h ****   #pragma GCC diagnostic ignored "-Wpacked"
  81:ThirdParty/CMSIS/Include/cmsis_gcc.h ****   #pragma GCC diagnostic ignored "-Wattributes"
  82:ThirdParty/CMSIS/Include/cmsis_gcc.h ****   __PACKED_STRUCT T_UINT16_WRITE { uint16_t v; };
  83:ThirdParty/CMSIS/Include/cmsis_gcc.h ****   #pragma GCC diagnostic pop
  84:ThirdParty/CMSIS/Include/cmsis_gcc.h ****   #define __UNALIGNED_UINT16_WRITE(addr, val)    (void)((((struct T_UINT16_WRITE *)(void *)(addr))-
  85:ThirdParty/CMSIS/Include/cmsis_gcc.h **** #endif
  86:ThirdParty/CMSIS/Include/cmsis_gcc.h **** #ifndef   __UNALIGNED_UINT16_READ
  87:ThirdParty/CMSIS/Include/cmsis_gcc.h ****   #pragma GCC diagnostic push
  88:ThirdParty/CMSIS/Include/cmsis_gcc.h ****   #pragma GCC diagnostic ignored "-Wpacked"
  89:ThirdParty/CMSIS/Include/cmsis_gcc.h ****   #pragma GCC diagnostic ignored "-Wattributes"
  90:ThirdParty/CMSIS/Include/cmsis_gcc.h ****   __PACKED_STRUCT T_UINT16_READ { uint16_t v; };
  91:ThirdParty/CMSIS/Include/cmsis_gcc.h ****   #pragma GCC diagnostic pop
  92:ThirdParty/CMSIS/Include/cmsis_gcc.h ****   #define __UNALIGNED_UINT16_READ(addr)          (((const struct T_UINT16_READ *)(const void *)(add
  93:ThirdParty/CMSIS/Include/cmsis_gcc.h **** #endif
  94:ThirdParty/CMSIS/Include/cmsis_gcc.h **** #ifndef   __UNALIGNED_UINT32_WRITE
  95:ThirdParty/CMSIS/Include/cmsis_gcc.h ****   #pragma GCC diagnostic push
  96:ThirdParty/CMSIS/Include/cmsis_gcc.h ****   #pragma GCC diagnostic ignored "-Wpacked"
  97:ThirdParty/CMSIS/Include/cmsis_gcc.h ****   #pragma GCC diagnostic ignored "-Wattributes"
  98:ThirdParty/CMSIS/Include/cmsis_gcc.h ****   __PACKED_STRUCT T_UINT32_WRITE { uint32_t v; };
  99:ThirdParty/CMSIS/Include/cmsis_gcc.h ****   #pragma GCC diagnostic pop
 100:ThirdParty/CMSIS/Include/cmsis_gcc.h ****   #define __UNALIGNED_UINT32_WRITE(addr, val)    (void)((((struct T_UINT32_WRITE *)(void *)(addr))-
 101:ThirdParty/CMSIS/Include/cmsis_gcc.h **** #endif
 102:ThirdParty/CMSIS/Include/cmsis_gcc.h **** #ifndef   __UNALIGNED_UINT32_READ
ARM GAS  /tmp/ccysU9ly.s 			page 4


 103:ThirdParty/CMSIS/Include/cmsis_gcc.h ****   #pragma GCC diagnostic push
 104:ThirdParty/CMSIS/Include/cmsis_gcc.h ****   #pragma GCC diagnostic ignored "-Wpacked"
 105:ThirdParty/CMSIS/Include/cmsis_gcc.h ****   #pragma GCC diagnostic ignored "-Wattributes"
 106:ThirdParty/CMSIS/Include/cmsis_gcc.h ****   __PACKED_STRUCT T_UINT32_READ { uint32_t v; };
 107:ThirdParty/CMSIS/Include/cmsis_gcc.h ****   #pragma GCC diagnostic pop
 108:ThirdParty/CMSIS/Include/cmsis_gcc.h ****   #define __UNALIGNED_UINT32_READ(addr)          (((const struct T_UINT32_READ *)(const void *)(add
 109:ThirdParty/CMSIS/Include/cmsis_gcc.h **** #endif
 110:ThirdParty/CMSIS/Include/cmsis_gcc.h **** #ifndef   __ALIGNED
 111:ThirdParty/CMSIS/Include/cmsis_gcc.h ****   #define __ALIGNED(x)                           __attribute__((aligned(x)))
 112:ThirdParty/CMSIS/Include/cmsis_gcc.h **** #endif
 113:ThirdParty/CMSIS/Include/cmsis_gcc.h **** #ifndef   __RESTRICT
 114:ThirdParty/CMSIS/Include/cmsis_gcc.h ****   #define __RESTRICT                             __restrict
 115:ThirdParty/CMSIS/Include/cmsis_gcc.h **** #endif
 116:ThirdParty/CMSIS/Include/cmsis_gcc.h **** 
 117:ThirdParty/CMSIS/Include/cmsis_gcc.h **** 
 118:ThirdParty/CMSIS/Include/cmsis_gcc.h **** /* ###########################  Core Function Access  ########################### */
 119:ThirdParty/CMSIS/Include/cmsis_gcc.h **** /** \ingroup  CMSIS_Core_FunctionInterface
 120:ThirdParty/CMSIS/Include/cmsis_gcc.h ****     \defgroup CMSIS_Core_RegAccFunctions CMSIS Core Register Access Functions
 121:ThirdParty/CMSIS/Include/cmsis_gcc.h ****   @{
 122:ThirdParty/CMSIS/Include/cmsis_gcc.h ****  */
 123:ThirdParty/CMSIS/Include/cmsis_gcc.h **** 
 124:ThirdParty/CMSIS/Include/cmsis_gcc.h **** /**
 125:ThirdParty/CMSIS/Include/cmsis_gcc.h ****   \brief   Enable IRQ Interrupts
 126:ThirdParty/CMSIS/Include/cmsis_gcc.h ****   \details Enables IRQ interrupts by clearing the I-bit in the CPSR.
 127:ThirdParty/CMSIS/Include/cmsis_gcc.h ****            Can only be executed in Privileged modes.
 128:ThirdParty/CMSIS/Include/cmsis_gcc.h ****  */
 129:ThirdParty/CMSIS/Include/cmsis_gcc.h **** __STATIC_FORCEINLINE void __enable_irq(void)
 130:ThirdParty/CMSIS/Include/cmsis_gcc.h **** {
 131:ThirdParty/CMSIS/Include/cmsis_gcc.h ****   __ASM volatile ("cpsie i" : : : "memory");
 132:ThirdParty/CMSIS/Include/cmsis_gcc.h **** }
 133:ThirdParty/CMSIS/Include/cmsis_gcc.h **** 
 134:ThirdParty/CMSIS/Include/cmsis_gcc.h **** 
 135:ThirdParty/CMSIS/Include/cmsis_gcc.h **** /**
 136:ThirdParty/CMSIS/Include/cmsis_gcc.h ****   \brief   Disable IRQ Interrupts
 137:ThirdParty/CMSIS/Include/cmsis_gcc.h ****   \details Disables IRQ interrupts by setting the I-bit in the CPSR.
 138:ThirdParty/CMSIS/Include/cmsis_gcc.h ****            Can only be executed in Privileged modes.
 139:ThirdParty/CMSIS/Include/cmsis_gcc.h ****  */
 140:ThirdParty/CMSIS/Include/cmsis_gcc.h **** __STATIC_FORCEINLINE void __disable_irq(void)
 141:ThirdParty/CMSIS/Include/cmsis_gcc.h **** {
 142:ThirdParty/CMSIS/Include/cmsis_gcc.h ****   __ASM volatile ("cpsid i" : : : "memory");
 143:ThirdParty/CMSIS/Include/cmsis_gcc.h **** }
 144:ThirdParty/CMSIS/Include/cmsis_gcc.h **** 
 145:ThirdParty/CMSIS/Include/cmsis_gcc.h **** 
 146:ThirdParty/CMSIS/Include/cmsis_gcc.h **** /**
 147:ThirdParty/CMSIS/Include/cmsis_gcc.h ****   \brief   Get Control Register
 148:ThirdParty/CMSIS/Include/cmsis_gcc.h ****   \details Returns the content of the Control Register.
 149:ThirdParty/CMSIS/Include/cmsis_gcc.h ****   \return               Control Register value
 150:ThirdParty/CMSIS/Include/cmsis_gcc.h ****  */
 151:ThirdParty/CMSIS/Include/cmsis_gcc.h **** __STATIC_FORCEINLINE uint32_t __get_CONTROL(void)
 152:ThirdParty/CMSIS/Include/cmsis_gcc.h **** {
 153:ThirdParty/CMSIS/Include/cmsis_gcc.h ****   uint32_t result;
 154:ThirdParty/CMSIS/Include/cmsis_gcc.h **** 
 155:ThirdParty/CMSIS/Include/cmsis_gcc.h ****   __ASM volatile ("MRS %0, control" : "=r" (result) );
 156:ThirdParty/CMSIS/Include/cmsis_gcc.h ****   return(result);
 157:ThirdParty/CMSIS/Include/cmsis_gcc.h **** }
 158:ThirdParty/CMSIS/Include/cmsis_gcc.h **** 
 159:ThirdParty/CMSIS/Include/cmsis_gcc.h **** 
ARM GAS  /tmp/ccysU9ly.s 			page 5


 160:ThirdParty/CMSIS/Include/cmsis_gcc.h **** #if (defined (__ARM_FEATURE_CMSE ) && (__ARM_FEATURE_CMSE == 3))
 161:ThirdParty/CMSIS/Include/cmsis_gcc.h **** /**
 162:ThirdParty/CMSIS/Include/cmsis_gcc.h ****   \brief   Get Control Register (non-secure)
 163:ThirdParty/CMSIS/Include/cmsis_gcc.h ****   \details Returns the content of the non-secure Control Register when in secure mode.
 164:ThirdParty/CMSIS/Include/cmsis_gcc.h ****   \return               non-secure Control Register value
 165:ThirdParty/CMSIS/Include/cmsis_gcc.h ****  */
 166:ThirdParty/CMSIS/Include/cmsis_gcc.h **** __STATIC_FORCEINLINE uint32_t __TZ_get_CONTROL_NS(void)
 167:ThirdParty/CMSIS/Include/cmsis_gcc.h **** {
 168:ThirdParty/CMSIS/Include/cmsis_gcc.h ****   uint32_t result;
 169:ThirdParty/CMSIS/Include/cmsis_gcc.h **** 
 170:ThirdParty/CMSIS/Include/cmsis_gcc.h ****   __ASM volatile ("MRS %0, control_ns" : "=r" (result) );
 171:ThirdParty/CMSIS/Include/cmsis_gcc.h ****   return(result);
 172:ThirdParty/CMSIS/Include/cmsis_gcc.h **** }
 173:ThirdParty/CMSIS/Include/cmsis_gcc.h **** #endif
 174:ThirdParty/CMSIS/Include/cmsis_gcc.h **** 
 175:ThirdParty/CMSIS/Include/cmsis_gcc.h **** 
 176:ThirdParty/CMSIS/Include/cmsis_gcc.h **** /**
 177:ThirdParty/CMSIS/Include/cmsis_gcc.h ****   \brief   Set Control Register
 178:ThirdParty/CMSIS/Include/cmsis_gcc.h ****   \details Writes the given value to the Control Register.
 179:ThirdParty/CMSIS/Include/cmsis_gcc.h ****   \param [in]    control  Control Register value to set
 180:ThirdParty/CMSIS/Include/cmsis_gcc.h ****  */
 181:ThirdParty/CMSIS/Include/cmsis_gcc.h **** __STATIC_FORCEINLINE void __set_CONTROL(uint32_t control)
 182:ThirdParty/CMSIS/Include/cmsis_gcc.h **** {
 183:ThirdParty/CMSIS/Include/cmsis_gcc.h ****   __ASM volatile ("MSR control, %0" : : "r" (control) : "memory");
 184:ThirdParty/CMSIS/Include/cmsis_gcc.h **** }
 185:ThirdParty/CMSIS/Include/cmsis_gcc.h **** 
 186:ThirdParty/CMSIS/Include/cmsis_gcc.h **** 
 187:ThirdParty/CMSIS/Include/cmsis_gcc.h **** #if (defined (__ARM_FEATURE_CMSE ) && (__ARM_FEATURE_CMSE == 3))
 188:ThirdParty/CMSIS/Include/cmsis_gcc.h **** /**
 189:ThirdParty/CMSIS/Include/cmsis_gcc.h ****   \brief   Set Control Register (non-secure)
 190:ThirdParty/CMSIS/Include/cmsis_gcc.h ****   \details Writes the given value to the non-secure Control Register when in secure state.
 191:ThirdParty/CMSIS/Include/cmsis_gcc.h ****   \param [in]    control  Control Register value to set
 192:ThirdParty/CMSIS/Include/cmsis_gcc.h ****  */
 193:ThirdParty/CMSIS/Include/cmsis_gcc.h **** __STATIC_FORCEINLINE void __TZ_set_CONTROL_NS(uint32_t control)
 194:ThirdParty/CMSIS/Include/cmsis_gcc.h **** {
 195:ThirdParty/CMSIS/Include/cmsis_gcc.h ****   __ASM volatile ("MSR control_ns, %0" : : "r" (control) : "memory");
 196:ThirdParty/CMSIS/Include/cmsis_gcc.h **** }
 197:ThirdParty/CMSIS/Include/cmsis_gcc.h **** #endif
 198:ThirdParty/CMSIS/Include/cmsis_gcc.h **** 
 199:ThirdParty/CMSIS/Include/cmsis_gcc.h **** 
 200:ThirdParty/CMSIS/Include/cmsis_gcc.h **** /**
 201:ThirdParty/CMSIS/Include/cmsis_gcc.h ****   \brief   Get IPSR Register
 202:ThirdParty/CMSIS/Include/cmsis_gcc.h ****   \details Returns the content of the IPSR Register.
 203:ThirdParty/CMSIS/Include/cmsis_gcc.h ****   \return               IPSR Register value
 204:ThirdParty/CMSIS/Include/cmsis_gcc.h ****  */
 205:ThirdParty/CMSIS/Include/cmsis_gcc.h **** __STATIC_FORCEINLINE uint32_t __get_IPSR(void)
 206:ThirdParty/CMSIS/Include/cmsis_gcc.h **** {
 207:ThirdParty/CMSIS/Include/cmsis_gcc.h ****   uint32_t result;
 208:ThirdParty/CMSIS/Include/cmsis_gcc.h **** 
 209:ThirdParty/CMSIS/Include/cmsis_gcc.h ****   __ASM volatile ("MRS %0, ipsr" : "=r" (result) );
 210:ThirdParty/CMSIS/Include/cmsis_gcc.h ****   return(result);
 211:ThirdParty/CMSIS/Include/cmsis_gcc.h **** }
 212:ThirdParty/CMSIS/Include/cmsis_gcc.h **** 
 213:ThirdParty/CMSIS/Include/cmsis_gcc.h **** 
 214:ThirdParty/CMSIS/Include/cmsis_gcc.h **** /**
 215:ThirdParty/CMSIS/Include/cmsis_gcc.h ****   \brief   Get APSR Register
 216:ThirdParty/CMSIS/Include/cmsis_gcc.h ****   \details Returns the content of the APSR Register.
ARM GAS  /tmp/ccysU9ly.s 			page 6


 217:ThirdParty/CMSIS/Include/cmsis_gcc.h ****   \return               APSR Register value
 218:ThirdParty/CMSIS/Include/cmsis_gcc.h ****  */
 219:ThirdParty/CMSIS/Include/cmsis_gcc.h **** __STATIC_FORCEINLINE uint32_t __get_APSR(void)
 220:ThirdParty/CMSIS/Include/cmsis_gcc.h **** {
 221:ThirdParty/CMSIS/Include/cmsis_gcc.h ****   uint32_t result;
 222:ThirdParty/CMSIS/Include/cmsis_gcc.h **** 
 223:ThirdParty/CMSIS/Include/cmsis_gcc.h ****   __ASM volatile ("MRS %0, apsr" : "=r" (result) );
 224:ThirdParty/CMSIS/Include/cmsis_gcc.h ****   return(result);
 225:ThirdParty/CMSIS/Include/cmsis_gcc.h **** }
 226:ThirdParty/CMSIS/Include/cmsis_gcc.h **** 
 227:ThirdParty/CMSIS/Include/cmsis_gcc.h **** 
 228:ThirdParty/CMSIS/Include/cmsis_gcc.h **** /**
 229:ThirdParty/CMSIS/Include/cmsis_gcc.h ****   \brief   Get xPSR Register
 230:ThirdParty/CMSIS/Include/cmsis_gcc.h ****   \details Returns the content of the xPSR Register.
 231:ThirdParty/CMSIS/Include/cmsis_gcc.h ****   \return               xPSR Register value
 232:ThirdParty/CMSIS/Include/cmsis_gcc.h ****  */
 233:ThirdParty/CMSIS/Include/cmsis_gcc.h **** __STATIC_FORCEINLINE uint32_t __get_xPSR(void)
 234:ThirdParty/CMSIS/Include/cmsis_gcc.h **** {
 235:ThirdParty/CMSIS/Include/cmsis_gcc.h ****   uint32_t result;
 236:ThirdParty/CMSIS/Include/cmsis_gcc.h **** 
 237:ThirdParty/CMSIS/Include/cmsis_gcc.h ****   __ASM volatile ("MRS %0, xpsr" : "=r" (result) );
 238:ThirdParty/CMSIS/Include/cmsis_gcc.h ****   return(result);
 239:ThirdParty/CMSIS/Include/cmsis_gcc.h **** }
 240:ThirdParty/CMSIS/Include/cmsis_gcc.h **** 
 241:ThirdParty/CMSIS/Include/cmsis_gcc.h **** 
 242:ThirdParty/CMSIS/Include/cmsis_gcc.h **** /**
 243:ThirdParty/CMSIS/Include/cmsis_gcc.h ****   \brief   Get Process Stack Pointer
 244:ThirdParty/CMSIS/Include/cmsis_gcc.h ****   \details Returns the current value of the Process Stack Pointer (PSP).
 245:ThirdParty/CMSIS/Include/cmsis_gcc.h ****   \return               PSP Register value
 246:ThirdParty/CMSIS/Include/cmsis_gcc.h ****  */
 247:ThirdParty/CMSIS/Include/cmsis_gcc.h **** __STATIC_FORCEINLINE uint32_t __get_PSP(void)
 248:ThirdParty/CMSIS/Include/cmsis_gcc.h **** {
 249:ThirdParty/CMSIS/Include/cmsis_gcc.h ****   uint32_t result;
 250:ThirdParty/CMSIS/Include/cmsis_gcc.h **** 
 251:ThirdParty/CMSIS/Include/cmsis_gcc.h ****   __ASM volatile ("MRS %0, psp"  : "=r" (result) );
 252:ThirdParty/CMSIS/Include/cmsis_gcc.h ****   return(result);
 253:ThirdParty/CMSIS/Include/cmsis_gcc.h **** }
 254:ThirdParty/CMSIS/Include/cmsis_gcc.h **** 
 255:ThirdParty/CMSIS/Include/cmsis_gcc.h **** 
 256:ThirdParty/CMSIS/Include/cmsis_gcc.h **** #if (defined (__ARM_FEATURE_CMSE ) && (__ARM_FEATURE_CMSE == 3))
 257:ThirdParty/CMSIS/Include/cmsis_gcc.h **** /**
 258:ThirdParty/CMSIS/Include/cmsis_gcc.h ****   \brief   Get Process Stack Pointer (non-secure)
 259:ThirdParty/CMSIS/Include/cmsis_gcc.h ****   \details Returns the current value of the non-secure Process Stack Pointer (PSP) when in secure s
 260:ThirdParty/CMSIS/Include/cmsis_gcc.h ****   \return               PSP Register value
 261:ThirdParty/CMSIS/Include/cmsis_gcc.h ****  */
 262:ThirdParty/CMSIS/Include/cmsis_gcc.h **** __STATIC_FORCEINLINE uint32_t __TZ_get_PSP_NS(void)
 263:ThirdParty/CMSIS/Include/cmsis_gcc.h **** {
 264:ThirdParty/CMSIS/Include/cmsis_gcc.h ****   uint32_t result;
 265:ThirdParty/CMSIS/Include/cmsis_gcc.h **** 
 266:ThirdParty/CMSIS/Include/cmsis_gcc.h ****   __ASM volatile ("MRS %0, psp_ns"  : "=r" (result) );
 267:ThirdParty/CMSIS/Include/cmsis_gcc.h ****   return(result);
 268:ThirdParty/CMSIS/Include/cmsis_gcc.h **** }
 269:ThirdParty/CMSIS/Include/cmsis_gcc.h **** #endif
 270:ThirdParty/CMSIS/Include/cmsis_gcc.h **** 
 271:ThirdParty/CMSIS/Include/cmsis_gcc.h **** 
 272:ThirdParty/CMSIS/Include/cmsis_gcc.h **** /**
 273:ThirdParty/CMSIS/Include/cmsis_gcc.h ****   \brief   Set Process Stack Pointer
ARM GAS  /tmp/ccysU9ly.s 			page 7


 274:ThirdParty/CMSIS/Include/cmsis_gcc.h ****   \details Assigns the given value to the Process Stack Pointer (PSP).
 275:ThirdParty/CMSIS/Include/cmsis_gcc.h ****   \param [in]    topOfProcStack  Process Stack Pointer value to set
 276:ThirdParty/CMSIS/Include/cmsis_gcc.h ****  */
 277:ThirdParty/CMSIS/Include/cmsis_gcc.h **** __STATIC_FORCEINLINE void __set_PSP(uint32_t topOfProcStack)
 278:ThirdParty/CMSIS/Include/cmsis_gcc.h **** {
 279:ThirdParty/CMSIS/Include/cmsis_gcc.h ****   __ASM volatile ("MSR psp, %0" : : "r" (topOfProcStack) : );
 280:ThirdParty/CMSIS/Include/cmsis_gcc.h **** }
 281:ThirdParty/CMSIS/Include/cmsis_gcc.h **** 
 282:ThirdParty/CMSIS/Include/cmsis_gcc.h **** 
 283:ThirdParty/CMSIS/Include/cmsis_gcc.h **** #if (defined (__ARM_FEATURE_CMSE ) && (__ARM_FEATURE_CMSE == 3))
 284:ThirdParty/CMSIS/Include/cmsis_gcc.h **** /**
 285:ThirdParty/CMSIS/Include/cmsis_gcc.h ****   \brief   Set Process Stack Pointer (non-secure)
 286:ThirdParty/CMSIS/Include/cmsis_gcc.h ****   \details Assigns the given value to the non-secure Process Stack Pointer (PSP) when in secure sta
 287:ThirdParty/CMSIS/Include/cmsis_gcc.h ****   \param [in]    topOfProcStack  Process Stack Pointer value to set
 288:ThirdParty/CMSIS/Include/cmsis_gcc.h ****  */
 289:ThirdParty/CMSIS/Include/cmsis_gcc.h **** __STATIC_FORCEINLINE void __TZ_set_PSP_NS(uint32_t topOfProcStack)
 290:ThirdParty/CMSIS/Include/cmsis_gcc.h **** {
 291:ThirdParty/CMSIS/Include/cmsis_gcc.h ****   __ASM volatile ("MSR psp_ns, %0" : : "r" (topOfProcStack) : );
 292:ThirdParty/CMSIS/Include/cmsis_gcc.h **** }
 293:ThirdParty/CMSIS/Include/cmsis_gcc.h **** #endif
 294:ThirdParty/CMSIS/Include/cmsis_gcc.h **** 
 295:ThirdParty/CMSIS/Include/cmsis_gcc.h **** 
 296:ThirdParty/CMSIS/Include/cmsis_gcc.h **** /**
 297:ThirdParty/CMSIS/Include/cmsis_gcc.h ****   \brief   Get Main Stack Pointer
 298:ThirdParty/CMSIS/Include/cmsis_gcc.h ****   \details Returns the current value of the Main Stack Pointer (MSP).
 299:ThirdParty/CMSIS/Include/cmsis_gcc.h ****   \return               MSP Register value
 300:ThirdParty/CMSIS/Include/cmsis_gcc.h ****  */
 301:ThirdParty/CMSIS/Include/cmsis_gcc.h **** __STATIC_FORCEINLINE uint32_t __get_MSP(void)
 302:ThirdParty/CMSIS/Include/cmsis_gcc.h **** {
 303:ThirdParty/CMSIS/Include/cmsis_gcc.h ****   uint32_t result;
 304:ThirdParty/CMSIS/Include/cmsis_gcc.h **** 
 305:ThirdParty/CMSIS/Include/cmsis_gcc.h ****   __ASM volatile ("MRS %0, msp" : "=r" (result) );
 306:ThirdParty/CMSIS/Include/cmsis_gcc.h ****   return(result);
 307:ThirdParty/CMSIS/Include/cmsis_gcc.h **** }
 308:ThirdParty/CMSIS/Include/cmsis_gcc.h **** 
 309:ThirdParty/CMSIS/Include/cmsis_gcc.h **** 
 310:ThirdParty/CMSIS/Include/cmsis_gcc.h **** #if (defined (__ARM_FEATURE_CMSE ) && (__ARM_FEATURE_CMSE == 3))
 311:ThirdParty/CMSIS/Include/cmsis_gcc.h **** /**
 312:ThirdParty/CMSIS/Include/cmsis_gcc.h ****   \brief   Get Main Stack Pointer (non-secure)
 313:ThirdParty/CMSIS/Include/cmsis_gcc.h ****   \details Returns the current value of the non-secure Main Stack Pointer (MSP) when in secure stat
 314:ThirdParty/CMSIS/Include/cmsis_gcc.h ****   \return               MSP Register value
 315:ThirdParty/CMSIS/Include/cmsis_gcc.h ****  */
 316:ThirdParty/CMSIS/Include/cmsis_gcc.h **** __STATIC_FORCEINLINE uint32_t __TZ_get_MSP_NS(void)
 317:ThirdParty/CMSIS/Include/cmsis_gcc.h **** {
 318:ThirdParty/CMSIS/Include/cmsis_gcc.h ****   uint32_t result;
 319:ThirdParty/CMSIS/Include/cmsis_gcc.h **** 
 320:ThirdParty/CMSIS/Include/cmsis_gcc.h ****   __ASM volatile ("MRS %0, msp_ns" : "=r" (result) );
 321:ThirdParty/CMSIS/Include/cmsis_gcc.h ****   return(result);
 322:ThirdParty/CMSIS/Include/cmsis_gcc.h **** }
 323:ThirdParty/CMSIS/Include/cmsis_gcc.h **** #endif
 324:ThirdParty/CMSIS/Include/cmsis_gcc.h **** 
 325:ThirdParty/CMSIS/Include/cmsis_gcc.h **** 
 326:ThirdParty/CMSIS/Include/cmsis_gcc.h **** /**
 327:ThirdParty/CMSIS/Include/cmsis_gcc.h ****   \brief   Set Main Stack Pointer
 328:ThirdParty/CMSIS/Include/cmsis_gcc.h ****   \details Assigns the given value to the Main Stack Pointer (MSP).
 329:ThirdParty/CMSIS/Include/cmsis_gcc.h ****   \param [in]    topOfMainStack  Main Stack Pointer value to set
 330:ThirdParty/CMSIS/Include/cmsis_gcc.h ****  */
ARM GAS  /tmp/ccysU9ly.s 			page 8


 331:ThirdParty/CMSIS/Include/cmsis_gcc.h **** __STATIC_FORCEINLINE void __set_MSP(uint32_t topOfMainStack)
 332:ThirdParty/CMSIS/Include/cmsis_gcc.h **** {
 333:ThirdParty/CMSIS/Include/cmsis_gcc.h ****   __ASM volatile ("MSR msp, %0" : : "r" (topOfMainStack) : );
 334:ThirdParty/CMSIS/Include/cmsis_gcc.h **** }
 335:ThirdParty/CMSIS/Include/cmsis_gcc.h **** 
 336:ThirdParty/CMSIS/Include/cmsis_gcc.h **** 
 337:ThirdParty/CMSIS/Include/cmsis_gcc.h **** #if (defined (__ARM_FEATURE_CMSE ) && (__ARM_FEATURE_CMSE == 3))
 338:ThirdParty/CMSIS/Include/cmsis_gcc.h **** /**
 339:ThirdParty/CMSIS/Include/cmsis_gcc.h ****   \brief   Set Main Stack Pointer (non-secure)
 340:ThirdParty/CMSIS/Include/cmsis_gcc.h ****   \details Assigns the given value to the non-secure Main Stack Pointer (MSP) when in secure state.
 341:ThirdParty/CMSIS/Include/cmsis_gcc.h ****   \param [in]    topOfMainStack  Main Stack Pointer value to set
 342:ThirdParty/CMSIS/Include/cmsis_gcc.h ****  */
 343:ThirdParty/CMSIS/Include/cmsis_gcc.h **** __STATIC_FORCEINLINE void __TZ_set_MSP_NS(uint32_t topOfMainStack)
 344:ThirdParty/CMSIS/Include/cmsis_gcc.h **** {
 345:ThirdParty/CMSIS/Include/cmsis_gcc.h ****   __ASM volatile ("MSR msp_ns, %0" : : "r" (topOfMainStack) : );
 346:ThirdParty/CMSIS/Include/cmsis_gcc.h **** }
 347:ThirdParty/CMSIS/Include/cmsis_gcc.h **** #endif
 348:ThirdParty/CMSIS/Include/cmsis_gcc.h **** 
 349:ThirdParty/CMSIS/Include/cmsis_gcc.h **** 
 350:ThirdParty/CMSIS/Include/cmsis_gcc.h **** #if (defined (__ARM_FEATURE_CMSE ) && (__ARM_FEATURE_CMSE == 3))
 351:ThirdParty/CMSIS/Include/cmsis_gcc.h **** /**
 352:ThirdParty/CMSIS/Include/cmsis_gcc.h ****   \brief   Get Stack Pointer (non-secure)
 353:ThirdParty/CMSIS/Include/cmsis_gcc.h ****   \details Returns the current value of the non-secure Stack Pointer (SP) when in secure state.
 354:ThirdParty/CMSIS/Include/cmsis_gcc.h ****   \return               SP Register value
 355:ThirdParty/CMSIS/Include/cmsis_gcc.h ****  */
 356:ThirdParty/CMSIS/Include/cmsis_gcc.h **** __STATIC_FORCEINLINE uint32_t __TZ_get_SP_NS(void)
 357:ThirdParty/CMSIS/Include/cmsis_gcc.h **** {
 358:ThirdParty/CMSIS/Include/cmsis_gcc.h ****   uint32_t result;
 359:ThirdParty/CMSIS/Include/cmsis_gcc.h **** 
 360:ThirdParty/CMSIS/Include/cmsis_gcc.h ****   __ASM volatile ("MRS %0, sp_ns" : "=r" (result) );
 361:ThirdParty/CMSIS/Include/cmsis_gcc.h ****   return(result);
 362:ThirdParty/CMSIS/Include/cmsis_gcc.h **** }
 363:ThirdParty/CMSIS/Include/cmsis_gcc.h **** 
 364:ThirdParty/CMSIS/Include/cmsis_gcc.h **** 
 365:ThirdParty/CMSIS/Include/cmsis_gcc.h **** /**
 366:ThirdParty/CMSIS/Include/cmsis_gcc.h ****   \brief   Set Stack Pointer (non-secure)
 367:ThirdParty/CMSIS/Include/cmsis_gcc.h ****   \details Assigns the given value to the non-secure Stack Pointer (SP) when in secure state.
 368:ThirdParty/CMSIS/Include/cmsis_gcc.h ****   \param [in]    topOfStack  Stack Pointer value to set
 369:ThirdParty/CMSIS/Include/cmsis_gcc.h ****  */
 370:ThirdParty/CMSIS/Include/cmsis_gcc.h **** __STATIC_FORCEINLINE void __TZ_set_SP_NS(uint32_t topOfStack)
 371:ThirdParty/CMSIS/Include/cmsis_gcc.h **** {
 372:ThirdParty/CMSIS/Include/cmsis_gcc.h ****   __ASM volatile ("MSR sp_ns, %0" : : "r" (topOfStack) : );
 373:ThirdParty/CMSIS/Include/cmsis_gcc.h **** }
 374:ThirdParty/CMSIS/Include/cmsis_gcc.h **** #endif
 375:ThirdParty/CMSIS/Include/cmsis_gcc.h **** 
 376:ThirdParty/CMSIS/Include/cmsis_gcc.h **** 
 377:ThirdParty/CMSIS/Include/cmsis_gcc.h **** /**
 378:ThirdParty/CMSIS/Include/cmsis_gcc.h ****   \brief   Get Priority Mask
 379:ThirdParty/CMSIS/Include/cmsis_gcc.h ****   \details Returns the current state of the priority mask bit from the Priority Mask Register.
 380:ThirdParty/CMSIS/Include/cmsis_gcc.h ****   \return               Priority Mask value
 381:ThirdParty/CMSIS/Include/cmsis_gcc.h ****  */
 382:ThirdParty/CMSIS/Include/cmsis_gcc.h **** __STATIC_FORCEINLINE uint32_t __get_PRIMASK(void)
  39              		.loc 2 382 31 view .LVU2
  40              	.LBB429:
 383:ThirdParty/CMSIS/Include/cmsis_gcc.h **** {
 384:ThirdParty/CMSIS/Include/cmsis_gcc.h ****   uint32_t result;
  41              		.loc 2 384 3 view .LVU3
ARM GAS  /tmp/ccysU9ly.s 			page 9


 385:ThirdParty/CMSIS/Include/cmsis_gcc.h **** 
 386:ThirdParty/CMSIS/Include/cmsis_gcc.h ****   __ASM volatile ("MRS %0, primask" : "=r" (result) :: "memory");
  42              		.loc 2 386 3 view .LVU4
  43              		.syntax unified
  44              	@ 386 "ThirdParty/CMSIS/Include/cmsis_gcc.h" 1
  45 0000 EFF31080 		MRS r0, primask
  46              	@ 0 "" 2
  47              	.LVL0:
 387:ThirdParty/CMSIS/Include/cmsis_gcc.h ****   return(result);
  48              		.loc 2 387 3 view .LVU5
  49              		.loc 2 387 3 is_stmt 0 view .LVU6
  50              		.thumb
  51              		.syntax unified
  52              	.LBE429:
  53              	.LBE428:
  33:./Drivers/STM32/stm32_system.h ****     __disable_irq();
  54              		.loc 1 33 5 is_stmt 1 view .LVU7
  55              	.LBB430:
  56              	.LBI430:
 140:ThirdParty/CMSIS/Include/cmsis_gcc.h **** {
  57              		.loc 2 140 27 view .LVU8
  58              	.LBB431:
 142:ThirdParty/CMSIS/Include/cmsis_gcc.h **** }
  59              		.loc 2 142 3 view .LVU9
  60              		.syntax unified
  61              	@ 142 "ThirdParty/CMSIS/Include/cmsis_gcc.h" 1
  62 0004 72B6     		cpsid i
  63              	@ 0 "" 2
  64              		.thumb
  65              		.syntax unified
  66              	.LBE431:
  67              	.LBE430:
  34:./Drivers/STM32/stm32_system.h ****     return primask;
  68              		.loc 1 34 5 view .LVU10
  35:./Drivers/STM32/stm32_system.h **** }
  69              		.loc 1 35 1 is_stmt 0 view .LVU11
  70 0006 7047     		bx	lr
  71              		.cfi_endproc
  72              	.LFE1066:
  73              		.cantunwind
  74              		.fnend
  76              		.section	.text.cpu_exit_critical,"axG",%progbits,_ZN10Stm32Timer24start_synchronously_implILj3EJLj
  77              		.align	1
  78              		.p2align 2,,3
  79              		.syntax unified
  80              		.thumb
  81              		.thumb_func
  83              	cpu_exit_critical:
  84              		.fnstart
  85              	.LVL1:
  86              	.LFB1067:
  36:./Drivers/STM32/stm32_system.h **** 
  37:./Drivers/STM32/stm32_system.h **** static inline void cpu_exit_critical(uint32_t priority_mask) {
  87              		.loc 1 37 62 is_stmt 1 view -0
  88              		.cfi_startproc
  89              		@ args = 0, pretend = 0, frame = 0
  90              		@ frame_needed = 0, uses_anonymous_args = 0
ARM GAS  /tmp/ccysU9ly.s 			page 10


  91              		@ link register save eliminated.
  38:./Drivers/STM32/stm32_system.h ****     __set_PRIMASK(priority_mask);
  92              		.loc 1 38 5 view .LVU13
  93              	.LBB432:
  94              	.LBI432:
 388:ThirdParty/CMSIS/Include/cmsis_gcc.h **** }
 389:ThirdParty/CMSIS/Include/cmsis_gcc.h **** 
 390:ThirdParty/CMSIS/Include/cmsis_gcc.h **** 
 391:ThirdParty/CMSIS/Include/cmsis_gcc.h **** #if (defined (__ARM_FEATURE_CMSE ) && (__ARM_FEATURE_CMSE == 3))
 392:ThirdParty/CMSIS/Include/cmsis_gcc.h **** /**
 393:ThirdParty/CMSIS/Include/cmsis_gcc.h ****   \brief   Get Priority Mask (non-secure)
 394:ThirdParty/CMSIS/Include/cmsis_gcc.h ****   \details Returns the current state of the non-secure priority mask bit from the Priority Mask Reg
 395:ThirdParty/CMSIS/Include/cmsis_gcc.h ****   \return               Priority Mask value
 396:ThirdParty/CMSIS/Include/cmsis_gcc.h ****  */
 397:ThirdParty/CMSIS/Include/cmsis_gcc.h **** __STATIC_FORCEINLINE uint32_t __TZ_get_PRIMASK_NS(void)
 398:ThirdParty/CMSIS/Include/cmsis_gcc.h **** {
 399:ThirdParty/CMSIS/Include/cmsis_gcc.h ****   uint32_t result;
 400:ThirdParty/CMSIS/Include/cmsis_gcc.h **** 
 401:ThirdParty/CMSIS/Include/cmsis_gcc.h ****   __ASM volatile ("MRS %0, primask_ns" : "=r" (result) :: "memory");
 402:ThirdParty/CMSIS/Include/cmsis_gcc.h ****   return(result);
 403:ThirdParty/CMSIS/Include/cmsis_gcc.h **** }
 404:ThirdParty/CMSIS/Include/cmsis_gcc.h **** #endif
 405:ThirdParty/CMSIS/Include/cmsis_gcc.h **** 
 406:ThirdParty/CMSIS/Include/cmsis_gcc.h **** 
 407:ThirdParty/CMSIS/Include/cmsis_gcc.h **** /**
 408:ThirdParty/CMSIS/Include/cmsis_gcc.h ****   \brief   Set Priority Mask
 409:ThirdParty/CMSIS/Include/cmsis_gcc.h ****   \details Assigns the given value to the Priority Mask Register.
 410:ThirdParty/CMSIS/Include/cmsis_gcc.h ****   \param [in]    priMask  Priority Mask
 411:ThirdParty/CMSIS/Include/cmsis_gcc.h ****  */
 412:ThirdParty/CMSIS/Include/cmsis_gcc.h **** __STATIC_FORCEINLINE void __set_PRIMASK(uint32_t priMask)
  95              		.loc 2 412 27 view .LVU14
  96              	.LBB433:
 413:ThirdParty/CMSIS/Include/cmsis_gcc.h **** {
 414:ThirdParty/CMSIS/Include/cmsis_gcc.h ****   __ASM volatile ("MSR primask, %0" : : "r" (priMask) : "memory");
  97              		.loc 2 414 3 view .LVU15
  98              		.syntax unified
  99              	@ 414 "ThirdParty/CMSIS/Include/cmsis_gcc.h" 1
 100 0000 80F31088 		MSR primask, r0
 101              	@ 0 "" 2
 102              	.LVL2:
 103              		.loc 2 414 3 is_stmt 0 view .LVU16
 104              		.thumb
 105              		.syntax unified
 106              	.LBE433:
 107              	.LBE432:
  39:./Drivers/STM32/stm32_system.h **** }
 108              		.loc 1 39 1 view .LVU17
 109 0004 7047     		bx	lr
 110              		.cfi_endproc
 111              	.LFE1067:
 112              		.cantunwind
 113              		.fnend
 115 0006 00BF     		.section	.text._ZL8get_gpioj,"ax",%progbits
 116              		.align	1
 117              		.p2align 2,,3
 118              		.syntax unified
 119              		.thumb
ARM GAS  /tmp/ccysU9ly.s 			page 11


 120              		.thumb_func
 122              	_ZL8get_gpioj:
 123              		.fnstart
 124              	.LVL3:
 125              	.LFB5151:
 126              		.file 3 "MotorControl/odrive_main.h"
   1:MotorControl/odrive_main.h **** #ifndef __ODRIVE_MAIN_H
   2:MotorControl/odrive_main.h **** #define __ODRIVE_MAIN_H
   3:MotorControl/odrive_main.h **** 
   4:MotorControl/odrive_main.h **** // Hardware configuration
   5:MotorControl/odrive_main.h **** #include <board.h>
   6:MotorControl/odrive_main.h **** 
   7:MotorControl/odrive_main.h **** #ifdef __cplusplus
   8:MotorControl/odrive_main.h **** #include <communication/interface_usb.h>
   9:MotorControl/odrive_main.h **** #include <communication/interface_i2c.h>
  10:MotorControl/odrive_main.h **** #include <communication/interface_uart.h>
  11:MotorControl/odrive_main.h **** #include <task_timer.hpp>
  12:MotorControl/odrive_main.h **** extern "C" {
  13:MotorControl/odrive_main.h **** #endif
  14:MotorControl/odrive_main.h **** 
  15:MotorControl/odrive_main.h **** // OS includes
  16:MotorControl/odrive_main.h **** #include <cmsis_os.h>
  17:MotorControl/odrive_main.h **** 
  18:MotorControl/odrive_main.h **** // extern const float elec_rad_per_enc;
  19:MotorControl/odrive_main.h **** extern uint32_t _reboot_cookie;
  20:MotorControl/odrive_main.h **** 
  21:MotorControl/odrive_main.h **** extern uint64_t serial_number;
  22:MotorControl/odrive_main.h **** extern char serial_number_str[13];
  23:MotorControl/odrive_main.h **** 
  24:MotorControl/odrive_main.h **** #ifdef __cplusplus
  25:MotorControl/odrive_main.h **** }
  26:MotorControl/odrive_main.h **** 
  27:MotorControl/odrive_main.h **** typedef struct {
  28:MotorControl/odrive_main.h ****     bool fully_booted;
  29:MotorControl/odrive_main.h ****     uint32_t uptime; // [ms]
  30:MotorControl/odrive_main.h ****     uint32_t min_heap_space; // FreeRTOS heap [Bytes]
  31:MotorControl/odrive_main.h ****     uint32_t max_stack_usage_axis; // minimum remaining space since startup [Bytes]
  32:MotorControl/odrive_main.h ****     uint32_t max_stack_usage_usb;
  33:MotorControl/odrive_main.h ****     uint32_t max_stack_usage_uart;
  34:MotorControl/odrive_main.h ****     uint32_t max_stack_usage_startup;
  35:MotorControl/odrive_main.h ****     uint32_t max_stack_usage_can;
  36:MotorControl/odrive_main.h ****     uint32_t max_stack_usage_analog;
  37:MotorControl/odrive_main.h **** 
  38:MotorControl/odrive_main.h ****     uint32_t stack_size_axis;
  39:MotorControl/odrive_main.h ****     uint32_t stack_size_usb;
  40:MotorControl/odrive_main.h ****     uint32_t stack_size_uart;
  41:MotorControl/odrive_main.h ****     uint32_t stack_size_startup;
  42:MotorControl/odrive_main.h ****     uint32_t stack_size_can;
  43:MotorControl/odrive_main.h ****     uint32_t stack_size_analog;
  44:MotorControl/odrive_main.h **** 
  45:MotorControl/odrive_main.h ****     int32_t prio_axis;
  46:MotorControl/odrive_main.h ****     int32_t prio_usb;
  47:MotorControl/odrive_main.h ****     int32_t prio_uart;
  48:MotorControl/odrive_main.h ****     int32_t prio_startup;
  49:MotorControl/odrive_main.h ****     int32_t prio_can;
  50:MotorControl/odrive_main.h ****     int32_t prio_analog;
  51:MotorControl/odrive_main.h **** 
ARM GAS  /tmp/ccysU9ly.s 			page 12


  52:MotorControl/odrive_main.h ****     USBStats_t& usb = usb_stats_;
  53:MotorControl/odrive_main.h ****     I2CStats_t& i2c = i2c_stats_;
  54:MotorControl/odrive_main.h **** } SystemStats_t;
  55:MotorControl/odrive_main.h **** 
  56:MotorControl/odrive_main.h **** struct PWMMapping_t {
  57:MotorControl/odrive_main.h ****     endpoint_ref_t endpoint = {0, 0};
  58:MotorControl/odrive_main.h ****     float min = 0;
  59:MotorControl/odrive_main.h ****     float max = 0;
  60:MotorControl/odrive_main.h **** };
  61:MotorControl/odrive_main.h **** 
  62:MotorControl/odrive_main.h **** // @brief general user configurable board configuration
  63:MotorControl/odrive_main.h **** struct BoardConfig_t {
  64:MotorControl/odrive_main.h ****     ODriveIntf::GpioMode gpio_modes[GPIO_COUNT] = {
  65:MotorControl/odrive_main.h ****         DEFAULT_GPIO_MODES
  66:MotorControl/odrive_main.h ****     };
  67:MotorControl/odrive_main.h **** 
  68:MotorControl/odrive_main.h ****     bool enable_uart_a = true;
  69:MotorControl/odrive_main.h ****     bool enable_uart_b = false;
  70:MotorControl/odrive_main.h ****     bool enable_uart_c = false;
  71:MotorControl/odrive_main.h ****     uint32_t uart_a_baudrate = 115200;
  72:MotorControl/odrive_main.h ****     uint32_t uart_b_baudrate = 115200;
  73:MotorControl/odrive_main.h ****     uint32_t uart_c_baudrate = 115200;
  74:MotorControl/odrive_main.h ****     bool enable_can_a = true;
  75:MotorControl/odrive_main.h ****     bool enable_i2c_a = false;
  76:MotorControl/odrive_main.h ****     ODriveIntf::StreamProtocolType uart0_protocol = ODriveIntf::STREAM_PROTOCOL_TYPE_ASCII_AND_STDO
  77:MotorControl/odrive_main.h ****     ODriveIntf::StreamProtocolType uart1_protocol = ODriveIntf::STREAM_PROTOCOL_TYPE_ASCII_AND_STDO
  78:MotorControl/odrive_main.h ****     ODriveIntf::StreamProtocolType uart2_protocol = ODriveIntf::STREAM_PROTOCOL_TYPE_ASCII_AND_STDO
  79:MotorControl/odrive_main.h ****     ODriveIntf::StreamProtocolType usb_cdc_protocol = ODriveIntf::STREAM_PROTOCOL_TYPE_ASCII_AND_ST
  80:MotorControl/odrive_main.h ****     float max_regen_current = 0.0f;
  81:MotorControl/odrive_main.h ****     float brake_resistance = DEFAULT_BRAKE_RESISTANCE;
  82:MotorControl/odrive_main.h ****     bool enable_brake_resistor = false;
  83:MotorControl/odrive_main.h ****     float dc_bus_undervoltage_trip_level = DEFAULT_MIN_DC_VOLTAGE;      //<! [V] minimum voltage be
  84:MotorControl/odrive_main.h ****     float dc_bus_overvoltage_trip_level = 1.07f * HW_VERSION_VOLTAGE;   //<! [V] maximum voltage ab
  85:MotorControl/odrive_main.h ****                                                                         //<! This protects against 
  86:MotorControl/odrive_main.h ****                                                                         //<! the brake power if the
  87:MotorControl/odrive_main.h ****                                                                         //<! The default is 26V for
  88:MotorControl/odrive_main.h **** 
  89:MotorControl/odrive_main.h ****     /**
  90:MotorControl/odrive_main.h ****      * If enabled, if the measured DC voltage exceeds `dc_bus_overvoltage_ramp_start`,
  91:MotorControl/odrive_main.h ****      * the ODrive will sink more power than usual into the the brake resistor
  92:MotorControl/odrive_main.h ****      * in an attempt to bring the voltage down again.
  93:MotorControl/odrive_main.h ****      * 
  94:MotorControl/odrive_main.h ****      * The brake duty cycle is increased by the following amount:
  95:MotorControl/odrive_main.h ****      *  vbus_voltage == dc_bus_overvoltage_ramp_start  =>  brake_duty_cycle += 0%
  96:MotorControl/odrive_main.h ****      *  vbus_voltage == dc_bus_overvoltage_ramp_end  =>  brake_duty_cycle += 100%
  97:MotorControl/odrive_main.h ****      * 
  98:MotorControl/odrive_main.h ****      * Remarks:
  99:MotorControl/odrive_main.h ****      *  - This feature is active even when all motors are disarmed.
 100:MotorControl/odrive_main.h ****      *  - This feature is disabled if `brake_resistance` is non-positive.
 101:MotorControl/odrive_main.h ****      */
 102:MotorControl/odrive_main.h ****     bool enable_dc_bus_overvoltage_ramp = false;
 103:MotorControl/odrive_main.h ****     float dc_bus_overvoltage_ramp_start = 1.07f * HW_VERSION_VOLTAGE; //!< See `enable_dc_bus_overv
 104:MotorControl/odrive_main.h ****                                                                       //!< Do not set this lower th
 105:MotorControl/odrive_main.h ****                                                                       //!< unless you like fried br
 106:MotorControl/odrive_main.h ****     float dc_bus_overvoltage_ramp_end = 1.07f * HW_VERSION_VOLTAGE; //!< See `enable_dc_bus_overvol
 107:MotorControl/odrive_main.h ****                                                                     //!< Must be larger than `dc_bu
 108:MotorControl/odrive_main.h ****                                                                     //!< otherwise the ramp feature
ARM GAS  /tmp/ccysU9ly.s 			page 13


 109:MotorControl/odrive_main.h **** 
 110:MotorControl/odrive_main.h ****     float dc_max_positive_current = INFINITY; // Max current [A] the power supply can source
 111:MotorControl/odrive_main.h ****     float dc_max_negative_current = -0.01f; // Max current [A] the power supply can sink. You most 
 112:MotorControl/odrive_main.h ****     uint32_t error_gpio_pin = DEFAULT_ERROR_PIN;
 113:MotorControl/odrive_main.h ****     PWMMapping_t pwm_mappings[4];
 114:MotorControl/odrive_main.h ****     PWMMapping_t analog_mappings[GPIO_COUNT];
 115:MotorControl/odrive_main.h **** };
 116:MotorControl/odrive_main.h **** 
 117:MotorControl/odrive_main.h **** struct TaskTimes {
 118:MotorControl/odrive_main.h ****     TaskTimer sampling;
 119:MotorControl/odrive_main.h ****     TaskTimer control_loop_misc;
 120:MotorControl/odrive_main.h ****     TaskTimer control_loop_checks;
 121:MotorControl/odrive_main.h ****     TaskTimer dc_calib_wait;
 122:MotorControl/odrive_main.h **** };
 123:MotorControl/odrive_main.h **** 
 124:MotorControl/odrive_main.h **** 
 125:MotorControl/odrive_main.h **** // Forward Declarations
 126:MotorControl/odrive_main.h **** class Axis;
 127:MotorControl/odrive_main.h **** class Motor;
 128:MotorControl/odrive_main.h **** 
 129:MotorControl/odrive_main.h **** // TODO: move
 130:MotorControl/odrive_main.h **** // this is technically not thread-safe but practically it might be
 131:MotorControl/odrive_main.h **** #define DEFINE_ENUM_FLAG_OPERATORS(ENUMTYPE) \
 132:MotorControl/odrive_main.h **** inline ENUMTYPE operator | (ENUMTYPE a, ENUMTYPE b) { return static_cast<ENUMTYPE>(static_cast<std:
 133:MotorControl/odrive_main.h **** inline ENUMTYPE operator & (ENUMTYPE a, ENUMTYPE b) { return static_cast<ENUMTYPE>(static_cast<std:
 134:MotorControl/odrive_main.h **** inline ENUMTYPE operator ^ (ENUMTYPE a, ENUMTYPE b) { return static_cast<ENUMTYPE>(static_cast<std:
 135:MotorControl/odrive_main.h **** inline ENUMTYPE &operator |= (ENUMTYPE &a, ENUMTYPE b) { return reinterpret_cast<ENUMTYPE&>(reinter
 136:MotorControl/odrive_main.h **** inline ENUMTYPE &operator &= (ENUMTYPE &a, ENUMTYPE b) { return reinterpret_cast<ENUMTYPE&>(reinter
 137:MotorControl/odrive_main.h **** inline ENUMTYPE &operator ^= (ENUMTYPE &a, ENUMTYPE b) { return reinterpret_cast<ENUMTYPE&>(reinter
 138:MotorControl/odrive_main.h **** inline ENUMTYPE operator ~ (ENUMTYPE a) { return static_cast<ENUMTYPE>(~static_cast<std::underlying
 139:MotorControl/odrive_main.h **** 
 140:MotorControl/odrive_main.h **** #include "autogen/interfaces.hpp"
 141:MotorControl/odrive_main.h **** 
 142:MotorControl/odrive_main.h **** // ODrive specific includes
 143:MotorControl/odrive_main.h **** #include <utils.hpp>
 144:MotorControl/odrive_main.h **** #include <low_level.h>
 145:MotorControl/odrive_main.h **** #include <encoder.hpp>
 146:MotorControl/odrive_main.h **** #include <sensorless_estimator.hpp>
 147:MotorControl/odrive_main.h **** #include <controller.hpp>
 148:MotorControl/odrive_main.h **** #include <current_limiter.hpp>
 149:MotorControl/odrive_main.h **** #include <thermistor.hpp>
 150:MotorControl/odrive_main.h **** #include <trapTraj.hpp>
 151:MotorControl/odrive_main.h **** #include <endstop.hpp>
 152:MotorControl/odrive_main.h **** #include <mechanical_brake.hpp>
 153:MotorControl/odrive_main.h **** #include <axis.hpp>
 154:MotorControl/odrive_main.h **** #include <oscilloscope.hpp>
 155:MotorControl/odrive_main.h **** #include <communication/communication.h>
 156:MotorControl/odrive_main.h **** #include <communication/can/odrive_can.hpp>
 157:MotorControl/odrive_main.h **** 
 158:MotorControl/odrive_main.h **** // Defined in autogen/version.c based on git-derived version numbers
 159:MotorControl/odrive_main.h **** extern "C" {
 160:MotorControl/odrive_main.h **** extern const unsigned char fw_version_major_;
 161:MotorControl/odrive_main.h **** extern const unsigned char fw_version_minor_;
 162:MotorControl/odrive_main.h **** extern const unsigned char fw_version_revision_;
 163:MotorControl/odrive_main.h **** extern const unsigned char fw_version_unreleased_;
 164:MotorControl/odrive_main.h **** }
 165:MotorControl/odrive_main.h **** 
ARM GAS  /tmp/ccysU9ly.s 			page 14


 166:MotorControl/odrive_main.h **** static Stm32Gpio get_gpio(size_t gpio_num) {
 127              		.loc 3 166 44 is_stmt 1 view -0
 128              		.cfi_startproc
 129              		@ args = 0, pretend = 0, frame = 0
 130              		@ frame_needed = 0, uses_anonymous_args = 0
 131              		@ link register save eliminated.
 132              		.loc 3 166 44 is_stmt 0 view .LVU19
 133 0000 0346     		mov	r3, r0
 167:MotorControl/odrive_main.h ****     return (gpio_num < GPIO_COUNT) ? gpios[gpio_num] : GPIO_COUNT ? gpios[0] : Stm32Gpio::none;
 134              		.loc 3 167 5 is_stmt 1 view .LVU20
 135              		.loc 3 167 36 is_stmt 0 view .LVU21
 136 0002 1029     		cmp	r1, #16
 137 0004 07D8     		bhi	.L5
 138              		.loc 3 167 36 discriminator 1 view .LVU22
 139 0006 054A     		ldr	r2, .L6
 140 0008 02EBC101 		add	r1, r2, r1, lsl #3
 141              	.LVL4:
 142              	.L4:
 143              		.loc 3 167 91 discriminator 4 view .LVU23
 144 000c 03C9     		ldm	r1, {r0, r1}
 145              	.LVL5:
 146              		.loc 3 167 91 discriminator 4 view .LVU24
 147 000e 83E80300 		stm	r3, {r0, r1}
 168:MotorControl/odrive_main.h **** }
 148              		.loc 3 168 1 discriminator 4 view .LVU25
 149 0012 1846     		mov	r0, r3
 150 0014 7047     		bx	lr
 151              	.LVL6:
 152              	.L5:
 167:MotorControl/odrive_main.h ****     return (gpio_num < GPIO_COUNT) ? gpios[gpio_num] : GPIO_COUNT ? gpios[0] : Stm32Gpio::none;
 153              		.loc 3 167 36 view .LVU26
 154 0016 0149     		ldr	r1, .L6
 155              	.LVL7:
 167:MotorControl/odrive_main.h ****     return (gpio_num < GPIO_COUNT) ? gpios[gpio_num] : GPIO_COUNT ? gpios[0] : Stm32Gpio::none;
 156              		.loc 3 167 36 view .LVU27
 157 0018 F8E7     		b	.L4
 158              	.L7:
 159 001a 00BF     		.align	2
 160              	.L6:
 161 001c 00000000 		.word	.LANCHOR0
 162              		.cfi_endproc
 163              	.LFE5151:
 164              		.cantunwind
 165              		.fnend
 167              		.section	.text.__tcf_0,"ax",%progbits
 168              		.align	1
 169              		.p2align 2,,3
 170              		.syntax unified
 171              		.thumb
 172              		.thumb_func
 174              	__tcf_0:
 175              		.fnstart
 176              	.LFB6267:
 177              		.file 4 "Board/v3/board.cpp"
   1:Board/v3/board.cpp **** /*
   2:Board/v3/board.cpp **** * @brief Contains board specific variables and initialization functions
   3:Board/v3/board.cpp **** */
ARM GAS  /tmp/ccysU9ly.s 			page 15


   4:Board/v3/board.cpp **** 
   5:Board/v3/board.cpp **** #include <board.h>
   6:Board/v3/board.cpp **** 
   7:Board/v3/board.cpp **** #include <odrive_main.h>
   8:Board/v3/board.cpp **** #include <low_level.h>
   9:Board/v3/board.cpp **** 
  10:Board/v3/board.cpp **** #include <Drivers/STM32/stm32_timer.hpp>
  11:Board/v3/board.cpp **** 
  12:Board/v3/board.cpp **** #include <adc.h>
  13:Board/v3/board.cpp **** #include <dma.h>
  14:Board/v3/board.cpp **** #include <tim.h>
  15:Board/v3/board.cpp **** #include <usart.h>
  16:Board/v3/board.cpp **** #include <freertos_vars.h>
  17:Board/v3/board.cpp **** 
  18:Board/v3/board.cpp **** // this should technically be in task_timer.cpp but let's not make a one-line file
  19:Board/v3/board.cpp **** bool TaskTimer::enabled = false;
  20:Board/v3/board.cpp **** 
  21:Board/v3/board.cpp **** extern "C" void SystemClock_Config(void); // defined in main.c generated by CubeMX
  22:Board/v3/board.cpp **** 
  23:Board/v3/board.cpp **** #define ControlLoop_IRQHandler OTG_HS_IRQHandler
  24:Board/v3/board.cpp **** #define ControlLoop_IRQn OTG_HS_IRQn
  25:Board/v3/board.cpp **** 
  26:Board/v3/board.cpp **** // This array is placed at the very start of the ram (0x20000000) and will be
  27:Board/v3/board.cpp **** // used during manufacturing to test the struct that will go to the OTP before
  28:Board/v3/board.cpp **** // _actually_ putting anything into OTP. This avoids bulk-destroying STM32's if
  29:Board/v3/board.cpp **** // we introduce unintended breakage in our manufacturing scripts.
  30:Board/v3/board.cpp **** uint8_t __attribute__((section(".testdata"))) fake_otp[FLASH_OTP_END + 1 - FLASH_OTP_BASE] = {0, 0,
  31:Board/v3/board.cpp **** 
  32:Board/v3/board.cpp **** Stm32SpiArbiter spi3_arbiter{&hspi3};
  33:Board/v3/board.cpp **** Stm32SpiArbiter& ext_spi_arbiter = spi3_arbiter;
  34:Board/v3/board.cpp **** 
  35:Board/v3/board.cpp **** UART_HandleTypeDef* uart_a = &huart4;
  36:Board/v3/board.cpp **** UART_HandleTypeDef* uart_b = &huart2; // TODO: this could be supported in ODrive v3.6 (or similar) 
  37:Board/v3/board.cpp **** UART_HandleTypeDef* uart_c = nullptr;
  38:Board/v3/board.cpp **** 
  39:Board/v3/board.cpp **** Drv8301 m0_gate_driver{
  40:Board/v3/board.cpp ****     &spi3_arbiter,
  41:Board/v3/board.cpp ****     {M0_nCS_GPIO_Port, M0_nCS_Pin}, // nCS
  42:Board/v3/board.cpp ****     {}, // EN pin (shared between both motors, therefore we actuate it outside of the drv8301 drive
  43:Board/v3/board.cpp ****     {nFAULT_GPIO_Port, nFAULT_Pin} // nFAULT pin (shared between both motors)
  44:Board/v3/board.cpp **** };
  45:Board/v3/board.cpp **** 
  46:Board/v3/board.cpp **** Drv8301 m1_gate_driver{
  47:Board/v3/board.cpp ****     &spi3_arbiter,
  48:Board/v3/board.cpp ****     {M1_nCS_GPIO_Port, M1_nCS_Pin}, // nCS
  49:Board/v3/board.cpp ****     {}, // EN pin (shared between both motors, therefore we actuate it outside of the drv8301 drive
  50:Board/v3/board.cpp ****     {nFAULT_GPIO_Port, nFAULT_Pin} // nFAULT pin (shared between both motors)
  51:Board/v3/board.cpp **** };
  52:Board/v3/board.cpp **** 
  53:Board/v3/board.cpp **** const float fet_thermistor_poly_coeffs[] =
  54:Board/v3/board.cpp ****     {363.93910201f, -462.15369634f, 307.55129571f, -27.72569531f};
  55:Board/v3/board.cpp **** const size_t fet_thermistor_num_coeffs = sizeof(fet_thermistor_poly_coeffs)/sizeof(fet_thermistor_p
  56:Board/v3/board.cpp **** 
  57:Board/v3/board.cpp **** OnboardThermistorCurrentLimiter fet_thermistors[AXIS_COUNT] = {
 178              		.loc 4 57 33 is_stmt 1 view -0
 179              		.cfi_startproc
 180              		@ args = 0, pretend = 0, frame = 0
ARM GAS  /tmp/ccysU9ly.s 			page 16


 181              		@ frame_needed = 0, uses_anonymous_args = 0
 182 0000 10B5     		push	{r4, lr}
 183              	.LCFI0:
 184              		.cfi_def_cfa_offset 8
 185              		.cfi_offset 4, -8
 186              		.cfi_offset 14, -4
 187              		.loc 4 57 33 is_stmt 0 view .LVU29
 188 0002 054C     		ldr	r4, .L13
 189 0004 04E0     		b	.L10
 190              	.L12:
 191              		.loc 4 57 33 discriminator 3 view .LVU30
 192 0006 54F8383D 		ldr	r3, [r4, #-56]!
 193 000a 1B68     		ldr	r3, [r3]
 194 000c 2046     		mov	r0, r4
 195 000e 9847     		blx	r3
 196              	.LVL8:
 197              	.L10:
 198              		.loc 4 57 33 discriminator 4 view .LVU31
 199 0010 024B     		ldr	r3, .L13+4
 200 0012 9C42     		cmp	r4, r3
 201 0014 F7D1     		bne	.L12
 202              		.loc 4 57 33 view .LVU32
 203 0016 10BD     		pop	{r4, pc}
 204              	.L14:
 205              		.align	2
 206              	.L13:
 207 0018 70000000 		.word	.LANCHOR1+112
 208 001c 00000000 		.word	.LANCHOR1
 209              		.cfi_endproc
 210              	.LFE6267:
 211              		.cantunwind
 212              		.fnend
 214              		.section	.text.__tcf_1,"ax",%progbits
 215              		.align	1
 216              		.p2align 2,,3
 217              		.syntax unified
 218              		.thumb
 219              		.thumb_func
 221              	__tcf_1:
 222              		.fnstart
 223              	.LFB6268:
  58:Board/v3/board.cpp ****     {
  59:Board/v3/board.cpp ****         15, // adc_channel
  60:Board/v3/board.cpp ****         &fet_thermistor_poly_coeffs[0], // coefficients
  61:Board/v3/board.cpp ****         fet_thermistor_num_coeffs // num_coeffs
  62:Board/v3/board.cpp ****     }, {
  63:Board/v3/board.cpp **** #if HW_VERSION_MAJOR == 3 && HW_VERSION_MINOR >= 3
  64:Board/v3/board.cpp ****         4, // adc_channel
  65:Board/v3/board.cpp **** #else
  66:Board/v3/board.cpp ****         1, // adc_channel
  67:Board/v3/board.cpp **** #endif
  68:Board/v3/board.cpp ****         &fet_thermistor_poly_coeffs[0], // coefficients
  69:Board/v3/board.cpp ****         fet_thermistor_num_coeffs // num_coeffs
  70:Board/v3/board.cpp ****     }
  71:Board/v3/board.cpp **** };
  72:Board/v3/board.cpp **** 
  73:Board/v3/board.cpp **** OffboardThermistorCurrentLimiter motor_thermistors[AXIS_COUNT];
ARM GAS  /tmp/ccysU9ly.s 			page 17


 224              		.loc 4 73 34 is_stmt 1 view -0
 225              		.cfi_startproc
 226              		@ args = 0, pretend = 0, frame = 0
 227              		@ frame_needed = 0, uses_anonymous_args = 0
 228 0000 10B5     		push	{r4, lr}
 229              	.LCFI1:
 230              		.cfi_def_cfa_offset 8
 231              		.cfi_offset 4, -8
 232              		.cfi_offset 14, -4
 233              		.loc 4 73 34 is_stmt 0 view .LVU34
 234 0002 054C     		ldr	r4, .L20
 235 0004 04E0     		b	.L17
 236              	.L19:
 237              		.loc 4 73 34 discriminator 3 view .LVU35
 238 0006 54F8503D 		ldr	r3, [r4, #-80]!
 239 000a 1B68     		ldr	r3, [r3]
 240 000c 2046     		mov	r0, r4
 241 000e 9847     		blx	r3
 242              	.LVL9:
 243              	.L17:
 244              		.loc 4 73 34 discriminator 4 view .LVU36
 245 0010 024B     		ldr	r3, .L20+4
 246 0012 9C42     		cmp	r4, r3
 247 0014 F7D1     		bne	.L19
 248              		.loc 4 73 34 view .LVU37
 249 0016 10BD     		pop	{r4, pc}
 250              	.L21:
 251              		.align	2
 252              	.L20:
 253 0018 A0000000 		.word	.LANCHOR2+160
 254 001c 00000000 		.word	.LANCHOR2
 255              		.cfi_endproc
 256              	.LFE6268:
 257              		.cantunwind
 258              		.fnend
 260              		.section	.text._Z41__static_initialization_and_destruction_0ii,"ax",%progbits
 261              		.align	1
 262              		.p2align 2,,3
 263              		.syntax unified
 264              		.thumb
 265              		.thumb_func
 267              	_Z41__static_initialization_and_destruction_0ii:
 268              		.fnstart
 269              	.LVL10:
 270              	.LFB6266:
  74:Board/v3/board.cpp **** 
  75:Board/v3/board.cpp **** Motor motors[AXIS_COUNT] = {
  76:Board/v3/board.cpp ****     {
  77:Board/v3/board.cpp ****         &htim1, // timer
  78:Board/v3/board.cpp ****         0b110, // current_sensor_mask
  79:Board/v3/board.cpp ****         1.0f / SHUNT_RESISTANCE, // shunt_conductance [S]
  80:Board/v3/board.cpp ****         m0_gate_driver, // gate_driver
  81:Board/v3/board.cpp ****         m0_gate_driver, // opamp
  82:Board/v3/board.cpp ****         fet_thermistors[0],
  83:Board/v3/board.cpp ****         motor_thermistors[0]
  84:Board/v3/board.cpp ****     },
  85:Board/v3/board.cpp ****     {
ARM GAS  /tmp/ccysU9ly.s 			page 18


  86:Board/v3/board.cpp ****         &htim8, // timer
  87:Board/v3/board.cpp ****         0b110, // current_sensor_mask
  88:Board/v3/board.cpp ****         1.0f / SHUNT_RESISTANCE, // shunt_conductance [S]
  89:Board/v3/board.cpp ****         m1_gate_driver, // gate_driver
  90:Board/v3/board.cpp ****         m1_gate_driver, // opamp
  91:Board/v3/board.cpp ****         fet_thermistors[1],
  92:Board/v3/board.cpp ****         motor_thermistors[1]
  93:Board/v3/board.cpp ****     }
  94:Board/v3/board.cpp **** };
  95:Board/v3/board.cpp **** 
  96:Board/v3/board.cpp **** Encoder encoders[AXIS_COUNT] = {
  97:Board/v3/board.cpp ****     {
  98:Board/v3/board.cpp ****         &htim3, // timer
  99:Board/v3/board.cpp ****         {M0_ENC_Z_GPIO_Port, M0_ENC_Z_Pin}, // index_gpio
 100:Board/v3/board.cpp ****         {M0_ENC_A_GPIO_Port, M0_ENC_A_Pin}, // hallA_gpio
 101:Board/v3/board.cpp ****         {M0_ENC_B_GPIO_Port, M0_ENC_B_Pin}, // hallB_gpio
 102:Board/v3/board.cpp ****         {M0_ENC_Z_GPIO_Port, M0_ENC_Z_Pin}, // hallC_gpio
 103:Board/v3/board.cpp ****         &spi3_arbiter // spi_arbiter
 104:Board/v3/board.cpp ****     },
 105:Board/v3/board.cpp ****     {
 106:Board/v3/board.cpp ****         &htim4, // timer
 107:Board/v3/board.cpp ****         {M1_ENC_Z_GPIO_Port, M1_ENC_Z_Pin}, // index_gpio
 108:Board/v3/board.cpp ****         {M1_ENC_A_GPIO_Port, M1_ENC_A_Pin}, // hallA_gpio
 109:Board/v3/board.cpp ****         {M1_ENC_B_GPIO_Port, M1_ENC_B_Pin}, // hallB_gpio
 110:Board/v3/board.cpp ****         {M1_ENC_Z_GPIO_Port, M1_ENC_Z_Pin}, // hallC_gpio
 111:Board/v3/board.cpp ****         &spi3_arbiter // spi_arbiter
 112:Board/v3/board.cpp ****     }
 113:Board/v3/board.cpp **** };
 114:Board/v3/board.cpp **** 
 115:Board/v3/board.cpp **** // TODO: this has no hardware dependency and should be allocated depending on config
 116:Board/v3/board.cpp **** Endstop endstops[2 * AXIS_COUNT];
 117:Board/v3/board.cpp **** MechanicalBrake mechanical_brakes[AXIS_COUNT];
 118:Board/v3/board.cpp **** 
 119:Board/v3/board.cpp **** SensorlessEstimator sensorless_estimators[AXIS_COUNT];
 120:Board/v3/board.cpp **** Controller controllers[AXIS_COUNT];
 121:Board/v3/board.cpp **** TrapezoidalTrajectory trap[AXIS_COUNT];
 122:Board/v3/board.cpp **** 
 123:Board/v3/board.cpp **** std::array<Axis, AXIS_COUNT> axes{{
 124:Board/v3/board.cpp ****     {
 125:Board/v3/board.cpp ****         0, // axis_num
 126:Board/v3/board.cpp ****         1, // step_gpio_pin
 127:Board/v3/board.cpp ****         2, // dir_gpio_pin
 128:Board/v3/board.cpp ****         (osPriority)(osPriorityHigh + (osPriority)1), // thread_priority
 129:Board/v3/board.cpp ****         encoders[0], // encoder
 130:Board/v3/board.cpp ****         sensorless_estimators[0], // sensorless_estimator
 131:Board/v3/board.cpp ****         controllers[0], // controller
 132:Board/v3/board.cpp ****         motors[0], // motor
 133:Board/v3/board.cpp ****         trap[0], // trap
 134:Board/v3/board.cpp ****         endstops[0], endstops[1], // min_endstop, max_endstop
 135:Board/v3/board.cpp ****         mechanical_brakes[0], // mechanical brake
 136:Board/v3/board.cpp ****     },
 137:Board/v3/board.cpp ****     {
 138:Board/v3/board.cpp ****         1, // axis_num
 139:Board/v3/board.cpp **** #if HW_VERSION_MAJOR == 3 && HW_VERSION_MINOR >= 5
 140:Board/v3/board.cpp ****         7, // step_gpio_pin
 141:Board/v3/board.cpp ****         8, // dir_gpio_pin
 142:Board/v3/board.cpp **** #else
ARM GAS  /tmp/ccysU9ly.s 			page 19


 143:Board/v3/board.cpp ****         3, // step_gpio_pin
 144:Board/v3/board.cpp ****         4, // dir_gpio_pin
 145:Board/v3/board.cpp **** #endif
 146:Board/v3/board.cpp ****         osPriorityHigh, // thread_priority
 147:Board/v3/board.cpp ****         encoders[1], // encoder
 148:Board/v3/board.cpp ****         sensorless_estimators[1], // sensorless_estimator
 149:Board/v3/board.cpp ****         controllers[1], // controller
 150:Board/v3/board.cpp ****         motors[1], // motor
 151:Board/v3/board.cpp ****         trap[1], // trap
 152:Board/v3/board.cpp ****         endstops[2], endstops[3], // min_endstop, max_endstop
 153:Board/v3/board.cpp ****         mechanical_brakes[1], // mechanical brake
 154:Board/v3/board.cpp ****     },
 155:Board/v3/board.cpp **** }};
 156:Board/v3/board.cpp **** 
 157:Board/v3/board.cpp **** 
 158:Board/v3/board.cpp **** 
 159:Board/v3/board.cpp **** #if (HW_VERSION_MINOR == 1) || (HW_VERSION_MINOR == 2)
 160:Board/v3/board.cpp **** Stm32Gpio gpios[] = {
 161:Board/v3/board.cpp ****     {nullptr, 0}, // dummy GPIO0 so that PCB labels and software numbers match
 162:Board/v3/board.cpp **** 
 163:Board/v3/board.cpp ****     {GPIOB, GPIO_PIN_2}, // GPIO1
 164:Board/v3/board.cpp ****     {GPIOA, GPIO_PIN_5}, // GPIO2
 165:Board/v3/board.cpp ****     {GPIOA, GPIO_PIN_4}, // GPIO3
 166:Board/v3/board.cpp ****     {GPIOA, GPIO_PIN_3}, // GPIO4
 167:Board/v3/board.cpp ****     {nullptr, 0}, // GPIO5 (doesn't exist on this board)
 168:Board/v3/board.cpp ****     {nullptr, 0}, // GPIO6 (doesn't exist on this board)
 169:Board/v3/board.cpp ****     {nullptr, 0}, // GPIO7 (doesn't exist on this board)
 170:Board/v3/board.cpp ****     {nullptr, 0}, // GPIO8 (doesn't exist on this board)
 171:Board/v3/board.cpp **** 
 172:Board/v3/board.cpp ****     {GPIOB, GPIO_PIN_4}, // ENC0_A
 173:Board/v3/board.cpp ****     {GPIOB, GPIO_PIN_5}, // ENC0_B
 174:Board/v3/board.cpp ****     {GPIOA, GPIO_PIN_15}, // ENC0_Z
 175:Board/v3/board.cpp ****     {GPIOB, GPIO_PIN_6}, // ENC1_A
 176:Board/v3/board.cpp ****     {GPIOB, GPIO_PIN_7}, // ENC1_B
 177:Board/v3/board.cpp ****     {GPIOB, GPIO_PIN_3}, // ENC1_Z
 178:Board/v3/board.cpp ****     {GPIOB, GPIO_PIN_8}, // CAN_R
 179:Board/v3/board.cpp ****     {GPIOB, GPIO_PIN_9}, // CAN_D
 180:Board/v3/board.cpp **** };
 181:Board/v3/board.cpp **** #elif (HW_VERSION_MINOR == 3) || (HW_VERSION_MINOR == 4)
 182:Board/v3/board.cpp **** Stm32Gpio gpios[] = {
 183:Board/v3/board.cpp ****     {nullptr, 0}, // dummy GPIO0 so that PCB labels and software numbers match
 184:Board/v3/board.cpp **** 
 185:Board/v3/board.cpp ****     {GPIOA, GPIO_PIN_0}, // GPIO1
 186:Board/v3/board.cpp ****     {GPIOA, GPIO_PIN_1}, // GPIO2
 187:Board/v3/board.cpp ****     {GPIOA, GPIO_PIN_2}, // GPIO3
 188:Board/v3/board.cpp ****     {GPIOA, GPIO_PIN_3}, // GPIO4
 189:Board/v3/board.cpp ****     {GPIOB, GPIO_PIN_2}, // GPIO5
 190:Board/v3/board.cpp ****     {nullptr, 0}, // GPIO6 (doesn't exist on this board)
 191:Board/v3/board.cpp ****     {nullptr, 0}, // GPIO7 (doesn't exist on this board)
 192:Board/v3/board.cpp ****     {nullptr, 0}, // GPIO8 (doesn't exist on this board)
 193:Board/v3/board.cpp **** 
 194:Board/v3/board.cpp ****     {GPIOB, GPIO_PIN_4}, // ENC0_A
 195:Board/v3/board.cpp ****     {GPIOB, GPIO_PIN_5}, // ENC0_B
 196:Board/v3/board.cpp ****     {GPIOA, GPIO_PIN_15}, // ENC0_Z
 197:Board/v3/board.cpp ****     {GPIOB, GPIO_PIN_6}, // ENC1_A
 198:Board/v3/board.cpp ****     {GPIOB, GPIO_PIN_7}, // ENC1_B
 199:Board/v3/board.cpp ****     {GPIOB, GPIO_PIN_3}, // ENC1_Z
ARM GAS  /tmp/ccysU9ly.s 			page 20


 200:Board/v3/board.cpp ****     {GPIOB, GPIO_PIN_8}, // CAN_R
 201:Board/v3/board.cpp ****     {GPIOB, GPIO_PIN_9}, // CAN_D
 202:Board/v3/board.cpp **** };
 203:Board/v3/board.cpp **** #elif (HW_VERSION_MINOR == 5) || (HW_VERSION_MINOR == 6)
 204:Board/v3/board.cpp **** Stm32Gpio gpios[GPIO_COUNT] = {
 205:Board/v3/board.cpp ****     {nullptr, 0}, // dummy GPIO0 so that PCB labels and software numbers match
 206:Board/v3/board.cpp **** 
 207:Board/v3/board.cpp ****     {GPIOA, GPIO_PIN_0}, // GPIO1
 208:Board/v3/board.cpp ****     {GPIOA, GPIO_PIN_1}, // GPIO2
 209:Board/v3/board.cpp ****     {GPIOA, GPIO_PIN_2}, // GPIO3
 210:Board/v3/board.cpp ****     {GPIOA, GPIO_PIN_3}, // GPIO4
 211:Board/v3/board.cpp ****     {GPIOC, GPIO_PIN_4}, // GPIO5
 212:Board/v3/board.cpp ****     {GPIOB, GPIO_PIN_2}, // GPIO6
 213:Board/v3/board.cpp ****     {GPIOA, GPIO_PIN_15}, // GPIO7
 214:Board/v3/board.cpp ****     {GPIOB, GPIO_PIN_3}, // GPIO8
 215:Board/v3/board.cpp ****     
 216:Board/v3/board.cpp ****     {GPIOB, GPIO_PIN_4}, // ENC0_A
 217:Board/v3/board.cpp ****     {GPIOB, GPIO_PIN_5}, // ENC0_B
 218:Board/v3/board.cpp ****     {GPIOC, GPIO_PIN_9}, // ENC0_Z
 219:Board/v3/board.cpp ****     {GPIOB, GPIO_PIN_6}, // ENC1_A
 220:Board/v3/board.cpp ****     {GPIOB, GPIO_PIN_7}, // ENC1_B
 221:Board/v3/board.cpp ****     {GPIOC, GPIO_PIN_15}, // ENC1_Z
 222:Board/v3/board.cpp ****     {GPIOB, GPIO_PIN_8}, // CAN_R
 223:Board/v3/board.cpp ****     {GPIOB, GPIO_PIN_9}, // CAN_D
 224:Board/v3/board.cpp **** };
 225:Board/v3/board.cpp **** #else
 226:Board/v3/board.cpp **** #error "unknown GPIOs"
 227:Board/v3/board.cpp **** #endif
 228:Board/v3/board.cpp **** 
 229:Board/v3/board.cpp **** std::array<GpioFunction, 3> alternate_functions[GPIO_COUNT] = {
 230:Board/v3/board.cpp ****     /* GPIO0 (inexistent): */ {{}},
 231:Board/v3/board.cpp **** 
 232:Board/v3/board.cpp **** #if HW_VERSION_MINOR >= 3
 233:Board/v3/board.cpp ****     /* GPIO1: */ {{{ODrive::GPIO_MODE_UART_A, GPIO_AF8_UART4}, {ODrive::GPIO_MODE_PWM, GPIO_AF2_TIM
 234:Board/v3/board.cpp ****     /* GPIO2: */ {{{ODrive::GPIO_MODE_UART_A, GPIO_AF8_UART4}, {ODrive::GPIO_MODE_PWM, GPIO_AF2_TIM
 235:Board/v3/board.cpp ****     /* GPIO3: */ {{{ODrive::GPIO_MODE_UART_B, GPIO_AF7_USART2}, {ODrive::GPIO_MODE_PWM, GPIO_AF2_TI
 236:Board/v3/board.cpp **** #else
 237:Board/v3/board.cpp ****     /* GPIO1: */ {{}},
 238:Board/v3/board.cpp ****     /* GPIO2: */ {{}},
 239:Board/v3/board.cpp ****     /* GPIO3: */ {{}},
 240:Board/v3/board.cpp **** #endif
 241:Board/v3/board.cpp **** 
 242:Board/v3/board.cpp ****     /* GPIO4: */ {{{ODrive::GPIO_MODE_UART_B, GPIO_AF7_USART2}, {ODrive::GPIO_MODE_PWM, GPIO_AF2_TI
 243:Board/v3/board.cpp ****     /* GPIO5: */ {{}},
 244:Board/v3/board.cpp ****     /* GPIO6: */ {{}},
 245:Board/v3/board.cpp ****     /* GPIO7: */ {{}},
 246:Board/v3/board.cpp ****     /* GPIO8: */ {{}},
 247:Board/v3/board.cpp ****     /* ENC0_A: */ {{{ODrive::GPIO_MODE_ENC0, GPIO_AF2_TIM3}}},
 248:Board/v3/board.cpp ****     /* ENC0_B: */ {{{ODrive::GPIO_MODE_ENC0, GPIO_AF2_TIM3}}},
 249:Board/v3/board.cpp ****     /* ENC0_Z: */ {{}},
 250:Board/v3/board.cpp ****     /* ENC1_A: */ {{{ODrive::GPIO_MODE_I2C_A, GPIO_AF4_I2C1}, {ODrive::GPIO_MODE_ENC1, GPIO_AF2_TIM
 251:Board/v3/board.cpp ****     /* ENC1_B: */ {{{ODrive::GPIO_MODE_I2C_A, GPIO_AF4_I2C1}, {ODrive::GPIO_MODE_ENC1, GPIO_AF2_TIM
 252:Board/v3/board.cpp ****     /* ENC1_Z: */ {{}},
 253:Board/v3/board.cpp ****     /* CAN_R: */ {{{ODrive::GPIO_MODE_CAN_A, GPIO_AF9_CAN1}, {ODrive::GPIO_MODE_I2C_A, GPIO_AF4_I2C
 254:Board/v3/board.cpp ****     /* CAN_D: */ {{{ODrive::GPIO_MODE_CAN_A, GPIO_AF9_CAN1}, {ODrive::GPIO_MODE_I2C_A, GPIO_AF4_I2C
 255:Board/v3/board.cpp **** };
 256:Board/v3/board.cpp **** 
ARM GAS  /tmp/ccysU9ly.s 			page 21


 257:Board/v3/board.cpp **** #if HW_VERSION_MINOR <= 2
 258:Board/v3/board.cpp **** PwmInput pwm0_input{&htim5, {0, 0, 0, 4}}; // 0 means not in use
 259:Board/v3/board.cpp **** #else
 260:Board/v3/board.cpp **** PwmInput pwm0_input{&htim5, {1, 2, 3, 4}};
 261:Board/v3/board.cpp **** #endif
 262:Board/v3/board.cpp **** 
 263:Board/v3/board.cpp **** extern USBD_HandleTypeDef hUsbDeviceFS;
 264:Board/v3/board.cpp **** USBD_HandleTypeDef& usb_dev_handle = hUsbDeviceFS;
 265:Board/v3/board.cpp **** 
 266:Board/v3/board.cpp **** bool check_board_version(const uint8_t* otp_ptr) {
 267:Board/v3/board.cpp ****     return (otp_ptr[3] == HW_VERSION_MAJOR) &&
 268:Board/v3/board.cpp ****            (otp_ptr[4] == HW_VERSION_MINOR) &&
 269:Board/v3/board.cpp ****            (otp_ptr[5] == HW_VERSION_VOLTAGE);
 270:Board/v3/board.cpp **** }
 271:Board/v3/board.cpp **** 
 272:Board/v3/board.cpp **** void system_init() {
 273:Board/v3/board.cpp ****     // Reset of all peripherals, Initializes the Flash interface and the Systick.
 274:Board/v3/board.cpp ****     HAL_Init();
 275:Board/v3/board.cpp **** 
 276:Board/v3/board.cpp ****     // Configure the system clock
 277:Board/v3/board.cpp ****     SystemClock_Config();
 278:Board/v3/board.cpp **** 
 279:Board/v3/board.cpp ****     // If the OTP is pristine, use the fake-otp in RAM instead
 280:Board/v3/board.cpp ****     //! OTP  Flash 
 281:Board/v3/board.cpp ****     const uint8_t* otp_ptr = (const uint8_t*)FLASH_OTP_BASE;
 282:Board/v3/board.cpp ****     if (*otp_ptr == 0xff) {
 283:Board/v3/board.cpp ****         otp_ptr = fake_otp;
 284:Board/v3/board.cpp ****     }
 285:Board/v3/board.cpp **** 
 286:Board/v3/board.cpp ****     // Ensure that the board version for which this firmware is compiled matches
 287:Board/v3/board.cpp ****     // the board we're running on.
 288:Board/v3/board.cpp ****     if (!check_board_version(otp_ptr)) {
 289:Board/v3/board.cpp ****         for (;;);
 290:Board/v3/board.cpp ****     }
 291:Board/v3/board.cpp **** }
 292:Board/v3/board.cpp **** 
 293:Board/v3/board.cpp **** bool board_init() {
 294:Board/v3/board.cpp ****     // Initialize all configured peripherals
 295:Board/v3/board.cpp ****     MX_GPIO_Init();
 296:Board/v3/board.cpp ****     MX_DMA_Init();
 297:Board/v3/board.cpp ****     MX_ADC1_Init();
 298:Board/v3/board.cpp ****     MX_ADC2_Init();
 299:Board/v3/board.cpp ****     MX_TIM1_Init();
 300:Board/v3/board.cpp ****     MX_TIM8_Init();
 301:Board/v3/board.cpp ****     MX_TIM3_Init();
 302:Board/v3/board.cpp ****     MX_TIM4_Init();
 303:Board/v3/board.cpp ****     MX_SPI3_Init();
 304:Board/v3/board.cpp ****     MX_ADC3_Init();
 305:Board/v3/board.cpp ****     MX_TIM2_Init();
 306:Board/v3/board.cpp ****     MX_TIM5_Init();
 307:Board/v3/board.cpp ****     MX_TIM13_Init();
 308:Board/v3/board.cpp **** 
 309:Board/v3/board.cpp ****     // External interrupt lines are individually enabled in stm32_gpio.cpp
 310:Board/v3/board.cpp ****     HAL_NVIC_SetPriority(EXTI0_IRQn, 1, 0);
 311:Board/v3/board.cpp ****     HAL_NVIC_EnableIRQ(EXTI0_IRQn);
 312:Board/v3/board.cpp ****     HAL_NVIC_SetPriority(EXTI1_IRQn, 1, 0);
 313:Board/v3/board.cpp ****     HAL_NVIC_EnableIRQ(EXTI1_IRQn);
ARM GAS  /tmp/ccysU9ly.s 			page 22


 314:Board/v3/board.cpp ****     HAL_NVIC_SetPriority(EXTI2_IRQn, 1, 0);
 315:Board/v3/board.cpp ****     HAL_NVIC_EnableIRQ(EXTI2_IRQn);
 316:Board/v3/board.cpp ****     HAL_NVIC_SetPriority(EXTI3_IRQn, 1, 0);
 317:Board/v3/board.cpp ****     HAL_NVIC_EnableIRQ(EXTI3_IRQn);
 318:Board/v3/board.cpp ****     HAL_NVIC_SetPriority(EXTI4_IRQn, 1, 0);
 319:Board/v3/board.cpp ****     HAL_NVIC_EnableIRQ(EXTI4_IRQn);
 320:Board/v3/board.cpp ****     HAL_NVIC_SetPriority(EXTI9_5_IRQn, 1, 0);
 321:Board/v3/board.cpp ****     HAL_NVIC_EnableIRQ(EXTI9_5_IRQn);
 322:Board/v3/board.cpp ****     HAL_NVIC_SetPriority(EXTI15_10_IRQn, 1, 0);
 323:Board/v3/board.cpp ****     HAL_NVIC_EnableIRQ(EXTI15_10_IRQn);
 324:Board/v3/board.cpp **** 
 325:Board/v3/board.cpp ****     HAL_NVIC_SetPriority(ControlLoop_IRQn, 5, 0);
 326:Board/v3/board.cpp ****     HAL_NVIC_EnableIRQ(ControlLoop_IRQn);
 327:Board/v3/board.cpp **** 
 328:Board/v3/board.cpp ****     HAL_NVIC_SetPriority(TIM8_UP_TIM13_IRQn, 0, 0);
 329:Board/v3/board.cpp ****     HAL_NVIC_EnableIRQ(TIM8_UP_TIM13_IRQn);
 330:Board/v3/board.cpp **** 
 331:Board/v3/board.cpp ****     if (odrv.config_.enable_uart_a) {
 332:Board/v3/board.cpp ****         uart_a->Init.BaudRate = odrv.config_.uart_a_baudrate;
 333:Board/v3/board.cpp ****         MX_UART4_Init();
 334:Board/v3/board.cpp ****     }
 335:Board/v3/board.cpp **** 
 336:Board/v3/board.cpp ****     if (odrv.config_.enable_uart_b) {
 337:Board/v3/board.cpp ****         uart_b->Init.BaudRate = odrv.config_.uart_b_baudrate;
 338:Board/v3/board.cpp ****         MX_USART2_UART_Init();
 339:Board/v3/board.cpp ****     }
 340:Board/v3/board.cpp **** 
 341:Board/v3/board.cpp ****     if (odrv.config_.enable_i2c_a) {
 342:Board/v3/board.cpp ****         // Set up the direction GPIO as input
 343:Board/v3/board.cpp ****         get_gpio(3).config(GPIO_MODE_INPUT, GPIO_PULLUP);
 344:Board/v3/board.cpp ****         get_gpio(4).config(GPIO_MODE_INPUT, GPIO_PULLUP);
 345:Board/v3/board.cpp ****         get_gpio(5).config(GPIO_MODE_INPUT, GPIO_PULLUP);
 346:Board/v3/board.cpp **** 
 347:Board/v3/board.cpp ****         osDelay(1); // This has no effect but was here before.
 348:Board/v3/board.cpp ****         i2c_stats_.addr = (0xD << 3);
 349:Board/v3/board.cpp ****         i2c_stats_.addr |= get_gpio(3).read() ? 0x1 : 0;
 350:Board/v3/board.cpp ****         i2c_stats_.addr |= get_gpio(4).read() ? 0x2 : 0;
 351:Board/v3/board.cpp ****         i2c_stats_.addr |= get_gpio(5).read() ? 0x4 : 0;
 352:Board/v3/board.cpp ****         MX_I2C1_Init(i2c_stats_.addr);
 353:Board/v3/board.cpp ****     }
 354:Board/v3/board.cpp **** 
 355:Board/v3/board.cpp ****     if (odrv.config_.enable_can_a) {
 356:Board/v3/board.cpp ****         // The CAN initialization will (and must) init its own GPIOs before the
 357:Board/v3/board.cpp ****         // GPIO modes are initialized. Therefore we ensure that the later GPIO
 358:Board/v3/board.cpp ****         // mode initialization won't override the CAN mode.
 359:Board/v3/board.cpp ****         if (odrv.config_.gpio_modes[15] != ODriveIntf::GPIO_MODE_CAN_A || odrv.config_.gpio_modes[1
 360:Board/v3/board.cpp ****             odrv.misconfigured_ = true;
 361:Board/v3/board.cpp ****         }
 362:Board/v3/board.cpp ****     }
 363:Board/v3/board.cpp **** 
 364:Board/v3/board.cpp ****     // Ensure that debug halting of the core doesn't leave the motor PWM running
 365:Board/v3/board.cpp ****     __HAL_DBGMCU_FREEZE_TIM1();
 366:Board/v3/board.cpp ****     __HAL_DBGMCU_FREEZE_TIM8();
 367:Board/v3/board.cpp ****     __HAL_DBGMCU_FREEZE_TIM13();
 368:Board/v3/board.cpp **** 
 369:Board/v3/board.cpp ****     Stm32Gpio drv_enable_gpio = {EN_GATE_GPIO_Port, EN_GATE_Pin};
 370:Board/v3/board.cpp **** 
ARM GAS  /tmp/ccysU9ly.s 			page 23


 371:Board/v3/board.cpp ****     // Reset both DRV chips. The enable pin also controls the SPI interface, not
 372:Board/v3/board.cpp ****     // only the driver stages.
 373:Board/v3/board.cpp ****     drv_enable_gpio.write(false);
 374:Board/v3/board.cpp ****     delay_us(40); // mimumum pull-down time for full reset: 20us
 375:Board/v3/board.cpp ****     drv_enable_gpio.write(true);
 376:Board/v3/board.cpp ****     delay_us(20000); // mimumum pull-down time for full reset: 20us
 377:Board/v3/board.cpp **** 
 378:Board/v3/board.cpp ****     return true;
 379:Board/v3/board.cpp **** }
 380:Board/v3/board.cpp **** 
 381:Board/v3/board.cpp **** void start_timers() {
 382:Board/v3/board.cpp ****     CRITICAL_SECTION() {
 383:Board/v3/board.cpp ****         // Temporarily disable ADC triggers so they don't trigger as a side
 384:Board/v3/board.cpp ****         // effect of starting the timers.
 385:Board/v3/board.cpp ****         hadc1.Instance->CR2 &= ~(ADC_CR2_JEXTEN);
 386:Board/v3/board.cpp ****         hadc2.Instance->CR2 &= ~(ADC_CR2_EXTEN | ADC_CR2_JEXTEN);
 387:Board/v3/board.cpp ****         hadc3.Instance->CR2 &= ~(ADC_CR2_EXTEN | ADC_CR2_JEXTEN);
 388:Board/v3/board.cpp **** 
 389:Board/v3/board.cpp ****         /*
 390:Board/v3/board.cpp ****         * Synchronize TIM1, TIM8 and TIM13 such that:
 391:Board/v3/board.cpp ****         *  1. The triangle waveform of TIM1 leads the triangle waveform of TIM8 by a
 392:Board/v3/board.cpp ****         *     90 phase shift.
 393:Board/v3/board.cpp ****         *  2. Each TIM13 reload coincides with a TIM1 lower update event.
 394:Board/v3/board.cpp ****         */
 395:Board/v3/board.cpp ****         Stm32Timer::start_synchronously<3>(
 396:Board/v3/board.cpp ****             {&htim1, &htim8, &htim13},
 397:Board/v3/board.cpp ****             {TIM1_INIT_COUNT, 0, TIM1_INIT_COUNT / 2 /* TIM13 is on a clock that's only have as fas
 398:Board/v3/board.cpp ****         );
 399:Board/v3/board.cpp **** 
 400:Board/v3/board.cpp ****         hadc1.Instance->CR2 |= (ADC_EXTERNALTRIGINJECCONVEDGE_RISING);
 401:Board/v3/board.cpp ****         hadc2.Instance->CR2 |= (ADC_EXTERNALTRIGCONVEDGE_RISING | ADC_EXTERNALTRIGINJECCONVEDGE_RIS
 402:Board/v3/board.cpp ****         hadc3.Instance->CR2 |= (ADC_EXTERNALTRIGCONVEDGE_RISING | ADC_EXTERNALTRIGINJECCONVEDGE_RIS
 403:Board/v3/board.cpp **** 
 404:Board/v3/board.cpp ****         __HAL_ADC_CLEAR_FLAG(&hadc1, ADC_FLAG_JEOC);
 405:Board/v3/board.cpp ****         __HAL_ADC_CLEAR_FLAG(&hadc2, ADC_FLAG_JEOC);
 406:Board/v3/board.cpp ****         __HAL_ADC_CLEAR_FLAG(&hadc3, ADC_FLAG_JEOC);
 407:Board/v3/board.cpp ****         __HAL_ADC_CLEAR_FLAG(&hadc1, ADC_FLAG_EOC);
 408:Board/v3/board.cpp ****         __HAL_ADC_CLEAR_FLAG(&hadc2, ADC_FLAG_EOC);
 409:Board/v3/board.cpp ****         __HAL_ADC_CLEAR_FLAG(&hadc3, ADC_FLAG_EOC);
 410:Board/v3/board.cpp ****         __HAL_ADC_CLEAR_FLAG(&hadc1, ADC_FLAG_OVR);
 411:Board/v3/board.cpp ****         __HAL_ADC_CLEAR_FLAG(&hadc2, ADC_FLAG_OVR);
 412:Board/v3/board.cpp ****         __HAL_ADC_CLEAR_FLAG(&hadc3, ADC_FLAG_OVR);
 413:Board/v3/board.cpp ****         
 414:Board/v3/board.cpp ****         __HAL_TIM_CLEAR_IT(&htim8, TIM_IT_UPDATE);
 415:Board/v3/board.cpp ****         __HAL_TIM_ENABLE_IT(&htim8, TIM_IT_UPDATE);
 416:Board/v3/board.cpp ****     }
 417:Board/v3/board.cpp **** }
 418:Board/v3/board.cpp **** 
 419:Board/v3/board.cpp **** static bool fetch_and_reset_adcs(
 420:Board/v3/board.cpp ****         std::optional<Iph_ABC_t>* current0,
 421:Board/v3/board.cpp ****         std::optional<Iph_ABC_t>* current1) {
 422:Board/v3/board.cpp ****     bool all_adcs_done = (ADC1->SR & ADC_SR_JEOC) == ADC_SR_JEOC
 423:Board/v3/board.cpp ****         && (ADC2->SR & (ADC_SR_EOC | ADC_SR_JEOC)) == (ADC_SR_EOC | ADC_SR_JEOC)
 424:Board/v3/board.cpp ****         && (ADC3->SR & (ADC_SR_EOC | ADC_SR_JEOC)) == (ADC_SR_EOC | ADC_SR_JEOC);
 425:Board/v3/board.cpp ****     if (!all_adcs_done) {
 426:Board/v3/board.cpp ****         return false;
 427:Board/v3/board.cpp ****     }
ARM GAS  /tmp/ccysU9ly.s 			page 24


 428:Board/v3/board.cpp **** 
 429:Board/v3/board.cpp ****     vbus_sense_adc_cb(ADC1->JDR1);
 430:Board/v3/board.cpp **** 
 431:Board/v3/board.cpp ****     if (m0_gate_driver.is_ready()) {
 432:Board/v3/board.cpp ****         std::optional<float> phB = motors[0].phase_current_from_adcval(ADC2->JDR1);
 433:Board/v3/board.cpp ****         std::optional<float> phC = motors[0].phase_current_from_adcval(ADC3->JDR1);
 434:Board/v3/board.cpp ****         if (phB.has_value() && phC.has_value()) {
 435:Board/v3/board.cpp ****             *current0 = {-*phB - *phC, *phB, *phC};
 436:Board/v3/board.cpp ****         }
 437:Board/v3/board.cpp ****     }
 438:Board/v3/board.cpp **** 
 439:Board/v3/board.cpp ****     if (m1_gate_driver.is_ready()) {
 440:Board/v3/board.cpp ****         std::optional<float> phB = motors[1].phase_current_from_adcval(ADC2->DR);
 441:Board/v3/board.cpp ****         std::optional<float> phC = motors[1].phase_current_from_adcval(ADC3->DR);
 442:Board/v3/board.cpp ****         if (phB.has_value() && phC.has_value()) {
 443:Board/v3/board.cpp ****             *current1 = {-*phB - *phC, *phB, *phC};
 444:Board/v3/board.cpp ****         }
 445:Board/v3/board.cpp ****     }
 446:Board/v3/board.cpp ****     
 447:Board/v3/board.cpp ****     ADC1->SR = ~(ADC_SR_JEOC);
 448:Board/v3/board.cpp ****     ADC2->SR = ~(ADC_SR_EOC | ADC_SR_JEOC | ADC_SR_OVR);
 449:Board/v3/board.cpp ****     ADC3->SR = ~(ADC_SR_EOC | ADC_SR_JEOC | ADC_SR_OVR);
 450:Board/v3/board.cpp **** 
 451:Board/v3/board.cpp ****     return true;
 452:Board/v3/board.cpp **** }
 453:Board/v3/board.cpp **** 
 454:Board/v3/board.cpp **** extern "C" {
 455:Board/v3/board.cpp **** 
 456:Board/v3/board.cpp **** void HAL_SPI_TxCpltCallback(SPI_HandleTypeDef *hspi) {
 457:Board/v3/board.cpp ****     HAL_SPI_TxRxCpltCallback(hspi);
 458:Board/v3/board.cpp **** }
 459:Board/v3/board.cpp **** 
 460:Board/v3/board.cpp **** void HAL_SPI_RxCpltCallback(SPI_HandleTypeDef *hspi) {
 461:Board/v3/board.cpp ****     HAL_SPI_TxRxCpltCallback(hspi);
 462:Board/v3/board.cpp **** }
 463:Board/v3/board.cpp **** 
 464:Board/v3/board.cpp **** void HAL_SPI_TxRxCpltCallback(SPI_HandleTypeDef *hspi) {
 465:Board/v3/board.cpp ****     if (hspi == &hspi3) {
 466:Board/v3/board.cpp ****         spi3_arbiter.on_complete();
 467:Board/v3/board.cpp ****     }
 468:Board/v3/board.cpp **** }
 469:Board/v3/board.cpp **** 
 470:Board/v3/board.cpp **** void TIM5_IRQHandler(void) {
 471:Board/v3/board.cpp ****     COUNT_IRQ(TIM5_IRQn);
 472:Board/v3/board.cpp ****     pwm0_input.on_capture();
 473:Board/v3/board.cpp **** }
 474:Board/v3/board.cpp **** 
 475:Board/v3/board.cpp **** volatile uint32_t timestamp_ = 0;
 476:Board/v3/board.cpp **** volatile bool counting_down_ = false;
 477:Board/v3/board.cpp **** 
 478:Board/v3/board.cpp **** void TIM8_UP_TIM13_IRQHandler(void) {
 479:Board/v3/board.cpp ****     COUNT_IRQ(TIM8_UP_TIM13_IRQn);
 480:Board/v3/board.cpp ****     
 481:Board/v3/board.cpp ****     // Entry into this function happens at 21-23 clock cycles after the timer
 482:Board/v3/board.cpp ****     // update event.
 483:Board/v3/board.cpp ****     __HAL_TIM_CLEAR_IT(&htim8, TIM_IT_UPDATE);
 484:Board/v3/board.cpp **** 
ARM GAS  /tmp/ccysU9ly.s 			page 25


 485:Board/v3/board.cpp ****     // If the corresponding timer is counting up, we just sampled in SVM vector 0, i.e. real curren
 486:Board/v3/board.cpp ****     // If we are counting down, we just sampled in SVM vector 7, with zero current
 487:Board/v3/board.cpp ****     bool counting_down = TIM8->CR1 & TIM_CR1_DIR;
 488:Board/v3/board.cpp **** 
 489:Board/v3/board.cpp ****     bool timer_update_missed = (counting_down_ == counting_down);
 490:Board/v3/board.cpp ****     if (timer_update_missed) {
 491:Board/v3/board.cpp ****         motors[0].disarm_with_error(Motor::ERROR_TIMER_UPDATE_MISSED);
 492:Board/v3/board.cpp ****         motors[1].disarm_with_error(Motor::ERROR_TIMER_UPDATE_MISSED);
 493:Board/v3/board.cpp ****         return;
 494:Board/v3/board.cpp ****     }
 495:Board/v3/board.cpp ****     counting_down_ = counting_down;
 496:Board/v3/board.cpp **** 
 497:Board/v3/board.cpp ****     timestamp_ += TIM_1_8_PERIOD_CLOCKS * (TIM_1_8_RCR + 1);
 498:Board/v3/board.cpp **** 
 499:Board/v3/board.cpp ****     if (!counting_down) {
 500:Board/v3/board.cpp ****         TaskTimer::enabled = odrv.task_timers_armed_;
 501:Board/v3/board.cpp ****         // Run sampling handlers and kick off control tasks when TIM8 is
 502:Board/v3/board.cpp ****         // counting up.
 503:Board/v3/board.cpp ****         odrv.sampling_cb();
 504:Board/v3/board.cpp ****         NVIC->STIR = ControlLoop_IRQn;
 505:Board/v3/board.cpp ****     } else {
 506:Board/v3/board.cpp ****         // Tentatively reset all PWM outputs to 50% duty cycles. If the control
 507:Board/v3/board.cpp ****         // loop handler finishes in time then these values will be overridden
 508:Board/v3/board.cpp ****         // before they go into effect.
 509:Board/v3/board.cpp ****         TIM1->CCR1 =
 510:Board/v3/board.cpp ****         TIM1->CCR2 =
 511:Board/v3/board.cpp ****         TIM1->CCR3 =
 512:Board/v3/board.cpp ****         TIM8->CCR1 =
 513:Board/v3/board.cpp ****         TIM8->CCR2 =
 514:Board/v3/board.cpp ****         TIM8->CCR3 =
 515:Board/v3/board.cpp ****             TIM_1_8_PERIOD_CLOCKS / 2;
 516:Board/v3/board.cpp ****     }
 517:Board/v3/board.cpp **** }
 518:Board/v3/board.cpp **** 
 519:Board/v3/board.cpp **** void ControlLoop_IRQHandler(void) {
 520:Board/v3/board.cpp ****     COUNT_IRQ(ControlLoop_IRQn);
 521:Board/v3/board.cpp ****     uint32_t timestamp = timestamp_;
 522:Board/v3/board.cpp **** 
 523:Board/v3/board.cpp ****     // Ensure that all the ADCs are done
 524:Board/v3/board.cpp ****     std::optional<Iph_ABC_t> current0;
 525:Board/v3/board.cpp ****     std::optional<Iph_ABC_t> current1;
 526:Board/v3/board.cpp **** 
 527:Board/v3/board.cpp ****     if (!fetch_and_reset_adcs(&current0, &current1)) {
 528:Board/v3/board.cpp ****         motors[0].disarm_with_error(Motor::ERROR_BAD_TIMING);
 529:Board/v3/board.cpp ****         motors[1].disarm_with_error(Motor::ERROR_BAD_TIMING);
 530:Board/v3/board.cpp ****     }
 531:Board/v3/board.cpp **** 
 532:Board/v3/board.cpp ****     // If the motor FETs are not switching then we can't measure the current
 533:Board/v3/board.cpp ****     // because for this we need the low side FET to conduct.
 534:Board/v3/board.cpp ****     // So for now we guess the current to be 0 (this is not correct shortly after
 535:Board/v3/board.cpp ****     // disarming and when the motor spins fast in idle). Passing an invalid
 536:Board/v3/board.cpp ****     // current reading would create problems with starting FOC.
 537:Board/v3/board.cpp ****     if (!(TIM1->BDTR & TIM_BDTR_MOE_Msk)) {
 538:Board/v3/board.cpp ****         current0 = {0.0f, 0.0f};
 539:Board/v3/board.cpp ****     }
 540:Board/v3/board.cpp ****     if (!(TIM8->BDTR & TIM_BDTR_MOE_Msk)) {
 541:Board/v3/board.cpp ****         current1 = {0.0f, 0.0f};
ARM GAS  /tmp/ccysU9ly.s 			page 26


 542:Board/v3/board.cpp ****     }
 543:Board/v3/board.cpp **** 
 544:Board/v3/board.cpp ****     motors[0].current_meas_cb(timestamp - TIM1_INIT_COUNT, current0);
 545:Board/v3/board.cpp ****     motors[1].current_meas_cb(timestamp, current1);
 546:Board/v3/board.cpp **** 
 547:Board/v3/board.cpp ****     odrv.control_loop_cb(timestamp);
 548:Board/v3/board.cpp **** 
 549:Board/v3/board.cpp ****     // By this time the ADCs for both M0 and M1 should have fired again. But
 550:Board/v3/board.cpp ****     // let's wait for them just to be sure.
 551:Board/v3/board.cpp ****     MEASURE_TIME(odrv.task_times_.dc_calib_wait) {
 552:Board/v3/board.cpp ****         while (!(ADC2->SR & ADC_SR_EOC));
 553:Board/v3/board.cpp ****     }
 554:Board/v3/board.cpp **** 
 555:Board/v3/board.cpp ****     if (!fetch_and_reset_adcs(&current0, &current1)) {
 556:Board/v3/board.cpp ****         motors[0].disarm_with_error(Motor::ERROR_BAD_TIMING);
 557:Board/v3/board.cpp ****         motors[1].disarm_with_error(Motor::ERROR_BAD_TIMING);
 558:Board/v3/board.cpp ****     }
 559:Board/v3/board.cpp **** 
 560:Board/v3/board.cpp ****     motors[0].dc_calib_cb(timestamp + TIM_1_8_PERIOD_CLOCKS * (TIM_1_8_RCR + 1) - TIM1_INIT_COUNT, 
 561:Board/v3/board.cpp ****     motors[1].dc_calib_cb(timestamp + TIM_1_8_PERIOD_CLOCKS * (TIM_1_8_RCR + 1), current1);
 562:Board/v3/board.cpp **** 
 563:Board/v3/board.cpp ****     motors[0].pwm_update_cb(timestamp + 3 * TIM_1_8_PERIOD_CLOCKS * (TIM_1_8_RCR + 1) - TIM1_INIT_C
 564:Board/v3/board.cpp ****     motors[1].pwm_update_cb(timestamp + 3 * TIM_1_8_PERIOD_CLOCKS * (TIM_1_8_RCR + 1));
 565:Board/v3/board.cpp **** 
 566:Board/v3/board.cpp ****     // If we did everything right, the TIM8 update handler should have been
 567:Board/v3/board.cpp ****     // called exactly once between the start of this function and now.
 568:Board/v3/board.cpp **** 
 569:Board/v3/board.cpp ****     if (timestamp_ != timestamp + TIM_1_8_PERIOD_CLOCKS * (TIM_1_8_RCR + 1)) {
 570:Board/v3/board.cpp ****         motors[0].disarm_with_error(Motor::ERROR_CONTROL_DEADLINE_MISSED);
 571:Board/v3/board.cpp ****         motors[1].disarm_with_error(Motor::ERROR_CONTROL_DEADLINE_MISSED);
 572:Board/v3/board.cpp ****     }
 573:Board/v3/board.cpp **** 
 574:Board/v3/board.cpp ****     odrv.task_timers_armed_ = odrv.task_timers_armed_ && !TaskTimer::enabled;
 575:Board/v3/board.cpp ****     TaskTimer::enabled = false;
 576:Board/v3/board.cpp **** }
 577:Board/v3/board.cpp **** 
 578:Board/v3/board.cpp **** void I2C1_EV_IRQHandler(void) {
 579:Board/v3/board.cpp ****     COUNT_IRQ(I2C1_EV_IRQn);
 580:Board/v3/board.cpp ****     HAL_I2C_EV_IRQHandler(&hi2c1);
 581:Board/v3/board.cpp **** }
 582:Board/v3/board.cpp **** 
 583:Board/v3/board.cpp **** void I2C1_ER_IRQHandler(void) {
 584:Board/v3/board.cpp ****     COUNT_IRQ(I2C1_ER_IRQn);
 585:Board/v3/board.cpp ****     HAL_I2C_ER_IRQHandler(&hi2c1);
 586:Board/v3/board.cpp **** }
 587:Board/v3/board.cpp **** 
 588:Board/v3/board.cpp **** extern PCD_HandleTypeDef hpcd_USB_OTG_FS; // defined in usbd_conf.c
 589:Board/v3/board.cpp **** void OTG_FS_IRQHandler(void) {
 590:Board/v3/board.cpp ****     COUNT_IRQ(OTG_FS_IRQn);
 591:Board/v3/board.cpp ****     HAL_PCD_IRQHandler(&hpcd_USB_OTG_FS);
 592:Board/v3/board.cpp **** }
 593:Board/v3/board.cpp **** 
 594:Board/v3/board.cpp **** }
 271              		.loc 4 594 1 is_stmt 1 view -0
 272              		.cfi_startproc
 273              		@ args = 0, pretend = 0, frame = 144
 274              		@ frame_needed = 0, uses_anonymous_args = 0
ARM GAS  /tmp/ccysU9ly.s 			page 27


 275              		.loc 4 594 1 is_stmt 0 view .LVU39
 276 0000 0128     		cmp	r0, #1
 277 0002 00D0     		beq	.L48
 278 0004 7047     		bx	lr
 279              	.L48:
 280              		.loc 4 594 1 discriminator 1 view .LVU40
 281 0006 2DE9F04F 		push	{r4, r5, r6, r7, r8, r9, r10, fp, lr}
 282              		.save {r4, r5, r6, r7, r8, r9, r10, fp, lr}
 283              	.LCFI2:
 284              		.cfi_def_cfa_offset 36
 285              		.cfi_offset 4, -36
 286              		.cfi_offset 5, -32
 287              		.cfi_offset 6, -28
 288              		.cfi_offset 7, -24
 289              		.cfi_offset 8, -20
 290              		.cfi_offset 9, -16
 291              		.cfi_offset 10, -12
 292              		.cfi_offset 11, -8
 293              		.cfi_offset 14, -4
 294 000a 2DED028B 		vpush.64	{d8}
 295              		.vsave {d8}
 296              	.LCFI3:
 297              		.cfi_def_cfa_offset 44
 298              		.cfi_offset 80, -44
 299              		.cfi_offset 81, -40
 300              		.pad #188
 301 000e AFB0     		sub	sp, sp, #188
 302              	.LCFI4:
 303              		.cfi_def_cfa_offset 232
 304 0010 0446     		mov	r4, r0
 305              		.loc 4 594 1 discriminator 1 view .LVU41
 306 0012 4FF6FF73 		movw	r3, #65535
 307 0016 9942     		cmp	r1, r3
 308 0018 04D0     		beq	.L49
 309              	.LVL11:
 310              	.L22:
 311              		.loc 4 594 1 view .LVU42
 312 001a 2FB0     		add	sp, sp, #188
 313              	.LCFI5:
 314              		.cfi_remember_state
 315              		.cfi_def_cfa_offset 44
 316              		@ sp needed
 317 001c BDEC028B 		vldm	sp!, {d8}
 318              	.LCFI6:
 319              		.cfi_restore 80
 320              		.cfi_restore 81
 321              		.cfi_def_cfa_offset 36
 322 0020 BDE8F08F 		pop	{r4, r5, r6, r7, r8, r9, r10, fp, pc}
 323              	.LVL12:
 324              	.L49:
 325              	.LCFI7:
 326              		.cfi_restore_state
 327              	.LBB705:
 328              	.LBI705:
 329              		.file 5 "./Drivers/STM32/stm32_spi_arbiter.hpp"
   1:./Drivers/STM32/stm32_spi_arbiter.hpp **** #ifndef __STM32_SPI_ARBITER_HPP
   2:./Drivers/STM32/stm32_spi_arbiter.hpp **** #define __STM32_SPI_ARBITER_HPP
ARM GAS  /tmp/ccysU9ly.s 			page 28


   3:./Drivers/STM32/stm32_spi_arbiter.hpp **** 
   4:./Drivers/STM32/stm32_spi_arbiter.hpp **** #include "stm32_gpio.hpp"
   5:./Drivers/STM32/stm32_spi_arbiter.hpp **** 
   6:./Drivers/STM32/stm32_spi_arbiter.hpp **** #include <spi.h>
   7:./Drivers/STM32/stm32_spi_arbiter.hpp **** 
   8:./Drivers/STM32/stm32_spi_arbiter.hpp **** class Stm32SpiArbiter {
   9:./Drivers/STM32/stm32_spi_arbiter.hpp **** public:
  10:./Drivers/STM32/stm32_spi_arbiter.hpp ****     struct SpiTask {
  11:./Drivers/STM32/stm32_spi_arbiter.hpp ****         SPI_InitTypeDef config;
  12:./Drivers/STM32/stm32_spi_arbiter.hpp ****         Stm32Gpio ncs_gpio;
  13:./Drivers/STM32/stm32_spi_arbiter.hpp ****         const uint8_t* tx_buf;
  14:./Drivers/STM32/stm32_spi_arbiter.hpp ****         uint8_t* rx_buf;
  15:./Drivers/STM32/stm32_spi_arbiter.hpp ****         size_t length;
  16:./Drivers/STM32/stm32_spi_arbiter.hpp ****         void (*on_complete)(void*, bool);
  17:./Drivers/STM32/stm32_spi_arbiter.hpp ****         void* on_complete_ctx;
  18:./Drivers/STM32/stm32_spi_arbiter.hpp ****         bool is_in_use = false;
  19:./Drivers/STM32/stm32_spi_arbiter.hpp ****         struct SpiTask* next;
  20:./Drivers/STM32/stm32_spi_arbiter.hpp ****     };
  21:./Drivers/STM32/stm32_spi_arbiter.hpp **** 
  22:./Drivers/STM32/stm32_spi_arbiter.hpp ****     Stm32SpiArbiter(SPI_HandleTypeDef* hspi): hspi_(hspi) {}
 330              		.loc 5 22 5 is_stmt 1 view .LVU43
 331              	.LBB706:
 332              	.LBB707:
 333              		.loc 5 22 57 is_stmt 0 view .LVU44
 334 0024 9E4F     		ldr	r7, .L51
 335 0026 9F4B     		ldr	r3, .L51+4
 336 0028 3B60     		str	r3, [r7]
 337 002a 0026     		movs	r6, #0
 338 002c 7E60     		str	r6, [r7, #4]
 339              	.LVL13:
 340              		.loc 5 22 57 view .LVU45
 341              	.LBE707:
 342              	.LBE706:
 343              	.LBE705:
 344              	.LBB708:
 345              	.LBI708:
 346              		.file 6 "./Drivers/STM32/stm32_gpio.hpp"
   1:./Drivers/STM32/stm32_gpio.hpp **** #ifndef __STM32_GPIO_HPP
   2:./Drivers/STM32/stm32_gpio.hpp **** #define __STM32_GPIO_HPP
   3:./Drivers/STM32/stm32_gpio.hpp **** 
   4:./Drivers/STM32/stm32_gpio.hpp **** #include <gpio.h>
   5:./Drivers/STM32/stm32_gpio.hpp **** 
   6:./Drivers/STM32/stm32_gpio.hpp **** class Stm32Gpio {
   7:./Drivers/STM32/stm32_gpio.hpp **** public:
   8:./Drivers/STM32/stm32_gpio.hpp ****     static const Stm32Gpio none;
   9:./Drivers/STM32/stm32_gpio.hpp **** 
  10:./Drivers/STM32/stm32_gpio.hpp ****     Stm32Gpio() : port_(nullptr), pin_mask_(0) {}
  11:./Drivers/STM32/stm32_gpio.hpp ****     Stm32Gpio(GPIO_TypeDef* port, uint16_t pin) : port_(port), pin_mask_(pin) {}
 347              		.loc 6 11 5 is_stmt 1 view .LVU46
 348              	.LBB709:
 349              	.LBB710:
 350              		.loc 6 11 77 is_stmt 0 view .LVU47
 351 002e DFF8B8A2 		ldr	r10, .L51+72
 352 0032 CDF840A0 		str	r10, [sp, #64]
 353 0036 4FF40053 		mov	r3, #8192
 354 003a ADF84430 		strh	r3, [sp, #68]	@ movhi
 355              	.LVL14:
ARM GAS  /tmp/ccysU9ly.s 			page 29


 356              		.loc 6 11 77 view .LVU48
 357              	.LBE710:
 358              	.LBE709:
 359              	.LBE708:
 360              	.LBB711:
 361              	.LBI711:
  10:./Drivers/STM32/stm32_gpio.hpp ****     Stm32Gpio(GPIO_TypeDef* port, uint16_t pin) : port_(port), pin_mask_(pin) {}
 362              		.loc 6 10 5 is_stmt 1 view .LVU49
 363              	.LBB712:
 364              	.LBB713:
  10:./Drivers/STM32/stm32_gpio.hpp ****     Stm32Gpio(GPIO_TypeDef* port, uint16_t pin) : port_(port), pin_mask_(pin) {}
 365              		.loc 6 10 46 is_stmt 0 view .LVU50
 366 003e 1296     		str	r6, [sp, #72]
 367 0040 ADF84C60 		strh	r6, [sp, #76]	@ movhi
 368              	.LVL15:
  10:./Drivers/STM32/stm32_gpio.hpp ****     Stm32Gpio(GPIO_TypeDef* port, uint16_t pin) : port_(port), pin_mask_(pin) {}
 369              		.loc 6 10 46 view .LVU51
 370              	.LBE713:
 371              	.LBE712:
 372              	.LBE711:
 373              	.LBB714:
 374              	.LBI714:
 375              		.loc 6 11 5 is_stmt 1 view .LVU52
 376              	.LBB715:
 377              	.LBB716:
 378              		.loc 6 11 77 is_stmt 0 view .LVU53
 379 0044 984B     		ldr	r3, .L51+8
 380 0046 1493     		str	r3, [sp, #80]
 381 0048 0423     		movs	r3, #4
 382 004a ADF85430 		strh	r3, [sp, #84]	@ movhi
 383              	.LVL16:
 384              		.loc 6 11 77 view .LVU54
 385 004e 0AAD     		add	r5, sp, #40
 386 0050 1199     		ldr	r1, [sp, #68]
 387              	.LVL17:
 388              		.loc 6 11 77 view .LVU55
 389 0052 5046     		mov	r0, r10
 390              	.LVL18:
 391              		.loc 6 11 77 view .LVU56
 392 0054 85E80300 		stm	r5, {r0, r1}
 393 0058 0DF1300E 		add	lr, sp, #48
 394 005c 1399     		ldr	r1, [sp, #76]
 395 005e 3046     		mov	r0, r6
 396 0060 8EE80300 		stm	lr, {r0, r1}
 397 0064 0DF1380C 		add	ip, sp, #56
 398 0068 1599     		ldr	r1, [sp, #84]
 399 006a 8F48     		ldr	r0, .L51+8
 400 006c 8CE80300 		stm	ip, {r0, r1}
 401              	.LBE716:
 402              	.LBE715:
 403              	.LBE714:
 404              	.LBB717:
 405              	.LBI717:
 406              		.file 7 "./Drivers/DRV8301/drv8301.hpp"
   1:./Drivers/DRV8301/drv8301.hpp **** #ifndef __DRV8301_HPP
   2:./Drivers/DRV8301/drv8301.hpp **** #define __DRV8301_HPP
   3:./Drivers/DRV8301/drv8301.hpp **** 
ARM GAS  /tmp/ccysU9ly.s 			page 30


   4:./Drivers/DRV8301/drv8301.hpp **** #include "stdbool.h"
   5:./Drivers/DRV8301/drv8301.hpp **** #include "stdint.h"
   6:./Drivers/DRV8301/drv8301.hpp **** 
   7:./Drivers/DRV8301/drv8301.hpp **** #include <Drivers/gate_driver.hpp>
   8:./Drivers/DRV8301/drv8301.hpp **** #include <Drivers/STM32/stm32_spi_arbiter.hpp>
   9:./Drivers/DRV8301/drv8301.hpp **** #include <Drivers/STM32/stm32_gpio.hpp>
  10:./Drivers/DRV8301/drv8301.hpp **** 
  11:./Drivers/DRV8301/drv8301.hpp **** 
  12:./Drivers/DRV8301/drv8301.hpp **** class Drv8301 : public GateDriverBase, public OpAmpBase {
  13:./Drivers/DRV8301/drv8301.hpp **** public:
  14:./Drivers/DRV8301/drv8301.hpp ****     typedef enum : uint32_t {
  15:./Drivers/DRV8301/drv8301.hpp ****         FaultType_NoFault  = (0 << 0),  //!< No fault
  16:./Drivers/DRV8301/drv8301.hpp **** 
  17:./Drivers/DRV8301/drv8301.hpp ****         // Status Register 1
  18:./Drivers/DRV8301/drv8301.hpp ****         FaultType_FETLC_OC = (1 << 0),  //!< FET Low side, Phase C Over Current fault
  19:./Drivers/DRV8301/drv8301.hpp ****         FaultType_FETHC_OC = (1 << 1),  //!< FET High side, Phase C Over Current fault
  20:./Drivers/DRV8301/drv8301.hpp ****         FaultType_FETLB_OC = (1 << 2),  //!< FET Low side, Phase B Over Current fault
  21:./Drivers/DRV8301/drv8301.hpp ****         FaultType_FETHB_OC = (1 << 3),  //!< FET High side, Phase B Over Current fault
  22:./Drivers/DRV8301/drv8301.hpp ****         FaultType_FETLA_OC = (1 << 4),  //!< FET Low side, Phase A Over Current fault
  23:./Drivers/DRV8301/drv8301.hpp ****         FaultType_FETHA_OC = (1 << 5),  //!< FET High side, Phase A Over Current fault
  24:./Drivers/DRV8301/drv8301.hpp ****         FaultType_OTW      = (1 << 6),  //!< Over Temperature Warning fault
  25:./Drivers/DRV8301/drv8301.hpp ****         FaultType_OTSD     = (1 << 7),  //!< Over Temperature Shut Down fault
  26:./Drivers/DRV8301/drv8301.hpp ****         FaultType_PVDD_UV  = (1 << 8),  //!< Power supply Vdd Under Voltage fault
  27:./Drivers/DRV8301/drv8301.hpp ****         FaultType_GVDD_UV  = (1 << 9),  //!< DRV8301 Vdd Under Voltage fault
  28:./Drivers/DRV8301/drv8301.hpp ****         FaultType_FAULT    = (1 << 10),
  29:./Drivers/DRV8301/drv8301.hpp **** 
  30:./Drivers/DRV8301/drv8301.hpp ****         // Status Register 2
  31:./Drivers/DRV8301/drv8301.hpp ****         FaultType_GVDD_OV  = (1 << 23)  //!< DRV8301 Vdd Over Voltage fault
  32:./Drivers/DRV8301/drv8301.hpp ****     } FaultType_e;
  33:./Drivers/DRV8301/drv8301.hpp **** 
  34:./Drivers/DRV8301/drv8301.hpp ****     Drv8301(Stm32SpiArbiter* spi_arbiter, Stm32Gpio ncs_gpio,
 407              		.loc 7 34 5 is_stmt 1 view .LVU57
 408              	.LVL19:
 409              	.LBB718:
 410              	.LBB719:
 411              	.LBB720:
 412              	.LBI720:
 413              		.file 8 "./Drivers/gate_driver.hpp"
   1:./Drivers/gate_driver.hpp **** #ifndef __GATE_DRIVER_HPP
   2:./Drivers/gate_driver.hpp **** #define __GATE_DRIVER_HPP
   3:./Drivers/gate_driver.hpp **** 
   4:./Drivers/gate_driver.hpp **** struct GateDriverBase {
 414              		.loc 8 4 8 view .LVU58
 415              	.LBB721:
 416 0070 8E4A     		ldr	r2, .L51+12
 417 0072 8F49     		ldr	r1, .L51+16
 418 0074 1160     		str	r1, [r2]
 419              	.LVL20:
 420              		.loc 8 4 8 is_stmt 0 view .LVU59
 421              	.LBE721:
 422              	.LBE720:
 423              	.LBB722:
 424              	.LBI722:
   5:./Drivers/gate_driver.hpp ****     /**
   6:./Drivers/gate_driver.hpp ****      * @brief Unlocks or locks the gate signals of the gate driver.
   7:./Drivers/gate_driver.hpp ****      * 
   8:./Drivers/gate_driver.hpp ****      * While locked the PWM inputs are ignored and the switches are always in
ARM GAS  /tmp/ccysU9ly.s 			page 31


   9:./Drivers/gate_driver.hpp ****      * OFF state.
  10:./Drivers/gate_driver.hpp ****      * Not all gate drivers implement this function and may return true even if
  11:./Drivers/gate_driver.hpp ****      * the gate driver was not locked.
  12:./Drivers/gate_driver.hpp ****      */
  13:./Drivers/gate_driver.hpp ****     virtual bool set_enabled(bool enabled) = 0;
  14:./Drivers/gate_driver.hpp **** 
  15:./Drivers/gate_driver.hpp ****     /**
  16:./Drivers/gate_driver.hpp ****      * @brief Returns false if the gate driver is in a state where the output
  17:./Drivers/gate_driver.hpp ****      * drive stages are disarmed or not properly configured (e.g. because they
  18:./Drivers/gate_driver.hpp ****      * are not initialized or there was a fault condition).
  19:./Drivers/gate_driver.hpp ****      */
  20:./Drivers/gate_driver.hpp ****     virtual bool is_ready() = 0;
  21:./Drivers/gate_driver.hpp **** };
  22:./Drivers/gate_driver.hpp **** 
  23:./Drivers/gate_driver.hpp **** struct OpAmpBase {
 425              		.loc 8 23 8 is_stmt 1 view .LVU60
 426              	.LBB723:
 427 0076 8F48     		ldr	r0, .L51+20
 428 0078 5060     		str	r0, [r2, #4]
 429              	.LVL21:
 430              		.loc 8 23 8 is_stmt 0 view .LVU61
 431              	.LBE723:
 432              	.LBE722:
  35:./Drivers/DRV8301/drv8301.hpp ****             Stm32Gpio enable_gpio, Stm32Gpio nfault_gpio)
  36:./Drivers/DRV8301/drv8301.hpp ****             : spi_arbiter_(spi_arbiter), ncs_gpio_(ncs_gpio),
  37:./Drivers/DRV8301/drv8301.hpp ****               enable_gpio_(enable_gpio), nfault_gpio_(nfault_gpio) {}
 433              		.loc 7 37 66 view .LVU62
 434 007a DFF89082 		ldr	r8, .L51+108
 435 007e C2F80080 		str	r8, [r2]
 436 0082 08F11809 		add	r9, r8, #24
 437 0086 C2F80490 		str	r9, [r2, #4]
 438 008a 9760     		str	r7, [r2, #8]
 439 008c 02F10C0B 		add	fp, r2, #12
 440 0090 95E80300 		ldm	r5, {r0, r1}
 441 0094 8BE80300 		stm	fp, {r0, r1}
 442 0098 02F1140B 		add	fp, r2, #20
 443 009c 9EE80300 		ldm	lr, {r0, r1}
 444 00a0 8BE80300 		stm	fp, {r0, r1}
 445 00a4 02F11C0B 		add	fp, r2, #28
 446 00a8 9CE80300 		ldm	ip, {r0, r1}
 447 00ac 8BE80300 		stm	fp, {r0, r1}
 448 00b0 82F82C60 		strb	r6, [r2, #44]
 449              	.LVL22:
 450              		.loc 7 37 66 view .LVU63
 451              	.LBE719:
 452              	.LBE718:
 453              	.LBE717:
 454              	.LBB724:
 455              	.LBI724:
 456              		.loc 6 11 5 is_stmt 1 view .LVU64
 457              	.LBB725:
 458              	.LBB726:
 459              		.loc 6 11 77 is_stmt 0 view .LVU65
 460 00b4 CDF858A0 		str	r10, [sp, #88]
 461 00b8 4FF48042 		mov	r2, #16384
 462 00bc ADF85C20 		strh	r2, [sp, #92]	@ movhi
 463              	.LVL23:
ARM GAS  /tmp/ccysU9ly.s 			page 32


 464              		.loc 6 11 77 view .LVU66
 465              	.LBE726:
 466              	.LBE725:
 467              	.LBE724:
 468              	.LBB727:
 469              	.LBI727:
  10:./Drivers/STM32/stm32_gpio.hpp ****     Stm32Gpio(GPIO_TypeDef* port, uint16_t pin) : port_(port), pin_mask_(pin) {}
 470              		.loc 6 10 5 is_stmt 1 view .LVU67
 471              	.LBB728:
 472              	.LBB729:
  10:./Drivers/STM32/stm32_gpio.hpp ****     Stm32Gpio(GPIO_TypeDef* port, uint16_t pin) : port_(port), pin_mask_(pin) {}
 473              		.loc 6 10 46 is_stmt 0 view .LVU68
 474 00c0 1896     		str	r6, [sp, #96]
 475 00c2 ADF86460 		strh	r6, [sp, #100]	@ movhi
 476              	.LVL24:
  10:./Drivers/STM32/stm32_gpio.hpp ****     Stm32Gpio(GPIO_TypeDef* port, uint16_t pin) : port_(port), pin_mask_(pin) {}
 477              		.loc 6 10 46 view .LVU69
 478              	.LBE729:
 479              	.LBE728:
 480              	.LBE727:
 481              	.LBB730:
 482              	.LBI730:
 483              		.loc 6 11 5 is_stmt 1 view .LVU70
 484              	.LBB731:
 485              	.LBB732:
 486              		.loc 6 11 77 is_stmt 0 view .LVU71
 487 00c6 0246     		mov	r2, r0
 488 00c8 1A90     		str	r0, [sp, #104]
 489 00ca ADF86C30 		strh	r3, [sp, #108]	@ movhi
 490              	.LVL25:
 491              		.loc 6 11 77 view .LVU72
 492 00ce 1799     		ldr	r1, [sp, #92]
 493 00d0 5046     		mov	r0, r10
 494 00d2 85E80300 		stm	r5, {r0, r1}
 495 00d6 1999     		ldr	r1, [sp, #100]
 496 00d8 3046     		mov	r0, r6
 497 00da 8EE80300 		stm	lr, {r0, r1}
 498 00de 1B99     		ldr	r1, [sp, #108]
 499 00e0 1046     		mov	r0, r2
 500 00e2 8CE80300 		stm	ip, {r0, r1}
 501              	.LBE732:
 502              	.LBE731:
 503              	.LBE730:
 504              	.LBB733:
 505              	.LBI733:
  34:./Drivers/DRV8301/drv8301.hpp ****             Stm32Gpio enable_gpio, Stm32Gpio nfault_gpio)
 506              		.loc 7 34 5 is_stmt 1 view .LVU73
 507              	.LVL26:
 508              	.LBB734:
 509              	.LBB735:
 510              	.LBB736:
 511              	.LBI736:
   4:./Drivers/gate_driver.hpp ****     /**
 512              		.loc 8 4 8 view .LVU74
 513              	.LBB737:
 514 00e6 744A     		ldr	r2, .L51+24
 515 00e8 7149     		ldr	r1, .L51+16
ARM GAS  /tmp/ccysU9ly.s 			page 33


 516 00ea 1160     		str	r1, [r2]
 517              	.LVL27:
   4:./Drivers/gate_driver.hpp ****     /**
 518              		.loc 8 4 8 is_stmt 0 view .LVU75
 519              	.LBE737:
 520              	.LBE736:
 521              	.LBB738:
 522              	.LBI738:
 523              		.loc 8 23 8 is_stmt 1 view .LVU76
 524              	.LBB739:
 525 00ec 7148     		ldr	r0, .L51+20
 526 00ee 5060     		str	r0, [r2, #4]
 527              	.LVL28:
 528              		.loc 8 23 8 is_stmt 0 view .LVU77
 529              	.LBE739:
 530              	.LBE738:
 531              		.loc 7 37 66 view .LVU78
 532 00f0 C2F80080 		str	r8, [r2]
 533 00f4 C2F80490 		str	r9, [r2, #4]
 534 00f8 9760     		str	r7, [r2, #8]
 535 00fa 02F10C07 		add	r7, r2, #12
 536 00fe 95E80300 		ldm	r5, {r0, r1}
 537 0102 87E80300 		stm	r7, {r0, r1}
 538 0106 02F11405 		add	r5, r2, #20
 539 010a 9EE80300 		ldm	lr, {r0, r1}
 540 010e 85E80300 		stm	r5, {r0, r1}
 541 0112 02F11C05 		add	r5, r2, #28
 542 0116 9CE80300 		ldm	ip, {r0, r1}
 543 011a 85E80300 		stm	r5, {r0, r1}
 544 011e 82F82C60 		strb	r6, [r2, #44]
 545              	.LVL29:
 546              		.loc 7 37 66 view .LVU79
 547              	.LBE735:
 548              	.LBE734:
 549              	.LBE733:
  71:Board/v3/board.cpp **** 
 550              		.loc 4 71 1 view .LVU80
 551 0122 664A     		ldr	r2, .L51+28
 552 0124 0F21     		movs	r1, #15
 553 0126 6648     		ldr	r0, .L51+32
 554              	.LEHB0:
 555 0128 FFF7FEFF 		bl	_ZN31OnboardThermistorCurrentLimiterC1EtPKfj
 556              	.LVL30:
 557              	.LEHE0:
  71:Board/v3/board.cpp **** 
 558              		.loc 4 71 1 discriminator 1 view .LVU81
 559 012c 0423     		movs	r3, #4
 560 012e 634A     		ldr	r2, .L51+28
 561 0130 1946     		mov	r1, r3
 562 0132 6448     		ldr	r0, .L51+36
 563              	.LEHB1:
 564 0134 FFF7FEFF 		bl	_ZN31OnboardThermistorCurrentLimiterC1EtPKfj
 565              	.LVL31:
 566              	.LEHE1:
  57:Board/v3/board.cpp ****     {
 567              		.loc 4 57 33 discriminator 2 view .LVU82
 568 0138 634A     		ldr	r2, .L51+40
ARM GAS  /tmp/ccysU9ly.s 			page 34


 569 013a 6449     		ldr	r1, .L51+44
 570 013c 3046     		mov	r0, r6
 571 013e FFF7FEFF 		bl	__aeabi_atexit
 572              	.LVL32:
  73:Board/v3/board.cpp **** 
 573              		.loc 4 73 62 discriminator 2 view .LVU83
 574 0142 2546     		mov	r5, r4
 575 0144 624E     		ldr	r6, .L51+48
 576 0146 01E0     		b	.L25
 577              	.L50:
  73:Board/v3/board.cpp **** 
 578              		.loc 4 73 62 discriminator 4 view .LVU84
 579 0148 5036     		adds	r6, r6, #80
  73:Board/v3/board.cpp **** 
 580              		.loc 4 73 62 is_stmt 1 discriminator 4 view .LVU85
 581 014a 013D     		subs	r5, r5, #1
 582              	.L25:
  73:Board/v3/board.cpp **** 
 583              		.loc 4 73 62 discriminator 5 view .LVU86
 584 014c 002D     		cmp	r5, #0
 585 014e 03DB     		blt	.L24
  73:Board/v3/board.cpp **** 
 586              		.loc 4 73 62 is_stmt 0 discriminator 3 view .LVU87
 587 0150 3046     		mov	r0, r6
 588              	.LEHB2:
 589 0152 FFF7FEFF 		bl	_ZN32OffboardThermistorCurrentLimiterC1Ev
 590              	.LVL33:
 591              	.LEHE2:
 592 0156 F7E7     		b	.L50
 593              	.L24:
  73:Board/v3/board.cpp **** 
 594              		.loc 4 73 34 discriminator 2 view .LVU88
 595 0158 5B4A     		ldr	r2, .L51+40
 596 015a 5E49     		ldr	r1, .L51+52
 597 015c 0020     		movs	r0, #0
 598 015e FFF7FEFF 		bl	__aeabi_atexit
 599              	.LVL34:
  94:Board/v3/board.cpp **** 
 600              		.loc 4 94 1 discriminator 2 view .LVU89
 601 0162 524B     		ldr	r3, .L51+12
 602 0164 9FED5C8A 		vldr.32	s16, .L51+56
 603 0168 5C4F     		ldr	r7, .L51+60
 604 016a 594E     		ldr	r6, .L51+48
 605 016c 0296     		str	r6, [sp, #8]
 606 016e 544D     		ldr	r5, .L51+32
 607 0170 0195     		str	r5, [sp, #4]
 608 0172 0093     		str	r3, [sp]
 609 0174 B0EE480A 		vmov.f32	s0, s16
 610 0178 0622     		movs	r2, #6
 611 017a 5949     		ldr	r1, .L51+64
 612 017c 3846     		mov	r0, r7
 613              	.LEHB3:
 614 017e FFF7FEFF 		bl	_ZN5MotorC1EP17TIM_HandleTypeDefhfR7Drv8301S3_R31OnboardThermistorCurrentLimiterR32OffboardTher
 615              	.LVL35:
 616 0182 4D4B     		ldr	r3, .L51+24
 617 0184 5036     		adds	r6, r6, #80
 618 0186 0296     		str	r6, [sp, #8]
ARM GAS  /tmp/ccysU9ly.s 			page 35


 619 0188 3835     		adds	r5, r5, #56
 620 018a 0195     		str	r5, [sp, #4]
 621 018c 0093     		str	r3, [sp]
 622 018e B0EE480A 		vmov.f32	s0, s16
 623 0192 0622     		movs	r2, #6
 624 0194 5349     		ldr	r1, .L51+68
 625 0196 07F5D870 		add	r0, r7, #432
 626 019a FFF7FEFF 		bl	_ZN5MotorC1EP17TIM_HandleTypeDefhfR7Drv8301S3_R31OnboardThermistorCurrentLimiterR32OffboardTher
 627              	.LVL36:
 628              	.LBB740:
 629              	.LBI740:
 630              		.loc 6 11 5 is_stmt 1 discriminator 2 view .LVU90
 631              	.LBB741:
 632              	.LBB742:
 633              		.loc 6 11 77 is_stmt 0 discriminator 2 view .LVU91
 634 019e 524F     		ldr	r7, .L51+72
 635 01a0 1C97     		str	r7, [sp, #112]
 636 01a2 4FF40073 		mov	r3, #512
 637 01a6 ADF87430 		strh	r3, [sp, #116]	@ movhi
 638              	.LVL37:
 639              		.loc 6 11 77 discriminator 2 view .LVU92
 640              	.LBE742:
 641              	.LBE741:
 642              	.LBE740:
 643              	.LBB743:
 644              	.LBI743:
 645              		.loc 6 11 5 is_stmt 1 discriminator 2 view .LVU93
 646              	.LBB744:
 647              	.LBB745:
 648              		.loc 6 11 77 is_stmt 0 discriminator 2 view .LVU94
 649 01aa DFF86481 		ldr	r8, .L51+112
 650 01ae CDF87880 		str	r8, [sp, #120]
 651 01b2 1022     		movs	r2, #16
 652 01b4 ADF87C20 		strh	r2, [sp, #124]	@ movhi
 653              	.LVL38:
 654              		.loc 6 11 77 discriminator 2 view .LVU95
 655              	.LBE745:
 656              	.LBE744:
 657              	.LBE743:
 658              	.LBB746:
 659              	.LBI746:
 660              		.loc 6 11 5 is_stmt 1 discriminator 2 view .LVU96
 661              	.LBB747:
 662              	.LBB748:
 663              		.loc 6 11 77 is_stmt 0 discriminator 2 view .LVU97
 664 01b8 CDF88080 		str	r8, [sp, #128]
 665 01bc 2022     		movs	r2, #32
 666 01be ADF88420 		strh	r2, [sp, #132]	@ movhi
 667              	.LVL39:
 668              		.loc 6 11 77 discriminator 2 view .LVU98
 669              	.LBE748:
 670              	.LBE747:
 671              	.LBE746:
 672              	.LBB749:
 673              	.LBI749:
 674              		.loc 6 11 5 is_stmt 1 discriminator 2 view .LVU99
 675              	.LBB750:
ARM GAS  /tmp/ccysU9ly.s 			page 36


 676              	.LBB751:
 677              		.loc 6 11 77 is_stmt 0 discriminator 2 view .LVU100
 678 01c2 2297     		str	r7, [sp, #136]
 679 01c4 ADF88C30 		strh	r3, [sp, #140]	@ movhi
 680              	.LVL40:
 681              		.loc 6 11 77 discriminator 2 view .LVU101
 682              	.LBE751:
 683              	.LBE750:
 684              	.LBE749:
 113:Board/v3/board.cpp **** 
 685              		.loc 4 113 1 discriminator 2 view .LVU102
 686 01c8 DFF84891 		ldr	r9, .L51+116
 687 01cc DFF8D0A0 		ldr	r10, .L51
 688 01d0 CDF818A0 		str	r10, [sp, #24]
 689 01d4 04AE     		add	r6, sp, #16
 690 01d6 2399     		ldr	r1, [sp, #140]
 691 01d8 3846     		mov	r0, r7
 692 01da 86E80300 		stm	r6, {r0, r1}
 693 01de 02AD     		add	r5, sp, #8
 694 01e0 2199     		ldr	r1, [sp, #132]
 695 01e2 2098     		ldr	r0, [sp, #128]
 696 01e4 85E80300 		stm	r5, {r0, r1}
 697 01e8 1F99     		ldr	r1, [sp, #124]
 698 01ea 1E98     		ldr	r0, [sp, #120]
 699 01ec 8DE80300 		stm	sp, {r0, r1}
 700 01f0 1D9B     		ldr	r3, [sp, #116]
 701 01f2 1C9A     		ldr	r2, [sp, #112]
 702 01f4 3D49     		ldr	r1, .L51+76
 703 01f6 4846     		mov	r0, r9
 704 01f8 FFF7FEFF 		bl	_ZN7EncoderC1EP17TIM_HandleTypeDef9Stm32GpioS2_S2_S2_P15Stm32SpiArbiter
 705              	.LVL41:
 706              	.LBB752:
 707              	.LBI752:
 708              		.loc 6 11 5 is_stmt 1 discriminator 2 view .LVU103
 709              	.LBB753:
 710              	.LBB754:
 711              		.loc 6 11 77 is_stmt 0 discriminator 2 view .LVU104
 712 01fc 2497     		str	r7, [sp, #144]
 713 01fe 4FF40043 		mov	r3, #32768
 714 0202 ADF89430 		strh	r3, [sp, #148]	@ movhi
 715              	.LVL42:
 716              		.loc 6 11 77 discriminator 2 view .LVU105
 717              	.LBE754:
 718              	.LBE753:
 719              	.LBE752:
 720              	.LBB755:
 721              	.LBI755:
 722              		.loc 6 11 5 is_stmt 1 discriminator 2 view .LVU106
 723              	.LBB756:
 724              	.LBB757:
 725              		.loc 6 11 77 is_stmt 0 discriminator 2 view .LVU107
 726 0206 CDF89880 		str	r8, [sp, #152]
 727 020a 4022     		movs	r2, #64
 728 020c ADF89C20 		strh	r2, [sp, #156]	@ movhi
 729              	.LVL43:
 730              		.loc 6 11 77 discriminator 2 view .LVU108
 731              	.LBE757:
ARM GAS  /tmp/ccysU9ly.s 			page 37


 732              	.LBE756:
 733              	.LBE755:
 734              	.LBB758:
 735              	.LBI758:
 736              		.loc 6 11 5 is_stmt 1 discriminator 2 view .LVU109
 737              	.LBB759:
 738              	.LBB760:
 739              		.loc 6 11 77 is_stmt 0 discriminator 2 view .LVU110
 740 0210 CDF8A080 		str	r8, [sp, #160]
 741 0214 8022     		movs	r2, #128
 742 0216 ADF8A420 		strh	r2, [sp, #164]	@ movhi
 743              	.LVL44:
 744              		.loc 6 11 77 discriminator 2 view .LVU111
 745              	.LBE760:
 746              	.LBE759:
 747              	.LBE758:
 748              	.LBB761:
 749              	.LBI761:
 750              		.loc 6 11 5 is_stmt 1 discriminator 2 view .LVU112
 751              	.LBB762:
 752              	.LBB763:
 753              		.loc 6 11 77 is_stmt 0 discriminator 2 view .LVU113
 754 021a 2A97     		str	r7, [sp, #168]
 755 021c ADF8AC30 		strh	r3, [sp, #172]	@ movhi
 756              	.LVL45:
 757              		.loc 6 11 77 discriminator 2 view .LVU114
 758              	.LBE763:
 759              	.LBE762:
 760              	.LBE761:
 113:Board/v3/board.cpp **** 
 761              		.loc 4 113 1 discriminator 2 view .LVU115
 762 0220 CDF818A0 		str	r10, [sp, #24]
 763 0224 2B99     		ldr	r1, [sp, #172]
 764 0226 3846     		mov	r0, r7
 765 0228 86E80300 		stm	r6, {r0, r1}
 766 022c 2999     		ldr	r1, [sp, #164]
 767 022e 2898     		ldr	r0, [sp, #160]
 768 0230 85E80300 		stm	r5, {r0, r1}
 769 0234 2799     		ldr	r1, [sp, #156]
 770 0236 2698     		ldr	r0, [sp, #152]
 771 0238 8DE80300 		stm	sp, {r0, r1}
 772 023c 259B     		ldr	r3, [sp, #148]
 773 023e 249A     		ldr	r2, [sp, #144]
 774 0240 2B49     		ldr	r1, .L51+80
 775 0242 09F5D070 		add	r0, r9, #416
 776 0246 FFF7FEFF 		bl	_ZN7EncoderC1EP17TIM_HandleTypeDef9Stm32GpioS2_S2_S2_P15Stm32SpiArbiter
 777              	.LVL46:
 117:Board/v3/board.cpp **** 
 778              		.loc 4 117 45 discriminator 2 view .LVU116
 779 024a 2146     		mov	r1, r4
 780 024c 294B     		ldr	r3, .L51+84
 781              	.L27:
 117:Board/v3/board.cpp **** 
 782              		.loc 4 117 45 is_stmt 1 discriminator 4 view .LVU117
 783 024e 0029     		cmp	r1, #0
 784 0250 0CDB     		blt	.L38
 785              	.LVL47:
ARM GAS  /tmp/ccysU9ly.s 			page 38


 786              	.LBB764:
 787              	.LBI764:
 788              		.file 9 "MotorControl/mechanical_brake.hpp"
   1:MotorControl/mechanical_brake.hpp **** #ifndef __MECHANICAL_BRAKE_HPP
   2:MotorControl/mechanical_brake.hpp **** #define __MECHANICAL_BRAKE_HPP
   3:MotorControl/mechanical_brake.hpp **** 
   4:MotorControl/mechanical_brake.hpp **** #include <autogen/interfaces.hpp>
   5:MotorControl/mechanical_brake.hpp **** 
   6:MotorControl/mechanical_brake.hpp **** class MechanicalBrake : public ODriveIntf::MechanicalBrakeIntf  {
   7:MotorControl/mechanical_brake.hpp ****    public:
   8:MotorControl/mechanical_brake.hpp ****     struct Config_t {
   9:MotorControl/mechanical_brake.hpp ****         uint16_t gpio_num = 0;
  10:MotorControl/mechanical_brake.hpp ****         bool is_active_low = true;
  11:MotorControl/mechanical_brake.hpp **** 
  12:MotorControl/mechanical_brake.hpp ****         // custom setters
  13:MotorControl/mechanical_brake.hpp ****         MechanicalBrake* parent = nullptr;
  14:MotorControl/mechanical_brake.hpp ****         void set_gpio_num(uint16_t value) { gpio_num = value; }
  15:MotorControl/mechanical_brake.hpp ****     };
  16:MotorControl/mechanical_brake.hpp **** 
  17:MotorControl/mechanical_brake.hpp ****     MechanicalBrake() {}
 789              		.loc 9 17 5 view .LVU118
 790              	.LBB765:
 791              	.LBB766:
 792              	.LBI766:
 793              		.file 10 "./autogen/interfaces.hpp"
   1:./autogen/interfaces.hpp **** /*
   2:./autogen/interfaces.hpp ****  * ============================ WARNING ============================
   3:./autogen/interfaces.hpp ****  * ==== This is an autogenerated file.                          ====
   4:./autogen/interfaces.hpp ****  * ==== Any changes to this file will be lost when recompiling. ====
   5:./autogen/interfaces.hpp ****  * =================================================================
   6:./autogen/interfaces.hpp ****  *
   7:./autogen/interfaces.hpp ****  * This file contains base classes that correspond to the interfaces defined in
   8:./autogen/interfaces.hpp ****  * your interface file. The objects you publish should inherit from these
   9:./autogen/interfaces.hpp ****  * interfaces.
  10:./autogen/interfaces.hpp ****  *
  11:./autogen/interfaces.hpp ****  */
  12:./autogen/interfaces.hpp **** #ifndef __FIBRE_INTERFACES_HPP
  13:./autogen/interfaces.hpp **** #define __FIBRE_INTERFACES_HPP
  14:./autogen/interfaces.hpp **** 
  15:./autogen/interfaces.hpp **** #include <tuple>
  16:./autogen/interfaces.hpp **** using float2D = std::pair<float, float>;
  17:./autogen/interfaces.hpp **** struct Iph_ABC_t { float phA; float phB; float phC; };
  18:./autogen/interfaces.hpp **** 
  19:./autogen/interfaces.hpp **** 
  20:./autogen/interfaces.hpp **** #include <fibre/../../protocol.hpp>
  21:./autogen/interfaces.hpp **** 
  22:./autogen/interfaces.hpp **** #pragma GCC push_options
  23:./autogen/interfaces.hpp **** #pragma GCC optimize ("s")
  24:./autogen/interfaces.hpp **** 
  25:./autogen/interfaces.hpp **** 
  26:./autogen/interfaces.hpp **** 
  27:./autogen/interfaces.hpp **** class ODriveIntf {
  28:./autogen/interfaces.hpp **** public:
  29:./autogen/interfaces.hpp ****     class ConfigIntf {
  30:./autogen/interfaces.hpp ****     public:
  31:./autogen/interfaces.hpp ****         template<typename T> static inline auto get_enable_uart_a(T* obj) { return Property<bool>{&
  32:./autogen/interfaces.hpp ****         template<typename T> static inline void get_enable_uart_a(T* obj, void* ptr) { new (ptr) Pr
ARM GAS  /tmp/ccysU9ly.s 			page 39


  33:./autogen/interfaces.hpp ****         template<typename T> static inline auto get_enable_uart_b(T* obj) { return Property<bool>{&
  34:./autogen/interfaces.hpp ****         template<typename T> static inline void get_enable_uart_b(T* obj, void* ptr) { new (ptr) Pr
  35:./autogen/interfaces.hpp ****         template<typename T> static inline auto get_enable_uart_c(T* obj) { return Property<bool>{&
  36:./autogen/interfaces.hpp ****         template<typename T> static inline void get_enable_uart_c(T* obj, void* ptr) { new (ptr) Pr
  37:./autogen/interfaces.hpp ****         template<typename T> static inline auto get_uart_a_baudrate(T* obj) { return Property<uint3
  38:./autogen/interfaces.hpp ****         template<typename T> static inline void get_uart_a_baudrate(T* obj, void* ptr) { new (ptr) 
  39:./autogen/interfaces.hpp ****         template<typename T> static inline auto get_uart_b_baudrate(T* obj) { return Property<uint3
  40:./autogen/interfaces.hpp ****         template<typename T> static inline void get_uart_b_baudrate(T* obj, void* ptr) { new (ptr) 
  41:./autogen/interfaces.hpp ****         template<typename T> static inline auto get_uart_c_baudrate(T* obj) { return Property<uint3
  42:./autogen/interfaces.hpp ****         template<typename T> static inline void get_uart_c_baudrate(T* obj, void* ptr) { new (ptr) 
  43:./autogen/interfaces.hpp ****         template<typename T> static inline auto get_enable_can_a(T* obj) { return Property<bool>{&o
  44:./autogen/interfaces.hpp ****         template<typename T> static inline void get_enable_can_a(T* obj, void* ptr) { new (ptr) Pro
  45:./autogen/interfaces.hpp ****         template<typename T> static inline auto get_enable_i2c_a(T* obj) { return Property<bool>{&o
  46:./autogen/interfaces.hpp ****         template<typename T> static inline void get_enable_i2c_a(T* obj, void* ptr) { new (ptr) Pro
  47:./autogen/interfaces.hpp ****         template<typename T> static inline auto get_usb_cdc_protocol(T* obj) { return Property<ODri
  48:./autogen/interfaces.hpp ****         template<typename T> static inline void get_usb_cdc_protocol(T* obj, void* ptr) { new (ptr)
  49:./autogen/interfaces.hpp ****         template<typename T> static inline auto get_uart0_protocol(T* obj) { return Property<ODrive
  50:./autogen/interfaces.hpp ****         template<typename T> static inline void get_uart0_protocol(T* obj, void* ptr) { new (ptr) P
  51:./autogen/interfaces.hpp ****         template<typename T> static inline auto get_uart1_protocol(T* obj) { return Property<ODrive
  52:./autogen/interfaces.hpp ****         template<typename T> static inline void get_uart1_protocol(T* obj, void* ptr) { new (ptr) P
  53:./autogen/interfaces.hpp ****         template<typename T> static inline auto get_uart2_protocol(T* obj) { return Property<ODrive
  54:./autogen/interfaces.hpp ****         template<typename T> static inline void get_uart2_protocol(T* obj, void* ptr) { new (ptr) P
  55:./autogen/interfaces.hpp ****         template<typename T> static inline auto get_max_regen_current(T* obj) { return Property<flo
  56:./autogen/interfaces.hpp ****         template<typename T> static inline void get_max_regen_current(T* obj, void* ptr) { new (ptr
  57:./autogen/interfaces.hpp ****         template<typename T> static inline auto get_brake_resistance(T* obj) { return Property<floa
  58:./autogen/interfaces.hpp ****         template<typename T> static inline void get_brake_resistance(T* obj, void* ptr) { new (ptr)
  59:./autogen/interfaces.hpp ****         template<typename T> static inline auto get_enable_brake_resistor(T* obj) { return Property
  60:./autogen/interfaces.hpp ****         template<typename T> static inline void get_enable_brake_resistor(T* obj, void* ptr) { new 
  61:./autogen/interfaces.hpp ****         template<typename T> static inline auto get_dc_bus_undervoltage_trip_level(T* obj) { return
  62:./autogen/interfaces.hpp ****         template<typename T> static inline void get_dc_bus_undervoltage_trip_level(T* obj, void* pt
  63:./autogen/interfaces.hpp ****         template<typename T> static inline auto get_dc_bus_overvoltage_trip_level(T* obj) { return 
  64:./autogen/interfaces.hpp ****         template<typename T> static inline void get_dc_bus_overvoltage_trip_level(T* obj, void* ptr
  65:./autogen/interfaces.hpp ****         template<typename T> static inline auto get_enable_dc_bus_overvoltage_ramp(T* obj) { return
  66:./autogen/interfaces.hpp ****         template<typename T> static inline void get_enable_dc_bus_overvoltage_ramp(T* obj, void* pt
  67:./autogen/interfaces.hpp ****         template<typename T> static inline auto get_dc_bus_overvoltage_ramp_start(T* obj) { return 
  68:./autogen/interfaces.hpp ****         template<typename T> static inline void get_dc_bus_overvoltage_ramp_start(T* obj, void* ptr
  69:./autogen/interfaces.hpp ****         template<typename T> static inline auto get_dc_bus_overvoltage_ramp_end(T* obj) { return Pr
  70:./autogen/interfaces.hpp ****         template<typename T> static inline void get_dc_bus_overvoltage_ramp_end(T* obj, void* ptr) 
  71:./autogen/interfaces.hpp ****         template<typename T> static inline auto get_dc_max_positive_current(T* obj) { return Proper
  72:./autogen/interfaces.hpp ****         template<typename T> static inline void get_dc_max_positive_current(T* obj, void* ptr) { ne
  73:./autogen/interfaces.hpp ****         template<typename T> static inline auto get_dc_max_negative_current(T* obj) { return Proper
  74:./autogen/interfaces.hpp ****         template<typename T> static inline void get_dc_max_negative_current(T* obj, void* ptr) { ne
  75:./autogen/interfaces.hpp ****         template<typename T> static inline auto get_error_gpio_pin(T* obj) { return Property<uint32
  76:./autogen/interfaces.hpp ****         template<typename T> static inline void get_error_gpio_pin(T* obj, void* ptr) { new (ptr) P
  77:./autogen/interfaces.hpp ****         template<typename T> static inline auto get_gpio3_analog_mapping(T* obj) { return &obj->ana
  78:./autogen/interfaces.hpp ****         template<typename T> static inline auto get_gpio4_analog_mapping(T* obj) { return &obj->ana
  79:./autogen/interfaces.hpp ****     };
  80:./autogen/interfaces.hpp ****     class CanIntf {
  81:./autogen/interfaces.hpp ****     public:
  82:./autogen/interfaces.hpp ****         class ConfigIntf {
  83:./autogen/interfaces.hpp ****         public:
  84:./autogen/interfaces.hpp ****             template<typename T> static inline auto get_baud_rate(T* obj) { return Property<uint32_
  85:./autogen/interfaces.hpp ****             template<typename T> static inline void get_baud_rate(T* obj, void* ptr) { new (ptr) Pr
  86:./autogen/interfaces.hpp ****             template<typename T> static inline auto get_protocol(T* obj) { return Property<ODriveIn
  87:./autogen/interfaces.hpp ****             template<typename T> static inline void get_protocol(T* obj, void* ptr) { new (ptr) Pro
  88:./autogen/interfaces.hpp ****         };
  89:./autogen/interfaces.hpp ****         enum Error {
ARM GAS  /tmp/ccysU9ly.s 			page 40


  90:./autogen/interfaces.hpp ****             ERROR_NONE                       = 0x00000000,
  91:./autogen/interfaces.hpp ****             ERROR_DUPLICATE_CAN_IDS          = 0x00000001,
  92:./autogen/interfaces.hpp ****         };
  93:./autogen/interfaces.hpp ****         enum Protocol {
  94:./autogen/interfaces.hpp ****             PROTOCOL_SIMPLE                  = 0x00000001,
  95:./autogen/interfaces.hpp ****         };
  96:./autogen/interfaces.hpp ****         template<typename T> static inline auto get_error(T* obj) { return Property<ODriveIntf::Can
  97:./autogen/interfaces.hpp ****         template<typename T> static inline void get_error(T* obj, void* ptr) { new (ptr) Property<O
  98:./autogen/interfaces.hpp ****         template<typename T> static inline auto get_config(T* obj) { return &obj->config_; }
  99:./autogen/interfaces.hpp ****     };
 100:./autogen/interfaces.hpp ****     class EndpointIntf {
 101:./autogen/interfaces.hpp ****     public:
 102:./autogen/interfaces.hpp ****         template<typename T> static inline auto get_endpoint(T* obj) { return Property<endpoint_ref
 103:./autogen/interfaces.hpp ****         template<typename T> static inline void get_endpoint(T* obj, void* ptr) { new (ptr) Propert
 104:./autogen/interfaces.hpp ****         template<typename T> static inline auto get_min(T* obj) { return Property<float>{&obj->min}
 105:./autogen/interfaces.hpp ****         template<typename T> static inline void get_min(T* obj, void* ptr) { new (ptr) Property<flo
 106:./autogen/interfaces.hpp ****         template<typename T> static inline auto get_max(T* obj) { return Property<float>{&obj->max}
 107:./autogen/interfaces.hpp ****         template<typename T> static inline void get_max(T* obj, void* ptr) { new (ptr) Property<flo
 108:./autogen/interfaces.hpp ****     };
 109:./autogen/interfaces.hpp ****     class AxisIntf {
 110:./autogen/interfaces.hpp ****     public:
 111:./autogen/interfaces.hpp ****         class LockinConfigIntf {
 112:./autogen/interfaces.hpp ****         public:
 113:./autogen/interfaces.hpp ****             template<typename T> static inline auto get_current(T* obj) { return Property<float>{&o
 114:./autogen/interfaces.hpp ****             template<typename T> static inline void get_current(T* obj, void* ptr) { new (ptr) Prop
 115:./autogen/interfaces.hpp ****             template<typename T> static inline auto get_ramp_time(T* obj) { return Property<float>{
 116:./autogen/interfaces.hpp ****             template<typename T> static inline void get_ramp_time(T* obj, void* ptr) { new (ptr) Pr
 117:./autogen/interfaces.hpp ****             template<typename T> static inline auto get_ramp_distance(T* obj) { return Property<flo
 118:./autogen/interfaces.hpp ****             template<typename T> static inline void get_ramp_distance(T* obj, void* ptr) { new (ptr
 119:./autogen/interfaces.hpp ****             template<typename T> static inline auto get_accel(T* obj) { return Property<float>{&obj
 120:./autogen/interfaces.hpp ****             template<typename T> static inline void get_accel(T* obj, void* ptr) { new (ptr) Proper
 121:./autogen/interfaces.hpp ****             template<typename T> static inline auto get_vel(T* obj) { return Property<float>{&obj->
 122:./autogen/interfaces.hpp ****             template<typename T> static inline void get_vel(T* obj, void* ptr) { new (ptr) Property
 123:./autogen/interfaces.hpp ****             template<typename T> static inline auto get_finish_distance(T* obj) { return Property<f
 124:./autogen/interfaces.hpp ****             template<typename T> static inline void get_finish_distance(T* obj, void* ptr) { new (p
 125:./autogen/interfaces.hpp ****             template<typename T> static inline auto get_finish_on_vel(T* obj) { return Property<boo
 126:./autogen/interfaces.hpp ****             template<typename T> static inline void get_finish_on_vel(T* obj, void* ptr) { new (ptr
 127:./autogen/interfaces.hpp ****             template<typename T> static inline auto get_finish_on_distance(T* obj) { return Propert
 128:./autogen/interfaces.hpp ****             template<typename T> static inline void get_finish_on_distance(T* obj, void* ptr) { new
 129:./autogen/interfaces.hpp ****             template<typename T> static inline auto get_finish_on_enc_idx(T* obj) { return Property
 130:./autogen/interfaces.hpp ****             template<typename T> static inline void get_finish_on_enc_idx(T* obj, void* ptr) { new 
 131:./autogen/interfaces.hpp ****         };
 132:./autogen/interfaces.hpp ****         class CanConfigIntf {
 133:./autogen/interfaces.hpp ****         public:
 134:./autogen/interfaces.hpp ****             template<typename T> static inline auto get_node_id(T* obj) { return Property<uint32_t>
 135:./autogen/interfaces.hpp ****             template<typename T> static inline void get_node_id(T* obj, void* ptr) { new (ptr) Prop
 136:./autogen/interfaces.hpp ****             template<typename T> static inline auto get_is_extended(T* obj) { return Property<bool>
 137:./autogen/interfaces.hpp ****             template<typename T> static inline void get_is_extended(T* obj, void* ptr) { new (ptr) 
 138:./autogen/interfaces.hpp ****             template<typename T> static inline auto get_heartbeat_rate_ms(T* obj) { return Property
 139:./autogen/interfaces.hpp ****             template<typename T> static inline void get_heartbeat_rate_ms(T* obj, void* ptr) { new 
 140:./autogen/interfaces.hpp ****             template<typename T> static inline auto get_encoder_rate_ms(T* obj) { return Property<u
 141:./autogen/interfaces.hpp ****             template<typename T> static inline void get_encoder_rate_ms(T* obj, void* ptr) { new (p
 142:./autogen/interfaces.hpp ****             template<typename T> static inline auto get_motor_error_rate_ms(T* obj) { return Proper
 143:./autogen/interfaces.hpp ****             template<typename T> static inline void get_motor_error_rate_ms(T* obj, void* ptr) { ne
 144:./autogen/interfaces.hpp ****             template<typename T> static inline auto get_encoder_error_rate_ms(T* obj) { return Prop
 145:./autogen/interfaces.hpp ****             template<typename T> static inline void get_encoder_error_rate_ms(T* obj, void* ptr) { 
 146:./autogen/interfaces.hpp ****             template<typename T> static inline auto get_controller_error_rate_ms(T* obj) { return P
ARM GAS  /tmp/ccysU9ly.s 			page 41


 147:./autogen/interfaces.hpp ****             template<typename T> static inline void get_controller_error_rate_ms(T* obj, void* ptr)
 148:./autogen/interfaces.hpp ****             template<typename T> static inline auto get_sensorless_error_rate_ms(T* obj) { return P
 149:./autogen/interfaces.hpp ****             template<typename T> static inline void get_sensorless_error_rate_ms(T* obj, void* ptr)
 150:./autogen/interfaces.hpp ****             template<typename T> static inline auto get_encoder_count_rate_ms(T* obj) { return Prop
 151:./autogen/interfaces.hpp ****             template<typename T> static inline void get_encoder_count_rate_ms(T* obj, void* ptr) { 
 152:./autogen/interfaces.hpp ****             template<typename T> static inline auto get_iq_rate_ms(T* obj) { return Property<uint32
 153:./autogen/interfaces.hpp ****             template<typename T> static inline void get_iq_rate_ms(T* obj, void* ptr) { new (ptr) P
 154:./autogen/interfaces.hpp ****             template<typename T> static inline auto get_sensorless_rate_ms(T* obj) { return Propert
 155:./autogen/interfaces.hpp ****             template<typename T> static inline void get_sensorless_rate_ms(T* obj, void* ptr) { new
 156:./autogen/interfaces.hpp ****             template<typename T> static inline auto get_bus_vi_rate_ms(T* obj) { return Property<ui
 157:./autogen/interfaces.hpp ****             template<typename T> static inline void get_bus_vi_rate_ms(T* obj, void* ptr) { new (pt
 158:./autogen/interfaces.hpp ****         };
 159:./autogen/interfaces.hpp ****         class ConfigIntf {
 160:./autogen/interfaces.hpp ****         public:
 161:./autogen/interfaces.hpp ****             class CalibrationLockinIntf {
 162:./autogen/interfaces.hpp ****             public:
 163:./autogen/interfaces.hpp ****                 template<typename T> static inline auto get_current(T* obj) { return Property<float
 164:./autogen/interfaces.hpp ****                 template<typename T> static inline void get_current(T* obj, void* ptr) { new (ptr) 
 165:./autogen/interfaces.hpp ****                 template<typename T> static inline auto get_ramp_time(T* obj) { return Property<flo
 166:./autogen/interfaces.hpp ****                 template<typename T> static inline void get_ramp_time(T* obj, void* ptr) { new (ptr
 167:./autogen/interfaces.hpp ****                 template<typename T> static inline auto get_ramp_distance(T* obj) { return Property
 168:./autogen/interfaces.hpp ****                 template<typename T> static inline void get_ramp_distance(T* obj, void* ptr) { new 
 169:./autogen/interfaces.hpp ****                 template<typename T> static inline auto get_accel(T* obj) { return Property<float>{
 170:./autogen/interfaces.hpp ****                 template<typename T> static inline void get_accel(T* obj, void* ptr) { new (ptr) Pr
 171:./autogen/interfaces.hpp ****                 template<typename T> static inline auto get_vel(T* obj) { return Property<float>{&o
 172:./autogen/interfaces.hpp ****                 template<typename T> static inline void get_vel(T* obj, void* ptr) { new (ptr) Prop
 173:./autogen/interfaces.hpp ****             };
 174:./autogen/interfaces.hpp ****             template<typename T> static inline auto get_startup_motor_calibration(T* obj) { return 
 175:./autogen/interfaces.hpp ****             template<typename T> static inline void get_startup_motor_calibration(T* obj, void* ptr
 176:./autogen/interfaces.hpp ****             template<typename T> static inline auto get_startup_encoder_index_search(T* obj) { retu
 177:./autogen/interfaces.hpp ****             template<typename T> static inline void get_startup_encoder_index_search(T* obj, void* 
 178:./autogen/interfaces.hpp ****             template<typename T> static inline auto get_startup_encoder_offset_calibration(T* obj) 
 179:./autogen/interfaces.hpp ****             template<typename T> static inline void get_startup_encoder_offset_calibration(T* obj, 
 180:./autogen/interfaces.hpp ****             template<typename T> static inline auto get_startup_closed_loop_control(T* obj) { retur
 181:./autogen/interfaces.hpp ****             template<typename T> static inline void get_startup_closed_loop_control(T* obj, void* p
 182:./autogen/interfaces.hpp ****             template<typename T> static inline auto get_startup_homing(T* obj) { return Property<bo
 183:./autogen/interfaces.hpp ****             template<typename T> static inline void get_startup_homing(T* obj, void* ptr) { new (pt
 184:./autogen/interfaces.hpp ****             template<typename T> static inline auto get_enable_step_dir(T* obj) { return Property<b
 185:./autogen/interfaces.hpp ****             template<typename T> static inline void get_enable_step_dir(T* obj, void* ptr) { new (p
 186:./autogen/interfaces.hpp ****             template<typename T> static inline auto get_step_dir_always_on(T* obj) { return Propert
 187:./autogen/interfaces.hpp ****             template<typename T> static inline void get_step_dir_always_on(T* obj, void* ptr) { new
 188:./autogen/interfaces.hpp ****             template<typename T> static inline auto get_enable_sensorless_mode(T* obj) { return Pro
 189:./autogen/interfaces.hpp ****             template<typename T> static inline void get_enable_sensorless_mode(T* obj, void* ptr) {
 190:./autogen/interfaces.hpp ****             template<typename T> static inline auto get_watchdog_timeout(T* obj) { return Property<
 191:./autogen/interfaces.hpp ****             template<typename T> static inline void get_watchdog_timeout(T* obj, void* ptr) { new (
 192:./autogen/interfaces.hpp ****             template<typename T> static inline auto get_enable_watchdog(T* obj) { return Property<b
 193:./autogen/interfaces.hpp ****             template<typename T> static inline void get_enable_watchdog(T* obj, void* ptr) { new (p
 194:./autogen/interfaces.hpp ****             template<typename T> static inline auto get_step_gpio_pin(T* obj) { return Property<uin
 195:./autogen/interfaces.hpp ****             template<typename T> static inline void get_step_gpio_pin(T* obj, void* ptr) { new (ptr
 196:./autogen/interfaces.hpp ****             template<typename T> static inline auto get_dir_gpio_pin(T* obj) { return Property<uint
 197:./autogen/interfaces.hpp ****             template<typename T> static inline void get_dir_gpio_pin(T* obj, void* ptr) { new (ptr)
 198:./autogen/interfaces.hpp ****             template<typename T> static inline auto get_calibration_lockin(T* obj) { return &obj->c
 199:./autogen/interfaces.hpp ****             template<typename T> static inline auto get_sensorless_ramp(T* obj) { return &obj->sens
 200:./autogen/interfaces.hpp ****             template<typename T> static inline auto get_general_lockin(T* obj) { return &obj->gener
 201:./autogen/interfaces.hpp ****             template<typename T> static inline auto get_can(T* obj) { return &obj->can; }
 202:./autogen/interfaces.hpp ****         };
 203:./autogen/interfaces.hpp ****         class TaskTimesIntf {
ARM GAS  /tmp/ccysU9ly.s 			page 42


 204:./autogen/interfaces.hpp ****         public:
 205:./autogen/interfaces.hpp ****             template<typename T> static inline auto get_thermistor_update(T* obj) { return &obj->th
 206:./autogen/interfaces.hpp ****             template<typename T> static inline auto get_encoder_update(T* obj) { return &obj->encod
 207:./autogen/interfaces.hpp ****             template<typename T> static inline auto get_sensorless_estimator_update(T* obj) { retur
 208:./autogen/interfaces.hpp ****             template<typename T> static inline auto get_endstop_update(T* obj) { return &obj->endst
 209:./autogen/interfaces.hpp ****             template<typename T> static inline auto get_can_heartbeat(T* obj) { return &obj->can_he
 210:./autogen/interfaces.hpp ****             template<typename T> static inline auto get_controller_update(T* obj) { return &obj->co
 211:./autogen/interfaces.hpp ****             template<typename T> static inline auto get_open_loop_controller_update(T* obj) { retur
 212:./autogen/interfaces.hpp ****             template<typename T> static inline auto get_acim_estimator_update(T* obj) { return &obj
 213:./autogen/interfaces.hpp ****             template<typename T> static inline auto get_motor_update(T* obj) { return &obj->motor_u
 214:./autogen/interfaces.hpp ****             template<typename T> static inline auto get_current_controller_update(T* obj) { return 
 215:./autogen/interfaces.hpp ****             template<typename T> static inline auto get_dc_calib(T* obj) { return &obj->dc_calib; }
 216:./autogen/interfaces.hpp ****             template<typename T> static inline auto get_current_sense(T* obj) { return &obj->curren
 217:./autogen/interfaces.hpp ****             template<typename T> static inline auto get_pwm_update(T* obj) { return &obj->pwm_updat
 218:./autogen/interfaces.hpp ****         };
 219:./autogen/interfaces.hpp ****         enum Error {
 220:./autogen/interfaces.hpp ****             ERROR_NONE                       = 0x00000000,
 221:./autogen/interfaces.hpp ****             ERROR_INVALID_STATE              = 0x00000001,
 222:./autogen/interfaces.hpp ****             ERROR_MOTOR_FAILED               = 0x00000040,
 223:./autogen/interfaces.hpp ****             ERROR_SENSORLESS_ESTIMATOR_FAILED = 0x00000080,
 224:./autogen/interfaces.hpp ****             ERROR_ENCODER_FAILED             = 0x00000100,
 225:./autogen/interfaces.hpp ****             ERROR_CONTROLLER_FAILED          = 0x00000200,
 226:./autogen/interfaces.hpp ****             ERROR_WATCHDOG_TIMER_EXPIRED     = 0x00000800,
 227:./autogen/interfaces.hpp ****             ERROR_MIN_ENDSTOP_PRESSED        = 0x00001000,
 228:./autogen/interfaces.hpp ****             ERROR_MAX_ENDSTOP_PRESSED        = 0x00002000,
 229:./autogen/interfaces.hpp ****             ERROR_ESTOP_REQUESTED            = 0x00004000,
 230:./autogen/interfaces.hpp ****             ERROR_HOMING_WITHOUT_ENDSTOP     = 0x00020000,
 231:./autogen/interfaces.hpp ****             ERROR_OVER_TEMP                  = 0x00040000,
 232:./autogen/interfaces.hpp ****             ERROR_UNKNOWN_POSITION           = 0x00080000,
 233:./autogen/interfaces.hpp ****         };
 234:./autogen/interfaces.hpp ****         enum AxisState {
 235:./autogen/interfaces.hpp ****             AXIS_STATE_UNDEFINED             = 0,
 236:./autogen/interfaces.hpp ****             AXIS_STATE_IDLE                  = 1,
 237:./autogen/interfaces.hpp ****             AXIS_STATE_STARTUP_SEQUENCE      = 2,
 238:./autogen/interfaces.hpp ****             AXIS_STATE_FULL_CALIBRATION_SEQUENCE = 3,
 239:./autogen/interfaces.hpp ****             AXIS_STATE_MOTOR_CALIBRATION     = 4,
 240:./autogen/interfaces.hpp ****             AXIS_STATE_ENCODER_INDEX_SEARCH  = 6,
 241:./autogen/interfaces.hpp ****             AXIS_STATE_ENCODER_OFFSET_CALIBRATION = 7,
 242:./autogen/interfaces.hpp ****             AXIS_STATE_CLOSED_LOOP_CONTROL   = 8,
 243:./autogen/interfaces.hpp ****             AXIS_STATE_LOCKIN_SPIN           = 9,
 244:./autogen/interfaces.hpp ****             AXIS_STATE_ENCODER_DIR_FIND      = 10,
 245:./autogen/interfaces.hpp ****             AXIS_STATE_HOMING                = 11,
 246:./autogen/interfaces.hpp ****             AXIS_STATE_ENCODER_HALL_POLARITY_CALIBRATION = 12,
 247:./autogen/interfaces.hpp ****             AXIS_STATE_ENCODER_HALL_PHASE_CALIBRATION = 13,
 248:./autogen/interfaces.hpp ****         };
 249:./autogen/interfaces.hpp ****         template<typename T> static inline auto get_error(T* obj) { return Property<ODriveIntf::Axi
 250:./autogen/interfaces.hpp ****         template<typename T> static inline void get_error(T* obj, void* ptr) { new (ptr) Property<O
 251:./autogen/interfaces.hpp ****         template<typename T> static inline auto get_step_dir_active(T* obj) { return Property<const
 252:./autogen/interfaces.hpp ****         template<typename T> static inline void get_step_dir_active(T* obj, void* ptr) { new (ptr) 
 253:./autogen/interfaces.hpp ****         template<typename T> static inline auto get_last_drv_fault(T* obj) { return Property<const 
 254:./autogen/interfaces.hpp ****         template<typename T> static inline void get_last_drv_fault(T* obj, void* ptr) { new (ptr) P
 255:./autogen/interfaces.hpp ****         template<typename T> static inline auto get_steps(T* obj) { return Property<const int64_t>{
 256:./autogen/interfaces.hpp ****         template<typename T> static inline void get_steps(T* obj, void* ptr) { new (ptr) Property<c
 257:./autogen/interfaces.hpp ****         template<typename T> static inline auto get_current_state(T* obj) { return Property<const O
 258:./autogen/interfaces.hpp ****         template<typename T> static inline void get_current_state(T* obj, void* ptr) { new (ptr) Pr
 259:./autogen/interfaces.hpp ****         template<typename T> static inline auto get_requested_state(T* obj) { return Property<ODriv
 260:./autogen/interfaces.hpp ****         template<typename T> static inline void get_requested_state(T* obj, void* ptr) { new (ptr) 
ARM GAS  /tmp/ccysU9ly.s 			page 43


 261:./autogen/interfaces.hpp ****         template<typename T> static inline auto get_is_homed(T* obj) { return Property<bool>{&obj->
 262:./autogen/interfaces.hpp ****         template<typename T> static inline void get_is_homed(T* obj, void* ptr) { new (ptr) Propert
 263:./autogen/interfaces.hpp ****         template<typename T> static inline auto get_config(T* obj) { return &obj->config_; }
 264:./autogen/interfaces.hpp ****         template<typename T> static inline auto get_motor(T* obj) { return &obj->motor_; }
 265:./autogen/interfaces.hpp ****         template<typename T> static inline auto get_controller(T* obj) { return &obj->controller_; 
 266:./autogen/interfaces.hpp ****         template<typename T> static inline auto get_encoder(T* obj) { return &obj->encoder_; }
 267:./autogen/interfaces.hpp ****         template<typename T> static inline auto get_acim_estimator(T* obj) { return &obj->acim_esti
 268:./autogen/interfaces.hpp ****         template<typename T> static inline auto get_sensorless_estimator(T* obj) { return &obj->sen
 269:./autogen/interfaces.hpp ****         template<typename T> static inline auto get_trap_traj(T* obj) { return &obj->trap_traj_; }
 270:./autogen/interfaces.hpp ****         template<typename T> static inline auto get_min_endstop(T* obj) { return &obj->min_endstop_
 271:./autogen/interfaces.hpp ****         template<typename T> static inline auto get_max_endstop(T* obj) { return &obj->max_endstop_
 272:./autogen/interfaces.hpp ****         template<typename T> static inline auto get_mechanical_brake(T* obj) { return &obj->mechani
 273:./autogen/interfaces.hpp ****         template<typename T> static inline auto get_task_times(T* obj) { return &obj->task_times_; 
 274:./autogen/interfaces.hpp ****         virtual void watchdog_feed() = 0;
 275:./autogen/interfaces.hpp ****     };
 276:./autogen/interfaces.hpp ****     class ThermistorCurrentLimiterIntf {
 277:./autogen/interfaces.hpp ****     public:
 278:./autogen/interfaces.hpp ****     };
 279:./autogen/interfaces.hpp ****     class OnboardThermistorCurrentLimiterIntf {
 280:./autogen/interfaces.hpp ****     public:
 281:./autogen/interfaces.hpp ****         class ConfigIntf {
 282:./autogen/interfaces.hpp ****         public:
 283:./autogen/interfaces.hpp ****             template<typename T> static inline auto get_temp_limit_lower(T* obj) { return Property<
 284:./autogen/interfaces.hpp ****             template<typename T> static inline void get_temp_limit_lower(T* obj, void* ptr) { new (
 285:./autogen/interfaces.hpp ****             template<typename T> static inline auto get_temp_limit_upper(T* obj) { return Property<
 286:./autogen/interfaces.hpp ****             template<typename T> static inline void get_temp_limit_upper(T* obj, void* ptr) { new (
 287:./autogen/interfaces.hpp ****             template<typename T> static inline auto get_enabled(T* obj) { return Property<bool>{&ob
 288:./autogen/interfaces.hpp ****             template<typename T> static inline void get_enabled(T* obj, void* ptr) { new (ptr) Prop
 289:./autogen/interfaces.hpp ****         };
 290:./autogen/interfaces.hpp ****         template<typename T> static inline auto get_temperature(T* obj) { return Property<const flo
 291:./autogen/interfaces.hpp ****         template<typename T> static inline void get_temperature(T* obj, void* ptr) { new (ptr) Prop
 292:./autogen/interfaces.hpp ****         template<typename T> static inline auto get_config(T* obj) { return &obj->config_; }
 293:./autogen/interfaces.hpp ****     };
 294:./autogen/interfaces.hpp ****     class OffboardThermistorCurrentLimiterIntf {
 295:./autogen/interfaces.hpp ****     public:
 296:./autogen/interfaces.hpp ****         class ConfigIntf {
 297:./autogen/interfaces.hpp ****         public:
 298:./autogen/interfaces.hpp ****             template<typename T> static inline auto get_gpio_pin(T* obj) { return Property<uint16_t
 299:./autogen/interfaces.hpp ****             template<typename T> static inline void get_gpio_pin(T* obj, void* ptr) { new (ptr) Pro
 300:./autogen/interfaces.hpp ****             template<typename T> static inline auto get_poly_coefficient_0(T* obj) { return Propert
 301:./autogen/interfaces.hpp ****             template<typename T> static inline void get_poly_coefficient_0(T* obj, void* ptr) { new
 302:./autogen/interfaces.hpp ****             template<typename T> static inline auto get_poly_coefficient_1(T* obj) { return Propert
 303:./autogen/interfaces.hpp ****             template<typename T> static inline void get_poly_coefficient_1(T* obj, void* ptr) { new
 304:./autogen/interfaces.hpp ****             template<typename T> static inline auto get_poly_coefficient_2(T* obj) { return Propert
 305:./autogen/interfaces.hpp ****             template<typename T> static inline void get_poly_coefficient_2(T* obj, void* ptr) { new
 306:./autogen/interfaces.hpp ****             template<typename T> static inline auto get_poly_coefficient_3(T* obj) { return Propert
 307:./autogen/interfaces.hpp ****             template<typename T> static inline void get_poly_coefficient_3(T* obj, void* ptr) { new
 308:./autogen/interfaces.hpp ****             template<typename T> static inline auto get_temp_limit_lower(T* obj) { return Property<
 309:./autogen/interfaces.hpp ****             template<typename T> static inline void get_temp_limit_lower(T* obj, void* ptr) { new (
 310:./autogen/interfaces.hpp ****             template<typename T> static inline auto get_temp_limit_upper(T* obj) { return Property<
 311:./autogen/interfaces.hpp ****             template<typename T> static inline void get_temp_limit_upper(T* obj, void* ptr) { new (
 312:./autogen/interfaces.hpp ****             template<typename T> static inline auto get_enabled(T* obj) { return Property<bool>{&ob
 313:./autogen/interfaces.hpp ****             template<typename T> static inline void get_enabled(T* obj, void* ptr) { new (ptr) Prop
 314:./autogen/interfaces.hpp ****         };
 315:./autogen/interfaces.hpp ****         template<typename T> static inline auto get_temperature(T* obj) { return Property<const flo
 316:./autogen/interfaces.hpp ****         template<typename T> static inline void get_temperature(T* obj, void* ptr) { new (ptr) Prop
 317:./autogen/interfaces.hpp ****         template<typename T> static inline auto get_config(T* obj) { return &obj->config_; }
ARM GAS  /tmp/ccysU9ly.s 			page 44


 318:./autogen/interfaces.hpp ****     };
 319:./autogen/interfaces.hpp ****     class MotorIntf {
 320:./autogen/interfaces.hpp ****     public:
 321:./autogen/interfaces.hpp ****         class CurrentControlIntf {
 322:./autogen/interfaces.hpp ****         public:
 323:./autogen/interfaces.hpp ****             template<typename T> static inline auto get_p_gain(T* obj) { return Property<const floa
 324:./autogen/interfaces.hpp ****             template<typename T> static inline void get_p_gain(T* obj, void* ptr) { new (ptr) Prope
 325:./autogen/interfaces.hpp ****             template<typename T> static inline auto get_i_gain(T* obj) { return Property<const floa
 326:./autogen/interfaces.hpp ****             template<typename T> static inline void get_i_gain(T* obj, void* ptr) { new (ptr) Prope
 327:./autogen/interfaces.hpp ****             template<typename T> static inline auto get_I_measured_report_filter_k(T* obj) { return
 328:./autogen/interfaces.hpp ****             template<typename T> static inline void get_I_measured_report_filter_k(T* obj, void* pt
 329:./autogen/interfaces.hpp ****             template<typename T> static inline auto get_Id_setpoint(T* obj) { return Property<const
 330:./autogen/interfaces.hpp ****             template<typename T> static inline void get_Id_setpoint(T* obj, void* ptr) { new (ptr) 
 331:./autogen/interfaces.hpp ****             template<typename T> static inline auto get_Iq_setpoint(T* obj) { return Property<const
 332:./autogen/interfaces.hpp ****             template<typename T> static inline void get_Iq_setpoint(T* obj, void* ptr) { new (ptr) 
 333:./autogen/interfaces.hpp ****             template<typename T> static inline auto get_Vd_setpoint(T* obj) { return Property<const
 334:./autogen/interfaces.hpp ****             template<typename T> static inline void get_Vd_setpoint(T* obj, void* ptr) { new (ptr) 
 335:./autogen/interfaces.hpp ****             template<typename T> static inline auto get_Vq_setpoint(T* obj) { return Property<const
 336:./autogen/interfaces.hpp ****             template<typename T> static inline void get_Vq_setpoint(T* obj, void* ptr) { new (ptr) 
 337:./autogen/interfaces.hpp ****             template<typename T> static inline auto get_phase(T* obj) { return Property<const float
 338:./autogen/interfaces.hpp ****             template<typename T> static inline void get_phase(T* obj, void* ptr) { new (ptr) Proper
 339:./autogen/interfaces.hpp ****             template<typename T> static inline auto get_phase_vel(T* obj) { return Property<const f
 340:./autogen/interfaces.hpp ****             template<typename T> static inline void get_phase_vel(T* obj, void* ptr) { new (ptr) Pr
 341:./autogen/interfaces.hpp ****             template<typename T> static inline auto get_Ialpha_measured(T* obj) { return Property<c
 342:./autogen/interfaces.hpp ****             template<typename T> static inline void get_Ialpha_measured(T* obj, void* ptr) { new (p
 343:./autogen/interfaces.hpp ****             template<typename T> static inline auto get_Ibeta_measured(T* obj) { return Property<co
 344:./autogen/interfaces.hpp ****             template<typename T> static inline void get_Ibeta_measured(T* obj, void* ptr) { new (pt
 345:./autogen/interfaces.hpp ****             template<typename T> static inline auto get_Id_measured(T* obj) { return Property<const
 346:./autogen/interfaces.hpp ****             template<typename T> static inline void get_Id_measured(T* obj, void* ptr) { new (ptr) 
 347:./autogen/interfaces.hpp ****             template<typename T> static inline auto get_Iq_measured(T* obj) { return Property<const
 348:./autogen/interfaces.hpp ****             template<typename T> static inline void get_Iq_measured(T* obj, void* ptr) { new (ptr) 
 349:./autogen/interfaces.hpp ****             template<typename T> static inline auto get_power(T* obj) { return Property<const float
 350:./autogen/interfaces.hpp ****             template<typename T> static inline void get_power(T* obj, void* ptr) { new (ptr) Proper
 351:./autogen/interfaces.hpp ****             template<typename T> static inline auto get_v_current_control_integral_d(T* obj) { retu
 352:./autogen/interfaces.hpp ****             template<typename T> static inline void get_v_current_control_integral_d(T* obj, void* 
 353:./autogen/interfaces.hpp ****             template<typename T> static inline auto get_v_current_control_integral_q(T* obj) { retu
 354:./autogen/interfaces.hpp ****             template<typename T> static inline void get_v_current_control_integral_q(T* obj, void* 
 355:./autogen/interfaces.hpp ****             template<typename T> static inline auto get_final_v_alpha(T* obj) { return Property<con
 356:./autogen/interfaces.hpp ****             template<typename T> static inline void get_final_v_alpha(T* obj, void* ptr) { new (ptr
 357:./autogen/interfaces.hpp ****             template<typename T> static inline auto get_final_v_beta(T* obj) { return Property<cons
 358:./autogen/interfaces.hpp ****             template<typename T> static inline void get_final_v_beta(T* obj, void* ptr) { new (ptr)
 359:./autogen/interfaces.hpp ****         };
 360:./autogen/interfaces.hpp ****         class ConfigIntf {
 361:./autogen/interfaces.hpp ****         public:
 362:./autogen/interfaces.hpp ****             template<typename T> static inline auto get_pre_calibrated(T* obj) { return Property<bo
 363:./autogen/interfaces.hpp ****             template<typename T> static inline void get_pre_calibrated(T* obj, void* ptr) { new (pt
 364:./autogen/interfaces.hpp ****             template<typename T> static inline auto get_pole_pairs(T* obj) { return Property<int32_
 365:./autogen/interfaces.hpp ****             template<typename T> static inline void get_pole_pairs(T* obj, void* ptr) { new (ptr) P
 366:./autogen/interfaces.hpp ****             template<typename T> static inline auto get_calibration_current(T* obj) { return Proper
 367:./autogen/interfaces.hpp ****             template<typename T> static inline void get_calibration_current(T* obj, void* ptr) { ne
 368:./autogen/interfaces.hpp ****             template<typename T> static inline auto get_resistance_calib_max_voltage(T* obj) { retu
 369:./autogen/interfaces.hpp ****             template<typename T> static inline void get_resistance_calib_max_voltage(T* obj, void* 
 370:./autogen/interfaces.hpp ****             template<typename T> static inline auto get_phase_inductance(T* obj) { return Property<
 371:./autogen/interfaces.hpp ****             template<typename T> static inline void get_phase_inductance(T* obj, void* ptr) { new (
 372:./autogen/interfaces.hpp ****             template<typename T> static inline auto get_phase_resistance(T* obj) { return Property<
 373:./autogen/interfaces.hpp ****             template<typename T> static inline void get_phase_resistance(T* obj, void* ptr) { new (
 374:./autogen/interfaces.hpp ****             template<typename T> static inline auto get_torque_constant(T* obj) { return Property<f
ARM GAS  /tmp/ccysU9ly.s 			page 45


 375:./autogen/interfaces.hpp ****             template<typename T> static inline void get_torque_constant(T* obj, void* ptr) { new (p
 376:./autogen/interfaces.hpp ****             template<typename T> static inline auto get_motor_type(T* obj) { return Property<ODrive
 377:./autogen/interfaces.hpp ****             template<typename T> static inline void get_motor_type(T* obj, void* ptr) { new (ptr) P
 378:./autogen/interfaces.hpp ****             template<typename T> static inline auto get_current_lim(T* obj) { return Property<float
 379:./autogen/interfaces.hpp ****             template<typename T> static inline void get_current_lim(T* obj, void* ptr) { new (ptr) 
 380:./autogen/interfaces.hpp ****             template<typename T> static inline auto get_current_lim_margin(T* obj) { return Propert
 381:./autogen/interfaces.hpp ****             template<typename T> static inline void get_current_lim_margin(T* obj, void* ptr) { new
 382:./autogen/interfaces.hpp ****             template<typename T> static inline auto get_torque_lim(T* obj) { return Property<float>
 383:./autogen/interfaces.hpp ****             template<typename T> static inline void get_torque_lim(T* obj, void* ptr) { new (ptr) P
 384:./autogen/interfaces.hpp ****             template<typename T> static inline auto get_inverter_temp_limit_lower(T* obj) { return 
 385:./autogen/interfaces.hpp ****             template<typename T> static inline void get_inverter_temp_limit_lower(T* obj, void* ptr
 386:./autogen/interfaces.hpp ****             template<typename T> static inline auto get_inverter_temp_limit_upper(T* obj) { return 
 387:./autogen/interfaces.hpp ****             template<typename T> static inline void get_inverter_temp_limit_upper(T* obj, void* ptr
 388:./autogen/interfaces.hpp ****             template<typename T> static inline auto get_requested_current_range(T* obj) { return Pr
 389:./autogen/interfaces.hpp ****             template<typename T> static inline void get_requested_current_range(T* obj, void* ptr) 
 390:./autogen/interfaces.hpp ****             template<typename T> static inline auto get_current_control_bandwidth(T* obj) { return 
 391:./autogen/interfaces.hpp ****             template<typename T> static inline void get_current_control_bandwidth(T* obj, void* ptr
 392:./autogen/interfaces.hpp ****             template<typename T> static inline auto get_acim_gain_min_flux(T* obj) { return Propert
 393:./autogen/interfaces.hpp ****             template<typename T> static inline void get_acim_gain_min_flux(T* obj, void* ptr) { new
 394:./autogen/interfaces.hpp ****             template<typename T> static inline auto get_acim_autoflux_min_Id(T* obj) { return Prope
 395:./autogen/interfaces.hpp ****             template<typename T> static inline void get_acim_autoflux_min_Id(T* obj, void* ptr) { n
 396:./autogen/interfaces.hpp ****             template<typename T> static inline auto get_acim_autoflux_enable(T* obj) { return Prope
 397:./autogen/interfaces.hpp ****             template<typename T> static inline void get_acim_autoflux_enable(T* obj, void* ptr) { n
 398:./autogen/interfaces.hpp ****             template<typename T> static inline auto get_acim_autoflux_attack_gain(T* obj) { return 
 399:./autogen/interfaces.hpp ****             template<typename T> static inline void get_acim_autoflux_attack_gain(T* obj, void* ptr
 400:./autogen/interfaces.hpp ****             template<typename T> static inline auto get_acim_autoflux_decay_gain(T* obj) { return P
 401:./autogen/interfaces.hpp ****             template<typename T> static inline void get_acim_autoflux_decay_gain(T* obj, void* ptr)
 402:./autogen/interfaces.hpp ****             template<typename T> static inline auto get_R_wL_FF_enable(T* obj) { return Property<bo
 403:./autogen/interfaces.hpp ****             template<typename T> static inline void get_R_wL_FF_enable(T* obj, void* ptr) { new (pt
 404:./autogen/interfaces.hpp ****             template<typename T> static inline auto get_bEMF_FF_enable(T* obj) { return Property<bo
 405:./autogen/interfaces.hpp ****             template<typename T> static inline void get_bEMF_FF_enable(T* obj, void* ptr) { new (pt
 406:./autogen/interfaces.hpp ****             template<typename T> static inline auto get_I_bus_hard_min(T* obj) { return Property<fl
 407:./autogen/interfaces.hpp ****             template<typename T> static inline void get_I_bus_hard_min(T* obj, void* ptr) { new (pt
 408:./autogen/interfaces.hpp ****             template<typename T> static inline auto get_I_bus_hard_max(T* obj) { return Property<fl
 409:./autogen/interfaces.hpp ****             template<typename T> static inline void get_I_bus_hard_max(T* obj, void* ptr) { new (pt
 410:./autogen/interfaces.hpp ****             template<typename T> static inline auto get_I_leak_max(T* obj) { return Property<float>
 411:./autogen/interfaces.hpp ****             template<typename T> static inline void get_I_leak_max(T* obj, void* ptr) { new (ptr) P
 412:./autogen/interfaces.hpp ****             template<typename T> static inline auto get_dc_calib_tau(T* obj) { return Property<floa
 413:./autogen/interfaces.hpp ****             template<typename T> static inline void get_dc_calib_tau(T* obj, void* ptr) { new (ptr)
 414:./autogen/interfaces.hpp ****         };
 415:./autogen/interfaces.hpp ****         enum Error {
 416:./autogen/interfaces.hpp ****             ERROR_NONE                       = 0x00000000,
 417:./autogen/interfaces.hpp ****             ERROR_PHASE_RESISTANCE_OUT_OF_RANGE = 0x00000001,
 418:./autogen/interfaces.hpp ****             ERROR_PHASE_INDUCTANCE_OUT_OF_RANGE = 0x00000002,
 419:./autogen/interfaces.hpp ****             ERROR_DRV_FAULT                  = 0x00000008,
 420:./autogen/interfaces.hpp ****             ERROR_CONTROL_DEADLINE_MISSED    = 0x00000010,
 421:./autogen/interfaces.hpp ****             ERROR_MODULATION_MAGNITUDE       = 0x00000080,
 422:./autogen/interfaces.hpp ****             ERROR_CURRENT_SENSE_SATURATION   = 0x00000400,
 423:./autogen/interfaces.hpp ****             ERROR_CURRENT_LIMIT_VIOLATION    = 0x00001000,
 424:./autogen/interfaces.hpp ****             ERROR_MODULATION_IS_NAN          = 0x00010000,
 425:./autogen/interfaces.hpp ****             ERROR_MOTOR_THERMISTOR_OVER_TEMP = 0x00020000,
 426:./autogen/interfaces.hpp ****             ERROR_FET_THERMISTOR_OVER_TEMP   = 0x00040000,
 427:./autogen/interfaces.hpp ****             ERROR_TIMER_UPDATE_MISSED        = 0x00080000,
 428:./autogen/interfaces.hpp ****             ERROR_CURRENT_MEASUREMENT_UNAVAILABLE = 0x00100000,
 429:./autogen/interfaces.hpp ****             ERROR_CONTROLLER_FAILED          = 0x00200000,
 430:./autogen/interfaces.hpp ****             ERROR_I_BUS_OUT_OF_RANGE         = 0x00400000,
 431:./autogen/interfaces.hpp ****             ERROR_BRAKE_RESISTOR_DISARMED    = 0x00800000,
ARM GAS  /tmp/ccysU9ly.s 			page 46


 432:./autogen/interfaces.hpp ****             ERROR_SYSTEM_LEVEL               = 0x01000000,
 433:./autogen/interfaces.hpp ****             ERROR_BAD_TIMING                 = 0x02000000,
 434:./autogen/interfaces.hpp ****             ERROR_UNKNOWN_PHASE_ESTIMATE     = 0x04000000,
 435:./autogen/interfaces.hpp ****             ERROR_UNKNOWN_PHASE_VEL          = 0x08000000,
 436:./autogen/interfaces.hpp ****             ERROR_UNKNOWN_TORQUE             = 0x10000000,
 437:./autogen/interfaces.hpp ****             ERROR_UNKNOWN_CURRENT_COMMAND    = 0x20000000,
 438:./autogen/interfaces.hpp ****             ERROR_UNKNOWN_CURRENT_MEASUREMENT = 0x40000000,
 439:./autogen/interfaces.hpp ****             ERROR_UNKNOWN_VBUS_VOLTAGE       = 0x80000000,
 440:./autogen/interfaces.hpp ****             ERROR_UNKNOWN_VOLTAGE_COMMAND    = 0x100000000,
 441:./autogen/interfaces.hpp ****             ERROR_UNKNOWN_GAINS              = 0x200000000,
 442:./autogen/interfaces.hpp ****             ERROR_CONTROLLER_INITIALIZING    = 0x400000000,
 443:./autogen/interfaces.hpp ****             ERROR_UNBALANCED_PHASES          = 0x800000000,
 444:./autogen/interfaces.hpp ****         };
 445:./autogen/interfaces.hpp ****         enum MotorType {
 446:./autogen/interfaces.hpp ****             MOTOR_TYPE_HIGH_CURRENT          = 0,
 447:./autogen/interfaces.hpp ****             MOTOR_TYPE_GIMBAL                = 2,
 448:./autogen/interfaces.hpp ****             MOTOR_TYPE_ACIM                  = 3,
 449:./autogen/interfaces.hpp ****         };
 450:./autogen/interfaces.hpp ****         template<typename T> static inline auto get_last_error_time(T* obj) { return Property<float
 451:./autogen/interfaces.hpp ****         template<typename T> static inline void get_last_error_time(T* obj, void* ptr) { new (ptr) 
 452:./autogen/interfaces.hpp ****         template<typename T> static inline auto get_error(T* obj) { return Property<ODriveIntf::Mot
 453:./autogen/interfaces.hpp ****         template<typename T> static inline void get_error(T* obj, void* ptr) { new (ptr) Property<O
 454:./autogen/interfaces.hpp ****         template<typename T> static inline auto get_is_armed(T* obj) { return Property<const bool>{
 455:./autogen/interfaces.hpp ****         template<typename T> static inline void get_is_armed(T* obj, void* ptr) { new (ptr) Propert
 456:./autogen/interfaces.hpp ****         template<typename T> static inline auto get_is_calibrated(T* obj) { return Property<const b
 457:./autogen/interfaces.hpp ****         template<typename T> static inline void get_is_calibrated(T* obj, void* ptr) { new (ptr) Pr
 458:./autogen/interfaces.hpp ****         template<typename T> static inline auto get_current_meas_phA(T* obj) { return Property<cons
 459:./autogen/interfaces.hpp ****         template<typename T> static inline void get_current_meas_phA(T* obj, void* ptr) { new (ptr)
 460:./autogen/interfaces.hpp ****         template<typename T> static inline auto get_current_meas_phB(T* obj) { return Property<cons
 461:./autogen/interfaces.hpp ****         template<typename T> static inline void get_current_meas_phB(T* obj, void* ptr) { new (ptr)
 462:./autogen/interfaces.hpp ****         template<typename T> static inline auto get_current_meas_phC(T* obj) { return Property<cons
 463:./autogen/interfaces.hpp ****         template<typename T> static inline void get_current_meas_phC(T* obj, void* ptr) { new (ptr)
 464:./autogen/interfaces.hpp ****         template<typename T> static inline auto get_DC_calib_phA(T* obj) { return Property<float>{&
 465:./autogen/interfaces.hpp ****         template<typename T> static inline void get_DC_calib_phA(T* obj, void* ptr) { new (ptr) Pro
 466:./autogen/interfaces.hpp ****         template<typename T> static inline auto get_DC_calib_phB(T* obj) { return Property<float>{&
 467:./autogen/interfaces.hpp ****         template<typename T> static inline void get_DC_calib_phB(T* obj, void* ptr) { new (ptr) Pro
 468:./autogen/interfaces.hpp ****         template<typename T> static inline auto get_DC_calib_phC(T* obj) { return Property<float>{&
 469:./autogen/interfaces.hpp ****         template<typename T> static inline void get_DC_calib_phC(T* obj, void* ptr) { new (ptr) Pro
 470:./autogen/interfaces.hpp ****         template<typename T> static inline auto get_I_bus(T* obj) { return Property<const float>{&o
 471:./autogen/interfaces.hpp ****         template<typename T> static inline void get_I_bus(T* obj, void* ptr) { new (ptr) Property<c
 472:./autogen/interfaces.hpp ****         template<typename T> static inline auto get_phase_current_rev_gain(T* obj) { return Propert
 473:./autogen/interfaces.hpp ****         template<typename T> static inline void get_phase_current_rev_gain(T* obj, void* ptr) { new
 474:./autogen/interfaces.hpp ****         template<typename T> static inline auto get_effective_current_lim(T* obj) { return Property
 475:./autogen/interfaces.hpp ****         template<typename T> static inline void get_effective_current_lim(T* obj, void* ptr) { new 
 476:./autogen/interfaces.hpp ****         template<typename T> static inline auto get_max_allowed_current(T* obj) { return Property<c
 477:./autogen/interfaces.hpp ****         template<typename T> static inline void get_max_allowed_current(T* obj, void* ptr) { new (p
 478:./autogen/interfaces.hpp ****         template<typename T> static inline auto get_max_dc_calib(T* obj) { return Property<const fl
 479:./autogen/interfaces.hpp ****         template<typename T> static inline void get_max_dc_calib(T* obj, void* ptr) { new (ptr) Pro
 480:./autogen/interfaces.hpp ****         template<typename T> static inline auto get_fet_thermistor(T* obj) { return &obj->fet_therm
 481:./autogen/interfaces.hpp ****         template<typename T> static inline auto get_motor_thermistor(T* obj) { return &obj->motor_t
 482:./autogen/interfaces.hpp ****         template<typename T> static inline auto get_current_control(T* obj) { return &obj->current_
 483:./autogen/interfaces.hpp ****         template<typename T> static inline auto get_n_evt_current_measurement(T* obj) { return Prop
 484:./autogen/interfaces.hpp ****         template<typename T> static inline void get_n_evt_current_measurement(T* obj, void* ptr) { 
 485:./autogen/interfaces.hpp ****         template<typename T> static inline auto get_n_evt_pwm_update(T* obj) { return Property<cons
 486:./autogen/interfaces.hpp ****         template<typename T> static inline void get_n_evt_pwm_update(T* obj, void* ptr) { new (ptr)
 487:./autogen/interfaces.hpp ****         template<typename T> static inline auto get_config(T* obj) { return &obj->config_; }
 488:./autogen/interfaces.hpp ****     };
ARM GAS  /tmp/ccysU9ly.s 			page 47


 489:./autogen/interfaces.hpp ****     class OscilloscopeIntf {
 490:./autogen/interfaces.hpp ****     public:
 491:./autogen/interfaces.hpp ****         template<typename T> static inline auto get_size(T* obj) { return Property<const uint32_t>{
 492:./autogen/interfaces.hpp ****         template<typename T> static inline void get_size(T* obj, void* ptr) { new (ptr) Property<co
 493:./autogen/interfaces.hpp ****         virtual float get_val(uint32_t index) = 0;
 494:./autogen/interfaces.hpp ****         uint32_t get_val_in_index_; // for internal use by Fibre
 495:./autogen/interfaces.hpp ****         template<typename T> static auto get_get_val_in_index_(T* obj) { return Property<uint32_t>{
 496:./autogen/interfaces.hpp ****         template<typename T> static void get_get_val_in_index_(T* obj, void* ptr) { new (ptr) Prope
 497:./autogen/interfaces.hpp ****         float get_val_out_val_; // for internal use by Fibre
 498:./autogen/interfaces.hpp ****         template<typename T> static auto get_get_val_out_val_(T* obj) { return Property<const float
 499:./autogen/interfaces.hpp ****         template<typename T> static void get_get_val_out_val_(T* obj, void* ptr) { new (ptr) Proper
 500:./autogen/interfaces.hpp ****     };
 501:./autogen/interfaces.hpp ****     class AcimEstimatorIntf {
 502:./autogen/interfaces.hpp ****     public:
 503:./autogen/interfaces.hpp ****         class ConfigIntf {
 504:./autogen/interfaces.hpp ****         public:
 505:./autogen/interfaces.hpp ****             template<typename T> static inline auto get_slip_velocity(T* obj) { return Property<flo
 506:./autogen/interfaces.hpp ****             template<typename T> static inline void get_slip_velocity(T* obj, void* ptr) { new (ptr
 507:./autogen/interfaces.hpp ****         };
 508:./autogen/interfaces.hpp ****         template<typename T> static inline auto get_rotor_flux(T* obj) { return Property<const floa
 509:./autogen/interfaces.hpp ****         template<typename T> static inline void get_rotor_flux(T* obj, void* ptr) { new (ptr) Prope
 510:./autogen/interfaces.hpp ****         template<typename T> static inline auto get_slip_vel(T* obj) { return Property<const float>
 511:./autogen/interfaces.hpp ****         template<typename T> static inline void get_slip_vel(T* obj, void* ptr) { new (ptr) Propert
 512:./autogen/interfaces.hpp ****         template<typename T> static inline auto get_phase_offset(T* obj) { return Property<const fl
 513:./autogen/interfaces.hpp ****         template<typename T> static inline void get_phase_offset(T* obj, void* ptr) { new (ptr) Pro
 514:./autogen/interfaces.hpp ****         template<typename T> static inline auto get_stator_phase_vel(T* obj) { return Property<cons
 515:./autogen/interfaces.hpp ****         template<typename T> static inline void get_stator_phase_vel(T* obj, void* ptr) { new (ptr)
 516:./autogen/interfaces.hpp ****         template<typename T> static inline auto get_stator_phase(T* obj) { return Property<const fl
 517:./autogen/interfaces.hpp ****         template<typename T> static inline void get_stator_phase(T* obj, void* ptr) { new (ptr) Pro
 518:./autogen/interfaces.hpp ****         template<typename T> static inline auto get_config(T* obj) { return &obj->config_; }
 519:./autogen/interfaces.hpp ****     };
 520:./autogen/interfaces.hpp ****     class ControllerIntf {
 521:./autogen/interfaces.hpp ****     public:
 522:./autogen/interfaces.hpp ****         class ConfigIntf {
 523:./autogen/interfaces.hpp ****         public:
 524:./autogen/interfaces.hpp ****             class AnticoggingIntf {
 525:./autogen/interfaces.hpp ****             public:
 526:./autogen/interfaces.hpp ****                 template<typename T> static inline auto get_index(T* obj) { return Property<const u
 527:./autogen/interfaces.hpp ****                 template<typename T> static inline void get_index(T* obj, void* ptr) { new (ptr) Pr
 528:./autogen/interfaces.hpp ****                 template<typename T> static inline auto get_pre_calibrated(T* obj) { return Propert
 529:./autogen/interfaces.hpp ****                 template<typename T> static inline void get_pre_calibrated(T* obj, void* ptr) { new
 530:./autogen/interfaces.hpp ****                 template<typename T> static inline auto get_calib_anticogging(T* obj) { return Prop
 531:./autogen/interfaces.hpp ****                 template<typename T> static inline void get_calib_anticogging(T* obj, void* ptr) { 
 532:./autogen/interfaces.hpp ****                 template<typename T> static inline auto get_calib_pos_threshold(T* obj) { return Pr
 533:./autogen/interfaces.hpp ****                 template<typename T> static inline void get_calib_pos_threshold(T* obj, void* ptr) 
 534:./autogen/interfaces.hpp ****                 template<typename T> static inline auto get_calib_vel_threshold(T* obj) { return Pr
 535:./autogen/interfaces.hpp ****                 template<typename T> static inline void get_calib_vel_threshold(T* obj, void* ptr) 
 536:./autogen/interfaces.hpp ****                 template<typename T> static inline auto get_cogging_ratio(T* obj) { return Property
 537:./autogen/interfaces.hpp ****                 template<typename T> static inline void get_cogging_ratio(T* obj, void* ptr) { new 
 538:./autogen/interfaces.hpp ****                 template<typename T> static inline auto get_anticogging_enabled(T* obj) { return Pr
 539:./autogen/interfaces.hpp ****                 template<typename T> static inline void get_anticogging_enabled(T* obj, void* ptr) 
 540:./autogen/interfaces.hpp ****             };
 541:./autogen/interfaces.hpp ****             template<typename T> static inline auto get_gain_scheduling_width(T* obj) { return Prop
 542:./autogen/interfaces.hpp ****             template<typename T> static inline void get_gain_scheduling_width(T* obj, void* ptr) { 
 543:./autogen/interfaces.hpp ****             template<typename T> static inline auto get_enable_vel_limit(T* obj) { return Property<
 544:./autogen/interfaces.hpp ****             template<typename T> static inline void get_enable_vel_limit(T* obj, void* ptr) { new (
 545:./autogen/interfaces.hpp ****             template<typename T> static inline auto get_enable_torque_mode_vel_limit(T* obj) { retu
ARM GAS  /tmp/ccysU9ly.s 			page 48


 546:./autogen/interfaces.hpp ****             template<typename T> static inline void get_enable_torque_mode_vel_limit(T* obj, void* 
 547:./autogen/interfaces.hpp ****             template<typename T> static inline auto get_enable_gain_scheduling(T* obj) { return Pro
 548:./autogen/interfaces.hpp ****             template<typename T> static inline void get_enable_gain_scheduling(T* obj, void* ptr) {
 549:./autogen/interfaces.hpp ****             template<typename T> static inline auto get_enable_overspeed_error(T* obj) { return Pro
 550:./autogen/interfaces.hpp ****             template<typename T> static inline void get_enable_overspeed_error(T* obj, void* ptr) {
 551:./autogen/interfaces.hpp ****             template<typename T> static inline auto get_control_mode(T* obj) { return Property<ODri
 552:./autogen/interfaces.hpp ****             template<typename T> static inline void get_control_mode(T* obj, void* ptr) { new (ptr)
 553:./autogen/interfaces.hpp ****             template<typename T> static inline auto get_input_mode(T* obj) { return Property<ODrive
 554:./autogen/interfaces.hpp ****             template<typename T> static inline void get_input_mode(T* obj, void* ptr) { new (ptr) P
 555:./autogen/interfaces.hpp ****             template<typename T> static inline auto get_pos_gain(T* obj) { return Property<float>{&
 556:./autogen/interfaces.hpp ****             template<typename T> static inline void get_pos_gain(T* obj, void* ptr) { new (ptr) Pro
 557:./autogen/interfaces.hpp ****             template<typename T> static inline auto get_vel_gain(T* obj) { return Property<float>{&
 558:./autogen/interfaces.hpp ****             template<typename T> static inline void get_vel_gain(T* obj, void* ptr) { new (ptr) Pro
 559:./autogen/interfaces.hpp ****             template<typename T> static inline auto get_vel_integrator_gain(T* obj) { return Proper
 560:./autogen/interfaces.hpp ****             template<typename T> static inline void get_vel_integrator_gain(T* obj, void* ptr) { ne
 561:./autogen/interfaces.hpp ****             template<typename T> static inline auto get_vel_integrator_limit(T* obj) { return Prope
 562:./autogen/interfaces.hpp ****             template<typename T> static inline void get_vel_integrator_limit(T* obj, void* ptr) { n
 563:./autogen/interfaces.hpp ****             template<typename T> static inline auto get_vel_limit(T* obj) { return Property<float>{
 564:./autogen/interfaces.hpp ****             template<typename T> static inline void get_vel_limit(T* obj, void* ptr) { new (ptr) Pr
 565:./autogen/interfaces.hpp ****             template<typename T> static inline auto get_vel_limit_tolerance(T* obj) { return Proper
 566:./autogen/interfaces.hpp ****             template<typename T> static inline void get_vel_limit_tolerance(T* obj, void* ptr) { ne
 567:./autogen/interfaces.hpp ****             template<typename T> static inline auto get_vel_ramp_rate(T* obj) { return Property<flo
 568:./autogen/interfaces.hpp ****             template<typename T> static inline void get_vel_ramp_rate(T* obj, void* ptr) { new (ptr
 569:./autogen/interfaces.hpp ****             template<typename T> static inline auto get_torque_ramp_rate(T* obj) { return Property<
 570:./autogen/interfaces.hpp ****             template<typename T> static inline void get_torque_ramp_rate(T* obj, void* ptr) { new (
 571:./autogen/interfaces.hpp ****             template<typename T> static inline auto get_circular_setpoints(T* obj) { return Propert
 572:./autogen/interfaces.hpp ****             template<typename T> static inline void get_circular_setpoints(T* obj, void* ptr) { new
 573:./autogen/interfaces.hpp ****             template<typename T> static inline auto get_circular_setpoint_range(T* obj) { return Pr
 574:./autogen/interfaces.hpp ****             template<typename T> static inline void get_circular_setpoint_range(T* obj, void* ptr) 
 575:./autogen/interfaces.hpp ****             template<typename T> static inline auto get_steps_per_circular_range(T* obj) { return P
 576:./autogen/interfaces.hpp ****             template<typename T> static inline void get_steps_per_circular_range(T* obj, void* ptr)
 577:./autogen/interfaces.hpp ****             template<typename T> static inline auto get_homing_speed(T* obj) { return Property<floa
 578:./autogen/interfaces.hpp ****             template<typename T> static inline void get_homing_speed(T* obj, void* ptr) { new (ptr)
 579:./autogen/interfaces.hpp ****             template<typename T> static inline auto get_inertia(T* obj) { return Property<float>{&o
 580:./autogen/interfaces.hpp ****             template<typename T> static inline void get_inertia(T* obj, void* ptr) { new (ptr) Prop
 581:./autogen/interfaces.hpp ****             template<typename T> static inline auto get_axis_to_mirror(T* obj) { return Property<ui
 582:./autogen/interfaces.hpp ****             template<typename T> static inline void get_axis_to_mirror(T* obj, void* ptr) { new (pt
 583:./autogen/interfaces.hpp ****             template<typename T> static inline auto get_mirror_ratio(T* obj) { return Property<floa
 584:./autogen/interfaces.hpp ****             template<typename T> static inline void get_mirror_ratio(T* obj, void* ptr) { new (ptr)
 585:./autogen/interfaces.hpp ****             template<typename T> static inline auto get_torque_mirror_ratio(T* obj) { return Proper
 586:./autogen/interfaces.hpp ****             template<typename T> static inline void get_torque_mirror_ratio(T* obj, void* ptr) { ne
 587:./autogen/interfaces.hpp ****             template<typename T> static inline auto get_load_encoder_axis(T* obj) { return Property
 588:./autogen/interfaces.hpp ****             template<typename T> static inline void get_load_encoder_axis(T* obj, void* ptr) { new 
 589:./autogen/interfaces.hpp ****             template<typename T> static inline auto get_input_filter_bandwidth(T* obj) { return Pro
 590:./autogen/interfaces.hpp ****             template<typename T> static inline void get_input_filter_bandwidth(T* obj, void* ptr) {
 591:./autogen/interfaces.hpp ****             template<typename T> static inline auto get_anticogging(T* obj) { return &obj->anticogg
 592:./autogen/interfaces.hpp ****             template<typename T> static inline auto get_mechanical_power_bandwidth(T* obj) { return
 593:./autogen/interfaces.hpp ****             template<typename T> static inline void get_mechanical_power_bandwidth(T* obj, void* pt
 594:./autogen/interfaces.hpp ****             template<typename T> static inline auto get_electrical_power_bandwidth(T* obj) { return
 595:./autogen/interfaces.hpp ****             template<typename T> static inline void get_electrical_power_bandwidth(T* obj, void* pt
 596:./autogen/interfaces.hpp ****             template<typename T> static inline auto get_spinout_mechanical_power_threshold(T* obj) 
 597:./autogen/interfaces.hpp ****             template<typename T> static inline void get_spinout_mechanical_power_threshold(T* obj, 
 598:./autogen/interfaces.hpp ****             template<typename T> static inline auto get_spinout_electrical_power_threshold(T* obj) 
 599:./autogen/interfaces.hpp ****             template<typename T> static inline void get_spinout_electrical_power_threshold(T* obj, 
 600:./autogen/interfaces.hpp ****         };
 601:./autogen/interfaces.hpp ****         class AutotuningIntf {
 602:./autogen/interfaces.hpp ****         public:
ARM GAS  /tmp/ccysU9ly.s 			page 49


 603:./autogen/interfaces.hpp ****             template<typename T> static inline auto get_frequency(T* obj) { return Property<float>{
 604:./autogen/interfaces.hpp ****             template<typename T> static inline void get_frequency(T* obj, void* ptr) { new (ptr) Pr
 605:./autogen/interfaces.hpp ****             template<typename T> static inline auto get_pos_amplitude(T* obj) { return Property<flo
 606:./autogen/interfaces.hpp ****             template<typename T> static inline void get_pos_amplitude(T* obj, void* ptr) { new (ptr
 607:./autogen/interfaces.hpp ****             template<typename T> static inline auto get_vel_amplitude(T* obj) { return Property<flo
 608:./autogen/interfaces.hpp ****             template<typename T> static inline void get_vel_amplitude(T* obj, void* ptr) { new (ptr
 609:./autogen/interfaces.hpp ****             template<typename T> static inline auto get_torque_amplitude(T* obj) { return Property<
 610:./autogen/interfaces.hpp ****             template<typename T> static inline void get_torque_amplitude(T* obj, void* ptr) { new (
 611:./autogen/interfaces.hpp ****         };
 612:./autogen/interfaces.hpp ****         enum Error {
 613:./autogen/interfaces.hpp ****             ERROR_NONE                       = 0x00000000,
 614:./autogen/interfaces.hpp ****             ERROR_OVERSPEED                  = 0x00000001,
 615:./autogen/interfaces.hpp ****             ERROR_INVALID_INPUT_MODE         = 0x00000002,
 616:./autogen/interfaces.hpp ****             ERROR_UNSTABLE_GAIN              = 0x00000004,
 617:./autogen/interfaces.hpp ****             ERROR_INVALID_MIRROR_AXIS        = 0x00000008,
 618:./autogen/interfaces.hpp ****             ERROR_INVALID_LOAD_ENCODER       = 0x00000010,
 619:./autogen/interfaces.hpp ****             ERROR_INVALID_ESTIMATE           = 0x00000020,
 620:./autogen/interfaces.hpp ****             ERROR_INVALID_CIRCULAR_RANGE     = 0x00000040,
 621:./autogen/interfaces.hpp ****             ERROR_SPINOUT_DETECTED           = 0x00000080,
 622:./autogen/interfaces.hpp ****         };
 623:./autogen/interfaces.hpp ****         enum ControlMode {
 624:./autogen/interfaces.hpp ****             CONTROL_MODE_VOLTAGE_CONTROL     = 0,
 625:./autogen/interfaces.hpp ****             CONTROL_MODE_TORQUE_CONTROL      = 1,
 626:./autogen/interfaces.hpp ****             CONTROL_MODE_VELOCITY_CONTROL    = 2,
 627:./autogen/interfaces.hpp ****             CONTROL_MODE_POSITION_CONTROL    = 3,
 628:./autogen/interfaces.hpp ****         };
 629:./autogen/interfaces.hpp ****         enum InputMode {
 630:./autogen/interfaces.hpp ****             INPUT_MODE_INACTIVE              = 0,
 631:./autogen/interfaces.hpp ****             INPUT_MODE_PASSTHROUGH           = 1,
 632:./autogen/interfaces.hpp ****             INPUT_MODE_VEL_RAMP              = 2,
 633:./autogen/interfaces.hpp ****             INPUT_MODE_POS_FILTER            = 3,
 634:./autogen/interfaces.hpp ****             INPUT_MODE_MIX_CHANNELS          = 4,
 635:./autogen/interfaces.hpp ****             INPUT_MODE_TRAP_TRAJ             = 5,
 636:./autogen/interfaces.hpp ****             INPUT_MODE_TORQUE_RAMP           = 6,
 637:./autogen/interfaces.hpp ****             INPUT_MODE_MIRROR                = 7,
 638:./autogen/interfaces.hpp ****             INPUT_MODE_TUNING                = 8,
 639:./autogen/interfaces.hpp ****         };
 640:./autogen/interfaces.hpp ****         template<typename T> static inline auto get_error(T* obj) { return Property<ODriveIntf::Con
 641:./autogen/interfaces.hpp ****         template<typename T> static inline void get_error(T* obj, void* ptr) { new (ptr) Property<O
 642:./autogen/interfaces.hpp ****         template<typename T> static inline auto get_last_error_time(T* obj) { return Property<float
 643:./autogen/interfaces.hpp ****         template<typename T> static inline void get_last_error_time(T* obj, void* ptr) { new (ptr) 
 644:./autogen/interfaces.hpp ****         template<typename T> static inline auto get_input_pos(T* obj) { return Property<float>{obj,
 645:./autogen/interfaces.hpp ****         template<typename T> static inline void get_input_pos(T* obj, void* ptr) { new (ptr) Proper
 646:./autogen/interfaces.hpp ****         template<typename T> static inline auto get_input_vel(T* obj) { return Property<float>{&obj
 647:./autogen/interfaces.hpp ****         template<typename T> static inline void get_input_vel(T* obj, void* ptr) { new (ptr) Proper
 648:./autogen/interfaces.hpp ****         template<typename T> static inline auto get_input_torque(T* obj) { return Property<float>{&
 649:./autogen/interfaces.hpp ****         template<typename T> static inline void get_input_torque(T* obj, void* ptr) { new (ptr) Pro
 650:./autogen/interfaces.hpp ****         template<typename T> static inline auto get_pos_setpoint(T* obj) { return Property<const fl
 651:./autogen/interfaces.hpp ****         template<typename T> static inline void get_pos_setpoint(T* obj, void* ptr) { new (ptr) Pro
 652:./autogen/interfaces.hpp ****         template<typename T> static inline auto get_vel_setpoint(T* obj) { return Property<const fl
 653:./autogen/interfaces.hpp ****         template<typename T> static inline void get_vel_setpoint(T* obj, void* ptr) { new (ptr) Pro
 654:./autogen/interfaces.hpp ****         template<typename T> static inline auto get_torque_setpoint(T* obj) { return Property<const
 655:./autogen/interfaces.hpp ****         template<typename T> static inline void get_torque_setpoint(T* obj, void* ptr) { new (ptr) 
 656:./autogen/interfaces.hpp ****         template<typename T> static inline auto get_trajectory_done(T* obj) { return Property<const
 657:./autogen/interfaces.hpp ****         template<typename T> static inline void get_trajectory_done(T* obj, void* ptr) { new (ptr) 
 658:./autogen/interfaces.hpp ****         template<typename T> static inline auto get_vel_integrator_torque(T* obj) { return Property
 659:./autogen/interfaces.hpp ****         template<typename T> static inline void get_vel_integrator_torque(T* obj, void* ptr) { new 
ARM GAS  /tmp/ccysU9ly.s 			page 50


 660:./autogen/interfaces.hpp ****         template<typename T> static inline auto get_anticogging_valid(T* obj) { return Property<boo
 661:./autogen/interfaces.hpp ****         template<typename T> static inline void get_anticogging_valid(T* obj, void* ptr) { new (ptr
 662:./autogen/interfaces.hpp ****         template<typename T> static inline auto get_autotuning_phase(T* obj) { return Property<floa
 663:./autogen/interfaces.hpp ****         template<typename T> static inline void get_autotuning_phase(T* obj, void* ptr) { new (ptr)
 664:./autogen/interfaces.hpp ****         template<typename T> static inline auto get_config(T* obj) { return &obj->config_; }
 665:./autogen/interfaces.hpp ****         template<typename T> static inline auto get_autotuning(T* obj) { return &obj->autotuning_; 
 666:./autogen/interfaces.hpp ****         template<typename T> static inline auto get_mechanical_power(T* obj) { return Property<cons
 667:./autogen/interfaces.hpp ****         template<typename T> static inline void get_mechanical_power(T* obj, void* ptr) { new (ptr)
 668:./autogen/interfaces.hpp ****         template<typename T> static inline auto get_electrical_power(T* obj) { return Property<cons
 669:./autogen/interfaces.hpp ****         template<typename T> static inline void get_electrical_power(T* obj, void* ptr) { new (ptr)
 670:./autogen/interfaces.hpp ****         virtual void move_incremental(float displacement, bool from_input_pos) = 0;
 671:./autogen/interfaces.hpp ****         virtual void start_anticogging_calibration() = 0;
 672:./autogen/interfaces.hpp ****         virtual float remove_anticogging_bias() = 0;
 673:./autogen/interfaces.hpp ****         virtual float get_anticogging_value(uint32_t index) = 0;
 674:./autogen/interfaces.hpp ****         float move_incremental_in_displacement_; // for internal use by Fibre
 675:./autogen/interfaces.hpp ****         template<typename T> static auto get_move_incremental_in_displacement_(T* obj) { return Pro
 676:./autogen/interfaces.hpp ****         template<typename T> static void get_move_incremental_in_displacement_(T* obj, void* ptr) {
 677:./autogen/interfaces.hpp ****         bool move_incremental_in_from_input_pos_; // for internal use by Fibre
 678:./autogen/interfaces.hpp ****         template<typename T> static auto get_move_incremental_in_from_input_pos_(T* obj) { return P
 679:./autogen/interfaces.hpp ****         template<typename T> static void get_move_incremental_in_from_input_pos_(T* obj, void* ptr)
 680:./autogen/interfaces.hpp ****         float remove_anticogging_bias_out_val_; // for internal use by Fibre
 681:./autogen/interfaces.hpp ****         template<typename T> static auto get_remove_anticogging_bias_out_val_(T* obj) { return Prop
 682:./autogen/interfaces.hpp ****         template<typename T> static void get_remove_anticogging_bias_out_val_(T* obj, void* ptr) { 
 683:./autogen/interfaces.hpp ****         uint32_t get_anticogging_value_in_index_; // for internal use by Fibre
 684:./autogen/interfaces.hpp ****         template<typename T> static auto get_get_anticogging_value_in_index_(T* obj) { return Prope
 685:./autogen/interfaces.hpp ****         template<typename T> static void get_get_anticogging_value_in_index_(T* obj, void* ptr) { n
 686:./autogen/interfaces.hpp ****         float get_anticogging_value_out_val_; // for internal use by Fibre
 687:./autogen/interfaces.hpp ****         template<typename T> static auto get_get_anticogging_value_out_val_(T* obj) { return Proper
 688:./autogen/interfaces.hpp ****         template<typename T> static void get_get_anticogging_value_out_val_(T* obj, void* ptr) { ne
 689:./autogen/interfaces.hpp ****     };
 690:./autogen/interfaces.hpp ****     class EncoderIntf {
 691:./autogen/interfaces.hpp ****     public:
 692:./autogen/interfaces.hpp ****         class ConfigIntf {
 693:./autogen/interfaces.hpp ****         public:
 694:./autogen/interfaces.hpp ****             template<typename T> static inline auto get_mode(T* obj) { return Property<ODriveIntf::
 695:./autogen/interfaces.hpp ****             template<typename T> static inline void get_mode(T* obj, void* ptr) { new (ptr) Propert
 696:./autogen/interfaces.hpp ****             template<typename T> static inline auto get_use_index(T* obj) { return Property<bool>{o
 697:./autogen/interfaces.hpp ****             template<typename T> static inline void get_use_index(T* obj, void* ptr) { new (ptr) Pr
 698:./autogen/interfaces.hpp ****             template<typename T> static inline auto get_index_offset(T* obj) { return Property<floa
 699:./autogen/interfaces.hpp ****             template<typename T> static inline void get_index_offset(T* obj, void* ptr) { new (ptr)
 700:./autogen/interfaces.hpp ****             template<typename T> static inline auto get_use_index_offset(T* obj) { return Property<
 701:./autogen/interfaces.hpp ****             template<typename T> static inline void get_use_index_offset(T* obj, void* ptr) { new (
 702:./autogen/interfaces.hpp ****             template<typename T> static inline auto get_find_idx_on_lockin_only(T* obj) { return Pr
 703:./autogen/interfaces.hpp ****             template<typename T> static inline void get_find_idx_on_lockin_only(T* obj, void* ptr) 
 704:./autogen/interfaces.hpp ****             template<typename T> static inline auto get_abs_spi_cs_gpio_pin(T* obj) { return Proper
 705:./autogen/interfaces.hpp ****             template<typename T> static inline void get_abs_spi_cs_gpio_pin(T* obj, void* ptr) { ne
 706:./autogen/interfaces.hpp ****             template<typename T> static inline auto get_cpr(T* obj) { return Property<int32_t>{&obj
 707:./autogen/interfaces.hpp ****             template<typename T> static inline void get_cpr(T* obj, void* ptr) { new (ptr) Property
 708:./autogen/interfaces.hpp ****             template<typename T> static inline auto get_phase_offset(T* obj) { return Property<int3
 709:./autogen/interfaces.hpp ****             template<typename T> static inline void get_phase_offset(T* obj, void* ptr) { new (ptr)
 710:./autogen/interfaces.hpp ****             template<typename T> static inline auto get_phase_offset_float(T* obj) { return Propert
 711:./autogen/interfaces.hpp ****             template<typename T> static inline void get_phase_offset_float(T* obj, void* ptr) { new
 712:./autogen/interfaces.hpp ****             template<typename T> static inline auto get_direction(T* obj) { return Property<int32_t
 713:./autogen/interfaces.hpp ****             template<typename T> static inline void get_direction(T* obj, void* ptr) { new (ptr) Pr
 714:./autogen/interfaces.hpp ****             template<typename T> static inline auto get_pre_calibrated(T* obj) { return Property<bo
 715:./autogen/interfaces.hpp ****             template<typename T> static inline void get_pre_calibrated(T* obj, void* ptr) { new (pt
 716:./autogen/interfaces.hpp ****             template<typename T> static inline auto get_enable_phase_interpolation(T* obj) { return
ARM GAS  /tmp/ccysU9ly.s 			page 51


 717:./autogen/interfaces.hpp ****             template<typename T> static inline void get_enable_phase_interpolation(T* obj, void* pt
 718:./autogen/interfaces.hpp ****             template<typename T> static inline auto get_bandwidth(T* obj) { return Property<float>{
 719:./autogen/interfaces.hpp ****             template<typename T> static inline void get_bandwidth(T* obj, void* ptr) { new (ptr) Pr
 720:./autogen/interfaces.hpp ****             template<typename T> static inline auto get_calib_range(T* obj) { return Property<float
 721:./autogen/interfaces.hpp ****             template<typename T> static inline void get_calib_range(T* obj, void* ptr) { new (ptr) 
 722:./autogen/interfaces.hpp ****             template<typename T> static inline auto get_calib_scan_distance(T* obj) { return Proper
 723:./autogen/interfaces.hpp ****             template<typename T> static inline void get_calib_scan_distance(T* obj, void* ptr) { ne
 724:./autogen/interfaces.hpp ****             template<typename T> static inline auto get_calib_scan_omega(T* obj) { return Property<
 725:./autogen/interfaces.hpp ****             template<typename T> static inline void get_calib_scan_omega(T* obj, void* ptr) { new (
 726:./autogen/interfaces.hpp ****             template<typename T> static inline auto get_ignore_illegal_hall_state(T* obj) { return 
 727:./autogen/interfaces.hpp ****             template<typename T> static inline void get_ignore_illegal_hall_state(T* obj, void* ptr
 728:./autogen/interfaces.hpp ****             template<typename T> static inline auto get_hall_polarity(T* obj) { return Property<uin
 729:./autogen/interfaces.hpp ****             template<typename T> static inline void get_hall_polarity(T* obj, void* ptr) { new (ptr
 730:./autogen/interfaces.hpp ****             template<typename T> static inline auto get_hall_polarity_calibrated(T* obj) { return P
 731:./autogen/interfaces.hpp ****             template<typename T> static inline void get_hall_polarity_calibrated(T* obj, void* ptr)
 732:./autogen/interfaces.hpp ****             template<typename T> static inline auto get_sincos_gpio_pin_sin(T* obj) { return Proper
 733:./autogen/interfaces.hpp ****             template<typename T> static inline void get_sincos_gpio_pin_sin(T* obj, void* ptr) { ne
 734:./autogen/interfaces.hpp ****             template<typename T> static inline auto get_sincos_gpio_pin_cos(T* obj) { return Proper
 735:./autogen/interfaces.hpp ****             template<typename T> static inline void get_sincos_gpio_pin_cos(T* obj, void* ptr) { ne
 736:./autogen/interfaces.hpp ****         };
 737:./autogen/interfaces.hpp ****         enum Error {
 738:./autogen/interfaces.hpp ****             ERROR_NONE                       = 0x00000000,
 739:./autogen/interfaces.hpp ****             ERROR_UNSTABLE_GAIN              = 0x00000001,
 740:./autogen/interfaces.hpp ****             ERROR_CPR_POLEPAIRS_MISMATCH     = 0x00000002,
 741:./autogen/interfaces.hpp ****             ERROR_NO_RESPONSE                = 0x00000004,
 742:./autogen/interfaces.hpp ****             ERROR_UNSUPPORTED_ENCODER_MODE   = 0x00000008,
 743:./autogen/interfaces.hpp ****             ERROR_ILLEGAL_HALL_STATE         = 0x00000010,
 744:./autogen/interfaces.hpp ****             ERROR_INDEX_NOT_FOUND_YET        = 0x00000020,
 745:./autogen/interfaces.hpp ****             ERROR_ABS_SPI_TIMEOUT            = 0x00000040,
 746:./autogen/interfaces.hpp ****             ERROR_ABS_SPI_COM_FAIL           = 0x00000080,
 747:./autogen/interfaces.hpp ****             ERROR_ABS_SPI_NOT_READY          = 0x00000100,
 748:./autogen/interfaces.hpp ****             ERROR_HALL_NOT_CALIBRATED_YET    = 0x00000200,
 749:./autogen/interfaces.hpp ****         };
 750:./autogen/interfaces.hpp ****         enum Mode {
 751:./autogen/interfaces.hpp ****             MODE_INCREMENTAL                 = 0,
 752:./autogen/interfaces.hpp ****             MODE_HALL                        = 1,
 753:./autogen/interfaces.hpp ****             MODE_SINCOS                      = 2,
 754:./autogen/interfaces.hpp ****             MODE_SPI_ABS_CUI                 = 256,
 755:./autogen/interfaces.hpp ****             MODE_SPI_ABS_AMS                 = 257,
 756:./autogen/interfaces.hpp ****             MODE_SPI_ABS_AEAT                = 258,
 757:./autogen/interfaces.hpp ****             MODE_SPI_ABS_RLS                 = 259,
 758:./autogen/interfaces.hpp ****             MODE_SPI_ABS_MA732               = 260,
 759:./autogen/interfaces.hpp ****         };
 760:./autogen/interfaces.hpp ****         template<typename T> static inline auto get_error(T* obj) { return Property<ODriveIntf::Enc
 761:./autogen/interfaces.hpp ****         template<typename T> static inline void get_error(T* obj, void* ptr) { new (ptr) Property<O
 762:./autogen/interfaces.hpp ****         template<typename T> static inline auto get_is_ready(T* obj) { return Property<const bool>{
 763:./autogen/interfaces.hpp ****         template<typename T> static inline void get_is_ready(T* obj, void* ptr) { new (ptr) Propert
 764:./autogen/interfaces.hpp ****         template<typename T> static inline auto get_index_found(T* obj) { return Property<const boo
 765:./autogen/interfaces.hpp ****         template<typename T> static inline void get_index_found(T* obj, void* ptr) { new (ptr) Prop
 766:./autogen/interfaces.hpp ****         template<typename T> static inline auto get_shadow_count(T* obj) { return Property<const in
 767:./autogen/interfaces.hpp ****         template<typename T> static inline void get_shadow_count(T* obj, void* ptr) { new (ptr) Pro
 768:./autogen/interfaces.hpp ****         template<typename T> static inline auto get_count_in_cpr(T* obj) { return Property<const in
 769:./autogen/interfaces.hpp ****         template<typename T> static inline void get_count_in_cpr(T* obj, void* ptr) { new (ptr) Pro
 770:./autogen/interfaces.hpp ****         template<typename T> static inline auto get_interpolation(T* obj) { return Property<const f
 771:./autogen/interfaces.hpp ****         template<typename T> static inline void get_interpolation(T* obj, void* ptr) { new (ptr) Pr
 772:./autogen/interfaces.hpp ****         template<typename T> static inline auto get_phase(T* obj) { return Property<const float>{ob
 773:./autogen/interfaces.hpp ****         template<typename T> static inline void get_phase(T* obj, void* ptr) { new (ptr) Property<c
ARM GAS  /tmp/ccysU9ly.s 			page 52


 774:./autogen/interfaces.hpp ****         template<typename T> static inline auto get_pos_estimate(T* obj) { return Property<const fl
 775:./autogen/interfaces.hpp ****         template<typename T> static inline void get_pos_estimate(T* obj, void* ptr) { new (ptr) Pro
 776:./autogen/interfaces.hpp ****         template<typename T> static inline auto get_pos_estimate_counts(T* obj) { return Property<c
 777:./autogen/interfaces.hpp ****         template<typename T> static inline void get_pos_estimate_counts(T* obj, void* ptr) { new (p
 778:./autogen/interfaces.hpp ****         template<typename T> static inline auto get_pos_circular(T* obj) { return Property<const fl
 779:./autogen/interfaces.hpp ****         template<typename T> static inline void get_pos_circular(T* obj, void* ptr) { new (ptr) Pro
 780:./autogen/interfaces.hpp ****         template<typename T> static inline auto get_pos_cpr_counts(T* obj) { return Property<const 
 781:./autogen/interfaces.hpp ****         template<typename T> static inline void get_pos_cpr_counts(T* obj, void* ptr) { new (ptr) P
 782:./autogen/interfaces.hpp ****         template<typename T> static inline auto get_delta_pos_cpr_counts(T* obj) { return Property<
 783:./autogen/interfaces.hpp ****         template<typename T> static inline void get_delta_pos_cpr_counts(T* obj, void* ptr) { new (
 784:./autogen/interfaces.hpp ****         template<typename T> static inline auto get_hall_state(T* obj) { return Property<const uint
 785:./autogen/interfaces.hpp ****         template<typename T> static inline void get_hall_state(T* obj, void* ptr) { new (ptr) Prope
 786:./autogen/interfaces.hpp ****         template<typename T> static inline auto get_vel_estimate(T* obj) { return Property<const fl
 787:./autogen/interfaces.hpp ****         template<typename T> static inline void get_vel_estimate(T* obj, void* ptr) { new (ptr) Pro
 788:./autogen/interfaces.hpp ****         template<typename T> static inline auto get_vel_estimate_counts(T* obj) { return Property<c
 789:./autogen/interfaces.hpp ****         template<typename T> static inline void get_vel_estimate_counts(T* obj, void* ptr) { new (p
 790:./autogen/interfaces.hpp ****         template<typename T> static inline auto get_calib_scan_response(T* obj) { return Property<c
 791:./autogen/interfaces.hpp ****         template<typename T> static inline void get_calib_scan_response(T* obj, void* ptr) { new (p
 792:./autogen/interfaces.hpp ****         template<typename T> static inline auto get_pos_abs(T* obj) { return Property<int32_t>{&obj
 793:./autogen/interfaces.hpp ****         template<typename T> static inline void get_pos_abs(T* obj, void* ptr) { new (ptr) Property
 794:./autogen/interfaces.hpp ****         template<typename T> static inline auto get_spi_error_rate(T* obj) { return Property<const 
 795:./autogen/interfaces.hpp ****         template<typename T> static inline void get_spi_error_rate(T* obj, void* ptr) { new (ptr) P
 796:./autogen/interfaces.hpp ****         template<typename T> static inline auto get_config(T* obj) { return &obj->config_; }
 797:./autogen/interfaces.hpp ****         virtual void set_linear_count(int32_t count) = 0;
 798:./autogen/interfaces.hpp ****         int32_t set_linear_count_in_count_; // for internal use by Fibre
 799:./autogen/interfaces.hpp ****         template<typename T> static auto get_set_linear_count_in_count_(T* obj) { return Property<i
 800:./autogen/interfaces.hpp ****         template<typename T> static void get_set_linear_count_in_count_(T* obj, void* ptr) { new (p
 801:./autogen/interfaces.hpp ****     };
 802:./autogen/interfaces.hpp ****     class SensorlessEstimatorIntf {
 803:./autogen/interfaces.hpp ****     public:
 804:./autogen/interfaces.hpp ****         class ConfigIntf {
 805:./autogen/interfaces.hpp ****         public:
 806:./autogen/interfaces.hpp ****             template<typename T> static inline auto get_observer_gain(T* obj) { return Property<flo
 807:./autogen/interfaces.hpp ****             template<typename T> static inline void get_observer_gain(T* obj, void* ptr) { new (ptr
 808:./autogen/interfaces.hpp ****             template<typename T> static inline auto get_pll_bandwidth(T* obj) { return Property<flo
 809:./autogen/interfaces.hpp ****             template<typename T> static inline void get_pll_bandwidth(T* obj, void* ptr) { new (ptr
 810:./autogen/interfaces.hpp ****             template<typename T> static inline auto get_pm_flux_linkage(T* obj) { return Property<f
 811:./autogen/interfaces.hpp ****             template<typename T> static inline void get_pm_flux_linkage(T* obj, void* ptr) { new (p
 812:./autogen/interfaces.hpp ****         };
 813:./autogen/interfaces.hpp ****         enum Error {
 814:./autogen/interfaces.hpp ****             ERROR_NONE                       = 0x00000000,
 815:./autogen/interfaces.hpp ****             ERROR_UNSTABLE_GAIN              = 0x00000001,
 816:./autogen/interfaces.hpp ****             ERROR_UNKNOWN_CURRENT_MEASUREMENT = 0x00000002,
 817:./autogen/interfaces.hpp ****         };
 818:./autogen/interfaces.hpp ****         template<typename T> static inline auto get_error(T* obj) { return Property<ODriveIntf::Sen
 819:./autogen/interfaces.hpp ****         template<typename T> static inline void get_error(T* obj, void* ptr) { new (ptr) Property<O
 820:./autogen/interfaces.hpp ****         template<typename T> static inline auto get_phase(T* obj) { return Property<const float>{ob
 821:./autogen/interfaces.hpp ****         template<typename T> static inline void get_phase(T* obj, void* ptr) { new (ptr) Property<c
 822:./autogen/interfaces.hpp ****         template<typename T> static inline auto get_pll_pos(T* obj) { return Property<const float>{
 823:./autogen/interfaces.hpp ****         template<typename T> static inline void get_pll_pos(T* obj, void* ptr) { new (ptr) Property
 824:./autogen/interfaces.hpp ****         template<typename T> static inline auto get_phase_vel(T* obj) { return Property<const float
 825:./autogen/interfaces.hpp ****         template<typename T> static inline void get_phase_vel(T* obj, void* ptr) { new (ptr) Proper
 826:./autogen/interfaces.hpp ****         template<typename T> static inline auto get_vel_estimate(T* obj) { return Property<const fl
 827:./autogen/interfaces.hpp ****         template<typename T> static inline void get_vel_estimate(T* obj, void* ptr) { new (ptr) Pro
 828:./autogen/interfaces.hpp ****         template<typename T> static inline auto get_config(T* obj) { return &obj->config_; }
 829:./autogen/interfaces.hpp ****     };
 830:./autogen/interfaces.hpp ****     class TrapezoidalTrajectoryIntf {
ARM GAS  /tmp/ccysU9ly.s 			page 53


 831:./autogen/interfaces.hpp ****     public:
 832:./autogen/interfaces.hpp ****         class ConfigIntf {
 833:./autogen/interfaces.hpp ****         public:
 834:./autogen/interfaces.hpp ****             template<typename T> static inline auto get_vel_limit(T* obj) { return Property<float>{
 835:./autogen/interfaces.hpp ****             template<typename T> static inline void get_vel_limit(T* obj, void* ptr) { new (ptr) Pr
 836:./autogen/interfaces.hpp ****             template<typename T> static inline auto get_accel_limit(T* obj) { return Property<float
 837:./autogen/interfaces.hpp ****             template<typename T> static inline void get_accel_limit(T* obj, void* ptr) { new (ptr) 
 838:./autogen/interfaces.hpp ****             template<typename T> static inline auto get_decel_limit(T* obj) { return Property<float
 839:./autogen/interfaces.hpp ****             template<typename T> static inline void get_decel_limit(T* obj, void* ptr) { new (ptr) 
 840:./autogen/interfaces.hpp ****         };
 841:./autogen/interfaces.hpp ****         template<typename T> static inline auto get_config(T* obj) { return &obj->config_; }
 842:./autogen/interfaces.hpp ****     };
 843:./autogen/interfaces.hpp ****     class EndstopIntf {
 844:./autogen/interfaces.hpp ****     public:
 845:./autogen/interfaces.hpp ****         class ConfigIntf {
 846:./autogen/interfaces.hpp ****         public:
 847:./autogen/interfaces.hpp ****             template<typename T> static inline auto get_gpio_num(T* obj) { return Property<uint16_t
 848:./autogen/interfaces.hpp ****             template<typename T> static inline void get_gpio_num(T* obj, void* ptr) { new (ptr) Pro
 849:./autogen/interfaces.hpp ****             template<typename T> static inline auto get_enabled(T* obj) { return Property<bool>{obj
 850:./autogen/interfaces.hpp ****             template<typename T> static inline void get_enabled(T* obj, void* ptr) { new (ptr) Prop
 851:./autogen/interfaces.hpp ****             template<typename T> static inline auto get_offset(T* obj) { return Property<float>{&ob
 852:./autogen/interfaces.hpp ****             template<typename T> static inline void get_offset(T* obj, void* ptr) { new (ptr) Prope
 853:./autogen/interfaces.hpp ****             template<typename T> static inline auto get_is_active_high(T* obj) { return Property<bo
 854:./autogen/interfaces.hpp ****             template<typename T> static inline void get_is_active_high(T* obj, void* ptr) { new (pt
 855:./autogen/interfaces.hpp ****             template<typename T> static inline auto get_debounce_ms(T* obj) { return Property<uint3
 856:./autogen/interfaces.hpp ****             template<typename T> static inline void get_debounce_ms(T* obj, void* ptr) { new (ptr) 
 857:./autogen/interfaces.hpp ****         };
 858:./autogen/interfaces.hpp ****         template<typename T> static inline auto get_endstop_state(T* obj) { return Property<const b
 859:./autogen/interfaces.hpp ****         template<typename T> static inline void get_endstop_state(T* obj, void* ptr) { new (ptr) Pr
 860:./autogen/interfaces.hpp ****         template<typename T> static inline auto get_config(T* obj) { return &obj->config_; }
 861:./autogen/interfaces.hpp ****     };
 862:./autogen/interfaces.hpp ****     class MechanicalBrakeIntf {
 794              		.loc 10 862 11 view .LVU119
 795              	.LBB767:
 796 0252 294A     		ldr	r2, .L51+88
 797 0254 1A60     		str	r2, [r3]
 798              	.LVL48:
 799              		.loc 10 862 11 is_stmt 0 view .LVU120
 800              	.LBE767:
 801              	.LBE766:
 802              		.loc 9 17 23 view .LVU121
 803 0256 294A     		ldr	r2, .L51+92
 804 0258 1A60     		str	r2, [r3]
 805              	.LVL49:
 806              	.LBB768:
 807              	.LBI768:
   8:MotorControl/mechanical_brake.hpp ****         uint16_t gpio_num = 0;
 808              		.loc 9 8 12 is_stmt 1 view .LVU122
 809              	.LBB769:
 810 025a 0022     		movs	r2, #0
 811 025c 9A80     		strh	r2, [r3, #4]	@ movhi
 812 025e 0120     		movs	r0, #1
 813 0260 9871     		strb	r0, [r3, #6]
 814 0262 9A60     		str	r2, [r3, #8]
 815              	.LVL50:
   8:MotorControl/mechanical_brake.hpp ****         uint16_t gpio_num = 0;
 816              		.loc 9 8 12 is_stmt 0 view .LVU123
ARM GAS  /tmp/ccysU9ly.s 			page 54


 817              	.LBE769:
 818              	.LBE768:
 819              		.loc 9 17 23 view .LVU124
 820 0264 DA60     		str	r2, [r3, #12]
 821              	.LVL51:
 822              		.loc 9 17 23 view .LVU125
 823              	.LBE765:
 824              	.LBE764:
 117:Board/v3/board.cpp **** 
 825              		.loc 4 117 45 view .LVU126
 826 0266 1033     		adds	r3, r3, #16
 117:Board/v3/board.cpp **** 
 827              		.loc 4 117 45 is_stmt 1 view .LVU127
 828 0268 0139     		subs	r1, r1, #1
 829 026a F0E7     		b	.L27
 830              	.L38:
 119:Board/v3/board.cpp **** Controller controllers[AXIS_COUNT];
 831              		.loc 4 119 53 is_stmt 0 view .LVU128
 832 026c 2646     		mov	r6, r4
 833 026e 244D     		ldr	r5, .L51+96
 834              	.L26:
 119:Board/v3/board.cpp **** Controller controllers[AXIS_COUNT];
 835              		.loc 4 119 53 is_stmt 1 discriminator 4 view .LVU129
 836 0270 002E     		cmp	r6, #0
 837 0272 51DB     		blt	.L39
 119:Board/v3/board.cpp **** Controller controllers[AXIS_COUNT];
 838              		.loc 4 119 53 is_stmt 0 discriminator 3 view .LVU130
 839 0274 4022     		movs	r2, #64
 840 0276 0021     		movs	r1, #0
 841 0278 2846     		mov	r0, r5
 842 027a FFF7FEFF 		bl	memset
 843              	.LVL52:
 844              	.LBB770:
 845              	.LBI770:
 846              		.file 11 "MotorControl/sensorless_estimator.hpp"
   1:MotorControl/sensorless_estimator.hpp **** #ifndef __SENSORLESS_ESTIMATOR_HPP
   2:MotorControl/sensorless_estimator.hpp **** #define __SENSORLESS_ESTIMATOR_HPP
   3:MotorControl/sensorless_estimator.hpp **** 
   4:MotorControl/sensorless_estimator.hpp **** #include "component.hpp"
   5:MotorControl/sensorless_estimator.hpp **** 
   6:MotorControl/sensorless_estimator.hpp **** class SensorlessEstimator : public ODriveIntf::SensorlessEstimatorIntf {
 847              		.loc 11 6 7 is_stmt 1 discriminator 3 view .LVU131
 848              	.LBB771:
 849              	.LBI771:
   7:MotorControl/sensorless_estimator.hpp **** public:
   8:MotorControl/sensorless_estimator.hpp ****     struct Config_t {
 850              		.loc 11 8 12 discriminator 3 view .LVU132
 851              	.LBB772:
 852 027e 214B     		ldr	r3, .L51+100
 853 0280 6B60     		str	r3, [r5, #4]	@ float
 854 0282 AB60     		str	r3, [r5, #8]	@ float
 855 0284 204B     		ldr	r3, .L51+104
 856 0286 EB60     		str	r3, [r5, #12]	@ float
 857              	.LVL53:
 858              		.loc 11 8 12 is_stmt 0 discriminator 3 view .LVU133
 859              	.LBE772:
 860              	.LBE771:
ARM GAS  /tmp/ccysU9ly.s 			page 55


 861              	.LBB773:
 862              	.LBI773:
 863              		.file 12 "./MotorControl/component.hpp"
   1:./MotorControl/component.hpp **** #ifndef __COMPONENT_HPP
   2:./MotorControl/component.hpp **** #define __COMPONENT_HPP
   3:./MotorControl/component.hpp **** 
   4:./MotorControl/component.hpp **** #include <stdint.h>
   5:./MotorControl/component.hpp **** #include <optional>
   6:./MotorControl/component.hpp **** #include <variant>
   7:./MotorControl/component.hpp **** 
   8:./MotorControl/component.hpp **** class ComponentBase {
   9:./MotorControl/component.hpp **** public:
  10:./MotorControl/component.hpp ****     /**
  11:./MotorControl/component.hpp ****      * @brief Shall run the update action of this component.
  12:./MotorControl/component.hpp ****      * 
  13:./MotorControl/component.hpp ****      * This function gets called in a low priority interrupt context and is
  14:./MotorControl/component.hpp ****      * allowed to call CMSIS functions.
  15:./MotorControl/component.hpp ****      * 
  16:./MotorControl/component.hpp ****      * @param timestamp: The timestamp (in HCLK ticks) for which this update
  17:./MotorControl/component.hpp ****      * is run.
  18:./MotorControl/component.hpp ****      */
  19:./MotorControl/component.hpp ****     virtual void update(uint32_t timestamp) = 0;
  20:./MotorControl/component.hpp **** };
  21:./MotorControl/component.hpp **** 
  22:./MotorControl/component.hpp **** 
  23:./MotorControl/component.hpp **** template<typename T>
  24:./MotorControl/component.hpp **** class InputPort;
  25:./MotorControl/component.hpp **** 
  26:./MotorControl/component.hpp **** /**
  27:./MotorControl/component.hpp ****  * @brief An output port stores a value for consumption by a connecting input
  28:./MotorControl/component.hpp ****  * port.
  29:./MotorControl/component.hpp ****  * 
  30:./MotorControl/component.hpp ****  * Output ports are supposed to be reset at the beginning of a control loop
  31:./MotorControl/component.hpp ****  * iteration. This ensures that connecting input ports don't use an outdated
  32:./MotorControl/component.hpp ****  * value and, more importantly, ensures proper handling if the producer of the
  33:./MotorControl/component.hpp ****  * value is incapable of producing the value for any reason.
  34:./MotorControl/component.hpp ****  * 
  35:./MotorControl/component.hpp ****  * Member functions of this class are not thread-safe unless noted otherwise.
  36:./MotorControl/component.hpp ****  */
  37:./MotorControl/component.hpp **** template<typename T>
  38:./MotorControl/component.hpp **** class OutputPort {
  39:./MotorControl/component.hpp **** public:
  40:./MotorControl/component.hpp ****     /**
  41:./MotorControl/component.hpp ****      * @brief Initializes the output port with the specified value.
  42:./MotorControl/component.hpp ****      * 
  43:./MotorControl/component.hpp ****      * An initialization value is required for any() to work properly.
  44:./MotorControl/component.hpp ****      * present() and previous() cannot be used to fetch the
  45:./MotorControl/component.hpp ****      * initialization value.
  46:./MotorControl/component.hpp ****      */
  47:./MotorControl/component.hpp ****     OutputPort(T val) : content_(val) {}
 864              		.loc 12 47 5 is_stmt 1 discriminator 3 view .LVU134
 865              	.LBB774:
 866              		.loc 12 47 37 is_stmt 0 discriminator 3 view .LVU135
 867 0288 0222     		movs	r2, #2
 868 028a AA62     		str	r2, [r5, #40]
 869 028c 0023     		movs	r3, #0
 870 028e EB62     		str	r3, [r5, #44]	@ float
ARM GAS  /tmp/ccysU9ly.s 			page 56


 871              	.LVL54:
 872              		.loc 12 47 37 discriminator 3 view .LVU136
 873              	.LBE774:
 874              	.LBE773:
 875              	.LBB775:
 876              	.LBI775:
 877              		.loc 12 47 5 is_stmt 1 discriminator 3 view .LVU137
 878              	.LBB776:
 879              		.loc 12 47 37 is_stmt 0 discriminator 3 view .LVU138
 880 0290 2A63     		str	r2, [r5, #48]
 881 0292 6B63     		str	r3, [r5, #52]	@ float
 882              	.LVL55:
 883              		.loc 12 47 37 discriminator 3 view .LVU139
 884              	.LBE776:
 885              	.LBE775:
 886              	.LBB777:
 887              	.LBI777:
 888              		.loc 12 47 5 is_stmt 1 discriminator 3 view .LVU140
 889              	.LBB778:
 890              		.loc 12 47 37 is_stmt 0 discriminator 3 view .LVU141
 891 0294 AA63     		str	r2, [r5, #56]
 892 0296 EB63     		str	r3, [r5, #60]	@ float
 893              	.LVL56:
 894              		.loc 12 47 37 discriminator 3 view .LVU142
 895              	.LBE778:
 896              	.LBE777:
 897              	.LBE770:
 119:Board/v3/board.cpp **** Controller controllers[AXIS_COUNT];
 898              		.loc 4 119 53 discriminator 3 view .LVU143
 899 0298 4035     		adds	r5, r5, #64
 119:Board/v3/board.cpp **** Controller controllers[AXIS_COUNT];
 900              		.loc 4 119 53 is_stmt 1 discriminator 3 view .LVU144
 901 029a 013E     		subs	r6, r6, #1
 902 029c E8E7     		b	.L26
 903              	.L52:
 904 029e 00BF     		.align	2
 905              	.L51:
 906 02a0 00000000 		.word	.LANCHOR6
 907 02a4 00000000 		.word	hspi3
 908 02a8 000C0240 		.word	1073875968
 909 02ac 00000000 		.word	.LANCHOR7
 910 02b0 08000000 		.word	_ZTV14GateDriverBase+8
 911 02b4 08000000 		.word	_ZTV9OpAmpBase+8
 912 02b8 00000000 		.word	.LANCHOR8
 913 02bc 00000000 		.word	.LANCHOR9
 914 02c0 00000000 		.word	.LANCHOR1
 915 02c4 38000000 		.word	.LANCHOR1+56
 916 02c8 00000000 		.word	__dso_handle
 917 02cc 00000000 		.word	__tcf_0
 918 02d0 00000000 		.word	.LANCHOR2
 919 02d4 00000000 		.word	__tcf_1
 920 02d8 FFFFF944 		.word	1157234687
 921 02dc 00000000 		.word	.LANCHOR10
 922 02e0 00000000 		.word	htim1
 923 02e4 00000000 		.word	htim8
 924 02e8 00080240 		.word	1073874944
 925 02ec 00000000 		.word	htim3
ARM GAS  /tmp/ccysU9ly.s 			page 57


 926 02f0 00000000 		.word	htim4
 927 02f4 00000000 		.word	.LANCHOR3
 928 02f8 08000000 		.word	_ZTVN10ODriveIntf19MechanicalBrakeIntfE+8
 929 02fc 08000000 		.word	_ZTV15MechanicalBrake+8
 930 0300 00000000 		.word	.LANCHOR4
 931 0304 00007A44 		.word	1148846080
 932 0308 0118CF3A 		.word	986650625
 933 030c 08000000 		.word	_ZTV7Drv8301+8
 934 0310 00040240 		.word	1073873920
 935 0314 00000000 		.word	.LANCHOR11
 936              	.L39:
 120:Board/v3/board.cpp **** TrapezoidalTrajectory trap[AXIS_COUNT];
 937              		.loc 4 120 34 is_stmt 0 view .LVU145
 938 0318 2746     		mov	r7, r4
 939 031a BD48     		ldr	r0, .L53
 940              	.L28:
 120:Board/v3/board.cpp **** TrapezoidalTrajectory trap[AXIS_COUNT];
 941              		.loc 4 120 34 is_stmt 1 discriminator 4 view .LVU146
 942 031c 002F     		cmp	r7, #0
 943 031e C0F2C780 		blt	.L40
 944              	.LVL57:
 945              	.LBB779:
 946              	.LBI779:
 947              		.file 13 "MotorControl/controller.hpp"
   1:MotorControl/controller.hpp **** #ifndef __CONTROLLER_HPP
   2:MotorControl/controller.hpp **** #define __CONTROLLER_HPP
   3:MotorControl/controller.hpp **** 
   4:MotorControl/controller.hpp **** class Controller : public ODriveIntf::ControllerIntf {
 948              		.loc 13 4 7 view .LVU147
 949              	.LBB780:
 950              	.LBB781:
 951              	.LBI781:
 520:./autogen/interfaces.hpp ****     public:
 952              		.loc 10 520 11 view .LVU148
 953              	.LBB782:
 954 0322 BC4B     		ldr	r3, .L53+4
 955 0324 0360     		str	r3, [r0]
 956              	.LVL58:
 520:./autogen/interfaces.hpp ****     public:
 957              		.loc 10 520 11 is_stmt 0 view .LVU149
 958              	.LBE782:
 959              	.LBE781:
 960              		.loc 13 4 7 view .LVU150
 961 0326 0346     		mov	r3, r0
 962 0328 BB4A     		ldr	r2, .L53+8
 963 032a 43F8182B 		str	r2, [r3], #24
 964              	.LVL59:
 965              	.LBB783:
 966              	.LBI783:
   5:MotorControl/controller.hpp **** public:
   6:MotorControl/controller.hpp ****     struct Anticogging_t {
   7:MotorControl/controller.hpp ****         uint32_t index = 0;
   8:MotorControl/controller.hpp ****         float cogging_map[3600];
   9:MotorControl/controller.hpp ****         bool pre_calibrated = false;
  10:MotorControl/controller.hpp ****         bool calib_anticogging = false;
  11:MotorControl/controller.hpp ****         float calib_pos_threshold = 1.0f;
  12:MotorControl/controller.hpp ****         float calib_vel_threshold = 1.0f;
ARM GAS  /tmp/ccysU9ly.s 			page 58


  13:MotorControl/controller.hpp ****         float cogging_ratio = 1.0f;
  14:MotorControl/controller.hpp ****         bool anticogging_enabled = true;
  15:MotorControl/controller.hpp ****     };
  16:MotorControl/controller.hpp **** 
  17:MotorControl/controller.hpp ****     struct Autotuning_t {
  18:MotorControl/controller.hpp ****         float frequency = 0.0f;
  19:MotorControl/controller.hpp ****         float pos_amplitude = 0.0f;
  20:MotorControl/controller.hpp ****         float vel_amplitude = 0.0f;
  21:MotorControl/controller.hpp ****         float torque_amplitude = 0.0f;
  22:MotorControl/controller.hpp ****     };
  23:MotorControl/controller.hpp **** 
  24:MotorControl/controller.hpp ****     struct Config_t {
 967              		.loc 13 24 12 is_stmt 1 view .LVU151
 968              	.LBB784:
 969 032e 0322     		movs	r2, #3
 970 0330 0276     		strb	r2, [r0, #24]
 971 0332 0125     		movs	r5, #1
 972 0334 5D70     		strb	r5, [r3, #1]
 973 0336 DFF830C3 		ldr	ip, .L53+88
 974 033a C3F804C0 		str	ip, [r3, #4]	@ float
 975 033e B74A     		ldr	r2, .L53+12
 976 0340 9A60     		str	r2, [r3, #8]	@ float
 977 0342 B74A     		ldr	r2, .L53+16
 978 0344 DA60     		str	r2, [r3, #12]	@ float
 979 0346 4FF0804E 		mov	lr, #1073741824
 980 034a C3F810E0 		str	lr, [r3, #16]	@ float
 981 034e B54A     		ldr	r2, .L53+20
 982 0350 5A61     		str	r2, [r3, #20]	@ float
 983 0352 4FF0FF42 		mov	r2, #2139095040
 984 0356 9A61     		str	r2, [r3, #24]	@ float
 985 0358 4FF07E56 		mov	r6, #1065353216
 986 035c DE61     		str	r6, [r3, #28]	@ float
 987 035e B24A     		ldr	r2, .L53+24
 988 0360 1A62     		str	r2, [r3, #32]	@ float
 989 0362 0021     		movs	r1, #0
 990 0364 83F82410 		strb	r1, [r3, #36]
 991 0368 9E62     		str	r6, [r3, #40]	@ float
 992 036a 4FF48062 		mov	r2, #1024
 993 036e DA62     		str	r2, [r3, #44]
 994 0370 0022     		movs	r2, #0
 995 0372 1A63     		str	r2, [r3, #48]	@ float
 996 0374 C3F834E0 		str	lr, [r3, #52]	@ float
 997 0378 4FF07A5E 		mov	lr, #1048576000
 998 037c C3F838E0 		str	lr, [r3, #56]	@ float
 999              	.LVL60:
 1000              	.LBB785:
 1001              	.LBI785:
   6:MotorControl/controller.hpp ****         uint32_t index = 0;
 1002              		.loc 13 6 12 view .LVU152
 1003              	.LBB786:
 1004 0380 D963     		str	r1, [r3, #60]
 1005 0382 03F54053 		add	r3, r3, #12288
 1006              	.LVL61:
   6:MotorControl/controller.hpp ****         uint32_t index = 0;
 1007              		.loc 13 6 12 is_stmt 0 view .LVU153
 1008 0386 83F88018 		strb	r1, [r3, #2176]
 1009 038a 83F88118 		strb	r1, [r3, #2177]
ARM GAS  /tmp/ccysU9ly.s 			page 59


 1010 038e 03F6840E 		addw	lr, r3, #2180
 1011 0392 CEF80060 		str	r6, [lr]	@ float
 1012 0396 03F6880E 		addw	lr, r3, #2184
 1013 039a CEF80060 		str	r6, [lr]	@ float
 1014 039e 03F68C0E 		addw	lr, r3, #2188
 1015 03a2 CEF80060 		str	r6, [lr]	@ float
 1016 03a6 83F89058 		strb	r5, [r3, #2192]
 1017              	.LVL62:
   6:MotorControl/controller.hpp ****         uint32_t index = 0;
 1018              		.loc 13 6 12 view .LVU154
 1019              	.LBE786:
 1020              	.LBE785:
 1021              		.loc 13 24 12 view .LVU155
 1022 03aa 03F69408 		addw	r8, r3, #2196
 1023 03ae DFF8BCE2 		ldr	lr, .L53+92
 1024 03b2 C8F800E0 		str	lr, [r8]	@ float
 1025 03b6 83F89818 		strb	r1, [r3, #2200]
 1026 03ba 83F89958 		strb	r5, [r3, #2201]
 1027 03be 83F89A58 		strb	r5, [r3, #2202]
 1028 03c2 83F89B58 		strb	r5, [r3, #2203]
 1029 03c6 4FF0FF08 		mov	r8, #255
 1030 03ca 83F89C88 		strb	r8, [r3, #2204]
 1031 03ce 03F50A69 		add	r9, r3, #2208
 1032 03d2 C9F80060 		str	r6, [r9]	@ float
 1033 03d6 03F6A406 		addw	r6, r3, #2212
 1034 03da 3260     		str	r2, [r6]	@ float
 1035 03dc 83F8A888 		strb	r8, [r3, #2216]
 1036 03e0 03F6AC06 		addw	r6, r3, #2220
 1037 03e4 C6F800C0 		str	ip, [r6]	@ float
 1038 03e8 03F50B66 		add	r6, r3, #2224
 1039 03ec C6F800C0 		str	ip, [r6]	@ float
 1040 03f0 03F6B406 		addw	r6, r3, #2228
 1041 03f4 C6F800E0 		str	lr, [r6]	@ float
 1042 03f8 03F6B803 		addw	r3, r3, #2232
 1043              	.LVL63:
 1044              		.loc 13 24 12 view .LVU156
 1045 03fc 8B4E     		ldr	r6, .L53+28
 1046 03fe 1E60     		str	r6, [r3]	@ float
 1047              	.LVL64:
 1048              		.loc 13 24 12 view .LVU157
 1049              	.LBE784:
 1050              	.LBE783:
   4:MotorControl/controller.hpp **** public:
 1051              		.loc 13 4 7 view .LVU158
 1052 0400 00F54053 		add	r3, r0, #12288
 1053 0404 C3F8D818 		str	r1, [r3, #2264]
 1054 0408 83F8DC18 		strb	r1, [r3, #2268]
 1055 040c 03F50E66 		add	r6, r3, #2272
 1056 0410 3260     		str	r2, [r6]	@ float
 1057              	.LVL65:
 1058              	.LBB787:
 1059              	.LBI787:
  48:./MotorControl/component.hpp ****     
  49:./MotorControl/component.hpp ****     /**
  50:./MotorControl/component.hpp ****      * @brief Updates the underlying value of this output port.
  51:./MotorControl/component.hpp ****      */
  52:./MotorControl/component.hpp ****     void operator=(T value) {
ARM GAS  /tmp/ccysU9ly.s 			page 60


  53:./MotorControl/component.hpp ****         content_ = value;
  54:./MotorControl/component.hpp ****         age_ = 0;
  55:./MotorControl/component.hpp ****     }
  56:./MotorControl/component.hpp **** 
  57:./MotorControl/component.hpp ****     /**
  58:./MotorControl/component.hpp ****      * @brief Marks the contained value as outdated. The value is not actually
  59:./MotorControl/component.hpp ****      * deleted and can still be accessed through some of the member functions
  60:./MotorControl/component.hpp ****      * of this class.
  61:./MotorControl/component.hpp ****      */
  62:./MotorControl/component.hpp ****     void reset() {
  63:./MotorControl/component.hpp ****         // This will eventually overflow to 0 so present() could
  64:./MotorControl/component.hpp ****         // theoretically return a very old value however it is very likely that
  65:./MotorControl/component.hpp ****         // the motor will be long disarmed by then.
  66:./MotorControl/component.hpp ****         age_++;
  67:./MotorControl/component.hpp ****     }
  68:./MotorControl/component.hpp **** 
  69:./MotorControl/component.hpp ****     /**
  70:./MotorControl/component.hpp ****      * @brief Returns the value from this control loop iteration or std::nullopt
  71:./MotorControl/component.hpp ****      * if the value was not yet set during this control loop iteration.
  72:./MotorControl/component.hpp ****      */
  73:./MotorControl/component.hpp ****     std::optional<T> present() {
  74:./MotorControl/component.hpp ****         if (age_ == 0) {
  75:./MotorControl/component.hpp ****             return content_;
  76:./MotorControl/component.hpp ****         } else {
  77:./MotorControl/component.hpp ****             return std::nullopt;
  78:./MotorControl/component.hpp ****         }
  79:./MotorControl/component.hpp ****     }
  80:./MotorControl/component.hpp **** 
  81:./MotorControl/component.hpp ****     /**
  82:./MotorControl/component.hpp ****      * @brief Returns the value from exactly the previous control loop iteration.
  83:./MotorControl/component.hpp ****      * 
  84:./MotorControl/component.hpp ****      * If during the last iteration no value was set or the value was already
  85:./MotorControl/component.hpp ****      * overwritten during this control loop iteration then this function returns
  86:./MotorControl/component.hpp ****      * std::nullopt.
  87:./MotorControl/component.hpp ****      */
  88:./MotorControl/component.hpp ****     std::optional<T> previous() {
  89:./MotorControl/component.hpp ****         if (age_ == 1) {
  90:./MotorControl/component.hpp ****             return content_;
  91:./MotorControl/component.hpp ****         } else {
  92:./MotorControl/component.hpp ****             return std::nullopt;
  93:./MotorControl/component.hpp ****         }
  94:./MotorControl/component.hpp ****     }
  95:./MotorControl/component.hpp **** 
  96:./MotorControl/component.hpp ****     /**
  97:./MotorControl/component.hpp ****      * @brief Returns the value contained in this output port with disregard of
  98:./MotorControl/component.hpp ****      * when the value was set.
  99:./MotorControl/component.hpp ****      * 
 100:./MotorControl/component.hpp ****      * This function is thread-safe if load/store operations of T are atomic.
 101:./MotorControl/component.hpp ****      */
 102:./MotorControl/component.hpp ****     std::optional<T> any() {
 103:./MotorControl/component.hpp ****         return content_;
 104:./MotorControl/component.hpp ****     }
 105:./MotorControl/component.hpp ****     
 106:./MotorControl/component.hpp **** private:
 107:./MotorControl/component.hpp ****     uint32_t age_ = 2; // Age in number of control loop iterations
 108:./MotorControl/component.hpp ****     T content_;
 109:./MotorControl/component.hpp **** };
ARM GAS  /tmp/ccysU9ly.s 			page 61


 110:./MotorControl/component.hpp **** 
 111:./MotorControl/component.hpp **** /**
 112:./MotorControl/component.hpp ****  * @brief An input port provides a value from the source to which it's configured.
 113:./MotorControl/component.hpp ****  * 
 114:./MotorControl/component.hpp ****  * The source can be one of:
 115:./MotorControl/component.hpp ****  *  - an internally stored value
 116:./MotorControl/component.hpp ****  *  - an externally stored value (referenced by a pointer)
 117:./MotorControl/component.hpp ****  *  - an external OutputPort (referenced by a pointer)
 118:./MotorControl/component.hpp ****  *  - none (all queries will return std::nullopt)
 119:./MotorControl/component.hpp ****  * 
 120:./MotorControl/component.hpp ****  * Member functions of this class are not thread-safe unless otherwise noted.
 121:./MotorControl/component.hpp ****  */
 122:./MotorControl/component.hpp **** template<typename T>
 123:./MotorControl/component.hpp **** class InputPort {
 1060              		.loc 12 123 7 is_stmt 1 view .LVU159
 1061              	.LBB788:
 1062              	.LBI788:
 1063              		.file 14 "/opt/gcc-arm-none-eabi/arm-none-eabi/include/c++/10.3.1/variant"
   1:/opt/gcc-arm-none-eabi/arm-none-eabi/include/c++/10.3.1/variant **** // <variant> -*- C++ -*-
   2:/opt/gcc-arm-none-eabi/arm-none-eabi/include/c++/10.3.1/variant **** 
   3:/opt/gcc-arm-none-eabi/arm-none-eabi/include/c++/10.3.1/variant **** // Copyright (C) 2016-2020 Free Software Foundation, Inc.
   4:/opt/gcc-arm-none-eabi/arm-none-eabi/include/c++/10.3.1/variant **** //
   5:/opt/gcc-arm-none-eabi/arm-none-eabi/include/c++/10.3.1/variant **** // This file is part of the GNU ISO C++ Library.  This library is free
   6:/opt/gcc-arm-none-eabi/arm-none-eabi/include/c++/10.3.1/variant **** // software; you can redistribute it and/or modify it under the
   7:/opt/gcc-arm-none-eabi/arm-none-eabi/include/c++/10.3.1/variant **** // terms of the GNU General Public License as published by the
   8:/opt/gcc-arm-none-eabi/arm-none-eabi/include/c++/10.3.1/variant **** // Free Software Foundation; either version 3, or (at your option)
   9:/opt/gcc-arm-none-eabi/arm-none-eabi/include/c++/10.3.1/variant **** // any later version.
  10:/opt/gcc-arm-none-eabi/arm-none-eabi/include/c++/10.3.1/variant **** 
  11:/opt/gcc-arm-none-eabi/arm-none-eabi/include/c++/10.3.1/variant **** // This library is distributed in the hope that it will be useful,
  12:/opt/gcc-arm-none-eabi/arm-none-eabi/include/c++/10.3.1/variant **** // but WITHOUT ANY WARRANTY; without even the implied warranty of
  13:/opt/gcc-arm-none-eabi/arm-none-eabi/include/c++/10.3.1/variant **** // MERCHANTABILITY or FITNESS FOR A PARTICULAR PURPOSE.  See the
  14:/opt/gcc-arm-none-eabi/arm-none-eabi/include/c++/10.3.1/variant **** // GNU General Public License for more details.
  15:/opt/gcc-arm-none-eabi/arm-none-eabi/include/c++/10.3.1/variant **** 
  16:/opt/gcc-arm-none-eabi/arm-none-eabi/include/c++/10.3.1/variant **** // Under Section 7 of GPL version 3, you are granted additional
  17:/opt/gcc-arm-none-eabi/arm-none-eabi/include/c++/10.3.1/variant **** // permissions described in the GCC Runtime Library Exception, version
  18:/opt/gcc-arm-none-eabi/arm-none-eabi/include/c++/10.3.1/variant **** // 3.1, as published by the Free Software Foundation.
  19:/opt/gcc-arm-none-eabi/arm-none-eabi/include/c++/10.3.1/variant **** 
  20:/opt/gcc-arm-none-eabi/arm-none-eabi/include/c++/10.3.1/variant **** // You should have received a copy of the GNU General Public License and
  21:/opt/gcc-arm-none-eabi/arm-none-eabi/include/c++/10.3.1/variant **** // a copy of the GCC Runtime Library Exception along with this program;
  22:/opt/gcc-arm-none-eabi/arm-none-eabi/include/c++/10.3.1/variant **** // see the files COPYING3 and COPYING.RUNTIME respectively.  If not, see
