ARM GAS  /tmp/ccCjxPLL.s 			page 1


   1              		.cpu cortex-m4
   2              		.arch armv7e-m
   3              		.fpu fpv4-sp-d16
   4              		.eabi_attribute 27, 1
   5              		.eabi_attribute 28, 1
   6              		.eabi_attribute 20, 1
   7              		.eabi_attribute 21, 1
   8              		.eabi_attribute 23, 3
   9              		.eabi_attribute 24, 1
  10              		.eabi_attribute 25, 1
  11              		.eabi_attribute 26, 1
  12              		.eabi_attribute 30, 1
  13              		.eabi_attribute 34, 1
  14              		.eabi_attribute 18, 4
  15              		.file	"gpio.c"
  16              		.text
  17              	.Ltext0:
  18              		.cfi_sections	.debug_frame
  19              		.section	.text.MX_GPIO_Init,"ax",%progbits
  20              		.align	1
  21              		.global	MX_GPIO_Init
  22              		.syntax unified
  23              		.thumb
  24              		.thumb_func
  26              	MX_GPIO_Init:
  27              	.LFB133:
  28              		.file 1 "Board/v3/Src/gpio.c"
   1:Board/v3/Src/gpio.c **** /**
   2:Board/v3/Src/gpio.c ****   ******************************************************************************
   3:Board/v3/Src/gpio.c ****   * File Name          : gpio.c
   4:Board/v3/Src/gpio.c ****   * Description        : This file provides code for the configuration
   5:Board/v3/Src/gpio.c ****   *                      of all used GPIO pins.
   6:Board/v3/Src/gpio.c ****   ******************************************************************************
   7:Board/v3/Src/gpio.c ****   * This notice applies to any and all portions of this file
   8:Board/v3/Src/gpio.c ****   * that are not between comment pairs USER CODE BEGIN and
   9:Board/v3/Src/gpio.c ****   * USER CODE END. Other portions of this file, whether 
  10:Board/v3/Src/gpio.c ****   * inserted by the user or by software development tools
  11:Board/v3/Src/gpio.c ****   * are owned by their respective copyright owners.
  12:Board/v3/Src/gpio.c ****   *
  13:Board/v3/Src/gpio.c ****   * Copyright (c) 2018 STMicroelectronics International N.V. 
  14:Board/v3/Src/gpio.c ****   * All rights reserved.
  15:Board/v3/Src/gpio.c ****   *
  16:Board/v3/Src/gpio.c ****   * Redistribution and use in source and binary forms, with or without 
  17:Board/v3/Src/gpio.c ****   * modification, are permitted, provided that the following conditions are met:
  18:Board/v3/Src/gpio.c ****   *
  19:Board/v3/Src/gpio.c ****   * 1. Redistribution of source code must retain the above copyright notice, 
  20:Board/v3/Src/gpio.c ****   *    this list of conditions and the following disclaimer.
  21:Board/v3/Src/gpio.c ****   * 2. Redistributions in binary form must reproduce the above copyright notice,
  22:Board/v3/Src/gpio.c ****   *    this list of conditions and the following disclaimer in the documentation
  23:Board/v3/Src/gpio.c ****   *    and/or other materials provided with the distribution.
  24:Board/v3/Src/gpio.c ****   * 3. Neither the name of STMicroelectronics nor the names of other 
  25:Board/v3/Src/gpio.c ****   *    contributors to this software may be used to endorse or promote products 
  26:Board/v3/Src/gpio.c ****   *    derived from this software without specific written permission.
  27:Board/v3/Src/gpio.c ****   * 4. This software, including modifications and/or derivative works of this 
  28:Board/v3/Src/gpio.c ****   *    software, must execute solely and exclusively on microcontroller or
  29:Board/v3/Src/gpio.c ****   *    microprocessor devices manufactured by or for STMicroelectronics.
  30:Board/v3/Src/gpio.c ****   * 5. Redistribution and use of this software other than as permitted under 
ARM GAS  /tmp/ccCjxPLL.s 			page 2


  31:Board/v3/Src/gpio.c ****   *    this license is void and will automatically terminate your rights under 
  32:Board/v3/Src/gpio.c ****   *    this license. 
  33:Board/v3/Src/gpio.c ****   *
  34:Board/v3/Src/gpio.c ****   * THIS SOFTWARE IS PROVIDED BY STMICROELECTRONICS AND CONTRIBUTORS "AS IS" 
  35:Board/v3/Src/gpio.c ****   * AND ANY EXPRESS, IMPLIED OR STATUTORY WARRANTIES, INCLUDING, BUT NOT 
  36:Board/v3/Src/gpio.c ****   * LIMITED TO, THE IMPLIED WARRANTIES OF MERCHANTABILITY, FITNESS FOR A 
  37:Board/v3/Src/gpio.c ****   * PARTICULAR PURPOSE AND NON-INFRINGEMENT OF THIRD PARTY INTELLECTUAL PROPERTY
  38:Board/v3/Src/gpio.c ****   * RIGHTS ARE DISCLAIMED TO THE FULLEST EXTENT PERMITTED BY LAW. IN NO EVENT 
  39:Board/v3/Src/gpio.c ****   * SHALL STMICROELECTRONICS OR CONTRIBUTORS BE LIABLE FOR ANY DIRECT, INDIRECT,
  40:Board/v3/Src/gpio.c ****   * INCIDENTAL, SPECIAL, EXEMPLARY, OR CONSEQUENTIAL DAMAGES (INCLUDING, BUT NOT
  41:Board/v3/Src/gpio.c ****   * LIMITED TO, PROCUREMENT OF SUBSTITUTE GOODS OR SERVICES; LOSS OF USE, DATA, 
  42:Board/v3/Src/gpio.c ****   * OR PROFITS; OR BUSINESS INTERRUPTION) HOWEVER CAUSED AND ON ANY THEORY OF 
  43:Board/v3/Src/gpio.c ****   * LIABILITY, WHETHER IN CONTRACT, STRICT LIABILITY, OR TORT (INCLUDING 
  44:Board/v3/Src/gpio.c ****   * NEGLIGENCE OR OTHERWISE) ARISING IN ANY WAY OUT OF THE USE OF THIS SOFTWARE,
  45:Board/v3/Src/gpio.c ****   * EVEN IF ADVISED OF THE POSSIBILITY OF SUCH DAMAGE.
  46:Board/v3/Src/gpio.c ****   *
  47:Board/v3/Src/gpio.c ****   ******************************************************************************
  48:Board/v3/Src/gpio.c ****   */
  49:Board/v3/Src/gpio.c **** 
  50:Board/v3/Src/gpio.c **** /* Includes ------------------------------------------------------------------*/
  51:Board/v3/Src/gpio.c **** #include "gpio.h"
  52:Board/v3/Src/gpio.c **** /* USER CODE BEGIN 0 */
  53:Board/v3/Src/gpio.c **** #if HW_VERSION_MAJOR == 3 && HW_VERSION_MINOR == 1 \
  54:Board/v3/Src/gpio.c **** ||  HW_VERSION_MAJOR == 3 && HW_VERSION_MINOR == 2
  55:Board/v3/Src/gpio.c **** #include "prev_board_ver/gpio_V3_2.c"
  56:Board/v3/Src/gpio.c **** #elif HW_VERSION_MAJOR == 3 && HW_VERSION_MINOR == 3 \
  57:Board/v3/Src/gpio.c **** ||  HW_VERSION_MAJOR == 3 && HW_VERSION_MINOR == 4
  58:Board/v3/Src/gpio.c **** #include "prev_board_ver/gpio_V3_4.c"
  59:Board/v3/Src/gpio.c **** #else
  60:Board/v3/Src/gpio.c **** /* USER CODE END 0 */
  61:Board/v3/Src/gpio.c **** 
  62:Board/v3/Src/gpio.c **** /*----------------------------------------------------------------------------*/
  63:Board/v3/Src/gpio.c **** /* Configure GPIO                                                             */
  64:Board/v3/Src/gpio.c **** /*----------------------------------------------------------------------------*/
  65:Board/v3/Src/gpio.c **** /* USER CODE BEGIN 1 */
  66:Board/v3/Src/gpio.c **** 
  67:Board/v3/Src/gpio.c **** /* USER CODE END 1 */
  68:Board/v3/Src/gpio.c **** 
  69:Board/v3/Src/gpio.c **** /** Configure pins as 
  70:Board/v3/Src/gpio.c ****         * Analog 
  71:Board/v3/Src/gpio.c ****         * Input 
  72:Board/v3/Src/gpio.c ****         * Output
  73:Board/v3/Src/gpio.c ****         * EVENT_OUT
  74:Board/v3/Src/gpio.c ****         * EXTI
  75:Board/v3/Src/gpio.c **** */
  76:Board/v3/Src/gpio.c **** void MX_GPIO_Init(void)
  77:Board/v3/Src/gpio.c **** {
  29              		.loc 1 77 1 view -0
  30              		.cfi_startproc
  31              		@ args = 0, pretend = 0, frame = 40
  32              		@ frame_needed = 0, uses_anonymous_args = 0
  33 0000 F0B5     		push	{r4, r5, r6, r7, lr}
  34              	.LCFI0:
  35              		.cfi_def_cfa_offset 20
  36              		.cfi_offset 4, -20
  37              		.cfi_offset 5, -16
  38              		.cfi_offset 6, -12
ARM GAS  /tmp/ccCjxPLL.s 			page 3


  39              		.cfi_offset 7, -8
  40              		.cfi_offset 14, -4
  41 0002 8BB0     		sub	sp, sp, #44
  42              	.LCFI1:
  43              		.cfi_def_cfa_offset 64
  78:Board/v3/Src/gpio.c **** 
  79:Board/v3/Src/gpio.c ****   GPIO_InitTypeDef GPIO_InitStruct;
  44              		.loc 1 79 3 view .LVU1
  80:Board/v3/Src/gpio.c **** 
  81:Board/v3/Src/gpio.c ****   /* GPIO Ports Clock Enable */
  82:Board/v3/Src/gpio.c ****   __HAL_RCC_GPIOC_CLK_ENABLE();
  45              		.loc 1 82 3 view .LVU2
  46              	.LBB2:
  47              		.loc 1 82 3 view .LVU3
  48 0004 0024     		movs	r4, #0
  49 0006 0094     		str	r4, [sp]
  50              		.loc 1 82 3 view .LVU4
  51 0008 334B     		ldr	r3, .L3
  52 000a 1A6B     		ldr	r2, [r3, #48]
  53 000c 42F00402 		orr	r2, r2, #4
  54 0010 1A63     		str	r2, [r3, #48]
  55              		.loc 1 82 3 view .LVU5
  56 0012 1A6B     		ldr	r2, [r3, #48]
  57 0014 02F00402 		and	r2, r2, #4
  58 0018 0092     		str	r2, [sp]
  59              		.loc 1 82 3 view .LVU6
  60 001a 009A     		ldr	r2, [sp]
  61              	.LBE2:
  62              		.loc 1 82 3 view .LVU7
  83:Board/v3/Src/gpio.c ****   __HAL_RCC_GPIOH_CLK_ENABLE();
  63              		.loc 1 83 3 view .LVU8
  64              	.LBB3:
  65              		.loc 1 83 3 view .LVU9
  66 001c 0194     		str	r4, [sp, #4]
  67              		.loc 1 83 3 view .LVU10
  68 001e 1A6B     		ldr	r2, [r3, #48]
  69 0020 42F08002 		orr	r2, r2, #128
  70 0024 1A63     		str	r2, [r3, #48]
  71              		.loc 1 83 3 view .LVU11
  72 0026 1A6B     		ldr	r2, [r3, #48]
  73 0028 02F08002 		and	r2, r2, #128
  74 002c 0192     		str	r2, [sp, #4]
  75              		.loc 1 83 3 view .LVU12
  76 002e 019A     		ldr	r2, [sp, #4]
  77              	.LBE3:
  78              		.loc 1 83 3 view .LVU13
  84:Board/v3/Src/gpio.c ****   __HAL_RCC_GPIOA_CLK_ENABLE();
  79              		.loc 1 84 3 view .LVU14
  80              	.LBB4:
  81              		.loc 1 84 3 view .LVU15
  82 0030 0294     		str	r4, [sp, #8]
  83              		.loc 1 84 3 view .LVU16
  84 0032 1A6B     		ldr	r2, [r3, #48]
  85 0034 42F00102 		orr	r2, r2, #1
  86 0038 1A63     		str	r2, [r3, #48]
  87              		.loc 1 84 3 view .LVU17
  88 003a 1A6B     		ldr	r2, [r3, #48]
ARM GAS  /tmp/ccCjxPLL.s 			page 4


  89 003c 02F00102 		and	r2, r2, #1
  90 0040 0292     		str	r2, [sp, #8]
  91              		.loc 1 84 3 view .LVU18
  92 0042 029A     		ldr	r2, [sp, #8]
  93              	.LBE4:
  94              		.loc 1 84 3 view .LVU19
  85:Board/v3/Src/gpio.c ****   __HAL_RCC_GPIOB_CLK_ENABLE();
  95              		.loc 1 85 3 view .LVU20
  96              	.LBB5:
  97              		.loc 1 85 3 view .LVU21
  98 0044 0394     		str	r4, [sp, #12]
  99              		.loc 1 85 3 view .LVU22
 100 0046 1A6B     		ldr	r2, [r3, #48]
 101 0048 42F00202 		orr	r2, r2, #2
 102 004c 1A63     		str	r2, [r3, #48]
 103              		.loc 1 85 3 view .LVU23
 104 004e 1A6B     		ldr	r2, [r3, #48]
 105 0050 02F00202 		and	r2, r2, #2
 106 0054 0392     		str	r2, [sp, #12]
 107              		.loc 1 85 3 view .LVU24
 108 0056 039A     		ldr	r2, [sp, #12]
 109              	.LBE5:
 110              		.loc 1 85 3 view .LVU25
  86:Board/v3/Src/gpio.c ****   __HAL_RCC_GPIOD_CLK_ENABLE();
 111              		.loc 1 86 3 view .LVU26
 112              	.LBB6:
 113              		.loc 1 86 3 view .LVU27
 114 0058 0494     		str	r4, [sp, #16]
 115              		.loc 1 86 3 view .LVU28
 116 005a 1A6B     		ldr	r2, [r3, #48]
 117 005c 42F00802 		orr	r2, r2, #8
 118 0060 1A63     		str	r2, [r3, #48]
 119              		.loc 1 86 3 view .LVU29
 120 0062 1B6B     		ldr	r3, [r3, #48]
 121 0064 03F00803 		and	r3, r3, #8
 122 0068 0493     		str	r3, [sp, #16]
 123              		.loc 1 86 3 view .LVU30
 124 006a 049B     		ldr	r3, [sp, #16]
 125              	.LBE6:
 126              		.loc 1 86 3 view .LVU31
  87:Board/v3/Src/gpio.c **** 
  88:Board/v3/Src/gpio.c ****   /*Configure GPIO pin Output Level */
  89:Board/v3/Src/gpio.c ****   HAL_GPIO_WritePin(GPIOC, M0_nCS_Pin|M1_nCS_Pin, GPIO_PIN_SET);
 127              		.loc 1 89 3 view .LVU32
 128 006c 1B4E     		ldr	r6, .L3+4
 129 006e 0122     		movs	r2, #1
 130 0070 4FF4C041 		mov	r1, #24576
 131 0074 3046     		mov	r0, r6
 132 0076 FFF7FEFF 		bl	HAL_GPIO_WritePin
 133              	.LVL0:
  90:Board/v3/Src/gpio.c **** 
  91:Board/v3/Src/gpio.c ****   /*Configure GPIO pin Output Level */
  92:Board/v3/Src/gpio.c ****   HAL_GPIO_WritePin(EN_GATE_GPIO_Port, EN_GATE_Pin, GPIO_PIN_RESET);
 134              		.loc 1 92 3 view .LVU33
 135 007a 194F     		ldr	r7, .L3+8
 136 007c 2246     		mov	r2, r4
 137 007e 4FF48051 		mov	r1, #4096
ARM GAS  /tmp/ccCjxPLL.s 			page 5


 138 0082 3846     		mov	r0, r7
 139 0084 FFF7FEFF 		bl	HAL_GPIO_WritePin
 140              	.LVL1:
  93:Board/v3/Src/gpio.c **** 
  94:Board/v3/Src/gpio.c ****   /*Configure GPIO pins : PCPin PCPin */
  95:Board/v3/Src/gpio.c ****   GPIO_InitStruct.Pin = M0_nCS_Pin|M1_nCS_Pin;
 141              		.loc 1 95 3 view .LVU34
 142              		.loc 1 95 23 is_stmt 0 view .LVU35
 143 0088 4FF4C043 		mov	r3, #24576
 144 008c 0593     		str	r3, [sp, #20]
  96:Board/v3/Src/gpio.c ****   GPIO_InitStruct.Mode = GPIO_MODE_OUTPUT_PP;
 145              		.loc 1 96 3 is_stmt 1 view .LVU36
 146              		.loc 1 96 24 is_stmt 0 view .LVU37
 147 008e 0125     		movs	r5, #1
 148 0090 0695     		str	r5, [sp, #24]
  97:Board/v3/Src/gpio.c ****   GPIO_InitStruct.Pull = GPIO_NOPULL;
 149              		.loc 1 97 3 is_stmt 1 view .LVU38
 150              		.loc 1 97 24 is_stmt 0 view .LVU39
 151 0092 0794     		str	r4, [sp, #28]
  98:Board/v3/Src/gpio.c ****   GPIO_InitStruct.Speed = GPIO_SPEED_FREQ_LOW;
 152              		.loc 1 98 3 is_stmt 1 view .LVU40
 153              		.loc 1 98 25 is_stmt 0 view .LVU41
 154 0094 0894     		str	r4, [sp, #32]
  99:Board/v3/Src/gpio.c ****   HAL_GPIO_Init(GPIOC, &GPIO_InitStruct);
 155              		.loc 1 99 3 is_stmt 1 view .LVU42
 156 0096 05A9     		add	r1, sp, #20
 157 0098 3046     		mov	r0, r6
 158 009a FFF7FEFF 		bl	HAL_GPIO_Init
 159              	.LVL2:
 100:Board/v3/Src/gpio.c **** 
 101:Board/v3/Src/gpio.c ****   /*Configure GPIO pins : PCPin PCPin PCPin */
 102:Board/v3/Src/gpio.c ****   GPIO_InitStruct.Pin = M1_ENC_Z_Pin|GPIO_5_Pin|M0_ENC_Z_Pin;
 160              		.loc 1 102 3 view .LVU43
 161              		.loc 1 102 23 is_stmt 0 view .LVU44
 162 009e 48F21023 		movw	r3, #33296
 163 00a2 0593     		str	r3, [sp, #20]
 103:Board/v3/Src/gpio.c ****   GPIO_InitStruct.Mode = GPIO_MODE_INPUT;
 164              		.loc 1 103 3 is_stmt 1 view .LVU45
 165              		.loc 1 103 24 is_stmt 0 view .LVU46
 166 00a4 0694     		str	r4, [sp, #24]
 104:Board/v3/Src/gpio.c ****   GPIO_InitStruct.Pull = GPIO_NOPULL;
 167              		.loc 1 104 3 is_stmt 1 view .LVU47
 168              		.loc 1 104 24 is_stmt 0 view .LVU48
 169 00a6 0794     		str	r4, [sp, #28]
 105:Board/v3/Src/gpio.c ****   HAL_GPIO_Init(GPIOC, &GPIO_InitStruct);
 170              		.loc 1 105 3 is_stmt 1 view .LVU49
 171 00a8 05A9     		add	r1, sp, #20
 172 00aa 3046     		mov	r0, r6
 173 00ac FFF7FEFF 		bl	HAL_GPIO_Init
 174              	.LVL3:
 106:Board/v3/Src/gpio.c **** 
 107:Board/v3/Src/gpio.c ****   /*Configure GPIO pin : PtPin */
 108:Board/v3/Src/gpio.c ****   GPIO_InitStruct.Pin = EN_GATE_Pin;
 175              		.loc 1 108 3 view .LVU50
 176              		.loc 1 108 23 is_stmt 0 view .LVU51
 177 00b0 4FF48053 		mov	r3, #4096
 178 00b4 0593     		str	r3, [sp, #20]
ARM GAS  /tmp/ccCjxPLL.s 			page 6


 109:Board/v3/Src/gpio.c ****   GPIO_InitStruct.Mode = GPIO_MODE_OUTPUT_PP;
 179              		.loc 1 109 3 is_stmt 1 view .LVU52
 180              		.loc 1 109 24 is_stmt 0 view .LVU53
 181 00b6 0695     		str	r5, [sp, #24]
 110:Board/v3/Src/gpio.c ****   GPIO_InitStruct.Pull = GPIO_NOPULL;
 182              		.loc 1 110 3 is_stmt 1 view .LVU54
 183              		.loc 1 110 24 is_stmt 0 view .LVU55
 184 00b8 0794     		str	r4, [sp, #28]
 111:Board/v3/Src/gpio.c ****   GPIO_InitStruct.Speed = GPIO_SPEED_FREQ_LOW;
 185              		.loc 1 111 3 is_stmt 1 view .LVU56
 186              		.loc 1 111 25 is_stmt 0 view .LVU57
 187 00ba 0894     		str	r4, [sp, #32]
 112:Board/v3/Src/gpio.c ****   HAL_GPIO_Init(EN_GATE_GPIO_Port, &GPIO_InitStruct);
 188              		.loc 1 112 3 is_stmt 1 view .LVU58
 189 00bc 05A9     		add	r1, sp, #20
 190 00be 3846     		mov	r0, r7
 191 00c0 FFF7FEFF 		bl	HAL_GPIO_Init
 192              	.LVL4:
 113:Board/v3/Src/gpio.c **** 
 114:Board/v3/Src/gpio.c ****   /*Configure GPIO pin : PtPin */
 115:Board/v3/Src/gpio.c ****   GPIO_InitStruct.Pin = nFAULT_Pin;
 193              		.loc 1 115 3 view .LVU59
 194              		.loc 1 115 23 is_stmt 0 view .LVU60
 195 00c4 0423     		movs	r3, #4
 196 00c6 0593     		str	r3, [sp, #20]
 116:Board/v3/Src/gpio.c ****   GPIO_InitStruct.Mode = GPIO_MODE_INPUT;
 197              		.loc 1 116 3 is_stmt 1 view .LVU61
 198              		.loc 1 116 24 is_stmt 0 view .LVU62
 199 00c8 0694     		str	r4, [sp, #24]
 117:Board/v3/Src/gpio.c ****   GPIO_InitStruct.Pull = GPIO_PULLUP;
 200              		.loc 1 117 3 is_stmt 1 view .LVU63
 201              		.loc 1 117 24 is_stmt 0 view .LVU64
 202 00ca 0795     		str	r5, [sp, #28]
 118:Board/v3/Src/gpio.c ****   HAL_GPIO_Init(nFAULT_GPIO_Port, &GPIO_InitStruct);
 203              		.loc 1 118 3 is_stmt 1 view .LVU65
 204 00cc 05A9     		add	r1, sp, #20
 205 00ce 0548     		ldr	r0, .L3+12
 206 00d0 FFF7FEFF 		bl	HAL_GPIO_Init
 207              	.LVL5:
 119:Board/v3/Src/gpio.c **** 
 120:Board/v3/Src/gpio.c **** }
 208              		.loc 1 120 1 is_stmt 0 view .LVU66
 209 00d4 0BB0     		add	sp, sp, #44
 210              	.LCFI2:
 211              		.cfi_def_cfa_offset 20
 212              		@ sp needed
 213 00d6 F0BD     		pop	{r4, r5, r6, r7, pc}
 214              	.L4:
 215              		.align	2
 216              	.L3:
 217 00d8 00380240 		.word	1073887232
 218 00dc 00080240 		.word	1073874944
 219 00e0 00040240 		.word	1073873920
 220 00e4 000C0240 		.word	1073875968
 221              		.cfi_endproc
 222              	.LFE133:
 224              		.text
ARM GAS  /tmp/ccCjxPLL.s 			page 7


 225              	.Letext0:
 226              		.file 2 "/opt/gcc-arm-none-eabi/arm-none-eabi/include/machine/_default_types.h"
 227              		.file 3 "/opt/gcc-arm-none-eabi/arm-none-eabi/include/sys/_stdint.h"
 228              		.file 4 "ThirdParty/CMSIS/Device/ST/STM32F4xx/Include/stm32f405xx.h"
 229              		.file 5 "ThirdParty/STM32F4xx_HAL_Driver/Inc/stm32f4xx_hal_gpio.h"
ARM GAS  /tmp/ccCjxPLL.s 			page 8

