ARM GAS  /tmp/ccrmmslP.s 			page 1


   1              		.cpu cortex-m4
   2              		.arch armv7e-m
   3              		.fpu fpv4-sp-d16
   4              		.eabi_attribute 27, 1
   5              		.eabi_attribute 28, 1
   6              		.eabi_attribute 20, 1
   7              		.eabi_attribute 21, 1
   8              		.eabi_attribute 23, 3
   9              		.eabi_attribute 24, 1
  10              		.eabi_attribute 25, 1
  11              		.eabi_attribute 26, 1
  12              		.eabi_attribute 30, 1
  13              		.eabi_attribute 34, 1
  14              		.eabi_attribute 18, 4
  15              		.file	"interface_usb.cpp"
  16              		.section	.rodata.str1.4,"aMS",%progbits,1
  17              		.align	2
  18              	.LC0:
  19 0000 7573625F 		.ascii	"usb_server_thread_def\000"
  19      73657276 
  19      65725F74 
  19      68726561 
  19      645F6465 
  20              		.text
  21              	.Ltext0:
  22              		.cfi_sections	.debug_frame
  23              		.section	.text._ZN5fibre16Stm32UsbTxStream12cancel_writeEj,"ax",%progbits
  24              		.align	1
  25              		.global	_ZN5fibre16Stm32UsbTxStream12cancel_writeEj
  26              		.syntax unified
  27              		.thumb
  28              		.thumb_func
  30              	_ZN5fibre16Stm32UsbTxStream12cancel_writeEj:
  31              		.fnstart
  32              	.LVL0:
  33              	.LFB5187:
  34              		.file 1 "communication/interface_usb.cpp"
   1:communication/interface_usb.cpp **** 
   2:communication/interface_usb.cpp **** #include "interface_usb.h"
   3:communication/interface_usb.cpp **** #include "ascii_protocol.hpp"
   4:communication/interface_usb.cpp **** 
   5:communication/interface_usb.cpp **** #include <MotorControl/utils.hpp>
   6:communication/interface_usb.cpp **** 
   7:communication/interface_usb.cpp **** #include <fibre/async_stream.hpp>
   8:communication/interface_usb.cpp **** #include <fibre/../../legacy_protocol.hpp>
   9:communication/interface_usb.cpp **** #include <usbd_cdc.h>
  10:communication/interface_usb.cpp **** #include <usbd_cdc_if.h>
  11:communication/interface_usb.cpp **** #include <usb_device.h>
  12:communication/interface_usb.cpp **** #include <cmsis_os.h>
  13:communication/interface_usb.cpp **** #include <freertos_vars.h>
  14:communication/interface_usb.cpp **** 
  15:communication/interface_usb.cpp **** #include <odrive_main.h>
  16:communication/interface_usb.cpp **** 
  17:communication/interface_usb.cpp **** osThreadId usb_thread;
  18:communication/interface_usb.cpp **** const uint32_t stack_size_usb_thread = 4096; // Bytes
  19:communication/interface_usb.cpp **** USBStats_t usb_stats_;
  20:communication/interface_usb.cpp **** 
ARM GAS  /tmp/ccrmmslP.s 			page 2


  21:communication/interface_usb.cpp **** namespace fibre {
  22:communication/interface_usb.cpp **** 
  23:communication/interface_usb.cpp **** class Stm32UsbTxStream : public AsyncStreamSink {
  24:communication/interface_usb.cpp **** public:
  25:communication/interface_usb.cpp ****     Stm32UsbTxStream(uint8_t endpoint_num) : endpoint_num_(endpoint_num) {}
  26:communication/interface_usb.cpp **** 
  27:communication/interface_usb.cpp ****     void start_write(cbufptr_t buffer, TransferHandle* handle, Callback<void, WriteResult> complete
  28:communication/interface_usb.cpp ****     void cancel_write(TransferHandle transfer_handle) final;
  29:communication/interface_usb.cpp ****     void did_finish();
  30:communication/interface_usb.cpp **** 
  31:communication/interface_usb.cpp ****     const uint8_t endpoint_num_;
  32:communication/interface_usb.cpp ****     bool connected_ = false;
  33:communication/interface_usb.cpp ****     Callback<void, WriteResult> completer_;
  34:communication/interface_usb.cpp ****     const uint8_t* tx_end_ = nullptr;
  35:communication/interface_usb.cpp **** };
  36:communication/interface_usb.cpp **** 
  37:communication/interface_usb.cpp **** class Stm32UsbRxStream : public AsyncStreamSource {
  38:communication/interface_usb.cpp **** public:
  39:communication/interface_usb.cpp ****     Stm32UsbRxStream(uint8_t endpoint_num) : endpoint_num_(endpoint_num) {}
  40:communication/interface_usb.cpp **** 
  41:communication/interface_usb.cpp ****     void start_read(bufptr_t buffer, TransferHandle* handle, Callback<void, ReadResult> completer) 
  42:communication/interface_usb.cpp ****     void cancel_read(TransferHandle transfer_handle) final;
  43:communication/interface_usb.cpp ****     void did_finish();
  44:communication/interface_usb.cpp ****     
  45:communication/interface_usb.cpp ****     const uint8_t endpoint_num_;
  46:communication/interface_usb.cpp ****     bool connected_ = false;
  47:communication/interface_usb.cpp ****     Callback<void, ReadResult> completer_;
  48:communication/interface_usb.cpp ****     uint8_t* rx_end_ = nullptr;
  49:communication/interface_usb.cpp **** };
  50:communication/interface_usb.cpp **** 
  51:communication/interface_usb.cpp **** }
  52:communication/interface_usb.cpp **** 
  53:communication/interface_usb.cpp **** using namespace fibre;
  54:communication/interface_usb.cpp **** 
  55:communication/interface_usb.cpp **** void Stm32UsbTxStream::start_write(cbufptr_t buffer, TransferHandle* handle, Callback<void, WriteRe
  56:communication/interface_usb.cpp ****     if (handle) {
  57:communication/interface_usb.cpp ****         *handle = reinterpret_cast<TransferHandle>(this);
  58:communication/interface_usb.cpp ****     }
  59:communication/interface_usb.cpp **** 
  60:communication/interface_usb.cpp ****     if (!connected_) {
  61:communication/interface_usb.cpp ****         completer.invoke({kStreamClosed, buffer.begin()});
  62:communication/interface_usb.cpp ****         return;
  63:communication/interface_usb.cpp ****     }
  64:communication/interface_usb.cpp **** 
  65:communication/interface_usb.cpp ****     // Note on MTU: on the physical layer, a full speed device can transmit up
  66:communication/interface_usb.cpp ****     // to 64 bytes of payload per bulk package. However a single logical
  67:communication/interface_usb.cpp ****     // transfer can consist of multiple 64 byte packets terminated by a 0 byte
  68:communication/interface_usb.cpp ****     // packet. Currently we don't implement this segmentation. Therefore we
  69:communication/interface_usb.cpp ****     // must ensure that all packets are < 64 bytes, otherwise the host will wait
  70:communication/interface_usb.cpp ****     // for more.
  71:communication/interface_usb.cpp ****     if (buffer.size() >= USB_TX_DATA_SIZE) {
  72:communication/interface_usb.cpp ****         completer.invoke({kStreamError, buffer.begin()});
  73:communication/interface_usb.cpp ****         return;
  74:communication/interface_usb.cpp ****     }
  75:communication/interface_usb.cpp **** 
  76:communication/interface_usb.cpp ****     if (completer_ || tx_end_) {
  77:communication/interface_usb.cpp ****         completer.invoke({kStreamError, buffer.begin()});
ARM GAS  /tmp/ccrmmslP.s 			page 3


  78:communication/interface_usb.cpp ****         return;
  79:communication/interface_usb.cpp ****     }
  80:communication/interface_usb.cpp **** 
  81:communication/interface_usb.cpp ****     completer_ = completer;
  82:communication/interface_usb.cpp ****     tx_end_ = buffer.end();
  83:communication/interface_usb.cpp **** 
  84:communication/interface_usb.cpp ****     if (
  85:communication/interface_usb.cpp **** #if HW_VERSION_MAJOR == 3 // TODO: remove preprocessor switch
  86:communication/interface_usb.cpp ****         CDC_Transmit_FS
  87:communication/interface_usb.cpp **** #elif HW_VERSION_MAJOR == 4
  88:communication/interface_usb.cpp ****         CDC_Transmit_HS
  89:communication/interface_usb.cpp **** #else
  90:communication/interface_usb.cpp **** #error "not supported"
  91:communication/interface_usb.cpp **** #endif
  92:communication/interface_usb.cpp ****         (const_cast<uint8_t*>(buffer.begin()), buffer.size(), endpoint_num_) != USBD_OK) {
  93:communication/interface_usb.cpp ****         tx_end_ = nullptr;
  94:communication/interface_usb.cpp ****         completer_.invoke_and_clear({kStreamError, buffer.begin()});
  95:communication/interface_usb.cpp ****     }
  96:communication/interface_usb.cpp **** }
  97:communication/interface_usb.cpp **** 
  98:communication/interface_usb.cpp **** void Stm32UsbTxStream::cancel_write(TransferHandle transfer_handle) {
  35              		.loc 1 98 69 view -0
  36              		.cfi_startproc
  37              		@ args = 0, pretend = 0, frame = 0
  38              		@ frame_needed = 0, uses_anonymous_args = 0
  39              		@ link register save eliminated.
  99:communication/interface_usb.cpp ****     // not implemented
 100:communication/interface_usb.cpp **** }
  40              		.loc 1 100 1 is_stmt 0 view .LVU1
  41 0000 7047     		bx	lr
  42              		.cfi_endproc
  43              	.LFE5187:
  44              		.cantunwind
  45              		.fnend
  47              		.section	.text._ZN5fibre16Stm32UsbRxStream11cancel_readEj,"ax",%progbits
  48              		.align	1
  49              		.global	_ZN5fibre16Stm32UsbRxStream11cancel_readEj
  50              		.syntax unified
  51              		.thumb
  52              		.thumb_func
  54              	_ZN5fibre16Stm32UsbRxStream11cancel_readEj:
  55              		.fnstart
  56              	.LVL1:
  57              	.LFB5190:
 101:communication/interface_usb.cpp **** 
 102:communication/interface_usb.cpp **** void Stm32UsbTxStream::did_finish() {
 103:communication/interface_usb.cpp ****     const uint8_t* tx_end = tx_end_;
 104:communication/interface_usb.cpp ****     tx_end_ = nullptr;
 105:communication/interface_usb.cpp ****     completer_.invoke_and_clear({connected_ ? kStreamOk : kStreamClosed, tx_end});
 106:communication/interface_usb.cpp **** }
 107:communication/interface_usb.cpp **** 
 108:communication/interface_usb.cpp **** void Stm32UsbRxStream::start_read(bufptr_t buffer, TransferHandle* handle, Callback<void, ReadResul
 109:communication/interface_usb.cpp ****     if (handle) {
 110:communication/interface_usb.cpp ****         *handle = reinterpret_cast<TransferHandle>(this);
 111:communication/interface_usb.cpp ****     }
 112:communication/interface_usb.cpp **** 
 113:communication/interface_usb.cpp ****     if (!connected_) {
ARM GAS  /tmp/ccrmmslP.s 			page 4


 114:communication/interface_usb.cpp ****         completer.invoke({kStreamClosed, buffer.begin()});
 115:communication/interface_usb.cpp ****         return;
 116:communication/interface_usb.cpp ****     }
 117:communication/interface_usb.cpp **** 
 118:communication/interface_usb.cpp ****     if (completer_ || rx_end_) {
 119:communication/interface_usb.cpp ****         completer.invoke({kStreamError, buffer.begin()});
 120:communication/interface_usb.cpp ****         return;
 121:communication/interface_usb.cpp ****     }
 122:communication/interface_usb.cpp **** 
 123:communication/interface_usb.cpp ****     completer_ = completer;
 124:communication/interface_usb.cpp ****     rx_end_ = buffer.begin(); // the pointer is updated at the end of the transfer
 125:communication/interface_usb.cpp **** 
 126:communication/interface_usb.cpp ****     if (USBD_CDC_ReceivePacket(&usb_dev_handle, buffer.begin(), buffer.size(), endpoint_num_) != US
 127:communication/interface_usb.cpp ****         rx_end_ = nullptr;
 128:communication/interface_usb.cpp ****         completer_.invoke_and_clear({kStreamError, buffer.begin()});
 129:communication/interface_usb.cpp ****         return;
 130:communication/interface_usb.cpp ****     }
 131:communication/interface_usb.cpp **** }
 132:communication/interface_usb.cpp **** 
 133:communication/interface_usb.cpp **** void Stm32UsbRxStream::cancel_read(TransferHandle transfer_handle) {
  58              		.loc 1 133 68 is_stmt 1 view -0
  59              		.cfi_startproc
  60              		@ args = 0, pretend = 0, frame = 0
  61              		@ frame_needed = 0, uses_anonymous_args = 0
  62              		@ link register save eliminated.
 134:communication/interface_usb.cpp ****     // not implemented
 135:communication/interface_usb.cpp **** }
  63              		.loc 1 135 1 is_stmt 0 view .LVU3
  64 0000 7047     		bx	lr
  65              		.cfi_endproc
  66              	.LFE5190:
  67              		.cantunwind
  68              		.fnend
  70              		.section	.text._Z41__static_initialization_and_destruction_0ii,"ax",%progbits
  71              		.align	1
  72              		.syntax unified
  73              		.thumb
  74              		.thumb_func
  76              	_Z41__static_initialization_and_destruction_0ii:
  77              		.fnstart
  78              	.LVL2:
  79              	.LFB6277:
 136:communication/interface_usb.cpp **** 
 137:communication/interface_usb.cpp **** void Stm32UsbRxStream::did_finish() {
 138:communication/interface_usb.cpp ****     uint8_t* rx_end = rx_end_;
 139:communication/interface_usb.cpp ****     rx_end_ = nullptr;
 140:communication/interface_usb.cpp ****     completer_.invoke_and_clear({connected_ ? kStreamOk : kStreamClosed, rx_end});
 141:communication/interface_usb.cpp **** }
 142:communication/interface_usb.cpp **** 
 143:communication/interface_usb.cpp **** Stm32UsbTxStream usb_cdc_tx_stream(CDC_IN_EP);
 144:communication/interface_usb.cpp **** Stm32UsbTxStream usb_native_tx_stream(ODRIVE_IN_EP);
 145:communication/interface_usb.cpp **** Stm32UsbRxStream usb_cdc_rx_stream(CDC_OUT_EP);
 146:communication/interface_usb.cpp **** Stm32UsbRxStream usb_native_rx_stream(ODRIVE_OUT_EP);
 147:communication/interface_usb.cpp **** 
 148:communication/interface_usb.cpp **** LegacyProtocolStreamBased fibre_over_cdc(&usb_cdc_rx_stream, &usb_cdc_tx_stream);
 149:communication/interface_usb.cpp **** LegacyProtocolPacketBased fibre_over_usb(&usb_native_rx_stream, &usb_native_tx_stream, USB_TX_DATA_
 150:communication/interface_usb.cpp **** 
ARM GAS  /tmp/ccrmmslP.s 			page 5


 151:communication/interface_usb.cpp **** fibre::AsyncStreamSinkMultiplexer<2> usb_cdc_tx_multiplexer(usb_cdc_tx_stream);
 152:communication/interface_usb.cpp **** fibre::BufferedStreamSink<64> usb_cdc_stdout_sink(usb_cdc_tx_multiplexer); // Used in communication
 153:communication/interface_usb.cpp **** AsciiProtocol ascii_over_cdc(&usb_cdc_rx_stream, &usb_cdc_tx_multiplexer);
 154:communication/interface_usb.cpp **** 
 155:communication/interface_usb.cpp **** bool usb_cdc_stdout_pending = false;
 156:communication/interface_usb.cpp **** 
 157:communication/interface_usb.cpp **** static void usb_server_thread(void * ctx) {
 158:communication/interface_usb.cpp ****     (void) ctx;
 159:communication/interface_usb.cpp ****  
 160:communication/interface_usb.cpp ****     for (;;) {
 161:communication/interface_usb.cpp ****         osEvent event = osMessageGet(usb_event_queue, osWaitForever);
 162:communication/interface_usb.cpp **** 
 163:communication/interface_usb.cpp ****         if (event.status != osEventMessage) {
 164:communication/interface_usb.cpp ****             continue;
 165:communication/interface_usb.cpp ****         }
 166:communication/interface_usb.cpp **** 
 167:communication/interface_usb.cpp ****         usb_stats_.rx_cnt++;
 168:communication/interface_usb.cpp **** 
 169:communication/interface_usb.cpp ****         switch (event.value.v) {
 170:communication/interface_usb.cpp ****             case 1: { // USB connected event
 171:communication/interface_usb.cpp ****                 usb_cdc_tx_stream.connected_ = true;
 172:communication/interface_usb.cpp ****                 usb_native_tx_stream.connected_ = true;
 173:communication/interface_usb.cpp ****                 usb_cdc_rx_stream.connected_ = true;
 174:communication/interface_usb.cpp ****                 usb_native_rx_stream.connected_ = true;
 175:communication/interface_usb.cpp **** 
 176:communication/interface_usb.cpp ****                 fibre_over_usb.start({});
 177:communication/interface_usb.cpp **** 
 178:communication/interface_usb.cpp ****                 if (odrv.config_.usb_cdc_protocol == ODrive::STREAM_PROTOCOL_TYPE_FIBRE) {
 179:communication/interface_usb.cpp ****                     fibre_over_cdc.start({});
 180:communication/interface_usb.cpp ****                 } else if (odrv.config_.usb_cdc_protocol == ODrive::STREAM_PROTOCOL_TYPE_ASCII
 181:communication/interface_usb.cpp ****                         || odrv.config_.usb_cdc_protocol == ODrive::STREAM_PROTOCOL_TYPE_ASCII_AND_
 182:communication/interface_usb.cpp ****                     ascii_over_cdc.start();
 183:communication/interface_usb.cpp ****                 }
 184:communication/interface_usb.cpp ****             } break;
 185:communication/interface_usb.cpp **** 
 186:communication/interface_usb.cpp ****             case 2: { // USB disconnected event
 187:communication/interface_usb.cpp ****                 usb_cdc_tx_stream.connected_ = false;
 188:communication/interface_usb.cpp ****                 usb_native_tx_stream.connected_ = false;
 189:communication/interface_usb.cpp ****                 usb_cdc_rx_stream.connected_ = false;
 190:communication/interface_usb.cpp ****                 usb_native_rx_stream.connected_ = false;
 191:communication/interface_usb.cpp ****                 usb_cdc_tx_stream.did_finish();
 192:communication/interface_usb.cpp ****                 usb_native_tx_stream.did_finish();
 193:communication/interface_usb.cpp ****                 usb_cdc_rx_stream.did_finish();
 194:communication/interface_usb.cpp ****                 usb_native_rx_stream.did_finish();
 195:communication/interface_usb.cpp ****             } break;
 196:communication/interface_usb.cpp **** 
 197:communication/interface_usb.cpp ****             case 3: { // TX on CDC interface done
 198:communication/interface_usb.cpp ****                 usb_cdc_tx_stream.did_finish();
 199:communication/interface_usb.cpp ****             } break;
 200:communication/interface_usb.cpp **** 
 201:communication/interface_usb.cpp ****             case 4: { // TX on custom interface done
 202:communication/interface_usb.cpp ****                 usb_native_tx_stream.did_finish();
 203:communication/interface_usb.cpp ****             } break;
 204:communication/interface_usb.cpp **** 
 205:communication/interface_usb.cpp ****             case 5: { // RX on CDC interface done
 206:communication/interface_usb.cpp ****                 usb_cdc_rx_stream.did_finish();
 207:communication/interface_usb.cpp ****             } break;
ARM GAS  /tmp/ccrmmslP.s 			page 6


 208:communication/interface_usb.cpp **** 
 209:communication/interface_usb.cpp ****             case 6: { // RX on custom interface done
 210:communication/interface_usb.cpp ****                 usb_native_rx_stream.did_finish();
 211:communication/interface_usb.cpp ****             } break;
 212:communication/interface_usb.cpp **** 
 213:communication/interface_usb.cpp ****             case 7: { // stdout has data
 214:communication/interface_usb.cpp ****                 usb_cdc_stdout_pending = false;
 215:communication/interface_usb.cpp ****                 usb_cdc_stdout_sink.maybe_start_async_write();
 216:communication/interface_usb.cpp ****             } break;
 217:communication/interface_usb.cpp ****         }
 218:communication/interface_usb.cpp ****     }
 219:communication/interface_usb.cpp **** }
 220:communication/interface_usb.cpp **** 
 221:communication/interface_usb.cpp **** // Called from CDC_Receive_FS callback function, this allows the communication
 222:communication/interface_usb.cpp **** // thread to handle the incoming data
 223:communication/interface_usb.cpp **** void usb_rx_process_packet(uint8_t *buf, uint32_t len, uint8_t endpoint_pair) {
 224:communication/interface_usb.cpp ****     if (endpoint_pair == CDC_OUT_EP && usb_cdc_rx_stream.rx_end_) {
 225:communication/interface_usb.cpp ****         usb_cdc_rx_stream.rx_end_ += len;
 226:communication/interface_usb.cpp ****         osMessagePut(usb_event_queue, 5, 0);
 227:communication/interface_usb.cpp ****     } else if (endpoint_pair == ODRIVE_OUT_EP && usb_native_rx_stream.rx_end_) {
 228:communication/interface_usb.cpp ****         usb_native_rx_stream.rx_end_ += len;
 229:communication/interface_usb.cpp ****         osMessagePut(usb_event_queue, 6, 0);
 230:communication/interface_usb.cpp ****     }
 231:communication/interface_usb.cpp **** }
 232:communication/interface_usb.cpp **** 
 233:communication/interface_usb.cpp **** void start_usb_server() {
 234:communication/interface_usb.cpp ****     // Start USB communication thread
 235:communication/interface_usb.cpp ****     osThreadDef(usb_server_thread_def, usb_server_thread, osPriorityNormal, 0, stack_size_usb_threa
 236:communication/interface_usb.cpp ****     usb_thread = osThreadCreate(osThread(usb_server_thread_def), NULL);
 237:communication/interface_usb.cpp **** }
  80              		.loc 1 237 1 is_stmt 1 view -0
  81              		.cfi_startproc
  82              		@ args = 0, pretend = 0, frame = 0
  83              		@ frame_needed = 0, uses_anonymous_args = 0
  84              		@ link register save eliminated.
  85              		.loc 1 237 1 is_stmt 0 view .LVU5
  86 0000 0128     		cmp	r0, #1
  87 0002 00D0     		beq	.L11
  88              	.L8:
  89 0004 7047     		bx	lr
  90              	.L11:
  91              		.loc 1 237 1 discriminator 1 view .LVU6
  92 0006 4FF6FF73 		movw	r3, #65535
  93 000a 9942     		cmp	r1, r3
  94 000c FAD1     		bne	.L8
  95              		.loc 1 237 1 view .LVU7
  96 000e F0B4     		push	{r4, r5, r6, r7}
  97              	.LCFI0:
  98              		.cfi_def_cfa_offset 16
  99              		.cfi_offset 4, -16
 100              		.cfi_offset 5, -12
 101              		.cfi_offset 6, -8
 102              		.cfi_offset 7, -4
 103              	.LVL3:
 104              	.LBB566:
 105              	.LBI566:
  25:communication/interface_usb.cpp **** 
ARM GAS  /tmp/ccrmmslP.s 			page 7


 106              		.loc 1 25 5 is_stmt 1 view .LVU8
 107              	.LBB567:
 108              	.LBB568:
 109              	.LBB569:
 110              	.LBI569:
 111              		.file 2 "fibre-cpp/include/fibre/async_stream.hpp"
   1:fibre-cpp/include/fibre/async_stream.hpp **** #ifndef __FIBRE_ASYNC_STREAM_HPP
   2:fibre-cpp/include/fibre/async_stream.hpp **** #define __FIBRE_ASYNC_STREAM_HPP
   3:fibre-cpp/include/fibre/async_stream.hpp **** 
   4:fibre-cpp/include/fibre/async_stream.hpp **** #include <fibre/bufptr.hpp>
   5:fibre-cpp/include/fibre/async_stream.hpp **** #include <fibre/callback.hpp>
   6:fibre-cpp/include/fibre/async_stream.hpp **** #include <stdint.h>
   7:fibre-cpp/include/fibre/async_stream.hpp **** 
   8:fibre-cpp/include/fibre/async_stream.hpp **** namespace fibre {
   9:fibre-cpp/include/fibre/async_stream.hpp **** 
  10:fibre-cpp/include/fibre/async_stream.hpp **** enum StreamStatus {
  11:fibre-cpp/include/fibre/async_stream.hpp ****     kStreamOk,
  12:fibre-cpp/include/fibre/async_stream.hpp ****     kStreamCancelled,
  13:fibre-cpp/include/fibre/async_stream.hpp ****     kStreamClosed,
  14:fibre-cpp/include/fibre/async_stream.hpp ****     kStreamError
  15:fibre-cpp/include/fibre/async_stream.hpp **** };
  16:fibre-cpp/include/fibre/async_stream.hpp **** 
  17:fibre-cpp/include/fibre/async_stream.hpp **** 
  18:fibre-cpp/include/fibre/async_stream.hpp **** struct ReadResult {
  19:fibre-cpp/include/fibre/async_stream.hpp ****     StreamStatus status;
  20:fibre-cpp/include/fibre/async_stream.hpp **** 
  21:fibre-cpp/include/fibre/async_stream.hpp ****     /**
  22:fibre-cpp/include/fibre/async_stream.hpp ****      * @brief The pointer to one position after the last byte that was
  23:fibre-cpp/include/fibre/async_stream.hpp ****      * transferred.
  24:fibre-cpp/include/fibre/async_stream.hpp ****      * This must always be in [buffer.begin(), buffer.end()], even if the
  25:fibre-cpp/include/fibre/async_stream.hpp ****      * transfer was not succesful.
  26:fibre-cpp/include/fibre/async_stream.hpp ****      * If the status is kStreamError or kStreamCancelled then the accuracy
  27:fibre-cpp/include/fibre/async_stream.hpp ****      * of this field is not guaranteed.
  28:fibre-cpp/include/fibre/async_stream.hpp ****      */
  29:fibre-cpp/include/fibre/async_stream.hpp ****     unsigned char* end;
  30:fibre-cpp/include/fibre/async_stream.hpp **** };
  31:fibre-cpp/include/fibre/async_stream.hpp **** 
  32:fibre-cpp/include/fibre/async_stream.hpp **** struct WriteResult {
  33:fibre-cpp/include/fibre/async_stream.hpp ****     StreamStatus status;
  34:fibre-cpp/include/fibre/async_stream.hpp **** 
  35:fibre-cpp/include/fibre/async_stream.hpp ****     /**
  36:fibre-cpp/include/fibre/async_stream.hpp ****      * @brief The pointer to one position after the last byte that was
  37:fibre-cpp/include/fibre/async_stream.hpp ****      * transferred.
  38:fibre-cpp/include/fibre/async_stream.hpp ****      * This must always be in [buffer.begin(), buffer.end()], even if the
  39:fibre-cpp/include/fibre/async_stream.hpp ****      * transfer was not succesful.
  40:fibre-cpp/include/fibre/async_stream.hpp ****      * If the status is kStreamError or kStreamCancelled then the accuracy
  41:fibre-cpp/include/fibre/async_stream.hpp ****      * of this field is not guaranteed.
  42:fibre-cpp/include/fibre/async_stream.hpp ****      */
  43:fibre-cpp/include/fibre/async_stream.hpp ****     const unsigned char* end;
  44:fibre-cpp/include/fibre/async_stream.hpp **** };
  45:fibre-cpp/include/fibre/async_stream.hpp **** 
  46:fibre-cpp/include/fibre/async_stream.hpp **** 
  47:fibre-cpp/include/fibre/async_stream.hpp **** using TransferHandle = uintptr_t;
  48:fibre-cpp/include/fibre/async_stream.hpp **** 
  49:fibre-cpp/include/fibre/async_stream.hpp **** /**
  50:fibre-cpp/include/fibre/async_stream.hpp ****  * @brief Base class for asynchronous stream sources.
  51:fibre-cpp/include/fibre/async_stream.hpp ****  */
ARM GAS  /tmp/ccrmmslP.s 			page 8


  52:fibre-cpp/include/fibre/async_stream.hpp **** class AsyncStreamSource {
  53:fibre-cpp/include/fibre/async_stream.hpp **** public:
  54:fibre-cpp/include/fibre/async_stream.hpp ****     /**
  55:fibre-cpp/include/fibre/async_stream.hpp ****      * @brief Starts a read operation. Once the read operation completes,
  56:fibre-cpp/include/fibre/async_stream.hpp ****      * on_finished.complete() is called.
  57:fibre-cpp/include/fibre/async_stream.hpp ****      *
  58:fibre-cpp/include/fibre/async_stream.hpp ****      * Most implementations only allow one transfer to be active at a time.
  59:fibre-cpp/include/fibre/async_stream.hpp ****      *
  60:fibre-cpp/include/fibre/async_stream.hpp ****      * TODO: specify if `completer` can be called directly within this function.
  61:fibre-cpp/include/fibre/async_stream.hpp ****      *
  62:fibre-cpp/include/fibre/async_stream.hpp ****      * @param buffer: The buffer where the data to be written shall be fetched from.
  63:fibre-cpp/include/fibre/async_stream.hpp ****      *        Must remain valid until `completer` is satisfied.
  64:fibre-cpp/include/fibre/async_stream.hpp ****      * @param handle: The variable pointed to by this argument is set to an
  65:fibre-cpp/include/fibre/async_stream.hpp ****      *        opaque transfer handle that can be passed to cancel_read() as
  66:fibre-cpp/include/fibre/async_stream.hpp ****      *        long as the operation has not yet completed.
  67:fibre-cpp/include/fibre/async_stream.hpp ****      *        If the completer is invoked directly from start_read() then the
  68:fibre-cpp/include/fibre/async_stream.hpp ****      *        handle is not modified after this invokation. That means it's safe
  69:fibre-cpp/include/fibre/async_stream.hpp ****      *        for the completion handler to reuse the handle variable.
  70:fibre-cpp/include/fibre/async_stream.hpp ****      * @param completer: The completer that will be completed once the operation
  71:fibre-cpp/include/fibre/async_stream.hpp ****      *        finishes, whether successful or not.
  72:fibre-cpp/include/fibre/async_stream.hpp ****      *        Must remain valid until it is satisfied.
  73:fibre-cpp/include/fibre/async_stream.hpp ****      */
  74:fibre-cpp/include/fibre/async_stream.hpp ****     virtual void start_read(bufptr_t buffer, TransferHandle* handle, Callback<void, ReadResult> com
  75:fibre-cpp/include/fibre/async_stream.hpp **** 
  76:fibre-cpp/include/fibre/async_stream.hpp ****     /**
  77:fibre-cpp/include/fibre/async_stream.hpp ****      * @brief Cancels an operation that was previously started with start_read().
  78:fibre-cpp/include/fibre/async_stream.hpp ****      *
  79:fibre-cpp/include/fibre/async_stream.hpp ****      * The transfer is cancelled asynchronously and the associated completer
  80:fibre-cpp/include/fibre/async_stream.hpp ****      * will eventually be completed with kStreamCancelled. Until then the
  81:fibre-cpp/include/fibre/async_stream.hpp ****      * transfer must be considered still in progress and associated resources
  82:fibre-cpp/include/fibre/async_stream.hpp ****      * must not be freed.
  83:fibre-cpp/include/fibre/async_stream.hpp ****      * 
  84:fibre-cpp/include/fibre/async_stream.hpp ****      * TODO: specify if an implementation is allowed to return something other
  85:fibre-cpp/include/fibre/async_stream.hpp ****      * than kStreamCancelled when the transfer was cancelled.
  86:fibre-cpp/include/fibre/async_stream.hpp ****      *
  87:fibre-cpp/include/fibre/async_stream.hpp ****      * This function must not be called once the stream has started to invoke
  88:fibre-cpp/include/fibre/async_stream.hpp ****      * the associated completion handler. It must also not be called twice for
  89:fibre-cpp/include/fibre/async_stream.hpp ****      * the same transfer.
  90:fibre-cpp/include/fibre/async_stream.hpp ****      */
  91:fibre-cpp/include/fibre/async_stream.hpp ****     virtual void cancel_read(TransferHandle transfer_handle) = 0;
  92:fibre-cpp/include/fibre/async_stream.hpp **** };
  93:fibre-cpp/include/fibre/async_stream.hpp **** 
  94:fibre-cpp/include/fibre/async_stream.hpp **** /**
  95:fibre-cpp/include/fibre/async_stream.hpp ****  * @brief Base class for asynchronous stream sources.
  96:fibre-cpp/include/fibre/async_stream.hpp ****  *
  97:fibre-cpp/include/fibre/async_stream.hpp ****  * Thread-safety: Implementations are generally not required to provide thread
  98:fibre-cpp/include/fibre/async_stream.hpp ****  * safety. Users should only call the functions of this class on the same thread
  99:fibre-cpp/include/fibre/async_stream.hpp ****  * as the event loop on which the stream runs.
 100:fibre-cpp/include/fibre/async_stream.hpp ****  */
 101:fibre-cpp/include/fibre/async_stream.hpp **** class AsyncStreamSink {
 112              		.loc 2 101 7 view .LVU9
 113              	.LBB570:
 114 0010 4949     		ldr	r1, .L13
 115              	.LVL4:
 116              		.loc 2 101 7 is_stmt 0 view .LVU10
 117 0012 4A4F     		ldr	r7, .L13+4
 118 0014 0F60     		str	r7, [r1]
ARM GAS  /tmp/ccrmmslP.s 			page 9


 119              	.LVL5:
 120              		.loc 2 101 7 view .LVU11
 121              	.LBE570:
 122              	.LBE569:
  25:communication/interface_usb.cpp **** 
 123              		.loc 1 25 72 view .LVU12
 124 0016 4A4A     		ldr	r2, .L13+8
 125 0018 0A60     		str	r2, [r1]
 126 001a 8123     		movs	r3, #129
 127 001c 0B71     		strb	r3, [r1, #4]
 128 001e 0023     		movs	r3, #0
 129 0020 4B71     		strb	r3, [r1, #5]
 130              	.LVL6:
 131              	.LBB571:
 132              	.LBI571:
 133              		.file 3 "fibre-cpp/include/fibre/callback.hpp"
   1:fibre-cpp/include/fibre/callback.hpp **** #ifndef __CALLBACK_HPP
   2:fibre-cpp/include/fibre/callback.hpp **** #define __CALLBACK_HPP
   3:fibre-cpp/include/fibre/callback.hpp **** 
   4:fibre-cpp/include/fibre/callback.hpp **** #include <stdlib.h>
   5:fibre-cpp/include/fibre/callback.hpp **** #include <typeinfo>
   6:fibre-cpp/include/fibre/callback.hpp **** #include <tuple>
   7:fibre-cpp/include/fibre/callback.hpp **** #include <functional>
   8:fibre-cpp/include/fibre/callback.hpp **** #include <type_traits>
   9:fibre-cpp/include/fibre/callback.hpp **** 
  10:fibre-cpp/include/fibre/callback.hpp **** namespace fibre {
  11:fibre-cpp/include/fibre/callback.hpp **** 
  12:fibre-cpp/include/fibre/callback.hpp **** namespace detail {
  13:fibre-cpp/include/fibre/callback.hpp **** template<typename T> struct get_default { static T val() { return {}; } };
  14:fibre-cpp/include/fibre/callback.hpp **** template<> struct get_default<void> { static void val() {} };
  15:fibre-cpp/include/fibre/callback.hpp **** }
  16:fibre-cpp/include/fibre/callback.hpp **** 
  17:fibre-cpp/include/fibre/callback.hpp **** template<typename TRet, typename ... TArgs>
  18:fibre-cpp/include/fibre/callback.hpp **** class Callback {
  19:fibre-cpp/include/fibre/callback.hpp **** public:
  20:fibre-cpp/include/fibre/callback.hpp ****     Callback() : cb_(nullptr), ctx_(nullptr) {}
 134              		.loc 3 20 5 is_stmt 1 view .LVU13
 135              	.LBB572:
 136              	.LBB573:
 137              		.loc 3 20 44 is_stmt 0 view .LVU14
 138 0022 8B60     		str	r3, [r1, #8]
 139 0024 CB60     		str	r3, [r1, #12]
 140              	.LVL7:
 141              		.loc 3 20 44 view .LVU15
 142              	.LBE573:
 143              	.LBE572:
 144              	.LBE571:
  25:communication/interface_usb.cpp **** 
 145              		.loc 1 25 72 view .LVU16
 146 0026 0B61     		str	r3, [r1, #16]
 147              	.LVL8:
  25:communication/interface_usb.cpp **** 
 148              		.loc 1 25 72 view .LVU17
 149              	.LBE568:
 150              	.LBE567:
 151              	.LBE566:
 152              	.LBB574:
ARM GAS  /tmp/ccrmmslP.s 			page 10


 153              	.LBI574:
  25:communication/interface_usb.cpp **** 
 154              		.loc 1 25 5 is_stmt 1 view .LVU18
 155              	.LBB575:
 156              	.LBB576:
 157              	.LBB577:
 158              	.LBI577:
 159              		.loc 2 101 7 view .LVU19
 160              	.LBB578:
 161 0028 464C     		ldr	r4, .L13+12
 162 002a 2760     		str	r7, [r4]
 163              	.LVL9:
 164              		.loc 2 101 7 is_stmt 0 view .LVU20
 165              	.LBE578:
 166              	.LBE577:
  25:communication/interface_usb.cpp **** 
 167              		.loc 1 25 72 view .LVU21
 168 002c 2260     		str	r2, [r4]
 169 002e 8322     		movs	r2, #131
 170 0030 2271     		strb	r2, [r4, #4]
 171 0032 6371     		strb	r3, [r4, #5]
 172              	.LVL10:
 173              	.LBB579:
 174              	.LBI579:
 175              		.loc 3 20 5 is_stmt 1 view .LVU22
 176              	.LBB580:
 177              	.LBB581:
 178              		.loc 3 20 44 is_stmt 0 view .LVU23
 179 0034 A360     		str	r3, [r4, #8]
 180 0036 E360     		str	r3, [r4, #12]
 181              	.LVL11:
 182              		.loc 3 20 44 view .LVU24
 183              	.LBE581:
 184              	.LBE580:
 185              	.LBE579:
  25:communication/interface_usb.cpp **** 
 186              		.loc 1 25 72 view .LVU25
 187 0038 2361     		str	r3, [r4, #16]
 188              	.LVL12:
  25:communication/interface_usb.cpp **** 
 189              		.loc 1 25 72 view .LVU26
 190              	.LBE576:
 191              	.LBE575:
 192              	.LBE574:
 193              	.LBB582:
 194              	.LBI582:
  39:communication/interface_usb.cpp **** 
 195              		.loc 1 39 5 is_stmt 1 view .LVU27
 196              	.LBB583:
 197              	.LBB584:
 198              	.LBB585:
 199              	.LBI585:
  52:fibre-cpp/include/fibre/async_stream.hpp **** public:
 200              		.loc 2 52 7 view .LVU28
 201              	.LBB586:
 202 003a 434E     		ldr	r6, .L13+16
 203 003c DFF830C1 		ldr	ip, .L13+56
ARM GAS  /tmp/ccrmmslP.s 			page 11


 204 0040 C6F800C0 		str	ip, [r6]
 205              	.LVL13:
  52:fibre-cpp/include/fibre/async_stream.hpp **** public:
 206              		.loc 2 52 7 is_stmt 0 view .LVU29
 207              	.LBE586:
 208              	.LBE585:
  39:communication/interface_usb.cpp **** 
 209              		.loc 1 39 72 view .LVU30
 210 0044 414A     		ldr	r2, .L13+20
 211 0046 3260     		str	r2, [r6]
 212 0048 0125     		movs	r5, #1
 213 004a 3571     		strb	r5, [r6, #4]
 214 004c 7371     		strb	r3, [r6, #5]
 215              	.LVL14:
 216              	.LBB587:
 217              	.LBI587:
 218              		.loc 3 20 5 is_stmt 1 view .LVU31
 219              	.LBB588:
 220              	.LBB589:
 221              		.loc 3 20 44 is_stmt 0 view .LVU32
 222 004e B360     		str	r3, [r6, #8]
 223 0050 F360     		str	r3, [r6, #12]
 224              	.LVL15:
 225              		.loc 3 20 44 view .LVU33
 226              	.LBE589:
 227              	.LBE588:
 228              	.LBE587:
  39:communication/interface_usb.cpp **** 
 229              		.loc 1 39 72 view .LVU34
 230 0052 3361     		str	r3, [r6, #16]
 231              	.LVL16:
  39:communication/interface_usb.cpp **** 
 232              		.loc 1 39 72 view .LVU35
 233              	.LBE584:
 234              	.LBE583:
 235              	.LBE582:
 236              	.LBB590:
 237              	.LBI590:
  39:communication/interface_usb.cpp **** 
 238              		.loc 1 39 5 is_stmt 1 view .LVU36
 239              	.LBB591:
 240              	.LBB592:
 241              	.LBB593:
 242              	.LBI593:
  52:fibre-cpp/include/fibre/async_stream.hpp **** public:
 243              		.loc 2 52 7 view .LVU37
 244              	.LBB594:
 245 0054 3E4D     		ldr	r5, .L13+24
 246 0056 C5F800C0 		str	ip, [r5]
 247              	.LVL17:
  52:fibre-cpp/include/fibre/async_stream.hpp **** public:
 248              		.loc 2 52 7 is_stmt 0 view .LVU38
 249              	.LBE594:
 250              	.LBE593:
  39:communication/interface_usb.cpp **** 
 251              		.loc 1 39 72 view .LVU39
 252 005a 2A60     		str	r2, [r5]
ARM GAS  /tmp/ccrmmslP.s 			page 12


 253 005c 0322     		movs	r2, #3
 254 005e 2A71     		strb	r2, [r5, #4]
 255 0060 6B71     		strb	r3, [r5, #5]
 256              	.LVL18:
 257              	.LBB595:
 258              	.LBI595:
 259              		.loc 3 20 5 is_stmt 1 view .LVU40
 260              	.LBB596:
 261              	.LBB597:
 262              		.loc 3 20 44 is_stmt 0 view .LVU41
 263 0062 AB60     		str	r3, [r5, #8]
 264 0064 EB60     		str	r3, [r5, #12]
 265              	.LVL19:
 266              		.loc 3 20 44 view .LVU42
 267              	.LBE597:
 268              	.LBE596:
 269              	.LBE595:
  39:communication/interface_usb.cpp **** 
 270              		.loc 1 39 72 view .LVU43
 271 0066 2B61     		str	r3, [r5, #16]
 272              	.LVL20:
  39:communication/interface_usb.cpp **** 
 273              		.loc 1 39 72 view .LVU44
 274              	.LBE592:
 275              	.LBE591:
 276              	.LBE590:
 277              	.LBB598:
 278              	.LBI598:
 279              		.file 4 "fibre-cpp/include/fibre/../../legacy_protocol.hpp"
   1:fibre-cpp/include/fibre/../../legacy_protocol.hpp **** #ifndef __FIBRE_LEGACY_PROTOCOL_HPP
   2:fibre-cpp/include/fibre/../../legacy_protocol.hpp **** #define __FIBRE_LEGACY_PROTOCOL_HPP
   3:fibre-cpp/include/fibre/../../legacy_protocol.hpp **** 
   4:fibre-cpp/include/fibre/../../legacy_protocol.hpp **** #include <fibre/async_stream.hpp>
   5:fibre-cpp/include/fibre/../../legacy_protocol.hpp **** 
   6:fibre-cpp/include/fibre/../../legacy_protocol.hpp **** #ifdef FIBRE_ENABLE_CLIENT
   7:fibre-cpp/include/fibre/../../legacy_protocol.hpp **** #include "legacy_object_client.hpp"
   8:fibre-cpp/include/fibre/../../legacy_protocol.hpp **** #include <unordered_map>
   9:fibre-cpp/include/fibre/../../legacy_protocol.hpp **** #include <optional>
  10:fibre-cpp/include/fibre/../../legacy_protocol.hpp **** #include <queue>
  11:fibre-cpp/include/fibre/../../legacy_protocol.hpp **** #endif
  12:fibre-cpp/include/fibre/../../legacy_protocol.hpp **** 
  13:fibre-cpp/include/fibre/../../legacy_protocol.hpp **** namespace fibre {
  14:fibre-cpp/include/fibre/../../legacy_protocol.hpp **** 
  15:fibre-cpp/include/fibre/../../legacy_protocol.hpp **** // Default CRC-8 Polynomial: x^8 + x^5 + x^4 + x^2 + x + 1
  16:fibre-cpp/include/fibre/../../legacy_protocol.hpp **** // Can protect a 4 byte payload against toggling of up to 5 bits
  17:fibre-cpp/include/fibre/../../legacy_protocol.hpp **** //  source: https://users.ece.cmu.edu/~koopman/crc/index.html
  18:fibre-cpp/include/fibre/../../legacy_protocol.hpp **** constexpr uint8_t CANONICAL_CRC8_POLYNOMIAL = 0x37;
  19:fibre-cpp/include/fibre/../../legacy_protocol.hpp **** constexpr uint8_t CANONICAL_CRC8_INIT = 0x42;
  20:fibre-cpp/include/fibre/../../legacy_protocol.hpp **** 
  21:fibre-cpp/include/fibre/../../legacy_protocol.hpp **** // Default CRC-16 Polynomial: 0x9eb2 x^16 + x^13 + x^12 + x^11 + x^10 + x^8 + x^6 + x^5 + x^2 + 1
  22:fibre-cpp/include/fibre/../../legacy_protocol.hpp **** // Can protect a 135 byte payload against toggling of up to 5 bits
  23:fibre-cpp/include/fibre/../../legacy_protocol.hpp **** //  source: https://users.ece.cmu.edu/~koopman/crc/index.html
  24:fibre-cpp/include/fibre/../../legacy_protocol.hpp **** // Also known as CRC-16-DNP
  25:fibre-cpp/include/fibre/../../legacy_protocol.hpp **** constexpr uint16_t CANONICAL_CRC16_POLYNOMIAL = 0x3d65;
  26:fibre-cpp/include/fibre/../../legacy_protocol.hpp **** constexpr uint16_t CANONICAL_CRC16_INIT = 0x1337;
  27:fibre-cpp/include/fibre/../../legacy_protocol.hpp **** 
  28:fibre-cpp/include/fibre/../../legacy_protocol.hpp **** constexpr uint8_t CANONICAL_PREFIX = 0xAA;
ARM GAS  /tmp/ccrmmslP.s 			page 13


  29:fibre-cpp/include/fibre/../../legacy_protocol.hpp **** 
  30:fibre-cpp/include/fibre/../../legacy_protocol.hpp **** constexpr uint16_t PROTOCOL_VERSION = 1;
  31:fibre-cpp/include/fibre/../../legacy_protocol.hpp **** 
  32:fibre-cpp/include/fibre/../../legacy_protocol.hpp **** 
  33:fibre-cpp/include/fibre/../../legacy_protocol.hpp **** class PacketWrapper : public AsyncStreamSink {
  34:fibre-cpp/include/fibre/../../legacy_protocol.hpp **** public:
  35:fibre-cpp/include/fibre/../../legacy_protocol.hpp ****     PacketWrapper(AsyncStreamSink* tx_channel)
  36:fibre-cpp/include/fibre/../../legacy_protocol.hpp ****         : tx_channel_(tx_channel) {}
  37:fibre-cpp/include/fibre/../../legacy_protocol.hpp **** 
  38:fibre-cpp/include/fibre/../../legacy_protocol.hpp ****     void start_write(cbufptr_t buffer, TransferHandle* handle, Callback<void, WriteResult> complete
  39:fibre-cpp/include/fibre/../../legacy_protocol.hpp ****     void cancel_write(TransferHandle transfer_handle) final;
  40:fibre-cpp/include/fibre/../../legacy_protocol.hpp **** 
  41:fibre-cpp/include/fibre/../../legacy_protocol.hpp **** private:
  42:fibre-cpp/include/fibre/../../legacy_protocol.hpp ****     void complete(WriteResult result);
  43:fibre-cpp/include/fibre/../../legacy_protocol.hpp **** 
  44:fibre-cpp/include/fibre/../../legacy_protocol.hpp ****     AsyncStreamSink* tx_channel_;
  45:fibre-cpp/include/fibre/../../legacy_protocol.hpp ****     TransferHandle inner_transfer_handle_;
  46:fibre-cpp/include/fibre/../../legacy_protocol.hpp ****     uint8_t header_buf_[3];
  47:fibre-cpp/include/fibre/../../legacy_protocol.hpp ****     uint8_t trailer_buf_[2];
  48:fibre-cpp/include/fibre/../../legacy_protocol.hpp ****     const uint8_t* expected_tx_end_;
  49:fibre-cpp/include/fibre/../../legacy_protocol.hpp ****     cbufptr_t payload_buf_ = {nullptr, nullptr};
  50:fibre-cpp/include/fibre/../../legacy_protocol.hpp ****     Callback<void, WriteResult> completer_;
  51:fibre-cpp/include/fibre/../../legacy_protocol.hpp **** 
  52:fibre-cpp/include/fibre/../../legacy_protocol.hpp ****     enum {
  53:fibre-cpp/include/fibre/../../legacy_protocol.hpp ****         kStateIdle,
  54:fibre-cpp/include/fibre/../../legacy_protocol.hpp ****         kStateCancelling,
  55:fibre-cpp/include/fibre/../../legacy_protocol.hpp ****         kStateSendingHeader,
  56:fibre-cpp/include/fibre/../../legacy_protocol.hpp ****         kStateSendingPayload,
  57:fibre-cpp/include/fibre/../../legacy_protocol.hpp ****         kStateSendingTrailer
  58:fibre-cpp/include/fibre/../../legacy_protocol.hpp ****     } state_ = kStateIdle;
  59:fibre-cpp/include/fibre/../../legacy_protocol.hpp **** };
  60:fibre-cpp/include/fibre/../../legacy_protocol.hpp **** 
  61:fibre-cpp/include/fibre/../../legacy_protocol.hpp **** 
  62:fibre-cpp/include/fibre/../../legacy_protocol.hpp **** class PacketUnwrapper : public AsyncStreamSource {
  63:fibre-cpp/include/fibre/../../legacy_protocol.hpp **** public:
  64:fibre-cpp/include/fibre/../../legacy_protocol.hpp ****     PacketUnwrapper(AsyncStreamSource* rx_channel)
  65:fibre-cpp/include/fibre/../../legacy_protocol.hpp ****         : rx_channel_(rx_channel) {}
  66:fibre-cpp/include/fibre/../../legacy_protocol.hpp **** 
  67:fibre-cpp/include/fibre/../../legacy_protocol.hpp ****     void start_read(bufptr_t buffer, TransferHandle* handle, Callback<void, ReadResult> completer) 
  68:fibre-cpp/include/fibre/../../legacy_protocol.hpp ****     void cancel_read(TransferHandle transfer_handle) final;
  69:fibre-cpp/include/fibre/../../legacy_protocol.hpp **** 
  70:fibre-cpp/include/fibre/../../legacy_protocol.hpp **** private:
  71:fibre-cpp/include/fibre/../../legacy_protocol.hpp ****     void complete(ReadResult result);
  72:fibre-cpp/include/fibre/../../legacy_protocol.hpp **** 
  73:fibre-cpp/include/fibre/../../legacy_protocol.hpp ****     AsyncStreamSource* rx_channel_;
  74:fibre-cpp/include/fibre/../../legacy_protocol.hpp ****     TransferHandle inner_transfer_handle_;
  75:fibre-cpp/include/fibre/../../legacy_protocol.hpp ****     uint8_t rx_buf_[3];
  76:fibre-cpp/include/fibre/../../legacy_protocol.hpp ****     uint8_t* expected_rx_end_;
  77:fibre-cpp/include/fibre/../../legacy_protocol.hpp ****     size_t payload_length_ = 0;
  78:fibre-cpp/include/fibre/../../legacy_protocol.hpp ****     bufptr_t payload_buf_ = {nullptr, nullptr};
  79:fibre-cpp/include/fibre/../../legacy_protocol.hpp ****     Callback<void, ReadResult> completer_;
  80:fibre-cpp/include/fibre/../../legacy_protocol.hpp **** 
  81:fibre-cpp/include/fibre/../../legacy_protocol.hpp ****     enum {
  82:fibre-cpp/include/fibre/../../legacy_protocol.hpp ****         kStateIdle,
  83:fibre-cpp/include/fibre/../../legacy_protocol.hpp ****         kStateCancelling,
  84:fibre-cpp/include/fibre/../../legacy_protocol.hpp ****         kStateReceivingHeader,
  85:fibre-cpp/include/fibre/../../legacy_protocol.hpp ****         kStateReceivingPayload,
ARM GAS  /tmp/ccrmmslP.s 			page 14


  86:fibre-cpp/include/fibre/../../legacy_protocol.hpp ****         kStateReceivingTrailer
  87:fibre-cpp/include/fibre/../../legacy_protocol.hpp ****     } state_ = kStateIdle;
  88:fibre-cpp/include/fibre/../../legacy_protocol.hpp **** };
  89:fibre-cpp/include/fibre/../../legacy_protocol.hpp **** 
  90:fibre-cpp/include/fibre/../../legacy_protocol.hpp **** 
  91:fibre-cpp/include/fibre/../../legacy_protocol.hpp **** struct LegacyProtocolPacketBased {
  92:fibre-cpp/include/fibre/../../legacy_protocol.hpp **** public:
  93:fibre-cpp/include/fibre/../../legacy_protocol.hpp ****     LegacyProtocolPacketBased(AsyncStreamSource* rx_channel, AsyncStreamSink* tx_channel, size_t tx
  94:fibre-cpp/include/fibre/../../legacy_protocol.hpp ****         : rx_channel_(rx_channel), tx_channel_(tx_channel), tx_mtu_(std::min(tx_mtu, sizeof(tx_buf_
  95:fibre-cpp/include/fibre/../../legacy_protocol.hpp **** 
  96:fibre-cpp/include/fibre/../../legacy_protocol.hpp ****     AsyncStreamSource* rx_channel_ = nullptr;
  97:fibre-cpp/include/fibre/../../legacy_protocol.hpp ****     AsyncStreamSink* tx_channel_ = nullptr;
  98:fibre-cpp/include/fibre/../../legacy_protocol.hpp ****     size_t tx_mtu_;
  99:fibre-cpp/include/fibre/../../legacy_protocol.hpp ****     uint8_t tx_buf_[128];
 100:fibre-cpp/include/fibre/../../legacy_protocol.hpp ****     uint8_t rx_buf_[128];
 101:fibre-cpp/include/fibre/../../legacy_protocol.hpp **** 
 102:fibre-cpp/include/fibre/../../legacy_protocol.hpp ****     TransferHandle tx_handle_ = 0; // non-zero while a TX operation is in progress
 103:fibre-cpp/include/fibre/../../legacy_protocol.hpp ****     uint8_t* rx_end_ = nullptr; // non-zero if an RX operation has finished but wasn't handled yet 
 104:fibre-cpp/include/fibre/../../legacy_protocol.hpp ****     StreamStatus rx_status_ = kStreamOk; // non-ok if the RX process was terminated permanently.
 105:fibre-cpp/include/fibre/../../legacy_protocol.hpp ****                                          // This signals to the TX process that it should close
 106:fibre-cpp/include/fibre/../../legacy_protocol.hpp ****                                          // the protocol instance at the next possible instant.
 107:fibre-cpp/include/fibre/../../legacy_protocol.hpp ****     
 108:fibre-cpp/include/fibre/../../legacy_protocol.hpp ****     Callback<void, LegacyProtocolPacketBased*, StreamStatus> on_stopped_ = nullptr;
 109:fibre-cpp/include/fibre/../../legacy_protocol.hpp **** 
 110:fibre-cpp/include/fibre/../../legacy_protocol.hpp **** #if FIBRE_ENABLE_CLIENT
 111:fibre-cpp/include/fibre/../../legacy_protocol.hpp ****     void start_endpoint_operation(uint16_t endpoint_id, cbufptr_t tx_buf, bufptr_t rx_buf, Endpoint
 112:fibre-cpp/include/fibre/../../legacy_protocol.hpp ****     void cancel_endpoint_operation(EndpointOperationHandle handle);
 113:fibre-cpp/include/fibre/../../legacy_protocol.hpp **** 
 114:fibre-cpp/include/fibre/../../legacy_protocol.hpp ****     LegacyObjectClient client_{this};
 115:fibre-cpp/include/fibre/../../legacy_protocol.hpp **** #endif
 116:fibre-cpp/include/fibre/../../legacy_protocol.hpp **** 
 117:fibre-cpp/include/fibre/../../legacy_protocol.hpp **** #if FIBRE_ENABLE_CLIENT
 118:fibre-cpp/include/fibre/../../legacy_protocol.hpp ****     void start(Callback<void, LegacyObjectClient*, std::shared_ptr<LegacyObject>> on_found_root_obj
 119:fibre-cpp/include/fibre/../../legacy_protocol.hpp **** #else
 120:fibre-cpp/include/fibre/../../legacy_protocol.hpp ****     void start(Callback<void, LegacyProtocolPacketBased*, StreamStatus> on_stopped);
 121:fibre-cpp/include/fibre/../../legacy_protocol.hpp **** #endif
 122:fibre-cpp/include/fibre/../../legacy_protocol.hpp **** 
 123:fibre-cpp/include/fibre/../../legacy_protocol.hpp **** private:
 124:fibre-cpp/include/fibre/../../legacy_protocol.hpp **** 
 125:fibre-cpp/include/fibre/../../legacy_protocol.hpp **** #if FIBRE_ENABLE_CLIENT
 126:fibre-cpp/include/fibre/../../legacy_protocol.hpp ****     struct EndpointOperation {
 127:fibre-cpp/include/fibre/../../legacy_protocol.hpp ****         uint16_t seqno;
 128:fibre-cpp/include/fibre/../../legacy_protocol.hpp ****         uint16_t endpoint_id;
 129:fibre-cpp/include/fibre/../../legacy_protocol.hpp ****         cbufptr_t tx_buf;
 130:fibre-cpp/include/fibre/../../legacy_protocol.hpp ****         bool tx_done;
 131:fibre-cpp/include/fibre/../../legacy_protocol.hpp ****         bufptr_t rx_buf;
 132:fibre-cpp/include/fibre/../../legacy_protocol.hpp ****         bool rx_done;
 133:fibre-cpp/include/fibre/../../legacy_protocol.hpp ****         Callback<void, EndpointOperationResult> callback;
 134:fibre-cpp/include/fibre/../../legacy_protocol.hpp ****     };
 135:fibre-cpp/include/fibre/../../legacy_protocol.hpp **** 
 136:fibre-cpp/include/fibre/../../legacy_protocol.hpp ****     void start_endpoint_operation(EndpointOperation op);
 137:fibre-cpp/include/fibre/../../legacy_protocol.hpp **** 
 138:fibre-cpp/include/fibre/../../legacy_protocol.hpp ****     uint16_t outbound_seq_no_ = 0;
 139:fibre-cpp/include/fibre/../../legacy_protocol.hpp ****     std::vector<EndpointOperation> pending_operations_; // operations that are waiting for TX
 140:fibre-cpp/include/fibre/../../legacy_protocol.hpp ****     EndpointOperationHandle transmitting_op_ = 0; // operation that is in TX
 141:fibre-cpp/include/fibre/../../legacy_protocol.hpp ****     std::unordered_map<uint16_t, EndpointOperation> expected_acks_; // operations that are waiting 
 142:fibre-cpp/include/fibre/../../legacy_protocol.hpp **** #endif
ARM GAS  /tmp/ccrmmslP.s 			page 15


 143:fibre-cpp/include/fibre/../../legacy_protocol.hpp **** 
 144:fibre-cpp/include/fibre/../../legacy_protocol.hpp ****     void on_write_finished(WriteResult result);
 145:fibre-cpp/include/fibre/../../legacy_protocol.hpp ****     void on_read_finished(ReadResult result);
 146:fibre-cpp/include/fibre/../../legacy_protocol.hpp ****     void on_rx_closed(StreamStatus status);
 147:fibre-cpp/include/fibre/../../legacy_protocol.hpp ****     void on_rx_tx_closed(StreamStatus status);
 148:fibre-cpp/include/fibre/../../legacy_protocol.hpp **** };
 149:fibre-cpp/include/fibre/../../legacy_protocol.hpp **** 
 150:fibre-cpp/include/fibre/../../legacy_protocol.hpp **** 
 151:fibre-cpp/include/fibre/../../legacy_protocol.hpp **** struct LegacyProtocolStreamBased {
 152:fibre-cpp/include/fibre/../../legacy_protocol.hpp **** public:
 153:fibre-cpp/include/fibre/../../legacy_protocol.hpp ****     LegacyProtocolStreamBased(AsyncStreamSource* rx_channel, AsyncStreamSink* tx_channel)
 280              		.loc 4 153 5 is_stmt 1 view .LVU45
 281              	.LBB599:
 282              	.LBB600:
 283              	.LBI600:
  64:fibre-cpp/include/fibre/../../legacy_protocol.hpp ****         : rx_channel_(rx_channel) {}
 284              		.loc 4 64 5 view .LVU46
 285              	.LBB601:
 286              	.LBB602:
 287              	.LBB603:
 288              	.LBI603:
  52:fibre-cpp/include/fibre/async_stream.hpp **** public:
 289              		.loc 2 52 7 view .LVU47
 290              	.LBB604:
 291 0068 3A4A     		ldr	r2, .L13+28
 292 006a C2F800C0 		str	ip, [r2]
 293              	.LVL21:
  52:fibre-cpp/include/fibre/async_stream.hpp **** public:
 294              		.loc 2 52 7 is_stmt 0 view .LVU48
 295              	.LBE604:
 296              	.LBE603:
  65:fibre-cpp/include/fibre/../../legacy_protocol.hpp **** 
 297              		.loc 4 65 33 view .LVU49
 298 006e DFF804C1 		ldr	ip, .L13+60
 299 0072 C2F800C0 		str	ip, [r2]
 300 0076 5660     		str	r6, [r2, #4]
 301 0078 5361     		str	r3, [r2, #20]
 302              	.LVL22:
 303              	.LBB605:
 304              	.LBI605:
 305              		.file 5 "fibre-cpp/include/fibre/bufptr.hpp"
   1:fibre-cpp/include/fibre/bufptr.hpp **** #ifndef __FIBRE_BUFPTR_HPP
   2:fibre-cpp/include/fibre/bufptr.hpp **** #define __FIBRE_BUFPTR_HPP
   3:fibre-cpp/include/fibre/bufptr.hpp **** 
   4:fibre-cpp/include/fibre/bufptr.hpp **** #include <stdlib.h>
   5:fibre-cpp/include/fibre/bufptr.hpp **** #include <vector>
   6:fibre-cpp/include/fibre/bufptr.hpp **** 
   7:fibre-cpp/include/fibre/bufptr.hpp **** namespace fibre {
   8:fibre-cpp/include/fibre/bufptr.hpp **** 
   9:fibre-cpp/include/fibre/bufptr.hpp **** static inline bool soft_assert(bool expr) { return expr; } // TODO: implement
  10:fibre-cpp/include/fibre/bufptr.hpp **** 
  11:fibre-cpp/include/fibre/bufptr.hpp **** /**
  12:fibre-cpp/include/fibre/bufptr.hpp ****  * @brief Holds a reference to a buffer and a length.
  13:fibre-cpp/include/fibre/bufptr.hpp ****  * Since this class implements begin() and end(), you can use it with many
  14:fibre-cpp/include/fibre/bufptr.hpp ****  * standard algorithms that operate on iterable objects.
  15:fibre-cpp/include/fibre/bufptr.hpp ****  */
  16:fibre-cpp/include/fibre/bufptr.hpp **** template<typename T>
ARM GAS  /tmp/ccrmmslP.s 			page 16


  17:fibre-cpp/include/fibre/bufptr.hpp **** struct generic_bufptr_t {
  18:fibre-cpp/include/fibre/bufptr.hpp ****     using iterator = T*;
  19:fibre-cpp/include/fibre/bufptr.hpp ****     using const_iterator = const T*;
  20:fibre-cpp/include/fibre/bufptr.hpp **** 
  21:fibre-cpp/include/fibre/bufptr.hpp ****     generic_bufptr_t(T* begin, size_t length) : begin_(begin), end_(begin + length) {}
  22:fibre-cpp/include/fibre/bufptr.hpp **** 
  23:fibre-cpp/include/fibre/bufptr.hpp ****     generic_bufptr_t(T* begin, T* end) : begin_(begin), end_(end) {}
 306              		.loc 5 23 5 is_stmt 1 view .LVU50
 307              	.LBB606:
 308              	.LBB607:
 309              		.loc 5 23 65 is_stmt 0 view .LVU51
 310 007a 9361     		str	r3, [r2, #24]
 311 007c D361     		str	r3, [r2, #28]
 312              	.LVL23:
 313              		.loc 5 23 65 view .LVU52
 314              	.LBE607:
 315              	.LBE606:
 316              	.LBE605:
 317              	.LBB608:
 318              	.LBI608:
 319              		.loc 3 20 5 is_stmt 1 view .LVU53
 320              	.LBB609:
 321              	.LBB610:
 322              		.loc 3 20 44 is_stmt 0 view .LVU54
 323 007e 1362     		str	r3, [r2, #32]
 324 0080 5362     		str	r3, [r2, #36]
 325              	.LVL24:
 326              		.loc 3 20 44 view .LVU55
 327              	.LBE610:
 328              	.LBE609:
 329              	.LBE608:
  65:fibre-cpp/include/fibre/../../legacy_protocol.hpp **** 
 330              		.loc 4 65 33 view .LVU56
 331 0082 82F82830 		strb	r3, [r2, #40]
 332              	.LVL25:
  65:fibre-cpp/include/fibre/../../legacy_protocol.hpp **** 
 333              		.loc 4 65 33 view .LVU57
 334              	.LBE602:
 335              	.LBE601:
 336              	.LBE600:
 337              	.LBB611:
 338              	.LBI611:
  35:fibre-cpp/include/fibre/../../legacy_protocol.hpp ****         : tx_channel_(tx_channel) {}
 339              		.loc 4 35 5 is_stmt 1 view .LVU58
 340              	.LBB612:
 341              	.LBB613:
 342              	.LBB614:
 343              	.LBI614:
 344              		.loc 2 101 7 view .LVU59
 345              	.LBB615:
 346 0086 D762     		str	r7, [r2, #44]
 347              	.LVL26:
 348              		.loc 2 101 7 is_stmt 0 view .LVU60
 349              	.LBE615:
 350              	.LBE614:
  36:fibre-cpp/include/fibre/../../legacy_protocol.hpp **** 
 351              		.loc 4 36 33 view .LVU61
ARM GAS  /tmp/ccrmmslP.s 			page 17


 352 0088 334E     		ldr	r6, .L13+32
 353 008a D662     		str	r6, [r2, #44]
 354 008c 1163     		str	r1, [r2, #48]
 355              	.LVL27:
 356              	.LBB616:
 357              	.LBI616:
 358              		.loc 5 23 5 is_stmt 1 view .LVU62
 359              	.LBB617:
 360              	.LBB618:
 361              		.loc 5 23 65 is_stmt 0 view .LVU63
 362 008e 5364     		str	r3, [r2, #68]
 363 0090 9364     		str	r3, [r2, #72]
 364              	.LVL28:
 365              		.loc 5 23 65 view .LVU64
 366              	.LBE618:
 367              	.LBE617:
 368              	.LBE616:
 369              	.LBB619:
 370              	.LBI619:
 371              		.loc 3 20 5 is_stmt 1 view .LVU65
 372              	.LBB620:
 373              	.LBB621:
 374              		.loc 3 20 44 is_stmt 0 view .LVU66
 375 0092 D364     		str	r3, [r2, #76]
 376 0094 1365     		str	r3, [r2, #80]
 377              	.LVL29:
 378              		.loc 3 20 44 view .LVU67
 379              	.LBE621:
 380              	.LBE620:
 381              	.LBE619:
  36:fibre-cpp/include/fibre/../../legacy_protocol.hpp **** 
 382              		.loc 4 36 33 view .LVU68
 383 0096 82F85430 		strb	r3, [r2, #84]
 384              	.LVL30:
  36:fibre-cpp/include/fibre/../../legacy_protocol.hpp **** 
 385              		.loc 4 36 33 view .LVU69
 386              	.LBE613:
 387              	.LBE612:
 388              	.LBE611:
 389              	.LBB622:
 390              	.LBI622:
  93:fibre-cpp/include/fibre/../../legacy_protocol.hpp ****         : rx_channel_(rx_channel), tx_channel_(tx_channel), tx_mtu_(std::min(tx_mtu, sizeof(tx_buf_
 391              		.loc 4 93 5 is_stmt 1 view .LVU70
 392              	.LBB623:
 393              	.LBB624:
  94:fibre-cpp/include/fibre/../../legacy_protocol.hpp **** 
 394              		.loc 4 94 102 is_stmt 0 view .LVU71
 395 009a 9265     		str	r2, [r2, #88]
 396 009c 02F12C06 		add	r6, r2, #44
 397 00a0 D665     		str	r6, [r2, #92]
 398              	.LVL31:
 399              	.LBB625:
 400              	.LBI625:
 401              		.file 6 "/opt/gcc-arm-none-eabi/arm-none-eabi/include/c++/10.3.1/bits/stl_algobase.h"
   1:/opt/gcc-arm-none-eabi/arm-none-eabi/include/c++/10.3.1/bits/stl_algobase.h **** // Core algorithmic facilities -*- C++ -*-
   2:/opt/gcc-arm-none-eabi/arm-none-eabi/include/c++/10.3.1/bits/stl_algobase.h **** 
   3:/opt/gcc-arm-none-eabi/arm-none-eabi/include/c++/10.3.1/bits/stl_algobase.h **** // Copyright (C) 2001-2020 Free Software Foundation, Inc.
ARM GAS  /tmp/ccrmmslP.s 			page 18


   4:/opt/gcc-arm-none-eabi/arm-none-eabi/include/c++/10.3.1/bits/stl_algobase.h **** //
   5:/opt/gcc-arm-none-eabi/arm-none-eabi/include/c++/10.3.1/bits/stl_algobase.h **** // This file is part of the GNU ISO C++ Library.  This library is free
   6:/opt/gcc-arm-none-eabi/arm-none-eabi/include/c++/10.3.1/bits/stl_algobase.h **** // software; you can redistribute it and/or modify it under the
   7:/opt/gcc-arm-none-eabi/arm-none-eabi/include/c++/10.3.1/bits/stl_algobase.h **** // terms of the GNU General Public License as published by the
   8:/opt/gcc-arm-none-eabi/arm-none-eabi/include/c++/10.3.1/bits/stl_algobase.h **** // Free Software Foundation; either version 3, or (at your option)
   9:/opt/gcc-arm-none-eabi/arm-none-eabi/include/c++/10.3.1/bits/stl_algobase.h **** // any later version.
  10:/opt/gcc-arm-none-eabi/arm-none-eabi/include/c++/10.3.1/bits/stl_algobase.h **** 
  11:/opt/gcc-arm-none-eabi/arm-none-eabi/include/c++/10.3.1/bits/stl_algobase.h **** // This library is distributed in the hope that it will be useful,
  12:/opt/gcc-arm-none-eabi/arm-none-eabi/include/c++/10.3.1/bits/stl_algobase.h **** // but WITHOUT ANY WARRANTY; without even the implied warranty of
  13:/opt/gcc-arm-none-eabi/arm-none-eabi/include/c++/10.3.1/bits/stl_algobase.h **** // MERCHANTABILITY or FITNESS FOR A PARTICULAR PURPOSE.  See the
  14:/opt/gcc-arm-none-eabi/arm-none-eabi/include/c++/10.3.1/bits/stl_algobase.h **** // GNU General Public License for more details.
  15:/opt/gcc-arm-none-eabi/arm-none-eabi/include/c++/10.3.1/bits/stl_algobase.h **** 
  16:/opt/gcc-arm-none-eabi/arm-none-eabi/include/c++/10.3.1/bits/stl_algobase.h **** // Under Section 7 of GPL version 3, you are granted additional
  17:/opt/gcc-arm-none-eabi/arm-none-eabi/include/c++/10.3.1/bits/stl_algobase.h **** // permissions described in the GCC Runtime Library Exception, version
  18:/opt/gcc-arm-none-eabi/arm-none-eabi/include/c++/10.3.1/bits/stl_algobase.h **** // 3.1, as published by the Free Software Foundation.
  19:/opt/gcc-arm-none-eabi/arm-none-eabi/include/c++/10.3.1/bits/stl_algobase.h **** 
  20:/opt/gcc-arm-none-eabi/arm-none-eabi/include/c++/10.3.1/bits/stl_algobase.h **** // You should have received a copy of the GNU General Public License and
  21:/opt/gcc-arm-none-eabi/arm-none-eabi/include/c++/10.3.1/bits/stl_algobase.h **** // a copy of the GCC Runtime Library Exception along with this program;
  22:/opt/gcc-arm-none-eabi/arm-none-eabi/include/c++/10.3.1/bits/stl_algobase.h **** // see the files COPYING3 and COPYING.RUNTIME respectively.  If not, see
  23:/opt/gcc-arm-none-eabi/arm-none-eabi/include/c++/10.3.1/bits/stl_algobase.h **** // <http://www.gnu.org/licenses/>.
  24:/opt/gcc-arm-none-eabi/arm-none-eabi/include/c++/10.3.1/bits/stl_algobase.h **** 
  25:/opt/gcc-arm-none-eabi/arm-none-eabi/include/c++/10.3.1/bits/stl_algobase.h **** /*
  26:/opt/gcc-arm-none-eabi/arm-none-eabi/include/c++/10.3.1/bits/stl_algobase.h ****  *
  27:/opt/gcc-arm-none-eabi/arm-none-eabi/include/c++/10.3.1/bits/stl_algobase.h ****  * Copyright (c) 1994
  28:/opt/gcc-arm-none-eabi/arm-none-eabi/include/c++/10.3.1/bits/stl_algobase.h ****  * Hewlett-Packard Company
  29:/opt/gcc-arm-none-eabi/arm-none-eabi/include/c++/10.3.1/bits/stl_algobase.h ****  *
  30:/opt/gcc-arm-none-eabi/arm-none-eabi/include/c++/10.3.1/bits/stl_algobase.h ****  * Permission to use, copy, modify, distribute and sell this software
  31:/opt/gcc-arm-none-eabi/arm-none-eabi/include/c++/10.3.1/bits/stl_algobase.h ****  * and its documentation for any purpose is hereby granted without fee,
  32:/opt/gcc-arm-none-eabi/arm-none-eabi/include/c++/10.3.1/bits/stl_algobase.h ****  * provided that the above copyright notice appear in all copies and
  33:/opt/gcc-arm-none-eabi/arm-none-eabi/include/c++/10.3.1/bits/stl_algobase.h ****  * that both that copyright notice and this permission notice appear
  34:/opt/gcc-arm-none-eabi/arm-none-eabi/include/c++/10.3.1/bits/stl_algobase.h ****  * in supporting documentation.  Hewlett-Packard Company makes no
  35:/opt/gcc-arm-none-eabi/arm-none-eabi/include/c++/10.3.1/bits/stl_algobase.h ****  * representations about the suitability of this software for any
  36:/opt/gcc-arm-none-eabi/arm-none-eabi/include/c++/10.3.1/bits/stl_algobase.h ****  * purpose.  It is provided "as is" without express or implied warranty.
  37:/opt/gcc-arm-none-eabi/arm-none-eabi/include/c++/10.3.1/bits/stl_algobase.h ****  *
  38:/opt/gcc-arm-none-eabi/arm-none-eabi/include/c++/10.3.1/bits/stl_algobase.h ****  *
  39:/opt/gcc-arm-none-eabi/arm-none-eabi/include/c++/10.3.1/bits/stl_algobase.h ****  * Copyright (c) 1996-1998
  40:/opt/gcc-arm-none-eabi/arm-none-eabi/include/c++/10.3.1/bits/stl_algobase.h ****  * Silicon Graphics Computer Systems, Inc.
  41:/opt/gcc-arm-none-eabi/arm-none-eabi/include/c++/10.3.1/bits/stl_algobase.h ****  *
  42:/opt/gcc-arm-none-eabi/arm-none-eabi/include/c++/10.3.1/bits/stl_algobase.h ****  * Permission to use, copy, modify, distribute and sell this software
  43:/opt/gcc-arm-none-eabi/arm-none-eabi/include/c++/10.3.1/bits/stl_algobase.h ****  * and its documentation for any purpose is hereby granted without fee,
  44:/opt/gcc-arm-none-eabi/arm-none-eabi/include/c++/10.3.1/bits/stl_algobase.h ****  * provided that the above copyright notice appear in all copies and
  45:/opt/gcc-arm-none-eabi/arm-none-eabi/include/c++/10.3.1/bits/stl_algobase.h ****  * that both that copyright notice and this permission notice appear
  46:/opt/gcc-arm-none-eabi/arm-none-eabi/include/c++/10.3.1/bits/stl_algobase.h ****  * in supporting documentation.  Silicon Graphics makes no
  47:/opt/gcc-arm-none-eabi/arm-none-eabi/include/c++/10.3.1/bits/stl_algobase.h ****  * representations about the suitability of this software for any
  48:/opt/gcc-arm-none-eabi/arm-none-eabi/include/c++/10.3.1/bits/stl_algobase.h ****  * purpose.  It is provided "as is" without express or implied warranty.
  49:/opt/gcc-arm-none-eabi/arm-none-eabi/include/c++/10.3.1/bits/stl_algobase.h ****  */
  50:/opt/gcc-arm-none-eabi/arm-none-eabi/include/c++/10.3.1/bits/stl_algobase.h **** 
  51:/opt/gcc-arm-none-eabi/arm-none-eabi/include/c++/10.3.1/bits/stl_algobase.h **** /** @file bits/stl_algobase.h
  52:/opt/gcc-arm-none-eabi/arm-none-eabi/include/c++/10.3.1/bits/stl_algobase.h ****  *  This is an internal header file, included by other library headers.
  53:/opt/gcc-arm-none-eabi/arm-none-eabi/include/c++/10.3.1/bits/stl_algobase.h ****  *  Do not attempt to use it directly. @headername{algorithm}
  54:/opt/gcc-arm-none-eabi/arm-none-eabi/include/c++/10.3.1/bits/stl_algobase.h ****  */
  55:/opt/gcc-arm-none-eabi/arm-none-eabi/include/c++/10.3.1/bits/stl_algobase.h **** 
  56:/opt/gcc-arm-none-eabi/arm-none-eabi/include/c++/10.3.1/bits/stl_algobase.h **** #ifndef _STL_ALGOBASE_H
  57:/opt/gcc-arm-none-eabi/arm-none-eabi/include/c++/10.3.1/bits/stl_algobase.h **** #define _STL_ALGOBASE_H 1
  58:/opt/gcc-arm-none-eabi/arm-none-eabi/include/c++/10.3.1/bits/stl_algobase.h **** 
  59:/opt/gcc-arm-none-eabi/arm-none-eabi/include/c++/10.3.1/bits/stl_algobase.h **** #include <bits/c++config.h>
  60:/opt/gcc-arm-none-eabi/arm-none-eabi/include/c++/10.3.1/bits/stl_algobase.h **** #include <bits/functexcept.h>
ARM GAS  /tmp/ccrmmslP.s 			page 19


  61:/opt/gcc-arm-none-eabi/arm-none-eabi/include/c++/10.3.1/bits/stl_algobase.h **** #include <bits/cpp_type_traits.h>
  62:/opt/gcc-arm-none-eabi/arm-none-eabi/include/c++/10.3.1/bits/stl_algobase.h **** #include <ext/type_traits.h>
  63:/opt/gcc-arm-none-eabi/arm-none-eabi/include/c++/10.3.1/bits/stl_algobase.h **** #include <ext/numeric_traits.h>
  64:/opt/gcc-arm-none-eabi/arm-none-eabi/include/c++/10.3.1/bits/stl_algobase.h **** #include <bits/stl_pair.h>
  65:/opt/gcc-arm-none-eabi/arm-none-eabi/include/c++/10.3.1/bits/stl_algobase.h **** #include <bits/stl_iterator_base_types.h>
  66:/opt/gcc-arm-none-eabi/arm-none-eabi/include/c++/10.3.1/bits/stl_algobase.h **** #include <bits/stl_iterator_base_funcs.h>
  67:/opt/gcc-arm-none-eabi/arm-none-eabi/include/c++/10.3.1/bits/stl_algobase.h **** #include <bits/stl_iterator.h>
  68:/opt/gcc-arm-none-eabi/arm-none-eabi/include/c++/10.3.1/bits/stl_algobase.h **** #include <bits/concept_check.h>
  69:/opt/gcc-arm-none-eabi/arm-none-eabi/include/c++/10.3.1/bits/stl_algobase.h **** #include <debug/debug.h>
  70:/opt/gcc-arm-none-eabi/arm-none-eabi/include/c++/10.3.1/bits/stl_algobase.h **** #include <bits/move.h> // For std::swap
  71:/opt/gcc-arm-none-eabi/arm-none-eabi/include/c++/10.3.1/bits/stl_algobase.h **** #include <bits/predefined_ops.h>
  72:/opt/gcc-arm-none-eabi/arm-none-eabi/include/c++/10.3.1/bits/stl_algobase.h **** #if __cplusplus >= 201103L
  73:/opt/gcc-arm-none-eabi/arm-none-eabi/include/c++/10.3.1/bits/stl_algobase.h **** # include <type_traits>
  74:/opt/gcc-arm-none-eabi/arm-none-eabi/include/c++/10.3.1/bits/stl_algobase.h **** #endif
  75:/opt/gcc-arm-none-eabi/arm-none-eabi/include/c++/10.3.1/bits/stl_algobase.h **** #if __cplusplus > 201703L
  76:/opt/gcc-arm-none-eabi/arm-none-eabi/include/c++/10.3.1/bits/stl_algobase.h **** # include <compare>
  77:/opt/gcc-arm-none-eabi/arm-none-eabi/include/c++/10.3.1/bits/stl_algobase.h **** #endif
  78:/opt/gcc-arm-none-eabi/arm-none-eabi/include/c++/10.3.1/bits/stl_algobase.h **** 
  79:/opt/gcc-arm-none-eabi/arm-none-eabi/include/c++/10.3.1/bits/stl_algobase.h **** namespace std _GLIBCXX_VISIBILITY(default)
  80:/opt/gcc-arm-none-eabi/arm-none-eabi/include/c++/10.3.1/bits/stl_algobase.h **** {
  81:/opt/gcc-arm-none-eabi/arm-none-eabi/include/c++/10.3.1/bits/stl_algobase.h **** _GLIBCXX_BEGIN_NAMESPACE_VERSION
  82:/opt/gcc-arm-none-eabi/arm-none-eabi/include/c++/10.3.1/bits/stl_algobase.h **** 
  83:/opt/gcc-arm-none-eabi/arm-none-eabi/include/c++/10.3.1/bits/stl_algobase.h ****   /*
  84:/opt/gcc-arm-none-eabi/arm-none-eabi/include/c++/10.3.1/bits/stl_algobase.h ****    * A constexpr wrapper for __builtin_memcmp.
  85:/opt/gcc-arm-none-eabi/arm-none-eabi/include/c++/10.3.1/bits/stl_algobase.h ****    * @param __num The number of elements of type _Tp (not bytes).
  86:/opt/gcc-arm-none-eabi/arm-none-eabi/include/c++/10.3.1/bits/stl_algobase.h ****    */
  87:/opt/gcc-arm-none-eabi/arm-none-eabi/include/c++/10.3.1/bits/stl_algobase.h ****   template<typename _Tp, typename _Up>
  88:/opt/gcc-arm-none-eabi/arm-none-eabi/include/c++/10.3.1/bits/stl_algobase.h ****     _GLIBCXX14_CONSTEXPR
  89:/opt/gcc-arm-none-eabi/arm-none-eabi/include/c++/10.3.1/bits/stl_algobase.h ****     inline int
  90:/opt/gcc-arm-none-eabi/arm-none-eabi/include/c++/10.3.1/bits/stl_algobase.h ****     __memcmp(const _Tp* __first1, const _Up* __first2, size_t __num)
  91:/opt/gcc-arm-none-eabi/arm-none-eabi/include/c++/10.3.1/bits/stl_algobase.h ****     {
  92:/opt/gcc-arm-none-eabi/arm-none-eabi/include/c++/10.3.1/bits/stl_algobase.h **** #if __cplusplus >= 201103L
  93:/opt/gcc-arm-none-eabi/arm-none-eabi/include/c++/10.3.1/bits/stl_algobase.h ****       static_assert(sizeof(_Tp) == sizeof(_Up), "can be compared with memcmp");
  94:/opt/gcc-arm-none-eabi/arm-none-eabi/include/c++/10.3.1/bits/stl_algobase.h **** #endif
  95:/opt/gcc-arm-none-eabi/arm-none-eabi/include/c++/10.3.1/bits/stl_algobase.h **** #ifdef __cpp_lib_is_constant_evaluated
  96:/opt/gcc-arm-none-eabi/arm-none-eabi/include/c++/10.3.1/bits/stl_algobase.h ****       if (std::is_constant_evaluated())
  97:/opt/gcc-arm-none-eabi/arm-none-eabi/include/c++/10.3.1/bits/stl_algobase.h **** 	{
  98:/opt/gcc-arm-none-eabi/arm-none-eabi/include/c++/10.3.1/bits/stl_algobase.h **** 	  for(; __num > 0; ++__first1, ++__first2, --__num)
  99:/opt/gcc-arm-none-eabi/arm-none-eabi/include/c++/10.3.1/bits/stl_algobase.h **** 	    if (*__first1 != *__first2)
 100:/opt/gcc-arm-none-eabi/arm-none-eabi/include/c++/10.3.1/bits/stl_algobase.h **** 	      return *__first1 < *__first2 ? -1 : 1;
 101:/opt/gcc-arm-none-eabi/arm-none-eabi/include/c++/10.3.1/bits/stl_algobase.h **** 	  return 0;
 102:/opt/gcc-arm-none-eabi/arm-none-eabi/include/c++/10.3.1/bits/stl_algobase.h **** 	}
 103:/opt/gcc-arm-none-eabi/arm-none-eabi/include/c++/10.3.1/bits/stl_algobase.h ****       else
 104:/opt/gcc-arm-none-eabi/arm-none-eabi/include/c++/10.3.1/bits/stl_algobase.h **** #endif
 105:/opt/gcc-arm-none-eabi/arm-none-eabi/include/c++/10.3.1/bits/stl_algobase.h **** 	return __builtin_memcmp(__first1, __first2, sizeof(_Tp) * __num);
 106:/opt/gcc-arm-none-eabi/arm-none-eabi/include/c++/10.3.1/bits/stl_algobase.h ****     }
 107:/opt/gcc-arm-none-eabi/arm-none-eabi/include/c++/10.3.1/bits/stl_algobase.h **** 
 108:/opt/gcc-arm-none-eabi/arm-none-eabi/include/c++/10.3.1/bits/stl_algobase.h **** #if __cplusplus < 201103L
 109:/opt/gcc-arm-none-eabi/arm-none-eabi/include/c++/10.3.1/bits/stl_algobase.h ****   // See http://gcc.gnu.org/ml/libstdc++/2004-08/msg00167.html: in a
 110:/opt/gcc-arm-none-eabi/arm-none-eabi/include/c++/10.3.1/bits/stl_algobase.h ****   // nutshell, we are partially implementing the resolution of DR 187,
 111:/opt/gcc-arm-none-eabi/arm-none-eabi/include/c++/10.3.1/bits/stl_algobase.h ****   // when it's safe, i.e., the value_types are equal.
 112:/opt/gcc-arm-none-eabi/arm-none-eabi/include/c++/10.3.1/bits/stl_algobase.h ****   template<bool _BoolType>
 113:/opt/gcc-arm-none-eabi/arm-none-eabi/include/c++/10.3.1/bits/stl_algobase.h ****     struct __iter_swap
 114:/opt/gcc-arm-none-eabi/arm-none-eabi/include/c++/10.3.1/bits/stl_algobase.h ****     {
 115:/opt/gcc-arm-none-eabi/arm-none-eabi/include/c++/10.3.1/bits/stl_algobase.h ****       template<typename _ForwardIterator1, typename _ForwardIterator2>
 116:/opt/gcc-arm-none-eabi/arm-none-eabi/include/c++/10.3.1/bits/stl_algobase.h **** 	static void
 117:/opt/gcc-arm-none-eabi/arm-none-eabi/include/c++/10.3.1/bits/stl_algobase.h **** 	iter_swap(_ForwardIterator1 __a, _ForwardIterator2 __b)
ARM GAS  /tmp/ccrmmslP.s 			page 20


 118:/opt/gcc-arm-none-eabi/arm-none-eabi/include/c++/10.3.1/bits/stl_algobase.h **** 	{
 119:/opt/gcc-arm-none-eabi/arm-none-eabi/include/c++/10.3.1/bits/stl_algobase.h **** 	  typedef typename iterator_traits<_ForwardIterator1>::value_type
 120:/opt/gcc-arm-none-eabi/arm-none-eabi/include/c++/10.3.1/bits/stl_algobase.h **** 	    _ValueType1;
 121:/opt/gcc-arm-none-eabi/arm-none-eabi/include/c++/10.3.1/bits/stl_algobase.h **** 	  _ValueType1 __tmp = *__a;
 122:/opt/gcc-arm-none-eabi/arm-none-eabi/include/c++/10.3.1/bits/stl_algobase.h **** 	  *__a = *__b;
 123:/opt/gcc-arm-none-eabi/arm-none-eabi/include/c++/10.3.1/bits/stl_algobase.h **** 	  *__b = __tmp;
 124:/opt/gcc-arm-none-eabi/arm-none-eabi/include/c++/10.3.1/bits/stl_algobase.h **** 	}
 125:/opt/gcc-arm-none-eabi/arm-none-eabi/include/c++/10.3.1/bits/stl_algobase.h ****     };
 126:/opt/gcc-arm-none-eabi/arm-none-eabi/include/c++/10.3.1/bits/stl_algobase.h **** 
 127:/opt/gcc-arm-none-eabi/arm-none-eabi/include/c++/10.3.1/bits/stl_algobase.h ****   template<>
 128:/opt/gcc-arm-none-eabi/arm-none-eabi/include/c++/10.3.1/bits/stl_algobase.h ****     struct __iter_swap<true>
 129:/opt/gcc-arm-none-eabi/arm-none-eabi/include/c++/10.3.1/bits/stl_algobase.h ****     {
 130:/opt/gcc-arm-none-eabi/arm-none-eabi/include/c++/10.3.1/bits/stl_algobase.h ****       template<typename _ForwardIterator1, typename _ForwardIterator2>
 131:/opt/gcc-arm-none-eabi/arm-none-eabi/include/c++/10.3.1/bits/stl_algobase.h **** 	static void
 132:/opt/gcc-arm-none-eabi/arm-none-eabi/include/c++/10.3.1/bits/stl_algobase.h **** 	iter_swap(_ForwardIterator1 __a, _ForwardIterator2 __b)
 133:/opt/gcc-arm-none-eabi/arm-none-eabi/include/c++/10.3.1/bits/stl_algobase.h **** 	{
 134:/opt/gcc-arm-none-eabi/arm-none-eabi/include/c++/10.3.1/bits/stl_algobase.h **** 	  swap(*__a, *__b);
 135:/opt/gcc-arm-none-eabi/arm-none-eabi/include/c++/10.3.1/bits/stl_algobase.h **** 	}
 136:/opt/gcc-arm-none-eabi/arm-none-eabi/include/c++/10.3.1/bits/stl_algobase.h ****     };
 137:/opt/gcc-arm-none-eabi/arm-none-eabi/include/c++/10.3.1/bits/stl_algobase.h **** #endif // C++03
 138:/opt/gcc-arm-none-eabi/arm-none-eabi/include/c++/10.3.1/bits/stl_algobase.h **** 
 139:/opt/gcc-arm-none-eabi/arm-none-eabi/include/c++/10.3.1/bits/stl_algobase.h ****   /**
 140:/opt/gcc-arm-none-eabi/arm-none-eabi/include/c++/10.3.1/bits/stl_algobase.h ****    *  @brief Swaps the contents of two iterators.
 141:/opt/gcc-arm-none-eabi/arm-none-eabi/include/c++/10.3.1/bits/stl_algobase.h ****    *  @ingroup mutating_algorithms
 142:/opt/gcc-arm-none-eabi/arm-none-eabi/include/c++/10.3.1/bits/stl_algobase.h ****    *  @param  __a  An iterator.
 143:/opt/gcc-arm-none-eabi/arm-none-eabi/include/c++/10.3.1/bits/stl_algobase.h ****    *  @param  __b  Another iterator.
 144:/opt/gcc-arm-none-eabi/arm-none-eabi/include/c++/10.3.1/bits/stl_algobase.h ****    *  @return   Nothing.
 145:/opt/gcc-arm-none-eabi/arm-none-eabi/include/c++/10.3.1/bits/stl_algobase.h ****    *
 146:/opt/gcc-arm-none-eabi/arm-none-eabi/include/c++/10.3.1/bits/stl_algobase.h ****    *  This function swaps the values pointed to by two iterators, not the
 147:/opt/gcc-arm-none-eabi/arm-none-eabi/include/c++/10.3.1/bits/stl_algobase.h ****    *  iterators themselves.
 148:/opt/gcc-arm-none-eabi/arm-none-eabi/include/c++/10.3.1/bits/stl_algobase.h ****   */
 149:/opt/gcc-arm-none-eabi/arm-none-eabi/include/c++/10.3.1/bits/stl_algobase.h ****   template<typename _ForwardIterator1, typename _ForwardIterator2>
 150:/opt/gcc-arm-none-eabi/arm-none-eabi/include/c++/10.3.1/bits/stl_algobase.h ****     _GLIBCXX20_CONSTEXPR
 151:/opt/gcc-arm-none-eabi/arm-none-eabi/include/c++/10.3.1/bits/stl_algobase.h ****     inline void
 152:/opt/gcc-arm-none-eabi/arm-none-eabi/include/c++/10.3.1/bits/stl_algobase.h ****     iter_swap(_ForwardIterator1 __a, _ForwardIterator2 __b)
 153:/opt/gcc-arm-none-eabi/arm-none-eabi/include/c++/10.3.1/bits/stl_algobase.h ****     {
 154:/opt/gcc-arm-none-eabi/arm-none-eabi/include/c++/10.3.1/bits/stl_algobase.h ****       // concept requirements
 155:/opt/gcc-arm-none-eabi/arm-none-eabi/include/c++/10.3.1/bits/stl_algobase.h ****       __glibcxx_function_requires(_Mutable_ForwardIteratorConcept<
 156:/opt/gcc-arm-none-eabi/arm-none-eabi/include/c++/10.3.1/bits/stl_algobase.h **** 				  _ForwardIterator1>)
 157:/opt/gcc-arm-none-eabi/arm-none-eabi/include/c++/10.3.1/bits/stl_algobase.h ****       __glibcxx_function_requires(_Mutable_ForwardIteratorConcept<
 158:/opt/gcc-arm-none-eabi/arm-none-eabi/include/c++/10.3.1/bits/stl_algobase.h **** 				  _ForwardIterator2>)
 159:/opt/gcc-arm-none-eabi/arm-none-eabi/include/c++/10.3.1/bits/stl_algobase.h **** 
 160:/opt/gcc-arm-none-eabi/arm-none-eabi/include/c++/10.3.1/bits/stl_algobase.h **** #if __cplusplus < 201103L
 161:/opt/gcc-arm-none-eabi/arm-none-eabi/include/c++/10.3.1/bits/stl_algobase.h ****       typedef typename iterator_traits<_ForwardIterator1>::value_type
 162:/opt/gcc-arm-none-eabi/arm-none-eabi/include/c++/10.3.1/bits/stl_algobase.h **** 	_ValueType1;
 163:/opt/gcc-arm-none-eabi/arm-none-eabi/include/c++/10.3.1/bits/stl_algobase.h ****       typedef typename iterator_traits<_ForwardIterator2>::value_type
 164:/opt/gcc-arm-none-eabi/arm-none-eabi/include/c++/10.3.1/bits/stl_algobase.h **** 	_ValueType2;
 165:/opt/gcc-arm-none-eabi/arm-none-eabi/include/c++/10.3.1/bits/stl_algobase.h **** 
 166:/opt/gcc-arm-none-eabi/arm-none-eabi/include/c++/10.3.1/bits/stl_algobase.h ****       __glibcxx_function_requires(_ConvertibleConcept<_ValueType1,
 167:/opt/gcc-arm-none-eabi/arm-none-eabi/include/c++/10.3.1/bits/stl_algobase.h **** 				  _ValueType2>)
 168:/opt/gcc-arm-none-eabi/arm-none-eabi/include/c++/10.3.1/bits/stl_algobase.h ****       __glibcxx_function_requires(_ConvertibleConcept<_ValueType2,
 169:/opt/gcc-arm-none-eabi/arm-none-eabi/include/c++/10.3.1/bits/stl_algobase.h **** 				  _ValueType1>)
 170:/opt/gcc-arm-none-eabi/arm-none-eabi/include/c++/10.3.1/bits/stl_algobase.h **** 
 171:/opt/gcc-arm-none-eabi/arm-none-eabi/include/c++/10.3.1/bits/stl_algobase.h ****       typedef typename iterator_traits<_ForwardIterator1>::reference
 172:/opt/gcc-arm-none-eabi/arm-none-eabi/include/c++/10.3.1/bits/stl_algobase.h **** 	_ReferenceType1;
 173:/opt/gcc-arm-none-eabi/arm-none-eabi/include/c++/10.3.1/bits/stl_algobase.h ****       typedef typename iterator_traits<_ForwardIterator2>::reference
 174:/opt/gcc-arm-none-eabi/arm-none-eabi/include/c++/10.3.1/bits/stl_algobase.h **** 	_ReferenceType2;
ARM GAS  /tmp/ccrmmslP.s 			page 21


 175:/opt/gcc-arm-none-eabi/arm-none-eabi/include/c++/10.3.1/bits/stl_algobase.h ****       std::__iter_swap<__are_same<_ValueType1, _ValueType2>::__value
 176:/opt/gcc-arm-none-eabi/arm-none-eabi/include/c++/10.3.1/bits/stl_algobase.h **** 	&& __are_same<_ValueType1&, _ReferenceType1>::__value
 177:/opt/gcc-arm-none-eabi/arm-none-eabi/include/c++/10.3.1/bits/stl_algobase.h **** 	&& __are_same<_ValueType2&, _ReferenceType2>::__value>::
 178:/opt/gcc-arm-none-eabi/arm-none-eabi/include/c++/10.3.1/bits/stl_algobase.h **** 	iter_swap(__a, __b);
 179:/opt/gcc-arm-none-eabi/arm-none-eabi/include/c++/10.3.1/bits/stl_algobase.h **** #else
 180:/opt/gcc-arm-none-eabi/arm-none-eabi/include/c++/10.3.1/bits/stl_algobase.h ****       // _GLIBCXX_RESOLVE_LIB_DEFECTS
 181:/opt/gcc-arm-none-eabi/arm-none-eabi/include/c++/10.3.1/bits/stl_algobase.h ****       // 187. iter_swap underspecified
 182:/opt/gcc-arm-none-eabi/arm-none-eabi/include/c++/10.3.1/bits/stl_algobase.h ****       swap(*__a, *__b);
 183:/opt/gcc-arm-none-eabi/arm-none-eabi/include/c++/10.3.1/bits/stl_algobase.h **** #endif
 184:/opt/gcc-arm-none-eabi/arm-none-eabi/include/c++/10.3.1/bits/stl_algobase.h ****     }
 185:/opt/gcc-arm-none-eabi/arm-none-eabi/include/c++/10.3.1/bits/stl_algobase.h **** 
 186:/opt/gcc-arm-none-eabi/arm-none-eabi/include/c++/10.3.1/bits/stl_algobase.h ****   /**
 187:/opt/gcc-arm-none-eabi/arm-none-eabi/include/c++/10.3.1/bits/stl_algobase.h ****    *  @brief Swap the elements of two sequences.
 188:/opt/gcc-arm-none-eabi/arm-none-eabi/include/c++/10.3.1/bits/stl_algobase.h ****    *  @ingroup mutating_algorithms
 189:/opt/gcc-arm-none-eabi/arm-none-eabi/include/c++/10.3.1/bits/stl_algobase.h ****    *  @param  __first1  A forward iterator.
 190:/opt/gcc-arm-none-eabi/arm-none-eabi/include/c++/10.3.1/bits/stl_algobase.h ****    *  @param  __last1   A forward iterator.
 191:/opt/gcc-arm-none-eabi/arm-none-eabi/include/c++/10.3.1/bits/stl_algobase.h ****    *  @param  __first2  A forward iterator.
 192:/opt/gcc-arm-none-eabi/arm-none-eabi/include/c++/10.3.1/bits/stl_algobase.h ****    *  @return   An iterator equal to @p first2+(last1-first1).
 193:/opt/gcc-arm-none-eabi/arm-none-eabi/include/c++/10.3.1/bits/stl_algobase.h ****    *
 194:/opt/gcc-arm-none-eabi/arm-none-eabi/include/c++/10.3.1/bits/stl_algobase.h ****    *  Swaps each element in the range @p [first1,last1) with the
 195:/opt/gcc-arm-none-eabi/arm-none-eabi/include/c++/10.3.1/bits/stl_algobase.h ****    *  corresponding element in the range @p [first2,(last1-first1)).
 196:/opt/gcc-arm-none-eabi/arm-none-eabi/include/c++/10.3.1/bits/stl_algobase.h ****    *  The ranges must not overlap.
 197:/opt/gcc-arm-none-eabi/arm-none-eabi/include/c++/10.3.1/bits/stl_algobase.h ****   */
 198:/opt/gcc-arm-none-eabi/arm-none-eabi/include/c++/10.3.1/bits/stl_algobase.h ****   template<typename _ForwardIterator1, typename _ForwardIterator2>
 199:/opt/gcc-arm-none-eabi/arm-none-eabi/include/c++/10.3.1/bits/stl_algobase.h ****     _GLIBCXX20_CONSTEXPR
 200:/opt/gcc-arm-none-eabi/arm-none-eabi/include/c++/10.3.1/bits/stl_algobase.h ****     _ForwardIterator2
 201:/opt/gcc-arm-none-eabi/arm-none-eabi/include/c++/10.3.1/bits/stl_algobase.h ****     swap_ranges(_ForwardIterator1 __first1, _ForwardIterator1 __last1,
 202:/opt/gcc-arm-none-eabi/arm-none-eabi/include/c++/10.3.1/bits/stl_algobase.h **** 		_ForwardIterator2 __first2)
 203:/opt/gcc-arm-none-eabi/arm-none-eabi/include/c++/10.3.1/bits/stl_algobase.h ****     {
 204:/opt/gcc-arm-none-eabi/arm-none-eabi/include/c++/10.3.1/bits/stl_algobase.h ****       // concept requirements
 205:/opt/gcc-arm-none-eabi/arm-none-eabi/include/c++/10.3.1/bits/stl_algobase.h ****       __glibcxx_function_requires(_Mutable_ForwardIteratorConcept<
 206:/opt/gcc-arm-none-eabi/arm-none-eabi/include/c++/10.3.1/bits/stl_algobase.h **** 				  _ForwardIterator1>)
 207:/opt/gcc-arm-none-eabi/arm-none-eabi/include/c++/10.3.1/bits/stl_algobase.h ****       __glibcxx_function_requires(_Mutable_ForwardIteratorConcept<
 208:/opt/gcc-arm-none-eabi/arm-none-eabi/include/c++/10.3.1/bits/stl_algobase.h **** 				  _ForwardIterator2>)
 209:/opt/gcc-arm-none-eabi/arm-none-eabi/include/c++/10.3.1/bits/stl_algobase.h ****       __glibcxx_requires_valid_range(__first1, __last1);
 210:/opt/gcc-arm-none-eabi/arm-none-eabi/include/c++/10.3.1/bits/stl_algobase.h **** 
 211:/opt/gcc-arm-none-eabi/arm-none-eabi/include/c++/10.3.1/bits/stl_algobase.h ****       for (; __first1 != __last1; ++__first1, (void)++__first2)
 212:/opt/gcc-arm-none-eabi/arm-none-eabi/include/c++/10.3.1/bits/stl_algobase.h **** 	std::iter_swap(__first1, __first2);
 213:/opt/gcc-arm-none-eabi/arm-none-eabi/include/c++/10.3.1/bits/stl_algobase.h ****       return __first2;
 214:/opt/gcc-arm-none-eabi/arm-none-eabi/include/c++/10.3.1/bits/stl_algobase.h ****     }
 215:/opt/gcc-arm-none-eabi/arm-none-eabi/include/c++/10.3.1/bits/stl_algobase.h **** 
 216:/opt/gcc-arm-none-eabi/arm-none-eabi/include/c++/10.3.1/bits/stl_algobase.h ****   /**
 217:/opt/gcc-arm-none-eabi/arm-none-eabi/include/c++/10.3.1/bits/stl_algobase.h ****    *  @brief This does what you think it does.
 218:/opt/gcc-arm-none-eabi/arm-none-eabi/include/c++/10.3.1/bits/stl_algobase.h ****    *  @ingroup sorting_algorithms
 219:/opt/gcc-arm-none-eabi/arm-none-eabi/include/c++/10.3.1/bits/stl_algobase.h ****    *  @param  __a  A thing of arbitrary type.
 220:/opt/gcc-arm-none-eabi/arm-none-eabi/include/c++/10.3.1/bits/stl_algobase.h ****    *  @param  __b  Another thing of arbitrary type.
 221:/opt/gcc-arm-none-eabi/arm-none-eabi/include/c++/10.3.1/bits/stl_algobase.h ****    *  @return   The lesser of the parameters.
 222:/opt/gcc-arm-none-eabi/arm-none-eabi/include/c++/10.3.1/bits/stl_algobase.h ****    *
 223:/opt/gcc-arm-none-eabi/arm-none-eabi/include/c++/10.3.1/bits/stl_algobase.h ****    *  This is the simple classic generic implementation.  It will work on
 224:/opt/gcc-arm-none-eabi/arm-none-eabi/include/c++/10.3.1/bits/stl_algobase.h ****    *  temporary expressions, since they are only evaluated once, unlike a
 225:/opt/gcc-arm-none-eabi/arm-none-eabi/include/c++/10.3.1/bits/stl_algobase.h ****    *  preprocessor macro.
 226:/opt/gcc-arm-none-eabi/arm-none-eabi/include/c++/10.3.1/bits/stl_algobase.h ****   */
 227:/opt/gcc-arm-none-eabi/arm-none-eabi/include/c++/10.3.1/bits/stl_algobase.h ****   template<typename _Tp>
 228:/opt/gcc-arm-none-eabi/arm-none-eabi/include/c++/10.3.1/bits/stl_algobase.h ****     _GLIBCXX14_CONSTEXPR
 229:/opt/gcc-arm-none-eabi/arm-none-eabi/include/c++/10.3.1/bits/stl_algobase.h ****     inline const _Tp&
 230:/opt/gcc-arm-none-eabi/arm-none-eabi/include/c++/10.3.1/bits/stl_algobase.h ****     min(const _Tp& __a, const _Tp& __b)
 402              		.loc 6 230 5 is_stmt 1 view .LVU72
ARM GAS  /tmp/ccrmmslP.s 			page 22


 403              		.loc 6 230 5 is_stmt 0 view .LVU73
 404              	.LBE625:
  94:fibre-cpp/include/fibre/../../legacy_protocol.hpp **** 
 405              		.loc 4 94 102 view .LVU74
 406 00a2 7F26     		movs	r6, #127
 407 00a4 1666     		str	r6, [r2, #96]
 408 00a6 C2F86431 		str	r3, [r2, #356]
 409 00aa C2F86831 		str	r3, [r2, #360]
 410 00ae 82F86C31 		strb	r3, [r2, #364]
 411              	.LVL32:
 412              	.LBB626:
 413              	.LBI626:
  21:fibre-cpp/include/fibre/callback.hpp ****     Callback(std::nullptr_t) : cb_(nullptr), ctx_(nullptr) {}
 414              		.loc 3 21 5 is_stmt 1 view .LVU75
 415              	.LBB627:
 416              	.LBB628:
 417              		.loc 3 21 58 is_stmt 0 view .LVU76
 418 00b2 C2F87031 		str	r3, [r2, #368]
 419 00b6 C2F87431 		str	r3, [r2, #372]
 420              	.LVL33:
 421              		.loc 3 21 58 view .LVU77
 422              	.LBE628:
 423              	.LBE627:
 424              	.LBE626:
 425              	.LBE624:
 426              	.LBE623:
 427              	.LBE622:
 428              	.LBE599:
 429              	.LBE598:
 430              	.LBB629:
 431              	.LBI629:
  93:fibre-cpp/include/fibre/../../legacy_protocol.hpp ****         : rx_channel_(rx_channel), tx_channel_(tx_channel), tx_mtu_(std::min(tx_mtu, sizeof(tx_buf_
 432              		.loc 4 93 5 is_stmt 1 view .LVU78
 433              	.LBB630:
 434              	.LBB631:
  94:fibre-cpp/include/fibre/../../legacy_protocol.hpp **** 
 435              		.loc 4 94 102 is_stmt 0 view .LVU79
 436 00ba 284A     		ldr	r2, .L13+36
 437 00bc 1560     		str	r5, [r2]
 438 00be 5460     		str	r4, [r2, #4]
 439              	.LVL34:
 440              	.LBB632:
 441              	.LBI632:
 442              		.loc 6 230 5 is_stmt 1 view .LVU80
 443              		.loc 6 230 5 is_stmt 0 view .LVU81
 444              	.LBE632:
  94:fibre-cpp/include/fibre/../../legacy_protocol.hpp **** 
 445              		.loc 4 94 102 view .LVU82
 446 00c0 3F24     		movs	r4, #63
 447 00c2 9460     		str	r4, [r2, #8]
 448 00c4 C2F80C31 		str	r3, [r2, #268]
 449 00c8 C2F81031 		str	r3, [r2, #272]
 450 00cc 82F81431 		strb	r3, [r2, #276]
 451              	.LVL35:
 452              	.LBB633:
 453              	.LBI633:
 454              		.loc 3 21 5 is_stmt 1 view .LVU83
ARM GAS  /tmp/ccrmmslP.s 			page 23


 455              	.LBB634:
 456              	.LBB635:
 457              		.loc 3 21 58 is_stmt 0 view .LVU84
 458 00d0 C2F81831 		str	r3, [r2, #280]
 459 00d4 C2F81C31 		str	r3, [r2, #284]
 460              	.LVL36:
 461              		.loc 3 21 58 view .LVU85
 462              	.LBE635:
 463              	.LBE634:
 464              	.LBE633:
 465              	.LBE631:
 466              	.LBE630:
 467              	.LBE629:
 468              	.LBB636:
 469              	.LBI636:
 470              		.file 7 "fibre-cpp/include/fibre/../../stream_utils.hpp"
   1:fibre-cpp/include/fibre/../../stream_utils.hpp **** #ifndef __FIBRE_STREAM_UTILS_HPP
   2:fibre-cpp/include/fibre/../../stream_utils.hpp **** #define __FIBRE_STREAM_UTILS_HPP
   3:fibre-cpp/include/fibre/../../stream_utils.hpp **** 
   4:fibre-cpp/include/fibre/../../stream_utils.hpp **** #include <fibre/async_stream.hpp>
   5:fibre-cpp/include/fibre/../../stream_utils.hpp **** #include <string.h>
   6:fibre-cpp/include/fibre/../../stream_utils.hpp **** 
   7:fibre-cpp/include/fibre/../../stream_utils.hpp **** namespace fibre {
   8:fibre-cpp/include/fibre/../../stream_utils.hpp **** 
   9:fibre-cpp/include/fibre/../../stream_utils.hpp **** template<size_t I>
  10:fibre-cpp/include/fibre/../../stream_utils.hpp **** class BufferedStreamSink {
  11:fibre-cpp/include/fibre/../../stream_utils.hpp **** public:
  12:fibre-cpp/include/fibre/../../stream_utils.hpp ****     BufferedStreamSink(AsyncStreamSink& sink) : sink_(sink) {}
  13:fibre-cpp/include/fibre/../../stream_utils.hpp **** 
  14:fibre-cpp/include/fibre/../../stream_utils.hpp ****     /**
  15:fibre-cpp/include/fibre/../../stream_utils.hpp ****      * @brief Enqueues as much of the specified buffer as possible.
  16:fibre-cpp/include/fibre/../../stream_utils.hpp ****      * 
  17:fibre-cpp/include/fibre/../../stream_utils.hpp ****      * Thread safety: only one write call is allowed at a time. The write call
  18:fibre-cpp/include/fibre/../../stream_utils.hpp ****      * can be on a different thread from the underlying stream's event loop.
  19:fibre-cpp/include/fibre/../../stream_utils.hpp ****      * (TODO: this is not true yet, see comment in function)
  20:fibre-cpp/include/fibre/../../stream_utils.hpp ****      */
  21:fibre-cpp/include/fibre/../../stream_utils.hpp ****     void write(cbufptr_t buf) {
  22:fibre-cpp/include/fibre/../../stream_utils.hpp ****         size_t read_idx = read_idx_; // read_idx_ could change during this function
  23:fibre-cpp/include/fibre/../../stream_utils.hpp **** 
  24:fibre-cpp/include/fibre/../../stream_utils.hpp ****         if ((read_idx + 1) % I == write_idx_) {
  25:fibre-cpp/include/fibre/../../stream_utils.hpp ****             return;
  26:fibre-cpp/include/fibre/../../stream_utils.hpp ****         }
  27:fibre-cpp/include/fibre/../../stream_utils.hpp **** 
  28:fibre-cpp/include/fibre/../../stream_utils.hpp ****         // We subtract 1 from the read index because we never want the write
  29:fibre-cpp/include/fibre/../../stream_utils.hpp ****         // pointer to catch up with the read pointer, cause then
  30:fibre-cpp/include/fibre/../../stream_utils.hpp ****         // `write_idx_ == read_idx_` could mean both "full" and "empty".
  31:fibre-cpp/include/fibre/../../stream_utils.hpp **** 
  32:fibre-cpp/include/fibre/../../stream_utils.hpp ****         read_idx = (read_idx + I - 1) % I; 
  33:fibre-cpp/include/fibre/../../stream_utils.hpp **** 
  34:fibre-cpp/include/fibre/../../stream_utils.hpp ****         if (write_idx_ > read_idx) {
  35:fibre-cpp/include/fibre/../../stream_utils.hpp ****             size_t n_copy = std::min(I - write_idx_, buf.size());
  36:fibre-cpp/include/fibre/../../stream_utils.hpp ****             memcpy(buffer_ + write_idx_, buf.begin(), n_copy);
  37:fibre-cpp/include/fibre/../../stream_utils.hpp ****             write_idx_ = (write_idx_ + n_copy) % I;
  38:fibre-cpp/include/fibre/../../stream_utils.hpp ****             buf = buf.skip(n_copy);
  39:fibre-cpp/include/fibre/../../stream_utils.hpp ****         }
  40:fibre-cpp/include/fibre/../../stream_utils.hpp **** 
  41:fibre-cpp/include/fibre/../../stream_utils.hpp ****         size_t n_copy = std::min(read_idx - write_idx_, buf.size());
ARM GAS  /tmp/ccrmmslP.s 			page 24


  42:fibre-cpp/include/fibre/../../stream_utils.hpp ****         memcpy(buffer_ + write_idx_, buf.begin(), n_copy);
  43:fibre-cpp/include/fibre/../../stream_utils.hpp ****         write_idx_ = (write_idx_ + n_copy) % I;
  44:fibre-cpp/include/fibre/../../stream_utils.hpp **** 
  45:fibre-cpp/include/fibre/../../stream_utils.hpp ****         //if (!__atomic_exchange_n(&is_active_, true, __ATOMIC_SEQ_CST)) {
  46:fibre-cpp/include/fibre/../../stream_utils.hpp ****         //    // TODO: calling the sink in here breaks the rule that async
  47:fibre-cpp/include/fibre/../../stream_utils.hpp ****         //    // functions must only be called on the event loop thread.
  48:fibre-cpp/include/fibre/../../stream_utils.hpp ****         //    // But to do that we need to implement a proper event loop where we
  49:fibre-cpp/include/fibre/../../stream_utils.hpp ****         //    // can enqueue calls.
  50:fibre-cpp/include/fibre/../../stream_utils.hpp ****         //    maybe_start_async_write();
  51:fibre-cpp/include/fibre/../../stream_utils.hpp ****         //}
  52:fibre-cpp/include/fibre/../../stream_utils.hpp ****     }
  53:fibre-cpp/include/fibre/../../stream_utils.hpp **** 
  54:fibre-cpp/include/fibre/../../stream_utils.hpp ****     void maybe_start_async_write() {
  55:fibre-cpp/include/fibre/../../stream_utils.hpp ****         if (is_active_) {
  56:fibre-cpp/include/fibre/../../stream_utils.hpp ****             // nothing to do
  57:fibre-cpp/include/fibre/../../stream_utils.hpp ****         } else if (read_idx_ < write_idx_) {
  58:fibre-cpp/include/fibre/../../stream_utils.hpp ****             is_active_ = true;
  59:fibre-cpp/include/fibre/../../stream_utils.hpp ****             sink_.start_write({buffer_ + read_idx_, buffer_ + write_idx_}, &transfer_handle_, MEMBE
  60:fibre-cpp/include/fibre/../../stream_utils.hpp ****         } else if (read_idx_ > write_idx_) {
  61:fibre-cpp/include/fibre/../../stream_utils.hpp ****             is_active_ = true;
  62:fibre-cpp/include/fibre/../../stream_utils.hpp ****             sink_.start_write({buffer_ + read_idx_, buffer_ + I}, &transfer_handle_, MEMBER_CB(this
  63:fibre-cpp/include/fibre/../../stream_utils.hpp ****         } else {
  64:fibre-cpp/include/fibre/../../stream_utils.hpp ****             // nothing to do
  65:fibre-cpp/include/fibre/../../stream_utils.hpp ****         }
  66:fibre-cpp/include/fibre/../../stream_utils.hpp ****     }
  67:fibre-cpp/include/fibre/../../stream_utils.hpp **** 
  68:fibre-cpp/include/fibre/../../stream_utils.hpp **** private:
  69:fibre-cpp/include/fibre/../../stream_utils.hpp ****     void on_write_complete(WriteResult result) {
  70:fibre-cpp/include/fibre/../../stream_utils.hpp ****         is_active_ = false;
  71:fibre-cpp/include/fibre/../../stream_utils.hpp ****         transfer_handle_ = 0;
  72:fibre-cpp/include/fibre/../../stream_utils.hpp **** 
  73:fibre-cpp/include/fibre/../../stream_utils.hpp ****         if (result.status == kStreamOk) {
  74:fibre-cpp/include/fibre/../../stream_utils.hpp ****             if (result.end < buffer_ || result.end > (buffer_ + I)) {
  75:fibre-cpp/include/fibre/../../stream_utils.hpp ****                 for (;;)
  76:fibre-cpp/include/fibre/../../stream_utils.hpp ****                     transfer_handle_ = 0;
  77:fibre-cpp/include/fibre/../../stream_utils.hpp ****             }
  78:fibre-cpp/include/fibre/../../stream_utils.hpp ****             read_idx_ = (result.end - buffer_) % I;
  79:fibre-cpp/include/fibre/../../stream_utils.hpp ****             maybe_start_async_write();
  80:fibre-cpp/include/fibre/../../stream_utils.hpp ****         }
  81:fibre-cpp/include/fibre/../../stream_utils.hpp ****     }
  82:fibre-cpp/include/fibre/../../stream_utils.hpp **** 
  83:fibre-cpp/include/fibre/../../stream_utils.hpp ****     uint8_t buffer_[I];
  84:fibre-cpp/include/fibre/../../stream_utils.hpp **** 
  85:fibre-cpp/include/fibre/../../stream_utils.hpp ****     // Both indices are in [0, I)
  86:fibre-cpp/include/fibre/../../stream_utils.hpp ****     // They are equal if the buffer is empty (no valid data).
  87:fibre-cpp/include/fibre/../../stream_utils.hpp ****     size_t write_idx_ = 0; // [0, I)
  88:fibre-cpp/include/fibre/../../stream_utils.hpp ****     size_t read_idx_ = 0; // [0, I)
  89:fibre-cpp/include/fibre/../../stream_utils.hpp ****     bool is_active_ = false;
  90:fibre-cpp/include/fibre/../../stream_utils.hpp ****     TransferHandle transfer_handle_ = 0;
  91:fibre-cpp/include/fibre/../../stream_utils.hpp **** 
  92:fibre-cpp/include/fibre/../../stream_utils.hpp ****     AsyncStreamSink& sink_;
  93:fibre-cpp/include/fibre/../../stream_utils.hpp **** };
  94:fibre-cpp/include/fibre/../../stream_utils.hpp **** 
  95:fibre-cpp/include/fibre/../../stream_utils.hpp **** /**
  96:fibre-cpp/include/fibre/../../stream_utils.hpp ****  * @brief Buffers up to NSlots concurrent async write requests.
  97:fibre-cpp/include/fibre/../../stream_utils.hpp ****  * 
  98:fibre-cpp/include/fibre/../../stream_utils.hpp ****  * This can be used to wrap sinks that can only handle one concurrent write
ARM GAS  /tmp/ccrmmslP.s 			page 25


  99:fibre-cpp/include/fibre/../../stream_utils.hpp ****  * operation at a time but are written to by multiple independent sources.
 100:fibre-cpp/include/fibre/../../stream_utils.hpp ****  */
 101:fibre-cpp/include/fibre/../../stream_utils.hpp **** template<size_t NSlots>
 102:fibre-cpp/include/fibre/../../stream_utils.hpp **** class AsyncStreamSinkMultiplexer : public AsyncStreamSink {
 103:fibre-cpp/include/fibre/../../stream_utils.hpp **** public:
 104:fibre-cpp/include/fibre/../../stream_utils.hpp ****     AsyncStreamSinkMultiplexer(AsyncStreamSink& sink) : sink_(sink) {}
 471              		.loc 7 104 5 is_stmt 1 view .LVU86
 472              	.LBB637:
 473              	.LBB638:
 474              	.LBB639:
 475              	.LBI639:
 476              		.loc 2 101 7 view .LVU87
 477              	.LBB640:
 478 00d8 214B     		ldr	r3, .L13+40
 479 00da 1F60     		str	r7, [r3]
 480              	.LVL37:
 481              		.loc 2 101 7 is_stmt 0 view .LVU88
 482              	.LBE640:
 483              	.LBE639:
 484              		.loc 7 104 67 view .LVU89
 485 00dc 214A     		ldr	r2, .L13+44
 486 00de 1A60     		str	r2, [r3]
 487 00e0 5960     		str	r1, [r3, #4]
 488 00e2 0833     		adds	r3, r3, #8
 489 00e4 07E0     		b	.L6
 490              	.LVL38:
 491              	.L12:
 492              	.LBB641:
 493              	.LBI641:
 494              		.file 8 "/opt/gcc-arm-none-eabi/arm-none-eabi/include/c++/10.3.1/tuple"
   1:/opt/gcc-arm-none-eabi/arm-none-eabi/include/c++/10.3.1/tuple **** // <tuple> -*- C++ -*-
   2:/opt/gcc-arm-none-eabi/arm-none-eabi/include/c++/10.3.1/tuple **** 
   3:/opt/gcc-arm-none-eabi/arm-none-eabi/include/c++/10.3.1/tuple **** // Copyright (C) 2007-2020 Free Software Foundation, Inc.
   4:/opt/gcc-arm-none-eabi/arm-none-eabi/include/c++/10.3.1/tuple **** //
   5:/opt/gcc-arm-none-eabi/arm-none-eabi/include/c++/10.3.1/tuple **** // This file is part of the GNU ISO C++ Library.  This library is free
   6:/opt/gcc-arm-none-eabi/arm-none-eabi/include/c++/10.3.1/tuple **** // software; you can redistribute it and/or modify it under the
   7:/opt/gcc-arm-none-eabi/arm-none-eabi/include/c++/10.3.1/tuple **** // terms of the GNU General Public License as published by the
   8:/opt/gcc-arm-none-eabi/arm-none-eabi/include/c++/10.3.1/tuple **** // Free Software Foundation; either version 3, or (at your option)
   9:/opt/gcc-arm-none-eabi/arm-none-eabi/include/c++/10.3.1/tuple **** // any later version.
  10:/opt/gcc-arm-none-eabi/arm-none-eabi/include/c++/10.3.1/tuple **** 
  11:/opt/gcc-arm-none-eabi/arm-none-eabi/include/c++/10.3.1/tuple **** // This library is distributed in the hope that it will be useful,
  12:/opt/gcc-arm-none-eabi/arm-none-eabi/include/c++/10.3.1/tuple **** // but WITHOUT ANY WARRANTY; without even the implied warranty of
  13:/opt/gcc-arm-none-eabi/arm-none-eabi/include/c++/10.3.1/tuple **** // MERCHANTABILITY or FITNESS FOR A PARTICULAR PURPOSE.  See the
  14:/opt/gcc-arm-none-eabi/arm-none-eabi/include/c++/10.3.1/tuple **** // GNU General Public License for more details.
  15:/opt/gcc-arm-none-eabi/arm-none-eabi/include/c++/10.3.1/tuple **** 
  16:/opt/gcc-arm-none-eabi/arm-none-eabi/include/c++/10.3.1/tuple **** // Under Section 7 of GPL version 3, you are granted additional
  17:/opt/gcc-arm-none-eabi/arm-none-eabi/include/c++/10.3.1/tuple **** // permissions described in the GCC Runtime Library Exception, version
  18:/opt/gcc-arm-none-eabi/arm-none-eabi/include/c++/10.3.1/tuple **** // 3.1, as published by the Free Software Foundation.
  19:/opt/gcc-arm-none-eabi/arm-none-eabi/include/c++/10.3.1/tuple **** 
  20:/opt/gcc-arm-none-eabi/arm-none-eabi/include/c++/10.3.1/tuple **** // You should have received a copy of the GNU General Public License and
  21:/opt/gcc-arm-none-eabi/arm-none-eabi/include/c++/10.3.1/tuple **** // a copy of the GCC Runtime Library Exception along with this program;
  22:/opt/gcc-arm-none-eabi/arm-none-eabi/include/c++/10.3.1/tuple **** // see the files COPYING3 and COPYING.RUNTIME respectively.  If not, see
  23:/opt/gcc-arm-none-eabi/arm-none-eabi/include/c++/10.3.1/tuple **** // <http://www.gnu.org/licenses/>.
  24:/opt/gcc-arm-none-eabi/arm-none-eabi/include/c++/10.3.1/tuple **** 
  25:/opt/gcc-arm-none-eabi/arm-none-eabi/include/c++/10.3.1/tuple **** /** @file include/tuple
  26:/opt/gcc-arm-none-eabi/arm-none-eabi/include/c++/10.3.1/tuple ****  *  This is a Standard C++ Library header.
  27:/opt/gcc-arm-none-eabi/arm-none-eabi/include/c++/10.3.1/tuple ****  */
ARM GAS  /tmp/ccrmmslP.s 			page 26


  28:/opt/gcc-arm-none-eabi/arm-none-eabi/include/c++/10.3.1/tuple **** 
  29:/opt/gcc-arm-none-eabi/arm-none-eabi/include/c++/10.3.1/tuple **** #ifndef _GLIBCXX_TUPLE
  30:/opt/gcc-arm-none-eabi/arm-none-eabi/include/c++/10.3.1/tuple **** #define _GLIBCXX_TUPLE 1
  31:/opt/gcc-arm-none-eabi/arm-none-eabi/include/c++/10.3.1/tuple **** 
  32:/opt/gcc-arm-none-eabi/arm-none-eabi/include/c++/10.3.1/tuple **** #pragma GCC system_header
  33:/opt/gcc-arm-none-eabi/arm-none-eabi/include/c++/10.3.1/tuple **** 
  34:/opt/gcc-arm-none-eabi/arm-none-eabi/include/c++/10.3.1/tuple **** #if __cplusplus < 201103L
  35:/opt/gcc-arm-none-eabi/arm-none-eabi/include/c++/10.3.1/tuple **** # include <bits/c++0x_warning.h>
  36:/opt/gcc-arm-none-eabi/arm-none-eabi/include/c++/10.3.1/tuple **** #else
  37:/opt/gcc-arm-none-eabi/arm-none-eabi/include/c++/10.3.1/tuple **** 
  38:/opt/gcc-arm-none-eabi/arm-none-eabi/include/c++/10.3.1/tuple **** #include <utility>
  39:/opt/gcc-arm-none-eabi/arm-none-eabi/include/c++/10.3.1/tuple **** #include <array>
  40:/opt/gcc-arm-none-eabi/arm-none-eabi/include/c++/10.3.1/tuple **** #include <bits/uses_allocator.h>
  41:/opt/gcc-arm-none-eabi/arm-none-eabi/include/c++/10.3.1/tuple **** #include <bits/invoke.h>
  42:/opt/gcc-arm-none-eabi/arm-none-eabi/include/c++/10.3.1/tuple **** #if __cplusplus > 201703L
  43:/opt/gcc-arm-none-eabi/arm-none-eabi/include/c++/10.3.1/tuple **** # include <compare>
  44:/opt/gcc-arm-none-eabi/arm-none-eabi/include/c++/10.3.1/tuple **** # define __cpp_lib_constexpr_tuple 201811L
  45:/opt/gcc-arm-none-eabi/arm-none-eabi/include/c++/10.3.1/tuple **** #endif
  46:/opt/gcc-arm-none-eabi/arm-none-eabi/include/c++/10.3.1/tuple **** 
  47:/opt/gcc-arm-none-eabi/arm-none-eabi/include/c++/10.3.1/tuple **** namespace std _GLIBCXX_VISIBILITY(default)
  48:/opt/gcc-arm-none-eabi/arm-none-eabi/include/c++/10.3.1/tuple **** {
  49:/opt/gcc-arm-none-eabi/arm-none-eabi/include/c++/10.3.1/tuple **** _GLIBCXX_BEGIN_NAMESPACE_VERSION
  50:/opt/gcc-arm-none-eabi/arm-none-eabi/include/c++/10.3.1/tuple **** 
  51:/opt/gcc-arm-none-eabi/arm-none-eabi/include/c++/10.3.1/tuple ****   /**
  52:/opt/gcc-arm-none-eabi/arm-none-eabi/include/c++/10.3.1/tuple ****    *  @addtogroup utilities
  53:/opt/gcc-arm-none-eabi/arm-none-eabi/include/c++/10.3.1/tuple ****    *  @{
  54:/opt/gcc-arm-none-eabi/arm-none-eabi/include/c++/10.3.1/tuple ****    */
  55:/opt/gcc-arm-none-eabi/arm-none-eabi/include/c++/10.3.1/tuple **** 
  56:/opt/gcc-arm-none-eabi/arm-none-eabi/include/c++/10.3.1/tuple ****   template<typename... _Elements>
  57:/opt/gcc-arm-none-eabi/arm-none-eabi/include/c++/10.3.1/tuple ****     class tuple;
  58:/opt/gcc-arm-none-eabi/arm-none-eabi/include/c++/10.3.1/tuple **** 
  59:/opt/gcc-arm-none-eabi/arm-none-eabi/include/c++/10.3.1/tuple ****   template<typename _Tp>
  60:/opt/gcc-arm-none-eabi/arm-none-eabi/include/c++/10.3.1/tuple ****     struct __is_empty_non_tuple : is_empty<_Tp> { };
  61:/opt/gcc-arm-none-eabi/arm-none-eabi/include/c++/10.3.1/tuple **** 
  62:/opt/gcc-arm-none-eabi/arm-none-eabi/include/c++/10.3.1/tuple ****   // Using EBO for elements that are tuples causes ambiguous base errors.
  63:/opt/gcc-arm-none-eabi/arm-none-eabi/include/c++/10.3.1/tuple ****   template<typename _El0, typename... _El>
  64:/opt/gcc-arm-none-eabi/arm-none-eabi/include/c++/10.3.1/tuple ****     struct __is_empty_non_tuple<tuple<_El0, _El...>> : false_type { };
  65:/opt/gcc-arm-none-eabi/arm-none-eabi/include/c++/10.3.1/tuple **** 
  66:/opt/gcc-arm-none-eabi/arm-none-eabi/include/c++/10.3.1/tuple ****   // Use the Empty Base-class Optimization for empty, non-final types.
  67:/opt/gcc-arm-none-eabi/arm-none-eabi/include/c++/10.3.1/tuple ****   template<typename _Tp>
  68:/opt/gcc-arm-none-eabi/arm-none-eabi/include/c++/10.3.1/tuple ****     using __empty_not_final
  69:/opt/gcc-arm-none-eabi/arm-none-eabi/include/c++/10.3.1/tuple ****     = typename conditional<__is_final(_Tp), false_type,
  70:/opt/gcc-arm-none-eabi/arm-none-eabi/include/c++/10.3.1/tuple **** 			   __is_empty_non_tuple<_Tp>>::type;
  71:/opt/gcc-arm-none-eabi/arm-none-eabi/include/c++/10.3.1/tuple **** 
  72:/opt/gcc-arm-none-eabi/arm-none-eabi/include/c++/10.3.1/tuple ****   template<std::size_t _Idx, typename _Head,
  73:/opt/gcc-arm-none-eabi/arm-none-eabi/include/c++/10.3.1/tuple **** 	   bool = __empty_not_final<_Head>::value>
  74:/opt/gcc-arm-none-eabi/arm-none-eabi/include/c++/10.3.1/tuple ****     struct _Head_base;
  75:/opt/gcc-arm-none-eabi/arm-none-eabi/include/c++/10.3.1/tuple **** 
  76:/opt/gcc-arm-none-eabi/arm-none-eabi/include/c++/10.3.1/tuple ****   template<std::size_t _Idx, typename _Head>
  77:/opt/gcc-arm-none-eabi/arm-none-eabi/include/c++/10.3.1/tuple ****     struct _Head_base<_Idx, _Head, true>
  78:/opt/gcc-arm-none-eabi/arm-none-eabi/include/c++/10.3.1/tuple ****     : public _Head
  79:/opt/gcc-arm-none-eabi/arm-none-eabi/include/c++/10.3.1/tuple ****     {
  80:/opt/gcc-arm-none-eabi/arm-none-eabi/include/c++/10.3.1/tuple ****       constexpr _Head_base()
  81:/opt/gcc-arm-none-eabi/arm-none-eabi/include/c++/10.3.1/tuple ****       : _Head() { }
  82:/opt/gcc-arm-none-eabi/arm-none-eabi/include/c++/10.3.1/tuple **** 
  83:/opt/gcc-arm-none-eabi/arm-none-eabi/include/c++/10.3.1/tuple ****       constexpr _Head_base(const _Head& __h)
  84:/opt/gcc-arm-none-eabi/arm-none-eabi/include/c++/10.3.1/tuple ****       : _Head(__h) { }
ARM GAS  /tmp/ccrmmslP.s 			page 27


  85:/opt/gcc-arm-none-eabi/arm-none-eabi/include/c++/10.3.1/tuple **** 
  86:/opt/gcc-arm-none-eabi/arm-none-eabi/include/c++/10.3.1/tuple ****       constexpr _Head_base(const _Head_base&) = default;
  87:/opt/gcc-arm-none-eabi/arm-none-eabi/include/c++/10.3.1/tuple ****       constexpr _Head_base(_Head_base&&) = default;
  88:/opt/gcc-arm-none-eabi/arm-none-eabi/include/c++/10.3.1/tuple **** 
  89:/opt/gcc-arm-none-eabi/arm-none-eabi/include/c++/10.3.1/tuple ****       template<typename _UHead>
  90:/opt/gcc-arm-none-eabi/arm-none-eabi/include/c++/10.3.1/tuple ****         constexpr _Head_base(_UHead&& __h)
  91:/opt/gcc-arm-none-eabi/arm-none-eabi/include/c++/10.3.1/tuple **** 	: _Head(std::forward<_UHead>(__h)) { }
  92:/opt/gcc-arm-none-eabi/arm-none-eabi/include/c++/10.3.1/tuple **** 
  93:/opt/gcc-arm-none-eabi/arm-none-eabi/include/c++/10.3.1/tuple ****       _Head_base(allocator_arg_t, __uses_alloc0)
  94:/opt/gcc-arm-none-eabi/arm-none-eabi/include/c++/10.3.1/tuple ****       : _Head() { }
  95:/opt/gcc-arm-none-eabi/arm-none-eabi/include/c++/10.3.1/tuple **** 
  96:/opt/gcc-arm-none-eabi/arm-none-eabi/include/c++/10.3.1/tuple ****       template<typename _Alloc>
  97:/opt/gcc-arm-none-eabi/arm-none-eabi/include/c++/10.3.1/tuple **** 	_Head_base(allocator_arg_t, __uses_alloc1<_Alloc> __a)
  98:/opt/gcc-arm-none-eabi/arm-none-eabi/include/c++/10.3.1/tuple **** 	: _Head(allocator_arg, *__a._M_a) { }
  99:/opt/gcc-arm-none-eabi/arm-none-eabi/include/c++/10.3.1/tuple **** 
 100:/opt/gcc-arm-none-eabi/arm-none-eabi/include/c++/10.3.1/tuple ****       template<typename _Alloc>
 101:/opt/gcc-arm-none-eabi/arm-none-eabi/include/c++/10.3.1/tuple **** 	_Head_base(allocator_arg_t, __uses_alloc2<_Alloc> __a)
 102:/opt/gcc-arm-none-eabi/arm-none-eabi/include/c++/10.3.1/tuple **** 	: _Head(*__a._M_a) { }
 103:/opt/gcc-arm-none-eabi/arm-none-eabi/include/c++/10.3.1/tuple **** 
 104:/opt/gcc-arm-none-eabi/arm-none-eabi/include/c++/10.3.1/tuple ****       template<typename _UHead>
 105:/opt/gcc-arm-none-eabi/arm-none-eabi/include/c++/10.3.1/tuple **** 	_Head_base(__uses_alloc0, _UHead&& __uhead)
 106:/opt/gcc-arm-none-eabi/arm-none-eabi/include/c++/10.3.1/tuple **** 	: _Head(std::forward<_UHead>(__uhead)) { }
 107:/opt/gcc-arm-none-eabi/arm-none-eabi/include/c++/10.3.1/tuple **** 
 108:/opt/gcc-arm-none-eabi/arm-none-eabi/include/c++/10.3.1/tuple ****       template<typename _Alloc, typename _UHead>
 109:/opt/gcc-arm-none-eabi/arm-none-eabi/include/c++/10.3.1/tuple **** 	_Head_base(__uses_alloc1<_Alloc> __a, _UHead&& __uhead)
 110:/opt/gcc-arm-none-eabi/arm-none-eabi/include/c++/10.3.1/tuple **** 	: _Head(allocator_arg, *__a._M_a, std::forward<_UHead>(__uhead)) { }
 111:/opt/gcc-arm-none-eabi/arm-none-eabi/include/c++/10.3.1/tuple **** 
 112:/opt/gcc-arm-none-eabi/arm-none-eabi/include/c++/10.3.1/tuple ****       template<typename _Alloc, typename _UHead>
 113:/opt/gcc-arm-none-eabi/arm-none-eabi/include/c++/10.3.1/tuple **** 	_Head_base(__uses_alloc2<_Alloc> __a, _UHead&& __uhead)
 114:/opt/gcc-arm-none-eabi/arm-none-eabi/include/c++/10.3.1/tuple **** 	: _Head(std::forward<_UHead>(__uhead), *__a._M_a) { }
 115:/opt/gcc-arm-none-eabi/arm-none-eabi/include/c++/10.3.1/tuple **** 
 116:/opt/gcc-arm-none-eabi/arm-none-eabi/include/c++/10.3.1/tuple ****       static constexpr _Head&
 117:/opt/gcc-arm-none-eabi/arm-none-eabi/include/c++/10.3.1/tuple ****       _M_head(_Head_base& __b) noexcept { return __b; }
 118:/opt/gcc-arm-none-eabi/arm-none-eabi/include/c++/10.3.1/tuple **** 
 119:/opt/gcc-arm-none-eabi/arm-none-eabi/include/c++/10.3.1/tuple ****       static constexpr const _Head&
 120:/opt/gcc-arm-none-eabi/arm-none-eabi/include/c++/10.3.1/tuple ****       _M_head(const _Head_base& __b) noexcept { return __b; }
 121:/opt/gcc-arm-none-eabi/arm-none-eabi/include/c++/10.3.1/tuple ****     };
 122:/opt/gcc-arm-none-eabi/arm-none-eabi/include/c++/10.3.1/tuple **** 
 123:/opt/gcc-arm-none-eabi/arm-none-eabi/include/c++/10.3.1/tuple ****   template<std::size_t _Idx, typename _Head>
 124:/opt/gcc-arm-none-eabi/arm-none-eabi/include/c++/10.3.1/tuple ****     struct _Head_base<_Idx, _Head, false>
 125:/opt/gcc-arm-none-eabi/arm-none-eabi/include/c++/10.3.1/tuple ****     {
 126:/opt/gcc-arm-none-eabi/arm-none-eabi/include/c++/10.3.1/tuple ****       constexpr _Head_base()
 127:/opt/gcc-arm-none-eabi/arm-none-eabi/include/c++/10.3.1/tuple ****       : _M_head_impl() { }
 128:/opt/gcc-arm-none-eabi/arm-none-eabi/include/c++/10.3.1/tuple **** 
 129:/opt/gcc-arm-none-eabi/arm-none-eabi/include/c++/10.3.1/tuple ****       constexpr _Head_base(const _Head& __h)
 130:/opt/gcc-arm-none-eabi/arm-none-eabi/include/c++/10.3.1/tuple ****       : _M_head_impl(__h) { }
 131:/opt/gcc-arm-none-eabi/arm-none-eabi/include/c++/10.3.1/tuple **** 
 132:/opt/gcc-arm-none-eabi/arm-none-eabi/include/c++/10.3.1/tuple ****       constexpr _Head_base(const _Head_base&) = default;
 133:/opt/gcc-arm-none-eabi/arm-none-eabi/include/c++/10.3.1/tuple ****       constexpr _Head_base(_Head_base&&) = default;
 134:/opt/gcc-arm-none-eabi/arm-none-eabi/include/c++/10.3.1/tuple **** 
 135:/opt/gcc-arm-none-eabi/arm-none-eabi/include/c++/10.3.1/tuple ****       template<typename _UHead>
 136:/opt/gcc-arm-none-eabi/arm-none-eabi/include/c++/10.3.1/tuple ****         constexpr _Head_base(_UHead&& __h)
 137:/opt/gcc-arm-none-eabi/arm-none-eabi/include/c++/10.3.1/tuple **** 	: _M_head_impl(std::forward<_UHead>(__h)) { }
 138:/opt/gcc-arm-none-eabi/arm-none-eabi/include/c++/10.3.1/tuple **** 
 139:/opt/gcc-arm-none-eabi/arm-none-eabi/include/c++/10.3.1/tuple ****       _GLIBCXX20_CONSTEXPR
 140:/opt/gcc-arm-none-eabi/arm-none-eabi/include/c++/10.3.1/tuple ****       _Head_base(allocator_arg_t, __uses_alloc0)
 141:/opt/gcc-arm-none-eabi/arm-none-eabi/include/c++/10.3.1/tuple ****       : _M_head_impl() { }
ARM GAS  /tmp/ccrmmslP.s 			page 28


 142:/opt/gcc-arm-none-eabi/arm-none-eabi/include/c++/10.3.1/tuple **** 
 143:/opt/gcc-arm-none-eabi/arm-none-eabi/include/c++/10.3.1/tuple ****       template<typename _Alloc>
 144:/opt/gcc-arm-none-eabi/arm-none-eabi/include/c++/10.3.1/tuple **** 	_Head_base(allocator_arg_t, __uses_alloc1<_Alloc> __a)
 145:/opt/gcc-arm-none-eabi/arm-none-eabi/include/c++/10.3.1/tuple **** 	: _M_head_impl(allocator_arg, *__a._M_a) { }
 146:/opt/gcc-arm-none-eabi/arm-none-eabi/include/c++/10.3.1/tuple **** 
 147:/opt/gcc-arm-none-eabi/arm-none-eabi/include/c++/10.3.1/tuple ****       template<typename _Alloc>
 148:/opt/gcc-arm-none-eabi/arm-none-eabi/include/c++/10.3.1/tuple **** 	_Head_base(allocator_arg_t, __uses_alloc2<_Alloc> __a)
 149:/opt/gcc-arm-none-eabi/arm-none-eabi/include/c++/10.3.1/tuple **** 	: _M_head_impl(*__a._M_a) { }
 150:/opt/gcc-arm-none-eabi/arm-none-eabi/include/c++/10.3.1/tuple **** 
 151:/opt/gcc-arm-none-eabi/arm-none-eabi/include/c++/10.3.1/tuple ****       template<typename _UHead>
 152:/opt/gcc-arm-none-eabi/arm-none-eabi/include/c++/10.3.1/tuple **** 	_GLIBCXX20_CONSTEXPR
 153:/opt/gcc-arm-none-eabi/arm-none-eabi/include/c++/10.3.1/tuple **** 	_Head_base(__uses_alloc0, _UHead&& __uhead)
 154:/opt/gcc-arm-none-eabi/arm-none-eabi/include/c++/10.3.1/tuple **** 	: _M_head_impl(std::forward<_UHead>(__uhead)) { }
 155:/opt/gcc-arm-none-eabi/arm-none-eabi/include/c++/10.3.1/tuple **** 
 156:/opt/gcc-arm-none-eabi/arm-none-eabi/include/c++/10.3.1/tuple ****       template<typename _Alloc, typename _UHead>
 157:/opt/gcc-arm-none-eabi/arm-none-eabi/include/c++/10.3.1/tuple **** 	_Head_base(__uses_alloc1<_Alloc> __a, _UHead&& __uhead)
 158:/opt/gcc-arm-none-eabi/arm-none-eabi/include/c++/10.3.1/tuple **** 	: _M_head_impl(allocator_arg, *__a._M_a, std::forward<_UHead>(__uhead))
 159:/opt/gcc-arm-none-eabi/arm-none-eabi/include/c++/10.3.1/tuple **** 	{ }
 160:/opt/gcc-arm-none-eabi/arm-none-eabi/include/c++/10.3.1/tuple **** 
 161:/opt/gcc-arm-none-eabi/arm-none-eabi/include/c++/10.3.1/tuple ****       template<typename _Alloc, typename _UHead>
 162:/opt/gcc-arm-none-eabi/arm-none-eabi/include/c++/10.3.1/tuple **** 	_Head_base(__uses_alloc2<_Alloc> __a, _UHead&& __uhead)
 163:/opt/gcc-arm-none-eabi/arm-none-eabi/include/c++/10.3.1/tuple **** 	: _M_head_impl(std::forward<_UHead>(__uhead), *__a._M_a) { }
 164:/opt/gcc-arm-none-eabi/arm-none-eabi/include/c++/10.3.1/tuple **** 
 165:/opt/gcc-arm-none-eabi/arm-none-eabi/include/c++/10.3.1/tuple ****       static constexpr _Head&
 166:/opt/gcc-arm-none-eabi/arm-none-eabi/include/c++/10.3.1/tuple ****       _M_head(_Head_base& __b) noexcept { return __b._M_head_impl; }
 167:/opt/gcc-arm-none-eabi/arm-none-eabi/include/c++/10.3.1/tuple **** 
 168:/opt/gcc-arm-none-eabi/arm-none-eabi/include/c++/10.3.1/tuple ****       static constexpr const _Head&
 169:/opt/gcc-arm-none-eabi/arm-none-eabi/include/c++/10.3.1/tuple ****       _M_head(const _Head_base& __b) noexcept { return __b._M_head_impl; }
 170:/opt/gcc-arm-none-eabi/arm-none-eabi/include/c++/10.3.1/tuple **** 
 171:/opt/gcc-arm-none-eabi/arm-none-eabi/include/c++/10.3.1/tuple ****       _Head _M_head_impl;
 172:/opt/gcc-arm-none-eabi/arm-none-eabi/include/c++/10.3.1/tuple ****     };
 173:/opt/gcc-arm-none-eabi/arm-none-eabi/include/c++/10.3.1/tuple **** 
 174:/opt/gcc-arm-none-eabi/arm-none-eabi/include/c++/10.3.1/tuple ****   /**
 175:/opt/gcc-arm-none-eabi/arm-none-eabi/include/c++/10.3.1/tuple ****    * Contains the actual implementation of the @c tuple template, stored
 176:/opt/gcc-arm-none-eabi/arm-none-eabi/include/c++/10.3.1/tuple ****    * as a recursive inheritance hierarchy from the first element (most
 177:/opt/gcc-arm-none-eabi/arm-none-eabi/include/c++/10.3.1/tuple ****    * derived class) to the last (least derived class). The @c Idx
 178:/opt/gcc-arm-none-eabi/arm-none-eabi/include/c++/10.3.1/tuple ****    * parameter gives the 0-based index of the element stored at this
 179:/opt/gcc-arm-none-eabi/arm-none-eabi/include/c++/10.3.1/tuple ****    * point in the hierarchy; we use it to implement a constant-time
 180:/opt/gcc-arm-none-eabi/arm-none-eabi/include/c++/10.3.1/tuple ****    * get() operation.
 181:/opt/gcc-arm-none-eabi/arm-none-eabi/include/c++/10.3.1/tuple ****    */
 182:/opt/gcc-arm-none-eabi/arm-none-eabi/include/c++/10.3.1/tuple ****   template<std::size_t _Idx, typename... _Elements>
 183:/opt/gcc-arm-none-eabi/arm-none-eabi/include/c++/10.3.1/tuple ****     struct _Tuple_impl;
 184:/opt/gcc-arm-none-eabi/arm-none-eabi/include/c++/10.3.1/tuple **** 
 185:/opt/gcc-arm-none-eabi/arm-none-eabi/include/c++/10.3.1/tuple ****   /**
 186:/opt/gcc-arm-none-eabi/arm-none-eabi/include/c++/10.3.1/tuple ****    * Recursive tuple implementation. Here we store the @c Head element
 187:/opt/gcc-arm-none-eabi/arm-none-eabi/include/c++/10.3.1/tuple ****    * and derive from a @c Tuple_impl containing the remaining elements
 188:/opt/gcc-arm-none-eabi/arm-none-eabi/include/c++/10.3.1/tuple ****    * (which contains the @c Tail).
 189:/opt/gcc-arm-none-eabi/arm-none-eabi/include/c++/10.3.1/tuple ****    */
 190:/opt/gcc-arm-none-eabi/arm-none-eabi/include/c++/10.3.1/tuple ****   template<std::size_t _Idx, typename _Head, typename... _Tail>
 191:/opt/gcc-arm-none-eabi/arm-none-eabi/include/c++/10.3.1/tuple ****     struct _Tuple_impl<_Idx, _Head, _Tail...>
 192:/opt/gcc-arm-none-eabi/arm-none-eabi/include/c++/10.3.1/tuple ****     : public _Tuple_impl<_Idx + 1, _Tail...>,
 193:/opt/gcc-arm-none-eabi/arm-none-eabi/include/c++/10.3.1/tuple ****       private _Head_base<_Idx, _Head>
 194:/opt/gcc-arm-none-eabi/arm-none-eabi/include/c++/10.3.1/tuple ****     {
 195:/opt/gcc-arm-none-eabi/arm-none-eabi/include/c++/10.3.1/tuple ****       template<std::size_t, typename...> friend class _Tuple_impl;
 196:/opt/gcc-arm-none-eabi/arm-none-eabi/include/c++/10.3.1/tuple **** 
 197:/opt/gcc-arm-none-eabi/arm-none-eabi/include/c++/10.3.1/tuple ****       typedef _Tuple_impl<_Idx + 1, _Tail...> _Inherited;
 198:/opt/gcc-arm-none-eabi/arm-none-eabi/include/c++/10.3.1/tuple ****       typedef _Head_base<_Idx, _Head> _Base;
ARM GAS  /tmp/ccrmmslP.s 			page 29


 199:/opt/gcc-arm-none-eabi/arm-none-eabi/include/c++/10.3.1/tuple **** 
 200:/opt/gcc-arm-none-eabi/arm-none-eabi/include/c++/10.3.1/tuple ****       static constexpr _Head&
 201:/opt/gcc-arm-none-eabi/arm-none-eabi/include/c++/10.3.1/tuple ****       _M_head(_Tuple_impl& __t) noexcept { return _Base::_M_head(__t); }
 202:/opt/gcc-arm-none-eabi/arm-none-eabi/include/c++/10.3.1/tuple **** 
 203:/opt/gcc-arm-none-eabi/arm-none-eabi/include/c++/10.3.1/tuple ****       static constexpr const _Head&
 204:/opt/gcc-arm-none-eabi/arm-none-eabi/include/c++/10.3.1/tuple ****       _M_head(const _Tuple_impl& __t) noexcept { return _Base::_M_head(__t); }
 205:/opt/gcc-arm-none-eabi/arm-none-eabi/include/c++/10.3.1/tuple **** 
 206:/opt/gcc-arm-none-eabi/arm-none-eabi/include/c++/10.3.1/tuple ****       static constexpr _Inherited&
 207:/opt/gcc-arm-none-eabi/arm-none-eabi/include/c++/10.3.1/tuple ****       _M_tail(_Tuple_impl& __t) noexcept { return __t; }
 208:/opt/gcc-arm-none-eabi/arm-none-eabi/include/c++/10.3.1/tuple **** 
 209:/opt/gcc-arm-none-eabi/arm-none-eabi/include/c++/10.3.1/tuple ****       static constexpr const _Inherited&
 210:/opt/gcc-arm-none-eabi/arm-none-eabi/include/c++/10.3.1/tuple ****       _M_tail(const _Tuple_impl& __t) noexcept { return __t; }
 211:/opt/gcc-arm-none-eabi/arm-none-eabi/include/c++/10.3.1/tuple **** 
 212:/opt/gcc-arm-none-eabi/arm-none-eabi/include/c++/10.3.1/tuple ****       constexpr _Tuple_impl()
 213:/opt/gcc-arm-none-eabi/arm-none-eabi/include/c++/10.3.1/tuple ****       : _Inherited(), _Base() { }
 214:/opt/gcc-arm-none-eabi/arm-none-eabi/include/c++/10.3.1/tuple **** 
 215:/opt/gcc-arm-none-eabi/arm-none-eabi/include/c++/10.3.1/tuple ****       explicit
 216:/opt/gcc-arm-none-eabi/arm-none-eabi/include/c++/10.3.1/tuple ****       constexpr _Tuple_impl(const _Head& __head, const _Tail&... __tail)
 217:/opt/gcc-arm-none-eabi/arm-none-eabi/include/c++/10.3.1/tuple ****       : _Inherited(__tail...), _Base(__head) { }
 218:/opt/gcc-arm-none-eabi/arm-none-eabi/include/c++/10.3.1/tuple **** 
 219:/opt/gcc-arm-none-eabi/arm-none-eabi/include/c++/10.3.1/tuple ****       template<typename _UHead, typename... _UTail, typename = typename
 220:/opt/gcc-arm-none-eabi/arm-none-eabi/include/c++/10.3.1/tuple ****                enable_if<sizeof...(_Tail) == sizeof...(_UTail)>::type>
 221:/opt/gcc-arm-none-eabi/arm-none-eabi/include/c++/10.3.1/tuple ****         explicit
 222:/opt/gcc-arm-none-eabi/arm-none-eabi/include/c++/10.3.1/tuple ****         constexpr _Tuple_impl(_UHead&& __head, _UTail&&... __tail)
 223:/opt/gcc-arm-none-eabi/arm-none-eabi/include/c++/10.3.1/tuple **** 	: _Inherited(std::forward<_UTail>(__tail)...),
 224:/opt/gcc-arm-none-eabi/arm-none-eabi/include/c++/10.3.1/tuple **** 	  _Base(std::forward<_UHead>(__head)) { }
 225:/opt/gcc-arm-none-eabi/arm-none-eabi/include/c++/10.3.1/tuple **** 
 226:/opt/gcc-arm-none-eabi/arm-none-eabi/include/c++/10.3.1/tuple ****       constexpr _Tuple_impl(const _Tuple_impl&) = default;
 227:/opt/gcc-arm-none-eabi/arm-none-eabi/include/c++/10.3.1/tuple **** 
 228:/opt/gcc-arm-none-eabi/arm-none-eabi/include/c++/10.3.1/tuple ****       // _GLIBCXX_RESOLVE_LIB_DEFECTS
 229:/opt/gcc-arm-none-eabi/arm-none-eabi/include/c++/10.3.1/tuple ****       // 2729. Missing SFINAE on std::pair::operator=
 230:/opt/gcc-arm-none-eabi/arm-none-eabi/include/c++/10.3.1/tuple ****       _Tuple_impl& operator=(const _Tuple_impl&) = delete;
 231:/opt/gcc-arm-none-eabi/arm-none-eabi/include/c++/10.3.1/tuple **** 
 232:/opt/gcc-arm-none-eabi/arm-none-eabi/include/c++/10.3.1/tuple ****       constexpr
 233:/opt/gcc-arm-none-eabi/arm-none-eabi/include/c++/10.3.1/tuple ****       _Tuple_impl(_Tuple_impl&& __in)
 234:/opt/gcc-arm-none-eabi/arm-none-eabi/include/c++/10.3.1/tuple ****       noexcept(__and_<is_nothrow_move_constructible<_Head>,
 235:/opt/gcc-arm-none-eabi/arm-none-eabi/include/c++/10.3.1/tuple **** 	              is_nothrow_move_constructible<_Inherited>>::value)
 236:/opt/gcc-arm-none-eabi/arm-none-eabi/include/c++/10.3.1/tuple ****       : _Inherited(std::move(_M_tail(__in))),
 237:/opt/gcc-arm-none-eabi/arm-none-eabi/include/c++/10.3.1/tuple **** 	_Base(std::forward<_Head>(_M_head(__in))) { }
 238:/opt/gcc-arm-none-eabi/arm-none-eabi/include/c++/10.3.1/tuple **** 
 239:/opt/gcc-arm-none-eabi/arm-none-eabi/include/c++/10.3.1/tuple ****       template<typename... _UElements>
 240:/opt/gcc-arm-none-eabi/arm-none-eabi/include/c++/10.3.1/tuple ****         constexpr _Tuple_impl(const _Tuple_impl<_Idx, _UElements...>& __in)
 241:/opt/gcc-arm-none-eabi/arm-none-eabi/include/c++/10.3.1/tuple **** 	: _Inherited(_Tuple_impl<_Idx, _UElements...>::_M_tail(__in)),
 242:/opt/gcc-arm-none-eabi/arm-none-eabi/include/c++/10.3.1/tuple **** 	  _Base(_Tuple_impl<_Idx, _UElements...>::_M_head(__in)) { }
 243:/opt/gcc-arm-none-eabi/arm-none-eabi/include/c++/10.3.1/tuple **** 
 244:/opt/gcc-arm-none-eabi/arm-none-eabi/include/c++/10.3.1/tuple ****       template<typename _UHead, typename... _UTails>
 245:/opt/gcc-arm-none-eabi/arm-none-eabi/include/c++/10.3.1/tuple ****         constexpr _Tuple_impl(_Tuple_impl<_Idx, _UHead, _UTails...>&& __in)
 246:/opt/gcc-arm-none-eabi/arm-none-eabi/include/c++/10.3.1/tuple **** 	: _Inherited(std::move
 247:/opt/gcc-arm-none-eabi/arm-none-eabi/include/c++/10.3.1/tuple **** 		     (_Tuple_impl<_Idx, _UHead, _UTails...>::_M_tail(__in))),
 248:/opt/gcc-arm-none-eabi/arm-none-eabi/include/c++/10.3.1/tuple **** 	  _Base(std::forward<_UHead>
 249:/opt/gcc-arm-none-eabi/arm-none-eabi/include/c++/10.3.1/tuple **** 		(_Tuple_impl<_Idx, _UHead, _UTails...>::_M_head(__in))) { }
 250:/opt/gcc-arm-none-eabi/arm-none-eabi/include/c++/10.3.1/tuple **** 
 251:/opt/gcc-arm-none-eabi/arm-none-eabi/include/c++/10.3.1/tuple ****       template<typename _Alloc>
 252:/opt/gcc-arm-none-eabi/arm-none-eabi/include/c++/10.3.1/tuple **** 	_GLIBCXX20_CONSTEXPR
 253:/opt/gcc-arm-none-eabi/arm-none-eabi/include/c++/10.3.1/tuple **** 	_Tuple_impl(allocator_arg_t __tag, const _Alloc& __a)
 254:/opt/gcc-arm-none-eabi/arm-none-eabi/include/c++/10.3.1/tuple **** 	: _Inherited(__tag, __a),
 255:/opt/gcc-arm-none-eabi/arm-none-eabi/include/c++/10.3.1/tuple ****           _Base(__tag, __use_alloc<_Head>(__a)) { }
ARM GAS  /tmp/ccrmmslP.s 			page 30


 256:/opt/gcc-arm-none-eabi/arm-none-eabi/include/c++/10.3.1/tuple **** 
 257:/opt/gcc-arm-none-eabi/arm-none-eabi/include/c++/10.3.1/tuple ****       template<typename _Alloc>
 258:/opt/gcc-arm-none-eabi/arm-none-eabi/include/c++/10.3.1/tuple **** 	_Tuple_impl(allocator_arg_t __tag, const _Alloc& __a,
 259:/opt/gcc-arm-none-eabi/arm-none-eabi/include/c++/10.3.1/tuple **** 		    const _Head& __head, const _Tail&... __tail)
 260:/opt/gcc-arm-none-eabi/arm-none-eabi/include/c++/10.3.1/tuple **** 	: _Inherited(__tag, __a, __tail...),
 261:/opt/gcc-arm-none-eabi/arm-none-eabi/include/c++/10.3.1/tuple ****           _Base(__use_alloc<_Head, _Alloc, _Head>(__a), __head) { }
 262:/opt/gcc-arm-none-eabi/arm-none-eabi/include/c++/10.3.1/tuple **** 
 263:/opt/gcc-arm-none-eabi/arm-none-eabi/include/c++/10.3.1/tuple ****       template<typename _Alloc, typename _UHead, typename... _UTail,
 264:/opt/gcc-arm-none-eabi/arm-none-eabi/include/c++/10.3.1/tuple ****                typename = typename enable_if<sizeof...(_Tail)
 265:/opt/gcc-arm-none-eabi/arm-none-eabi/include/c++/10.3.1/tuple **** 					     == sizeof...(_UTail)>::type>
 266:/opt/gcc-arm-none-eabi/arm-none-eabi/include/c++/10.3.1/tuple **** 	_GLIBCXX20_CONSTEXPR
 267:/opt/gcc-arm-none-eabi/arm-none-eabi/include/c++/10.3.1/tuple **** 	_Tuple_impl(allocator_arg_t __tag, const _Alloc& __a,
 268:/opt/gcc-arm-none-eabi/arm-none-eabi/include/c++/10.3.1/tuple **** 	            _UHead&& __head, _UTail&&... __tail)
 269:/opt/gcc-arm-none-eabi/arm-none-eabi/include/c++/10.3.1/tuple **** 	: _Inherited(__tag, __a, std::forward<_UTail>(__tail)...),
 270:/opt/gcc-arm-none-eabi/arm-none-eabi/include/c++/10.3.1/tuple ****           _Base(__use_alloc<_Head, _Alloc, _UHead>(__a),
 271:/opt/gcc-arm-none-eabi/arm-none-eabi/include/c++/10.3.1/tuple **** 	        std::forward<_UHead>(__head)) { }
 272:/opt/gcc-arm-none-eabi/arm-none-eabi/include/c++/10.3.1/tuple **** 
 273:/opt/gcc-arm-none-eabi/arm-none-eabi/include/c++/10.3.1/tuple ****       template<typename _Alloc>
 274:/opt/gcc-arm-none-eabi/arm-none-eabi/include/c++/10.3.1/tuple **** 	_GLIBCXX20_CONSTEXPR
 275:/opt/gcc-arm-none-eabi/arm-none-eabi/include/c++/10.3.1/tuple ****         _Tuple_impl(allocator_arg_t __tag, const _Alloc& __a,
 276:/opt/gcc-arm-none-eabi/arm-none-eabi/include/c++/10.3.1/tuple **** 	            const _Tuple_impl& __in)
 277:/opt/gcc-arm-none-eabi/arm-none-eabi/include/c++/10.3.1/tuple **** 	: _Inherited(__tag, __a, _M_tail(__in)),
 278:/opt/gcc-arm-none-eabi/arm-none-eabi/include/c++/10.3.1/tuple ****           _Base(__use_alloc<_Head, _Alloc, _Head>(__a), _M_head(__in)) { }
 279:/opt/gcc-arm-none-eabi/arm-none-eabi/include/c++/10.3.1/tuple **** 
 280:/opt/gcc-arm-none-eabi/arm-none-eabi/include/c++/10.3.1/tuple ****       template<typename _Alloc>
 281:/opt/gcc-arm-none-eabi/arm-none-eabi/include/c++/10.3.1/tuple **** 	_GLIBCXX20_CONSTEXPR
 282:/opt/gcc-arm-none-eabi/arm-none-eabi/include/c++/10.3.1/tuple **** 	_Tuple_impl(allocator_arg_t __tag, const _Alloc& __a,
 283:/opt/gcc-arm-none-eabi/arm-none-eabi/include/c++/10.3.1/tuple **** 	            _Tuple_impl&& __in)
 284:/opt/gcc-arm-none-eabi/arm-none-eabi/include/c++/10.3.1/tuple **** 	: _Inherited(__tag, __a, std::move(_M_tail(__in))),
 285:/opt/gcc-arm-none-eabi/arm-none-eabi/include/c++/10.3.1/tuple **** 	  _Base(__use_alloc<_Head, _Alloc, _Head>(__a),
 286:/opt/gcc-arm-none-eabi/arm-none-eabi/include/c++/10.3.1/tuple **** 	        std::forward<_Head>(_M_head(__in))) { }
 287:/opt/gcc-arm-none-eabi/arm-none-eabi/include/c++/10.3.1/tuple **** 
 288:/opt/gcc-arm-none-eabi/arm-none-eabi/include/c++/10.3.1/tuple ****       template<typename _Alloc, typename _UHead, typename... _UTails>
 289:/opt/gcc-arm-none-eabi/arm-none-eabi/include/c++/10.3.1/tuple **** 	_GLIBCXX20_CONSTEXPR
 290:/opt/gcc-arm-none-eabi/arm-none-eabi/include/c++/10.3.1/tuple **** 	_Tuple_impl(allocator_arg_t __tag, const _Alloc& __a,
 291:/opt/gcc-arm-none-eabi/arm-none-eabi/include/c++/10.3.1/tuple **** 		    const _Tuple_impl<_Idx, _UHead, _UTails...>& __in)
 292:/opt/gcc-arm-none-eabi/arm-none-eabi/include/c++/10.3.1/tuple **** 	: _Inherited(__tag, __a,
 293:/opt/gcc-arm-none-eabi/arm-none-eabi/include/c++/10.3.1/tuple **** 		     _Tuple_impl<_Idx, _UHead, _UTails...>::_M_tail(__in)),
 294:/opt/gcc-arm-none-eabi/arm-none-eabi/include/c++/10.3.1/tuple **** 	  _Base(__use_alloc<_Head, _Alloc, const _UHead&>(__a),
 295:/opt/gcc-arm-none-eabi/arm-none-eabi/include/c++/10.3.1/tuple **** 		_Tuple_impl<_Idx, _UHead, _UTails...>::_M_head(__in)) { }
 296:/opt/gcc-arm-none-eabi/arm-none-eabi/include/c++/10.3.1/tuple **** 
 297:/opt/gcc-arm-none-eabi/arm-none-eabi/include/c++/10.3.1/tuple ****       template<typename _Alloc, typename _UHead, typename... _UTails>
 298:/opt/gcc-arm-none-eabi/arm-none-eabi/include/c++/10.3.1/tuple **** 	_GLIBCXX20_CONSTEXPR
 299:/opt/gcc-arm-none-eabi/arm-none-eabi/include/c++/10.3.1/tuple **** 	_Tuple_impl(allocator_arg_t __tag, const _Alloc& __a,
 300:/opt/gcc-arm-none-eabi/arm-none-eabi/include/c++/10.3.1/tuple **** 	            _Tuple_impl<_Idx, _UHead, _UTails...>&& __in)
 301:/opt/gcc-arm-none-eabi/arm-none-eabi/include/c++/10.3.1/tuple **** 	: _Inherited(__tag, __a, std::move
 302:/opt/gcc-arm-none-eabi/arm-none-eabi/include/c++/10.3.1/tuple **** 		     (_Tuple_impl<_Idx, _UHead, _UTails...>::_M_tail(__in))),
 303:/opt/gcc-arm-none-eabi/arm-none-eabi/include/c++/10.3.1/tuple **** 	  _Base(__use_alloc<_Head, _Alloc, _UHead>(__a),
 304:/opt/gcc-arm-none-eabi/arm-none-eabi/include/c++/10.3.1/tuple ****                 std::forward<_UHead>
 305:/opt/gcc-arm-none-eabi/arm-none-eabi/include/c++/10.3.1/tuple **** 		(_Tuple_impl<_Idx, _UHead, _UTails...>::_M_head(__in))) { }
 306:/opt/gcc-arm-none-eabi/arm-none-eabi/include/c++/10.3.1/tuple **** 
 307:/opt/gcc-arm-none-eabi/arm-none-eabi/include/c++/10.3.1/tuple ****       template<typename... _UElements>
 308:/opt/gcc-arm-none-eabi/arm-none-eabi/include/c++/10.3.1/tuple **** 	_GLIBCXX20_CONSTEXPR
 309:/opt/gcc-arm-none-eabi/arm-none-eabi/include/c++/10.3.1/tuple ****         void
 310:/opt/gcc-arm-none-eabi/arm-none-eabi/include/c++/10.3.1/tuple ****         _M_assign(const _Tuple_impl<_Idx, _UElements...>& __in)
 311:/opt/gcc-arm-none-eabi/arm-none-eabi/include/c++/10.3.1/tuple ****         {
 312:/opt/gcc-arm-none-eabi/arm-none-eabi/include/c++/10.3.1/tuple **** 	  _M_head(*this) = _Tuple_impl<_Idx, _UElements...>::_M_head(__in);
ARM GAS  /tmp/ccrmmslP.s 			page 31


 313:/opt/gcc-arm-none-eabi/arm-none-eabi/include/c++/10.3.1/tuple **** 	  _M_tail(*this)._M_assign(
 314:/opt/gcc-arm-none-eabi/arm-none-eabi/include/c++/10.3.1/tuple **** 	      _Tuple_impl<_Idx, _UElements...>::_M_tail(__in));
 315:/opt/gcc-arm-none-eabi/arm-none-eabi/include/c++/10.3.1/tuple **** 	}
 316:/opt/gcc-arm-none-eabi/arm-none-eabi/include/c++/10.3.1/tuple **** 
 317:/opt/gcc-arm-none-eabi/arm-none-eabi/include/c++/10.3.1/tuple ****       template<typename _UHead, typename... _UTails>
 318:/opt/gcc-arm-none-eabi/arm-none-eabi/include/c++/10.3.1/tuple **** 	_GLIBCXX20_CONSTEXPR
 319:/opt/gcc-arm-none-eabi/arm-none-eabi/include/c++/10.3.1/tuple ****         void
 320:/opt/gcc-arm-none-eabi/arm-none-eabi/include/c++/10.3.1/tuple ****         _M_assign(_Tuple_impl<_Idx, _UHead, _UTails...>&& __in)
 321:/opt/gcc-arm-none-eabi/arm-none-eabi/include/c++/10.3.1/tuple ****         {
 322:/opt/gcc-arm-none-eabi/arm-none-eabi/include/c++/10.3.1/tuple **** 	  _M_head(*this) = std::forward<_UHead>
 323:/opt/gcc-arm-none-eabi/arm-none-eabi/include/c++/10.3.1/tuple **** 	    (_Tuple_impl<_Idx, _UHead, _UTails...>::_M_head(__in));
 324:/opt/gcc-arm-none-eabi/arm-none-eabi/include/c++/10.3.1/tuple **** 	  _M_tail(*this)._M_assign(
 325:/opt/gcc-arm-none-eabi/arm-none-eabi/include/c++/10.3.1/tuple **** 	      std::move(_Tuple_impl<_Idx, _UHead, _UTails...>::_M_tail(__in)));
 326:/opt/gcc-arm-none-eabi/arm-none-eabi/include/c++/10.3.1/tuple **** 	}
 327:/opt/gcc-arm-none-eabi/arm-none-eabi/include/c++/10.3.1/tuple **** 
 328:/opt/gcc-arm-none-eabi/arm-none-eabi/include/c++/10.3.1/tuple ****     protected:
 329:/opt/gcc-arm-none-eabi/arm-none-eabi/include/c++/10.3.1/tuple ****       _GLIBCXX20_CONSTEXPR
 330:/opt/gcc-arm-none-eabi/arm-none-eabi/include/c++/10.3.1/tuple ****       void
 331:/opt/gcc-arm-none-eabi/arm-none-eabi/include/c++/10.3.1/tuple ****       _M_swap(_Tuple_impl& __in)
 332:/opt/gcc-arm-none-eabi/arm-none-eabi/include/c++/10.3.1/tuple ****       {
 333:/opt/gcc-arm-none-eabi/arm-none-eabi/include/c++/10.3.1/tuple **** 	using std::swap;
 334:/opt/gcc-arm-none-eabi/arm-none-eabi/include/c++/10.3.1/tuple **** 	swap(_M_head(*this), _M_head(__in));
 335:/opt/gcc-arm-none-eabi/arm-none-eabi/include/c++/10.3.1/tuple **** 	_Inherited::_M_swap(_M_tail(__in));
 336:/opt/gcc-arm-none-eabi/arm-none-eabi/include/c++/10.3.1/tuple ****       }
 337:/opt/gcc-arm-none-eabi/arm-none-eabi/include/c++/10.3.1/tuple ****     };
 338:/opt/gcc-arm-none-eabi/arm-none-eabi/include/c++/10.3.1/tuple **** 
 339:/opt/gcc-arm-none-eabi/arm-none-eabi/include/c++/10.3.1/tuple ****   // Basis case of inheritance recursion.
 340:/opt/gcc-arm-none-eabi/arm-none-eabi/include/c++/10.3.1/tuple ****   template<std::size_t _Idx, typename _Head>
 341:/opt/gcc-arm-none-eabi/arm-none-eabi/include/c++/10.3.1/tuple ****     struct _Tuple_impl<_Idx, _Head>
 342:/opt/gcc-arm-none-eabi/arm-none-eabi/include/c++/10.3.1/tuple ****     : private _Head_base<_Idx, _Head>
 343:/opt/gcc-arm-none-eabi/arm-none-eabi/include/c++/10.3.1/tuple ****     {
 344:/opt/gcc-arm-none-eabi/arm-none-eabi/include/c++/10.3.1/tuple ****       template<std::size_t, typename...> friend class _Tuple_impl;
 345:/opt/gcc-arm-none-eabi/arm-none-eabi/include/c++/10.3.1/tuple **** 
 346:/opt/gcc-arm-none-eabi/arm-none-eabi/include/c++/10.3.1/tuple ****       typedef _Head_base<_Idx, _Head> _Base;
 347:/opt/gcc-arm-none-eabi/arm-none-eabi/include/c++/10.3.1/tuple **** 
 348:/opt/gcc-arm-none-eabi/arm-none-eabi/include/c++/10.3.1/tuple ****       static constexpr _Head&
 349:/opt/gcc-arm-none-eabi/arm-none-eabi/include/c++/10.3.1/tuple ****       _M_head(_Tuple_impl& __t) noexcept { return _Base::_M_head(__t); }
 350:/opt/gcc-arm-none-eabi/arm-none-eabi/include/c++/10.3.1/tuple **** 
 351:/opt/gcc-arm-none-eabi/arm-none-eabi/include/c++/10.3.1/tuple ****       static constexpr const _Head&
 352:/opt/gcc-arm-none-eabi/arm-none-eabi/include/c++/10.3.1/tuple ****       _M_head(const _Tuple_impl& __t) noexcept { return _Base::_M_head(__t); }
 353:/opt/gcc-arm-none-eabi/arm-none-eabi/include/c++/10.3.1/tuple **** 
 354:/opt/gcc-arm-none-eabi/arm-none-eabi/include/c++/10.3.1/tuple ****       constexpr _Tuple_impl()
 355:/opt/gcc-arm-none-eabi/arm-none-eabi/include/c++/10.3.1/tuple ****       : _Base() { }
 356:/opt/gcc-arm-none-eabi/arm-none-eabi/include/c++/10.3.1/tuple **** 
 357:/opt/gcc-arm-none-eabi/arm-none-eabi/include/c++/10.3.1/tuple ****       explicit
 358:/opt/gcc-arm-none-eabi/arm-none-eabi/include/c++/10.3.1/tuple ****       constexpr _Tuple_impl(const _Head& __head)
 359:/opt/gcc-arm-none-eabi/arm-none-eabi/include/c++/10.3.1/tuple ****       : _Base(__head) { }
 360:/opt/gcc-arm-none-eabi/arm-none-eabi/include/c++/10.3.1/tuple **** 
 361:/opt/gcc-arm-none-eabi/arm-none-eabi/include/c++/10.3.1/tuple ****       template<typename _UHead>
 362:/opt/gcc-arm-none-eabi/arm-none-eabi/include/c++/10.3.1/tuple ****         explicit
 363:/opt/gcc-arm-none-eabi/arm-none-eabi/include/c++/10.3.1/tuple ****         constexpr _Tuple_impl(_UHead&& __head)
 364:/opt/gcc-arm-none-eabi/arm-none-eabi/include/c++/10.3.1/tuple **** 	: _Base(std::forward<_UHead>(__head)) { }
 365:/opt/gcc-arm-none-eabi/arm-none-eabi/include/c++/10.3.1/tuple **** 
 366:/opt/gcc-arm-none-eabi/arm-none-eabi/include/c++/10.3.1/tuple ****       constexpr _Tuple_impl(const _Tuple_impl&) = default;
 367:/opt/gcc-arm-none-eabi/arm-none-eabi/include/c++/10.3.1/tuple **** 
 368:/opt/gcc-arm-none-eabi/arm-none-eabi/include/c++/10.3.1/tuple ****       // _GLIBCXX_RESOLVE_LIB_DEFECTS
 369:/opt/gcc-arm-none-eabi/arm-none-eabi/include/c++/10.3.1/tuple ****       // 2729. Missing SFINAE on std::pair::operator=
ARM GAS  /tmp/ccrmmslP.s 			page 32


 370:/opt/gcc-arm-none-eabi/arm-none-eabi/include/c++/10.3.1/tuple ****       _Tuple_impl& operator=(const _Tuple_impl&) = delete;
 371:/opt/gcc-arm-none-eabi/arm-none-eabi/include/c++/10.3.1/tuple **** 
 372:/opt/gcc-arm-none-eabi/arm-none-eabi/include/c++/10.3.1/tuple ****       constexpr
 373:/opt/gcc-arm-none-eabi/arm-none-eabi/include/c++/10.3.1/tuple ****       _Tuple_impl(_Tuple_impl&& __in)
 374:/opt/gcc-arm-none-eabi/arm-none-eabi/include/c++/10.3.1/tuple ****       noexcept(is_nothrow_move_constructible<_Head>::value)
 375:/opt/gcc-arm-none-eabi/arm-none-eabi/include/c++/10.3.1/tuple ****       : _Base(std::forward<_Head>(_M_head(__in))) { }
 376:/opt/gcc-arm-none-eabi/arm-none-eabi/include/c++/10.3.1/tuple **** 
 377:/opt/gcc-arm-none-eabi/arm-none-eabi/include/c++/10.3.1/tuple ****       template<typename _UHead>
 378:/opt/gcc-arm-none-eabi/arm-none-eabi/include/c++/10.3.1/tuple ****         constexpr _Tuple_impl(const _Tuple_impl<_Idx, _UHead>& __in)
 379:/opt/gcc-arm-none-eabi/arm-none-eabi/include/c++/10.3.1/tuple **** 	: _Base(_Tuple_impl<_Idx, _UHead>::_M_head(__in)) { }
 380:/opt/gcc-arm-none-eabi/arm-none-eabi/include/c++/10.3.1/tuple **** 
 381:/opt/gcc-arm-none-eabi/arm-none-eabi/include/c++/10.3.1/tuple ****       template<typename _UHead>
 382:/opt/gcc-arm-none-eabi/arm-none-eabi/include/c++/10.3.1/tuple ****         constexpr _Tuple_impl(_Tuple_impl<_Idx, _UHead>&& __in)
 383:/opt/gcc-arm-none-eabi/arm-none-eabi/include/c++/10.3.1/tuple **** 	: _Base(std::forward<_UHead>(_Tuple_impl<_Idx, _UHead>::_M_head(__in)))
 384:/opt/gcc-arm-none-eabi/arm-none-eabi/include/c++/10.3.1/tuple **** 	{ }
 385:/opt/gcc-arm-none-eabi/arm-none-eabi/include/c++/10.3.1/tuple **** 
 386:/opt/gcc-arm-none-eabi/arm-none-eabi/include/c++/10.3.1/tuple ****       template<typename _Alloc>
 387:/opt/gcc-arm-none-eabi/arm-none-eabi/include/c++/10.3.1/tuple **** 	_GLIBCXX20_CONSTEXPR
 388:/opt/gcc-arm-none-eabi/arm-none-eabi/include/c++/10.3.1/tuple **** 	_Tuple_impl(allocator_arg_t __tag, const _Alloc& __a)
 389:/opt/gcc-arm-none-eabi/arm-none-eabi/include/c++/10.3.1/tuple **** 	: _Base(__tag, __use_alloc<_Head>(__a)) { }
 390:/opt/gcc-arm-none-eabi/arm-none-eabi/include/c++/10.3.1/tuple **** 
 391:/opt/gcc-arm-none-eabi/arm-none-eabi/include/c++/10.3.1/tuple ****       template<typename _Alloc>
 392:/opt/gcc-arm-none-eabi/arm-none-eabi/include/c++/10.3.1/tuple **** 	_Tuple_impl(allocator_arg_t __tag, const _Alloc& __a,
 393:/opt/gcc-arm-none-eabi/arm-none-eabi/include/c++/10.3.1/tuple **** 		    const _Head& __head)
 394:/opt/gcc-arm-none-eabi/arm-none-eabi/include/c++/10.3.1/tuple **** 	: _Base(__use_alloc<_Head, _Alloc, _Head>(__a), __head) { }
 395:/opt/gcc-arm-none-eabi/arm-none-eabi/include/c++/10.3.1/tuple **** 
 396:/opt/gcc-arm-none-eabi/arm-none-eabi/include/c++/10.3.1/tuple ****       template<typename _Alloc, typename _UHead>
 397:/opt/gcc-arm-none-eabi/arm-none-eabi/include/c++/10.3.1/tuple **** 	_GLIBCXX20_CONSTEXPR
 398:/opt/gcc-arm-none-eabi/arm-none-eabi/include/c++/10.3.1/tuple **** 	_Tuple_impl(allocator_arg_t __tag, const _Alloc& __a,
 399:/opt/gcc-arm-none-eabi/arm-none-eabi/include/c++/10.3.1/tuple **** 	            _UHead&& __head)
 400:/opt/gcc-arm-none-eabi/arm-none-eabi/include/c++/10.3.1/tuple **** 	: _Base(__use_alloc<_Head, _Alloc, _UHead>(__a),
 401:/opt/gcc-arm-none-eabi/arm-none-eabi/include/c++/10.3.1/tuple **** 	        std::forward<_UHead>(__head)) { }
 402:/opt/gcc-arm-none-eabi/arm-none-eabi/include/c++/10.3.1/tuple **** 
 403:/opt/gcc-arm-none-eabi/arm-none-eabi/include/c++/10.3.1/tuple ****       template<typename _Alloc>
 404:/opt/gcc-arm-none-eabi/arm-none-eabi/include/c++/10.3.1/tuple **** 	_GLIBCXX20_CONSTEXPR
 405:/opt/gcc-arm-none-eabi/arm-none-eabi/include/c++/10.3.1/tuple ****         _Tuple_impl(allocator_arg_t __tag, const _Alloc& __a,
 406:/opt/gcc-arm-none-eabi/arm-none-eabi/include/c++/10.3.1/tuple **** 	            const _Tuple_impl& __in)
 407:/opt/gcc-arm-none-eabi/arm-none-eabi/include/c++/10.3.1/tuple **** 	: _Base(__use_alloc<_Head, _Alloc, _Head>(__a), _M_head(__in)) { }
 408:/opt/gcc-arm-none-eabi/arm-none-eabi/include/c++/10.3.1/tuple **** 
 409:/opt/gcc-arm-none-eabi/arm-none-eabi/include/c++/10.3.1/tuple ****       template<typename _Alloc>
 410:/opt/gcc-arm-none-eabi/arm-none-eabi/include/c++/10.3.1/tuple **** 	_GLIBCXX20_CONSTEXPR
 411:/opt/gcc-arm-none-eabi/arm-none-eabi/include/c++/10.3.1/tuple **** 	_Tuple_impl(allocator_arg_t __tag, const _Alloc& __a,
 412:/opt/gcc-arm-none-eabi/arm-none-eabi/include/c++/10.3.1/tuple **** 	            _Tuple_impl&& __in)
 413:/opt/gcc-arm-none-eabi/arm-none-eabi/include/c++/10.3.1/tuple **** 	: _Base(__use_alloc<_Head, _Alloc, _Head>(__a),
 414:/opt/gcc-arm-none-eabi/arm-none-eabi/include/c++/10.3.1/tuple **** 	        std::forward<_Head>(_M_head(__in))) { }
 415:/opt/gcc-arm-none-eabi/arm-none-eabi/include/c++/10.3.1/tuple **** 
 416:/opt/gcc-arm-none-eabi/arm-none-eabi/include/c++/10.3.1/tuple ****       template<typename _Alloc, typename _UHead>
 417:/opt/gcc-arm-none-eabi/arm-none-eabi/include/c++/10.3.1/tuple **** 	_GLIBCXX20_CONSTEXPR
 418:/opt/gcc-arm-none-eabi/arm-none-eabi/include/c++/10.3.1/tuple **** 	_Tuple_impl(allocator_arg_t __tag, const _Alloc& __a,
 419:/opt/gcc-arm-none-eabi/arm-none-eabi/include/c++/10.3.1/tuple **** 	            const _Tuple_impl<_Idx, _UHead>& __in)
 420:/opt/gcc-arm-none-eabi/arm-none-eabi/include/c++/10.3.1/tuple **** 	: _Base(__use_alloc<_Head, _Alloc, const _UHead&>(__a),
 421:/opt/gcc-arm-none-eabi/arm-none-eabi/include/c++/10.3.1/tuple **** 		_Tuple_impl<_Idx, _UHead>::_M_head(__in)) { }
 422:/opt/gcc-arm-none-eabi/arm-none-eabi/include/c++/10.3.1/tuple **** 
 423:/opt/gcc-arm-none-eabi/arm-none-eabi/include/c++/10.3.1/tuple ****       template<typename _Alloc, typename _UHead>
 424:/opt/gcc-arm-none-eabi/arm-none-eabi/include/c++/10.3.1/tuple **** 	_GLIBCXX20_CONSTEXPR
 425:/opt/gcc-arm-none-eabi/arm-none-eabi/include/c++/10.3.1/tuple **** 	_Tuple_impl(allocator_arg_t __tag, const _Alloc& __a,
 426:/opt/gcc-arm-none-eabi/arm-none-eabi/include/c++/10.3.1/tuple **** 	            _Tuple_impl<_Idx, _UHead>&& __in)
ARM GAS  /tmp/ccrmmslP.s 			page 33


 427:/opt/gcc-arm-none-eabi/arm-none-eabi/include/c++/10.3.1/tuple **** 	: _Base(__use_alloc<_Head, _Alloc, _UHead>(__a),
 428:/opt/gcc-arm-none-eabi/arm-none-eabi/include/c++/10.3.1/tuple ****                 std::forward<_UHead>(_Tuple_impl<_Idx, _UHead>::_M_head(__in)))
 429:/opt/gcc-arm-none-eabi/arm-none-eabi/include/c++/10.3.1/tuple **** 	{ }
 430:/opt/gcc-arm-none-eabi/arm-none-eabi/include/c++/10.3.1/tuple **** 
 431:/opt/gcc-arm-none-eabi/arm-none-eabi/include/c++/10.3.1/tuple ****       template<typename _UHead>
 432:/opt/gcc-arm-none-eabi/arm-none-eabi/include/c++/10.3.1/tuple **** 	_GLIBCXX20_CONSTEXPR
 433:/opt/gcc-arm-none-eabi/arm-none-eabi/include/c++/10.3.1/tuple ****         void
 434:/opt/gcc-arm-none-eabi/arm-none-eabi/include/c++/10.3.1/tuple ****         _M_assign(const _Tuple_impl<_Idx, _UHead>& __in)
 435:/opt/gcc-arm-none-eabi/arm-none-eabi/include/c++/10.3.1/tuple ****         {
 436:/opt/gcc-arm-none-eabi/arm-none-eabi/include/c++/10.3.1/tuple **** 	  _M_head(*this) = _Tuple_impl<_Idx, _UHead>::_M_head(__in);
 437:/opt/gcc-arm-none-eabi/arm-none-eabi/include/c++/10.3.1/tuple **** 	}
 438:/opt/gcc-arm-none-eabi/arm-none-eabi/include/c++/10.3.1/tuple **** 
 439:/opt/gcc-arm-none-eabi/arm-none-eabi/include/c++/10.3.1/tuple ****       template<typename _UHead>
 440:/opt/gcc-arm-none-eabi/arm-none-eabi/include/c++/10.3.1/tuple **** 	_GLIBCXX20_CONSTEXPR
 441:/opt/gcc-arm-none-eabi/arm-none-eabi/include/c++/10.3.1/tuple ****         void
 442:/opt/gcc-arm-none-eabi/arm-none-eabi/include/c++/10.3.1/tuple ****         _M_assign(_Tuple_impl<_Idx, _UHead>&& __in)
 443:/opt/gcc-arm-none-eabi/arm-none-eabi/include/c++/10.3.1/tuple ****         {
 444:/opt/gcc-arm-none-eabi/arm-none-eabi/include/c++/10.3.1/tuple **** 	  _M_head(*this)
 445:/opt/gcc-arm-none-eabi/arm-none-eabi/include/c++/10.3.1/tuple **** 	    = std::forward<_UHead>(_Tuple_impl<_Idx, _UHead>::_M_head(__in));
 446:/opt/gcc-arm-none-eabi/arm-none-eabi/include/c++/10.3.1/tuple **** 	}
 447:/opt/gcc-arm-none-eabi/arm-none-eabi/include/c++/10.3.1/tuple **** 
 448:/opt/gcc-arm-none-eabi/arm-none-eabi/include/c++/10.3.1/tuple ****     protected:
 449:/opt/gcc-arm-none-eabi/arm-none-eabi/include/c++/10.3.1/tuple ****       _GLIBCXX20_CONSTEXPR
 450:/opt/gcc-arm-none-eabi/arm-none-eabi/include/c++/10.3.1/tuple ****       void
 451:/opt/gcc-arm-none-eabi/arm-none-eabi/include/c++/10.3.1/tuple ****       _M_swap(_Tuple_impl& __in)
 452:/opt/gcc-arm-none-eabi/arm-none-eabi/include/c++/10.3.1/tuple ****       {
 453:/opt/gcc-arm-none-eabi/arm-none-eabi/include/c++/10.3.1/tuple **** 	using std::swap;
 454:/opt/gcc-arm-none-eabi/arm-none-eabi/include/c++/10.3.1/tuple **** 	swap(_M_head(*this), _M_head(__in));
 455:/opt/gcc-arm-none-eabi/arm-none-eabi/include/c++/10.3.1/tuple ****       }
 456:/opt/gcc-arm-none-eabi/arm-none-eabi/include/c++/10.3.1/tuple ****     };
 457:/opt/gcc-arm-none-eabi/arm-none-eabi/include/c++/10.3.1/tuple **** 
 458:/opt/gcc-arm-none-eabi/arm-none-eabi/include/c++/10.3.1/tuple ****   // Concept utility functions, reused in conditionally-explicit
 459:/opt/gcc-arm-none-eabi/arm-none-eabi/include/c++/10.3.1/tuple ****   // constructors.
 460:/opt/gcc-arm-none-eabi/arm-none-eabi/include/c++/10.3.1/tuple ****   template<bool, typename... _Types>
 461:/opt/gcc-arm-none-eabi/arm-none-eabi/include/c++/10.3.1/tuple ****     struct _TupleConstraints
 462:/opt/gcc-arm-none-eabi/arm-none-eabi/include/c++/10.3.1/tuple ****     {
 463:/opt/gcc-arm-none-eabi/arm-none-eabi/include/c++/10.3.1/tuple ****       template<typename _Tp, typename _Up> // Workaround for PR 96592
 464:/opt/gcc-arm-none-eabi/arm-none-eabi/include/c++/10.3.1/tuple **** 	using is_constructible
 465:/opt/gcc-arm-none-eabi/arm-none-eabi/include/c++/10.3.1/tuple **** 	  = __bool_constant<__is_constructible(_Tp, _Up)>;
 466:/opt/gcc-arm-none-eabi/arm-none-eabi/include/c++/10.3.1/tuple **** 
 467:/opt/gcc-arm-none-eabi/arm-none-eabi/include/c++/10.3.1/tuple ****       // Constraint for a non-explicit constructor.
 468:/opt/gcc-arm-none-eabi/arm-none-eabi/include/c++/10.3.1/tuple ****       // True iff each Ti in _Types... can be constructed from Ui in _UTypes...
 469:/opt/gcc-arm-none-eabi/arm-none-eabi/include/c++/10.3.1/tuple ****       // and every Ui is implicitly convertible to Ti.
 470:/opt/gcc-arm-none-eabi/arm-none-eabi/include/c++/10.3.1/tuple ****       template<typename... _UTypes>
 471:/opt/gcc-arm-none-eabi/arm-none-eabi/include/c++/10.3.1/tuple **** 	static constexpr bool __is_implicitly_constructible()
 472:/opt/gcc-arm-none-eabi/arm-none-eabi/include/c++/10.3.1/tuple **** 	{
 473:/opt/gcc-arm-none-eabi/arm-none-eabi/include/c++/10.3.1/tuple **** 	  return __and_<is_constructible<_Types, _UTypes>...,
 474:/opt/gcc-arm-none-eabi/arm-none-eabi/include/c++/10.3.1/tuple **** 			is_convertible<_UTypes, _Types>...
 475:/opt/gcc-arm-none-eabi/arm-none-eabi/include/c++/10.3.1/tuple **** 			>::value;
 476:/opt/gcc-arm-none-eabi/arm-none-eabi/include/c++/10.3.1/tuple **** 	}
 477:/opt/gcc-arm-none-eabi/arm-none-eabi/include/c++/10.3.1/tuple **** 
 478:/opt/gcc-arm-none-eabi/arm-none-eabi/include/c++/10.3.1/tuple ****       // Constraint for a non-explicit constructor.
 479:/opt/gcc-arm-none-eabi/arm-none-eabi/include/c++/10.3.1/tuple ****       // True iff each Ti in _Types... can be constructed from Ui in _UTypes...
 480:/opt/gcc-arm-none-eabi/arm-none-eabi/include/c++/10.3.1/tuple ****       // but not every Ui is implicitly convertible to Ti.
 481:/opt/gcc-arm-none-eabi/arm-none-eabi/include/c++/10.3.1/tuple ****       template<typename... _UTypes>
 482:/opt/gcc-arm-none-eabi/arm-none-eabi/include/c++/10.3.1/tuple **** 	static constexpr bool __is_explicitly_constructible()
 483:/opt/gcc-arm-none-eabi/arm-none-eabi/include/c++/10.3.1/tuple **** 	{
ARM GAS  /tmp/ccrmmslP.s 			page 34


 484:/opt/gcc-arm-none-eabi/arm-none-eabi/include/c++/10.3.1/tuple **** 	  return __and_<is_constructible<_Types, _UTypes>...,
 485:/opt/gcc-arm-none-eabi/arm-none-eabi/include/c++/10.3.1/tuple **** 			__not_<__and_<is_convertible<_UTypes, _Types>...>>
 486:/opt/gcc-arm-none-eabi/arm-none-eabi/include/c++/10.3.1/tuple **** 			>::value;
 487:/opt/gcc-arm-none-eabi/arm-none-eabi/include/c++/10.3.1/tuple **** 	}
 488:/opt/gcc-arm-none-eabi/arm-none-eabi/include/c++/10.3.1/tuple **** 
 489:/opt/gcc-arm-none-eabi/arm-none-eabi/include/c++/10.3.1/tuple ****       static constexpr bool __is_implicitly_default_constructible()
 490:/opt/gcc-arm-none-eabi/arm-none-eabi/include/c++/10.3.1/tuple ****       {
 491:/opt/gcc-arm-none-eabi/arm-none-eabi/include/c++/10.3.1/tuple **** 	return __and_<std::__is_implicitly_default_constructible<_Types>...
 492:/opt/gcc-arm-none-eabi/arm-none-eabi/include/c++/10.3.1/tuple **** 		      >::value;
 493:/opt/gcc-arm-none-eabi/arm-none-eabi/include/c++/10.3.1/tuple ****       }
 494:/opt/gcc-arm-none-eabi/arm-none-eabi/include/c++/10.3.1/tuple **** 
 495:/opt/gcc-arm-none-eabi/arm-none-eabi/include/c++/10.3.1/tuple ****       static constexpr bool __is_explicitly_default_constructible()
 496:/opt/gcc-arm-none-eabi/arm-none-eabi/include/c++/10.3.1/tuple ****       {
 497:/opt/gcc-arm-none-eabi/arm-none-eabi/include/c++/10.3.1/tuple **** 	return __and_<is_default_constructible<_Types>...,
 498:/opt/gcc-arm-none-eabi/arm-none-eabi/include/c++/10.3.1/tuple **** 		      __not_<__and_<
 499:/opt/gcc-arm-none-eabi/arm-none-eabi/include/c++/10.3.1/tuple **** 			std::__is_implicitly_default_constructible<_Types>...>
 500:/opt/gcc-arm-none-eabi/arm-none-eabi/include/c++/10.3.1/tuple **** 		      >>::value;
 501:/opt/gcc-arm-none-eabi/arm-none-eabi/include/c++/10.3.1/tuple ****       }
 502:/opt/gcc-arm-none-eabi/arm-none-eabi/include/c++/10.3.1/tuple ****     };
 503:/opt/gcc-arm-none-eabi/arm-none-eabi/include/c++/10.3.1/tuple **** 
 504:/opt/gcc-arm-none-eabi/arm-none-eabi/include/c++/10.3.1/tuple ****   // Partial specialization used when a required precondition isn't met,
 505:/opt/gcc-arm-none-eabi/arm-none-eabi/include/c++/10.3.1/tuple ****   // e.g. when sizeof...(_Types) != sizeof...(_UTypes).
 506:/opt/gcc-arm-none-eabi/arm-none-eabi/include/c++/10.3.1/tuple ****   template<typename... _Types>
 507:/opt/gcc-arm-none-eabi/arm-none-eabi/include/c++/10.3.1/tuple ****     struct _TupleConstraints<false, _Types...>
 508:/opt/gcc-arm-none-eabi/arm-none-eabi/include/c++/10.3.1/tuple ****     {
 509:/opt/gcc-arm-none-eabi/arm-none-eabi/include/c++/10.3.1/tuple ****       template<typename... _UTypes>
 510:/opt/gcc-arm-none-eabi/arm-none-eabi/include/c++/10.3.1/tuple **** 	static constexpr bool __is_implicitly_constructible()
 511:/opt/gcc-arm-none-eabi/arm-none-eabi/include/c++/10.3.1/tuple **** 	{ return false; }
 512:/opt/gcc-arm-none-eabi/arm-none-eabi/include/c++/10.3.1/tuple **** 
 513:/opt/gcc-arm-none-eabi/arm-none-eabi/include/c++/10.3.1/tuple ****       template<typename... _UTypes>
 514:/opt/gcc-arm-none-eabi/arm-none-eabi/include/c++/10.3.1/tuple **** 	static constexpr bool __is_explicitly_constructible()
 515:/opt/gcc-arm-none-eabi/arm-none-eabi/include/c++/10.3.1/tuple **** 	{ return false; }
 516:/opt/gcc-arm-none-eabi/arm-none-eabi/include/c++/10.3.1/tuple ****     };
 517:/opt/gcc-arm-none-eabi/arm-none-eabi/include/c++/10.3.1/tuple **** 
 518:/opt/gcc-arm-none-eabi/arm-none-eabi/include/c++/10.3.1/tuple ****   /// Primary class template, tuple
 519:/opt/gcc-arm-none-eabi/arm-none-eabi/include/c++/10.3.1/tuple ****   template<typename... _Elements>
 520:/opt/gcc-arm-none-eabi/arm-none-eabi/include/c++/10.3.1/tuple ****     class tuple : public _Tuple_impl<0, _Elements...>
 521:/opt/gcc-arm-none-eabi/arm-none-eabi/include/c++/10.3.1/tuple ****     {
 522:/opt/gcc-arm-none-eabi/arm-none-eabi/include/c++/10.3.1/tuple ****       typedef _Tuple_impl<0, _Elements...> _Inherited;
 523:/opt/gcc-arm-none-eabi/arm-none-eabi/include/c++/10.3.1/tuple **** 
 524:/opt/gcc-arm-none-eabi/arm-none-eabi/include/c++/10.3.1/tuple ****       template<bool _Cond>
 525:/opt/gcc-arm-none-eabi/arm-none-eabi/include/c++/10.3.1/tuple **** 	using _TCC = _TupleConstraints<_Cond, _Elements...>;
 526:/opt/gcc-arm-none-eabi/arm-none-eabi/include/c++/10.3.1/tuple **** 
 527:/opt/gcc-arm-none-eabi/arm-none-eabi/include/c++/10.3.1/tuple ****       // Constraint for non-explicit default constructor
 528:/opt/gcc-arm-none-eabi/arm-none-eabi/include/c++/10.3.1/tuple ****       template<bool _Dummy>
 529:/opt/gcc-arm-none-eabi/arm-none-eabi/include/c++/10.3.1/tuple **** 	using _ImplicitDefaultCtor = __enable_if_t<
 530:/opt/gcc-arm-none-eabi/arm-none-eabi/include/c++/10.3.1/tuple **** 	  _TCC<_Dummy>::__is_implicitly_default_constructible(),
 531:/opt/gcc-arm-none-eabi/arm-none-eabi/include/c++/10.3.1/tuple **** 	  bool>;
 532:/opt/gcc-arm-none-eabi/arm-none-eabi/include/c++/10.3.1/tuple **** 
 533:/opt/gcc-arm-none-eabi/arm-none-eabi/include/c++/10.3.1/tuple ****       // Constraint for explicit default constructor
 534:/opt/gcc-arm-none-eabi/arm-none-eabi/include/c++/10.3.1/tuple ****       template<bool _Dummy>
 535:/opt/gcc-arm-none-eabi/arm-none-eabi/include/c++/10.3.1/tuple **** 	using _ExplicitDefaultCtor = __enable_if_t<
 536:/opt/gcc-arm-none-eabi/arm-none-eabi/include/c++/10.3.1/tuple **** 	  _TCC<_Dummy>::__is_explicitly_default_constructible(),
 537:/opt/gcc-arm-none-eabi/arm-none-eabi/include/c++/10.3.1/tuple **** 	  bool>;
 538:/opt/gcc-arm-none-eabi/arm-none-eabi/include/c++/10.3.1/tuple **** 
 539:/opt/gcc-arm-none-eabi/arm-none-eabi/include/c++/10.3.1/tuple ****       // Constraint for non-explicit constructors
 540:/opt/gcc-arm-none-eabi/arm-none-eabi/include/c++/10.3.1/tuple ****       template<bool _Cond, typename... _Args>
ARM GAS  /tmp/ccrmmslP.s 			page 35


 541:/opt/gcc-arm-none-eabi/arm-none-eabi/include/c++/10.3.1/tuple **** 	using _ImplicitCtor = __enable_if_t<
 542:/opt/gcc-arm-none-eabi/arm-none-eabi/include/c++/10.3.1/tuple **** 	  _TCC<_Cond>::template __is_implicitly_constructible<_Args...>(),
 543:/opt/gcc-arm-none-eabi/arm-none-eabi/include/c++/10.3.1/tuple **** 	  bool>;
 544:/opt/gcc-arm-none-eabi/arm-none-eabi/include/c++/10.3.1/tuple **** 
 545:/opt/gcc-arm-none-eabi/arm-none-eabi/include/c++/10.3.1/tuple ****       // Constraint for non-explicit constructors
 546:/opt/gcc-arm-none-eabi/arm-none-eabi/include/c++/10.3.1/tuple ****       template<bool _Cond, typename... _Args>
 547:/opt/gcc-arm-none-eabi/arm-none-eabi/include/c++/10.3.1/tuple **** 	using _ExplicitCtor = __enable_if_t<
 548:/opt/gcc-arm-none-eabi/arm-none-eabi/include/c++/10.3.1/tuple **** 	  _TCC<_Cond>::template __is_explicitly_constructible<_Args...>(),
 549:/opt/gcc-arm-none-eabi/arm-none-eabi/include/c++/10.3.1/tuple **** 	  bool>;
 550:/opt/gcc-arm-none-eabi/arm-none-eabi/include/c++/10.3.1/tuple **** 
 551:/opt/gcc-arm-none-eabi/arm-none-eabi/include/c++/10.3.1/tuple ****       template<typename... _UElements>
 552:/opt/gcc-arm-none-eabi/arm-none-eabi/include/c++/10.3.1/tuple **** 	static constexpr
 553:/opt/gcc-arm-none-eabi/arm-none-eabi/include/c++/10.3.1/tuple **** 	__enable_if_t<sizeof...(_UElements) == sizeof...(_Elements), bool>
 554:/opt/gcc-arm-none-eabi/arm-none-eabi/include/c++/10.3.1/tuple **** 	__assignable()
 555:/opt/gcc-arm-none-eabi/arm-none-eabi/include/c++/10.3.1/tuple **** 	{ return __and_<is_assignable<_Elements&, _UElements>...>::value; }
 556:/opt/gcc-arm-none-eabi/arm-none-eabi/include/c++/10.3.1/tuple **** 
 557:/opt/gcc-arm-none-eabi/arm-none-eabi/include/c++/10.3.1/tuple ****       // Condition for noexcept-specifier of an assignment operator.
 558:/opt/gcc-arm-none-eabi/arm-none-eabi/include/c++/10.3.1/tuple ****       template<typename... _UElements>
 559:/opt/gcc-arm-none-eabi/arm-none-eabi/include/c++/10.3.1/tuple **** 	static constexpr bool __nothrow_assignable()
 560:/opt/gcc-arm-none-eabi/arm-none-eabi/include/c++/10.3.1/tuple **** 	{
 561:/opt/gcc-arm-none-eabi/arm-none-eabi/include/c++/10.3.1/tuple **** 	  return
 562:/opt/gcc-arm-none-eabi/arm-none-eabi/include/c++/10.3.1/tuple **** 	    __and_<is_nothrow_assignable<_Elements&, _UElements>...>::value;
 563:/opt/gcc-arm-none-eabi/arm-none-eabi/include/c++/10.3.1/tuple **** 	}
 564:/opt/gcc-arm-none-eabi/arm-none-eabi/include/c++/10.3.1/tuple **** 
 565:/opt/gcc-arm-none-eabi/arm-none-eabi/include/c++/10.3.1/tuple ****       // Condition for noexcept-specifier of a constructor.
 566:/opt/gcc-arm-none-eabi/arm-none-eabi/include/c++/10.3.1/tuple ****       template<typename... _UElements>
 567:/opt/gcc-arm-none-eabi/arm-none-eabi/include/c++/10.3.1/tuple **** 	static constexpr bool __nothrow_constructible()
 568:/opt/gcc-arm-none-eabi/arm-none-eabi/include/c++/10.3.1/tuple **** 	{
 569:/opt/gcc-arm-none-eabi/arm-none-eabi/include/c++/10.3.1/tuple **** 	  return
 570:/opt/gcc-arm-none-eabi/arm-none-eabi/include/c++/10.3.1/tuple **** 	    __and_<is_nothrow_constructible<_Elements, _UElements>...>::value;
 571:/opt/gcc-arm-none-eabi/arm-none-eabi/include/c++/10.3.1/tuple **** 	}
 572:/opt/gcc-arm-none-eabi/arm-none-eabi/include/c++/10.3.1/tuple **** 
 573:/opt/gcc-arm-none-eabi/arm-none-eabi/include/c++/10.3.1/tuple ****       // Constraint for tuple(_UTypes&&...) where sizeof...(_UTypes) == 1.
 574:/opt/gcc-arm-none-eabi/arm-none-eabi/include/c++/10.3.1/tuple ****       template<typename _Up>
 575:/opt/gcc-arm-none-eabi/arm-none-eabi/include/c++/10.3.1/tuple **** 	static constexpr bool __valid_args()
 576:/opt/gcc-arm-none-eabi/arm-none-eabi/include/c++/10.3.1/tuple **** 	{
 577:/opt/gcc-arm-none-eabi/arm-none-eabi/include/c++/10.3.1/tuple **** 	  return sizeof...(_Elements) == 1
 578:/opt/gcc-arm-none-eabi/arm-none-eabi/include/c++/10.3.1/tuple **** 	    && !is_same<tuple, __remove_cvref_t<_Up>>::value;
 579:/opt/gcc-arm-none-eabi/arm-none-eabi/include/c++/10.3.1/tuple **** 	}
 580:/opt/gcc-arm-none-eabi/arm-none-eabi/include/c++/10.3.1/tuple **** 
 581:/opt/gcc-arm-none-eabi/arm-none-eabi/include/c++/10.3.1/tuple ****       // Constraint for tuple(_UTypes&&...) where sizeof...(_UTypes) > 1.
 582:/opt/gcc-arm-none-eabi/arm-none-eabi/include/c++/10.3.1/tuple ****       template<typename, typename, typename... _Tail>
 583:/opt/gcc-arm-none-eabi/arm-none-eabi/include/c++/10.3.1/tuple **** 	static constexpr bool __valid_args()
 584:/opt/gcc-arm-none-eabi/arm-none-eabi/include/c++/10.3.1/tuple **** 	{ return (sizeof...(_Tail) + 2) == sizeof...(_Elements); }
 585:/opt/gcc-arm-none-eabi/arm-none-eabi/include/c++/10.3.1/tuple **** 
 586:/opt/gcc-arm-none-eabi/arm-none-eabi/include/c++/10.3.1/tuple ****       /* Constraint for constructors with a tuple<UTypes...> parameter ensures
 587:/opt/gcc-arm-none-eabi/arm-none-eabi/include/c++/10.3.1/tuple ****        * that the constructor is only viable when it would not interfere with
 588:/opt/gcc-arm-none-eabi/arm-none-eabi/include/c++/10.3.1/tuple ****        * tuple(UTypes&&...) or tuple(const tuple&) or tuple(tuple&&).
 589:/opt/gcc-arm-none-eabi/arm-none-eabi/include/c++/10.3.1/tuple ****        * Such constructors are only viable if:
 590:/opt/gcc-arm-none-eabi/arm-none-eabi/include/c++/10.3.1/tuple ****        * either sizeof...(Types) != 1,
 591:/opt/gcc-arm-none-eabi/arm-none-eabi/include/c++/10.3.1/tuple ****        * or (when Types... expands to T and UTypes... expands to U)
 592:/opt/gcc-arm-none-eabi/arm-none-eabi/include/c++/10.3.1/tuple ****        * is_convertible_v<TUPLE, T>, is_constructible_v<T, TUPLE>,
 593:/opt/gcc-arm-none-eabi/arm-none-eabi/include/c++/10.3.1/tuple ****        * and is_same_v<T, U> are all false.
 594:/opt/gcc-arm-none-eabi/arm-none-eabi/include/c++/10.3.1/tuple ****        */
 595:/opt/gcc-arm-none-eabi/arm-none-eabi/include/c++/10.3.1/tuple ****       template<typename _Tuple, typename = tuple,
 596:/opt/gcc-arm-none-eabi/arm-none-eabi/include/c++/10.3.1/tuple **** 	       typename = __remove_cvref_t<_Tuple>>
 597:/opt/gcc-arm-none-eabi/arm-none-eabi/include/c++/10.3.1/tuple **** 	struct _UseOtherCtor
ARM GAS  /tmp/ccrmmslP.s 			page 36


 598:/opt/gcc-arm-none-eabi/arm-none-eabi/include/c++/10.3.1/tuple **** 	: false_type
 599:/opt/gcc-arm-none-eabi/arm-none-eabi/include/c++/10.3.1/tuple **** 	{ };
 600:/opt/gcc-arm-none-eabi/arm-none-eabi/include/c++/10.3.1/tuple ****       // If TUPLE is convertible to the single element in *this,
 601:/opt/gcc-arm-none-eabi/arm-none-eabi/include/c++/10.3.1/tuple ****       // then TUPLE should match tuple(UTypes&&...) instead.
 602:/opt/gcc-arm-none-eabi/arm-none-eabi/include/c++/10.3.1/tuple ****       template<typename _Tuple, typename _Tp, typename _Up>
 603:/opt/gcc-arm-none-eabi/arm-none-eabi/include/c++/10.3.1/tuple **** 	struct _UseOtherCtor<_Tuple, tuple<_Tp>, tuple<_Up>>
 604:/opt/gcc-arm-none-eabi/arm-none-eabi/include/c++/10.3.1/tuple **** 	: __or_<is_convertible<_Tuple, _Tp>, is_constructible<_Tp, _Tuple>>
 605:/opt/gcc-arm-none-eabi/arm-none-eabi/include/c++/10.3.1/tuple **** 	{ };
 606:/opt/gcc-arm-none-eabi/arm-none-eabi/include/c++/10.3.1/tuple ****       // If TUPLE and *this each have a single element of the same type,
 607:/opt/gcc-arm-none-eabi/arm-none-eabi/include/c++/10.3.1/tuple ****       // then TUPLE should match a copy/move constructor instead.
 608:/opt/gcc-arm-none-eabi/arm-none-eabi/include/c++/10.3.1/tuple ****       template<typename _Tuple, typename _Tp>
 609:/opt/gcc-arm-none-eabi/arm-none-eabi/include/c++/10.3.1/tuple **** 	struct _UseOtherCtor<_Tuple, tuple<_Tp>, tuple<_Tp>>
 610:/opt/gcc-arm-none-eabi/arm-none-eabi/include/c++/10.3.1/tuple **** 	: true_type
 611:/opt/gcc-arm-none-eabi/arm-none-eabi/include/c++/10.3.1/tuple **** 	{ };
 612:/opt/gcc-arm-none-eabi/arm-none-eabi/include/c++/10.3.1/tuple **** 
 613:/opt/gcc-arm-none-eabi/arm-none-eabi/include/c++/10.3.1/tuple ****       // Return true iff sizeof...(Types) == 1 && tuple_size_v<TUPLE> == 1
 614:/opt/gcc-arm-none-eabi/arm-none-eabi/include/c++/10.3.1/tuple ****       // and the single element in Types can be initialized from TUPLE,
 615:/opt/gcc-arm-none-eabi/arm-none-eabi/include/c++/10.3.1/tuple ****       // or is the same type as tuple_element_t<0, TUPLE>.
 616:/opt/gcc-arm-none-eabi/arm-none-eabi/include/c++/10.3.1/tuple ****       template<typename _Tuple>
 617:/opt/gcc-arm-none-eabi/arm-none-eabi/include/c++/10.3.1/tuple **** 	static constexpr bool __use_other_ctor()
 618:/opt/gcc-arm-none-eabi/arm-none-eabi/include/c++/10.3.1/tuple **** 	{ return _UseOtherCtor<_Tuple>::value; }
 619:/opt/gcc-arm-none-eabi/arm-none-eabi/include/c++/10.3.1/tuple **** 
 620:/opt/gcc-arm-none-eabi/arm-none-eabi/include/c++/10.3.1/tuple ****     public:
 621:/opt/gcc-arm-none-eabi/arm-none-eabi/include/c++/10.3.1/tuple ****       template<typename _Dummy = void,
 622:/opt/gcc-arm-none-eabi/arm-none-eabi/include/c++/10.3.1/tuple **** 	       _ImplicitDefaultCtor<is_void<_Dummy>::value> = true>
 623:/opt/gcc-arm-none-eabi/arm-none-eabi/include/c++/10.3.1/tuple **** 	constexpr
 624:/opt/gcc-arm-none-eabi/arm-none-eabi/include/c++/10.3.1/tuple **** 	tuple()
 495              		.loc 8 624 2 is_stmt 1 view .LVU90
 496              	.LBB642:
 497              	.LBI642:
 212:/opt/gcc-arm-none-eabi/arm-none-eabi/include/c++/10.3.1/tuple ****       : _Inherited(), _Base() { }
 498              		.loc 8 212 17 view .LVU91
 499              	.LBB643:
 500              	.LBI643:
 212:/opt/gcc-arm-none-eabi/arm-none-eabi/include/c++/10.3.1/tuple ****       : _Inherited(), _Base() { }
 501              		.loc 8 212 17 view .LVU92
 502              	.LBB644:
 503              	.LBI644:
 354:/opt/gcc-arm-none-eabi/arm-none-eabi/include/c++/10.3.1/tuple ****       : _Base() { }
 504              		.loc 8 354 17 view .LVU93
 505              	.LBB645:
 506              	.LBI645:
 126:/opt/gcc-arm-none-eabi/arm-none-eabi/include/c++/10.3.1/tuple ****       : _M_head_impl() { }
 507              		.loc 8 126 17 view .LVU94
 508              	.LBB646:
 509              	.LBI646:
  20:fibre-cpp/include/fibre/callback.hpp ****     Callback(std::nullptr_t) : cb_(nullptr), ctx_(nullptr) {}
 510              		.loc 3 20 5 view .LVU95
 511              	.LBB647:
  20:fibre-cpp/include/fibre/callback.hpp ****     Callback(std::nullptr_t) : cb_(nullptr), ctx_(nullptr) {}
 512              		.loc 3 20 44 is_stmt 0 view .LVU96
 513 00e6 0022     		movs	r2, #0
 514 00e8 1A60     		str	r2, [r3]
 515 00ea 5A60     		str	r2, [r3, #4]
 516              	.LVL39:
  20:fibre-cpp/include/fibre/callback.hpp ****     Callback(std::nullptr_t) : cb_(nullptr), ctx_(nullptr) {}
 517              		.loc 3 20 44 view .LVU97
ARM GAS  /tmp/ccrmmslP.s 			page 37


 518              	.LBE647:
 519              	.LBE646:
 520              	.LBE645:
 521              	.LBE644:
 522              	.LBB648:
 523              	.LBI648:
 126:/opt/gcc-arm-none-eabi/arm-none-eabi/include/c++/10.3.1/tuple ****       : _M_head_impl() { }
 524              		.loc 8 126 17 is_stmt 1 view .LVU98
 525              	.LBB649:
 526              	.LBI649:
  24:fibre-cpp/include/fibre/bufptr.hpp **** 
  25:fibre-cpp/include/fibre/bufptr.hpp ****     generic_bufptr_t() : begin_(nullptr), end_(nullptr) {}
 527              		.loc 5 25 5 view .LVU99
 528              	.LBB650:
 529              		.loc 5 25 55 is_stmt 0 view .LVU100
 530 00ec 9A60     		str	r2, [r3, #8]
 531 00ee DA60     		str	r2, [r3, #12]
 532              	.LVL40:
 533              		.loc 5 25 55 view .LVU101
 534              	.LBE650:
 535              	.LBE649:
 536              	.LBE648:
 537              	.LBE643:
 538              	.LBB651:
 539              	.LBI651:
 126:/opt/gcc-arm-none-eabi/arm-none-eabi/include/c++/10.3.1/tuple ****       : _M_head_impl() { }
 540              		.loc 8 126 17 is_stmt 1 view .LVU102
 541              	.LBB652:
 127:/opt/gcc-arm-none-eabi/arm-none-eabi/include/c++/10.3.1/tuple **** 
 542              		.loc 8 127 22 is_stmt 0 view .LVU103
 543 00f0 1A74     		strb	r2, [r3, #16]
 544              	.LVL41:
 127:/opt/gcc-arm-none-eabi/arm-none-eabi/include/c++/10.3.1/tuple **** 
 545              		.loc 8 127 22 view .LVU104
 546              	.LBE652:
 547              	.LBE651:
 548              	.LBE642:
 549              	.LBE641:
 550              		.loc 7 104 67 view .LVU105
 551 00f2 1433     		adds	r3, r3, #20
 552              		.loc 7 104 67 is_stmt 1 view .LVU106
 553 00f4 0138     		subs	r0, r0, #1
 554              	.L6:
 555              		.loc 7 104 67 view .LVU107
 556 00f6 0028     		cmp	r0, #0
 557 00f8 F5DA     		bge	.L12
 558 00fa 1949     		ldr	r1, .L13+40
 559 00fc 0023     		movs	r3, #0
 560 00fe 0B63     		str	r3, [r1, #48]
 561 0100 4B63     		str	r3, [r1, #52]
 562              	.LVL42:
 563              		.loc 7 104 67 is_stmt 0 view .LVU108
 564              	.LBE638:
 565              	.LBE637:
 566              	.LBE636:
 567              	.LBB653:
 568              	.LBI653:
ARM GAS  /tmp/ccrmmslP.s 			page 38


  12:fibre-cpp/include/fibre/../../stream_utils.hpp **** 
 569              		.loc 7 12 5 is_stmt 1 view .LVU109
 570              	.LBB654:
 571              	.LBB655:
  12:fibre-cpp/include/fibre/../../stream_utils.hpp **** 
 572              		.loc 7 12 59 is_stmt 0 view .LVU110
 573 0102 194A     		ldr	r2, .L13+48
 574 0104 1364     		str	r3, [r2, #64]
 575 0106 5364     		str	r3, [r2, #68]
 576 0108 82F84830 		strb	r3, [r2, #72]
 577 010c D364     		str	r3, [r2, #76]
 578 010e 1165     		str	r1, [r2, #80]
 579              	.LVL43:
  12:fibre-cpp/include/fibre/../../stream_utils.hpp **** 
 580              		.loc 7 12 59 view .LVU111
 581              	.LBE655:
 582              	.LBE654:
 583              	.LBE653:
 584              	.LBB656:
 585              	.LBI656:
 586              		.file 9 "communication/ascii_protocol.hpp"
   1:communication/ascii_protocol.hpp **** #ifndef __ASCII_PROTOCOL_HPP
   2:communication/ascii_protocol.hpp **** #define __ASCII_PROTOCOL_HPP
   3:communication/ascii_protocol.hpp **** 
   4:communication/ascii_protocol.hpp **** #include <fibre/async_stream.hpp>
   5:communication/ascii_protocol.hpp **** #include <fibre/../../stream_utils.hpp>
   6:communication/ascii_protocol.hpp **** 
   7:communication/ascii_protocol.hpp **** #define MAX_LINE_LENGTH ((size_t)256)
   8:communication/ascii_protocol.hpp **** 
   9:communication/ascii_protocol.hpp **** class AsciiProtocol {
  10:communication/ascii_protocol.hpp **** public:
  11:communication/ascii_protocol.hpp ****     AsciiProtocol(fibre::AsyncStreamSource* rx_channel, fibre::AsyncStreamSink* tx_channel)
 587              		.loc 9 11 5 is_stmt 1 view .LVU112
 588              	.LBB657:
 589              	.LBB658:
  12:communication/ascii_protocol.hpp ****         : rx_channel_(rx_channel), sink_(*tx_channel) {}
 590              		.loc 9 12 53 is_stmt 0 view .LVU113
 591 0110 164A     		ldr	r2, .L13+52
 592 0112 0D48     		ldr	r0, .L13+16
 593 0114 1060     		str	r0, [r2]
 594 0116 5360     		str	r3, [r2, #4]
 595 0118 0120     		movs	r0, #1
 596 011a 82F80801 		strb	r0, [r2, #264]
 597              	.LVL44:
 598              	.LBB659:
 599              	.LBI659:
  12:fibre-cpp/include/fibre/../../stream_utils.hpp **** 
 600              		.loc 7 12 5 is_stmt 1 view .LVU114
 601              	.LBB660:
 602              	.LBB661:
  12:fibre-cpp/include/fibre/../../stream_utils.hpp **** 
 603              		.loc 7 12 59 is_stmt 0 view .LVU115
 604 011e C2F80C33 		str	r3, [r2, #780]
 605 0122 C2F81033 		str	r3, [r2, #784]
 606 0126 82F81433 		strb	r3, [r2, #788]
 607 012a C2F81833 		str	r3, [r2, #792]
 608 012e C2F81C13 		str	r1, [r2, #796]
ARM GAS  /tmp/ccrmmslP.s 			page 39


 609              	.LVL45:
  12:fibre-cpp/include/fibre/../../stream_utils.hpp **** 
 610              		.loc 7 12 59 view .LVU116
 611              	.LBE661:
 612              	.LBE660:
 613              	.LBE659:
 614              	.LBE658:
 615              	.LBE657:
 616              	.LBE656:
 617              		.loc 1 237 1 view .LVU117
 618 0132 F0BC     		pop	{r4, r5, r6, r7}
 619              	.LCFI1:
 620              		.cfi_restore 7
 621              		.cfi_restore 6
 622              		.cfi_restore 5
 623              		.cfi_restore 4
 624              		.cfi_def_cfa_offset 0
 625 0134 7047     		bx	lr
 626              	.L14:
 627 0136 00BF     		.align	2
 628              	.L13:
 629 0138 00000000 		.word	.LANCHOR1
 630 013c 08000000 		.word	_ZTVN5fibre15AsyncStreamSinkE+8
 631 0140 08000000 		.word	.LANCHOR2+8
 632 0144 00000000 		.word	.LANCHOR3
 633 0148 00000000 		.word	.LANCHOR4
 634 014c 08000000 		.word	.LANCHOR5+8
 635 0150 00000000 		.word	.LANCHOR6
 636 0154 00000000 		.word	.LANCHOR7
 637 0158 08000000 		.word	_ZTVN5fibre13PacketWrapperE+8
 638 015c 00000000 		.word	.LANCHOR8
 639 0160 00000000 		.word	.LANCHOR0
 640 0164 08000000 		.word	_ZTVN5fibre26AsyncStreamSinkMultiplexerILj2EEE+8
 641 0168 00000000 		.word	.LANCHOR9
 642 016c 00000000 		.word	.LANCHOR10
 643 0170 08000000 		.word	_ZTVN5fibre17AsyncStreamSourceE+8
 644 0174 08000000 		.word	_ZTVN5fibre15PacketUnwrapperE+8
 645              		.cfi_endproc
 646              	.LFE6277:
 647              		.cantunwind
 648              		.fnend
 650              		.section	.text._ZN5fibre26AsyncStreamSinkMultiplexerILj2EE12cancel_writeEj,"axG",%progbits,_ZN5fib
 651              		.align	1
 652              		.weak	_ZN5fibre26AsyncStreamSinkMultiplexerILj2EE12cancel_writeEj
 653              		.syntax unified
 654              		.thumb
 655              		.thumb_func
 657              	_ZN5fibre26AsyncStreamSinkMultiplexerILj2EE12cancel_writeEj:
 658              		.fnstart
 659              	.LVL46:
 660              	.LFB6279:
 105:fibre-cpp/include/fibre/../../stream_utils.hpp **** 
 106:fibre-cpp/include/fibre/../../stream_utils.hpp ****     void start_write(cbufptr_t buffer, TransferHandle* handle, Callback<void, WriteResult> complete
 107:fibre-cpp/include/fibre/../../stream_utils.hpp ****         for (size_t i = 0; i < NSlots; ++i) {
 108:fibre-cpp/include/fibre/../../stream_utils.hpp ****             auto& [slot_in_use, slot_buf, slot_completer] = slots_[i];
 109:fibre-cpp/include/fibre/../../stream_utils.hpp ****             if (!__atomic_exchange_n(&slot_in_use, true, __ATOMIC_SEQ_CST)) {
 110:fibre-cpp/include/fibre/../../stream_utils.hpp ****                 slot_buf = buffer;
ARM GAS  /tmp/ccrmmslP.s 			page 40


 111:fibre-cpp/include/fibre/../../stream_utils.hpp ****                 slot_completer = completer;
 112:fibre-cpp/include/fibre/../../stream_utils.hpp **** 
 113:fibre-cpp/include/fibre/../../stream_utils.hpp ****                 if (handle) {
 114:fibre-cpp/include/fibre/../../stream_utils.hpp ****                     *handle = i + 1; // returning a valid handle of 0 is not a good idea
 115:fibre-cpp/include/fibre/../../stream_utils.hpp ****                 }
 116:fibre-cpp/include/fibre/../../stream_utils.hpp **** 
 117:fibre-cpp/include/fibre/../../stream_utils.hpp ****                 // If the underlying sink wasn't busy, start it now.
 118:fibre-cpp/include/fibre/../../stream_utils.hpp ****                 if (active_slot_ == 0) {
 119:fibre-cpp/include/fibre/../../stream_utils.hpp ****                     active_slot_ = i + 1;
 120:fibre-cpp/include/fibre/../../stream_utils.hpp ****                     sink_.start_write(slot_buf, &transfer_handle_, MEMBER_CB(this, on_write_complet
 121:fibre-cpp/include/fibre/../../stream_utils.hpp ****                 }
 122:fibre-cpp/include/fibre/../../stream_utils.hpp **** 
 123:fibre-cpp/include/fibre/../../stream_utils.hpp ****                 return;
 124:fibre-cpp/include/fibre/../../stream_utils.hpp ****             }
 125:fibre-cpp/include/fibre/../../stream_utils.hpp ****         }
 126:fibre-cpp/include/fibre/../../stream_utils.hpp **** 
 127:fibre-cpp/include/fibre/../../stream_utils.hpp ****         if (handle) {
 128:fibre-cpp/include/fibre/../../stream_utils.hpp ****             *handle = 0;
 129:fibre-cpp/include/fibre/../../stream_utils.hpp ****         }
 130:fibre-cpp/include/fibre/../../stream_utils.hpp ****         completer.invoke({kStreamError, buffer.begin()});
 131:fibre-cpp/include/fibre/../../stream_utils.hpp ****     }
 132:fibre-cpp/include/fibre/../../stream_utils.hpp **** 
 133:fibre-cpp/include/fibre/../../stream_utils.hpp ****     void cancel_write(TransferHandle transfer_handle) final {
 661              		.loc 7 133 10 is_stmt 1 view -0
 662              		.cfi_startproc
 663              		@ args = 0, pretend = 0, frame = 24
 664              		@ frame_needed = 0, uses_anonymous_args = 0
 665              		.loc 7 133 10 is_stmt 0 view .LVU119
 666 0000 30B5     		push	{r4, r5, lr}
 667              		.save {r4, r5, lr}
 668              	.LCFI2:
 669              		.cfi_def_cfa_offset 12
 670              		.cfi_offset 4, -12
 671              		.cfi_offset 5, -8
 672              		.cfi_offset 14, -4
 673              		.pad #28
 674 0002 87B0     		sub	sp, sp, #28
 675              	.LCFI3:
 676              		.cfi_def_cfa_offset 40
 677 0004 0346     		mov	r3, r0
 678              	.LBB662:
 134:fibre-cpp/include/fibre/../../stream_utils.hpp ****         if (transfer_handle == active_slot_) {
 679              		.loc 7 134 32 view .LVU120
 680 0006 026B     		ldr	r2, [r0, #48]
 681              		.loc 7 134 9 view .LVU121
 682 0008 8A42     		cmp	r2, r1
 683 000a 1FD0     		beq	.L20
 684              	.LBB663:
 135:fibre-cpp/include/fibre/../../stream_utils.hpp ****             // This transfer is the one that the underlying sink is busy with.
 136:fibre-cpp/include/fibre/../../stream_utils.hpp ****             sink_.cancel_write(transfer_handle_);
 137:fibre-cpp/include/fibre/../../stream_utils.hpp ****         } else {
 138:fibre-cpp/include/fibre/../../stream_utils.hpp ****             // This transfer is only enqueued but not yet started.
 139:fibre-cpp/include/fibre/../../stream_utils.hpp ****             auto& [slot_in_use, slot_buf, slot_completer] = slots_[transfer_handle - 1];
 685              		.loc 7 139 84 view .LVU122
 686 000c 0139     		subs	r1, r1, #1
 687              	.LVL47:
 688              		.loc 7 139 19 view .LVU123
ARM GAS  /tmp/ccrmmslP.s 			page 41


 689 000e 01EB8101 		add	r1, r1, r1, lsl #2
 690              	.LVL48:
 691              		.loc 7 139 19 view .LVU124
 692 0012 8900     		lsls	r1, r1, #2
 693 0014 0831     		adds	r1, r1, #8
 694 0016 4218     		adds	r2, r0, r1
 695              	.LVL49:
 696              	.LBB664:
 697              	.LBI664:
  22:fibre-cpp/include/fibre/callback.hpp ****     Callback(TRet(*callback)(void*, TArgs...), void* ctx) :
  23:fibre-cpp/include/fibre/callback.hpp ****         cb_(callback), ctx_(ctx) {}
  24:fibre-cpp/include/fibre/callback.hpp **** 
  25:fibre-cpp/include/fibre/callback.hpp ****     /**
  26:fibre-cpp/include/fibre/callback.hpp ****      * @brief Creates a copy of another Callback instance.
  27:fibre-cpp/include/fibre/callback.hpp ****      * 
  28:fibre-cpp/include/fibre/callback.hpp ****      * This is only works it the other callback has identical template parameters.
  29:fibre-cpp/include/fibre/callback.hpp ****      * This constructor is templated so that construction from an incompatible
  30:fibre-cpp/include/fibre/callback.hpp ****      * callback gives a useful error message.
  31:fibre-cpp/include/fibre/callback.hpp ****      */
  32:fibre-cpp/include/fibre/callback.hpp ****     //template<typename TRetOther, typename ... TArgsOther>
  33:fibre-cpp/include/fibre/callback.hpp ****     //Callback(const Callback<TRetOther, TArgsOther...>& other) : cb_(other.cb_), ctx_(other.ctx_) 
  34:fibre-cpp/include/fibre/callback.hpp ****     //    static_assert(std::is_same<Callback<TRetOther, TArgsOther...>, Callback>::value, "incompa
  35:fibre-cpp/include/fibre/callback.hpp ****     //}
  36:fibre-cpp/include/fibre/callback.hpp **** 
  37:fibre-cpp/include/fibre/callback.hpp ****     Callback(const Callback& other) : cb_(other.cb_), ctx_(other.ctx_) {}
 698              		.loc 3 37 5 is_stmt 1 view .LVU125
 699              	.LBB665:
 700              	.LBB666:
 701              		.loc 3 37 49 is_stmt 0 view .LVU126
 702 0018 4458     		ldr	r4, [r0, r1]
 703              		.loc 3 37 70 view .LVU127
 704 001a 0094     		str	r4, [sp]
 705              		.loc 3 37 66 view .LVU128
 706 001c 5568     		ldr	r5, [r2, #4]
 707              		.loc 3 37 70 view .LVU129
 708 001e 0195     		str	r5, [sp, #4]
 709              	.LVL50:
 710              		.loc 3 37 70 view .LVU130
 711              	.LBE666:
 712              	.LBE665:
 713              	.LBE664:
 140:fibre-cpp/include/fibre/../../stream_utils.hpp ****             auto completer = slot_completer;
 141:fibre-cpp/include/fibre/../../stream_utils.hpp ****             auto end = slot_buf.end();
 714              		.loc 7 141 18 view .LVU131
 715 0020 D168     		ldr	r1, [r2, #12]
 716              	.LVL51:
 142:fibre-cpp/include/fibre/../../stream_utils.hpp ****             slot_in_use = false;
 717              		.loc 7 142 25 view .LVU132
 718 0022 0023     		movs	r3, #0
 719 0024 1374     		strb	r3, [r2, #16]
 143:fibre-cpp/include/fibre/../../stream_utils.hpp ****             completer.invoke_and_clear({kStreamCancelled, end});
 720              		.loc 7 143 39 view .LVU133
 721 0026 0122     		movs	r2, #1
 722              	.LVL52:
 723              		.loc 7 143 39 view .LVU134
 724 0028 8DF81020 		strb	r2, [sp, #16]
 725 002c 0591     		str	r1, [sp, #20]
ARM GAS  /tmp/ccrmmslP.s 			page 42


 726              	.LVL53:
 727              		.loc 7 143 39 view .LVU135
 728 002e 02AA     		add	r2, sp, #8
 729 0030 06A9     		add	r1, sp, #24
 730              	.LVL54:
 731              		.loc 7 143 39 view .LVU136
 732 0032 11E90300 		ldmdb	r1, {r0, r1}
 733              	.LVL55:
 734              		.loc 7 143 39 view .LVU137
 735 0036 82E80300 		stm	r2, {r0, r1}
 736              	.LBB667:
 737              	.LBI667:
  38:fibre-cpp/include/fibre/callback.hpp **** 
  39:fibre-cpp/include/fibre/callback.hpp ****     // If you get a compile error "[...] invokes a deleted function" that points
  40:fibre-cpp/include/fibre/callback.hpp ****     // here then you're probably trying to assign a Callback with incompatible
  41:fibre-cpp/include/fibre/callback.hpp ****     // template arguments to another Callback.
  42:fibre-cpp/include/fibre/callback.hpp ****     template<typename TRetOther, typename ... TArgsOther>
  43:fibre-cpp/include/fibre/callback.hpp ****     Callback(const Callback<TRetOther, TArgsOther...>& other) = delete;
  44:fibre-cpp/include/fibre/callback.hpp **** 
  45:fibre-cpp/include/fibre/callback.hpp ****     /**
  46:fibre-cpp/include/fibre/callback.hpp ****      * @brief Constructs a callback object from a functor. The functor must
  47:fibre-cpp/include/fibre/callback.hpp ****      * remain allocated throughout the lifetime of the Callback.
  48:fibre-cpp/include/fibre/callback.hpp ****      */
  49:fibre-cpp/include/fibre/callback.hpp ****     template<typename TFunc>
  50:fibre-cpp/include/fibre/callback.hpp ****     Callback(const TFunc& func) :
  51:fibre-cpp/include/fibre/callback.hpp ****         cb_([](void* ctx, TArgs...args){
  52:fibre-cpp/include/fibre/callback.hpp ****             return (*(const TFunc*)ctx)(args...);
  53:fibre-cpp/include/fibre/callback.hpp ****         }), ctx_((void*)&func) {}
  54:fibre-cpp/include/fibre/callback.hpp **** 
  55:fibre-cpp/include/fibre/callback.hpp ****     operator bool() {
  56:fibre-cpp/include/fibre/callback.hpp ****         return cb_;
  57:fibre-cpp/include/fibre/callback.hpp ****     }
  58:fibre-cpp/include/fibre/callback.hpp ****     
  59:fibre-cpp/include/fibre/callback.hpp ****     TRet invoke(TArgs ... arg) const {
  60:fibre-cpp/include/fibre/callback.hpp ****         if (cb_) {
  61:fibre-cpp/include/fibre/callback.hpp ****             return (*cb_)(ctx_, arg...);
  62:fibre-cpp/include/fibre/callback.hpp ****         }
  63:fibre-cpp/include/fibre/callback.hpp ****         return detail::get_default<TRet>::val();
  64:fibre-cpp/include/fibre/callback.hpp ****     }
  65:fibre-cpp/include/fibre/callback.hpp **** 
  66:fibre-cpp/include/fibre/callback.hpp ****     TRet invoke_and_clear(TArgs ... arg) {
 738              		.loc 3 66 10 is_stmt 1 view .LVU138
 739              	.LVL56:
 740              	.LBB668:
  67:fibre-cpp/include/fibre/callback.hpp ****         void* ctx = ctx_;
  68:fibre-cpp/include/fibre/callback.hpp ****         auto cb = cb_;
  69:fibre-cpp/include/fibre/callback.hpp ****         ctx_ = nullptr;
 741              		.loc 3 69 14 is_stmt 0 view .LVU139
 742 003a 0193     		str	r3, [sp, #4]
  70:fibre-cpp/include/fibre/callback.hpp ****         cb_ = nullptr;
 743              		.loc 3 70 13 view .LVU140
 744 003c 0093     		str	r3, [sp]
  71:fibre-cpp/include/fibre/callback.hpp ****         if (cb) {
 745              		.loc 3 71 9 view .LVU141
 746 003e 1CB1     		cbz	r4, .L15
  72:fibre-cpp/include/fibre/callback.hpp ****             return (*cb)(ctx, arg...);
 747              		.loc 3 72 25 view .LVU142
ARM GAS  /tmp/ccrmmslP.s 			page 43


 748 0040 D2E90012 		ldrd	r1, r2, [r2]
 749 0044 2846     		mov	r0, r5
 750 0046 A047     		blx	r4
 751              	.LVL57:
 752              	.L15:
 753              		.loc 3 72 25 view .LVU143
 754              	.LBE668:
 755              	.LBE667:
 756              	.LBE663:
 757              	.LBE662:
 144:fibre-cpp/include/fibre/../../stream_utils.hpp ****         }
 145:fibre-cpp/include/fibre/../../stream_utils.hpp ****     }
 758              		.loc 7 145 5 view .LVU144
 759 0048 07B0     		add	sp, sp, #28
 760              	.LCFI4:
 761              		.cfi_remember_state
 762              		.cfi_def_cfa_offset 12
 763              		@ sp needed
 764 004a 30BD     		pop	{r4, r5, pc}
 765              	.LVL58:
 766              	.L20:
 767              	.LCFI5:
 768              		.cfi_restore_state
 769              	.LBB669:
 136:fibre-cpp/include/fibre/../../stream_utils.hpp ****         } else {
 770              		.loc 7 136 13 view .LVU145
 771 004c 4068     		ldr	r0, [r0, #4]
 772              	.LVL59:
 136:fibre-cpp/include/fibre/../../stream_utils.hpp ****         } else {
 773              		.loc 7 136 31 view .LVU146
 774 004e 0268     		ldr	r2, [r0]
 775 0050 5268     		ldr	r2, [r2, #4]
 776 0052 596B     		ldr	r1, [r3, #52]
 777              	.LVL60:
 136:fibre-cpp/include/fibre/../../stream_utils.hpp ****         } else {
 778              		.loc 7 136 31 view .LVU147
 779 0054 9047     		blx	r2
 780              	.LVL61:
 136:fibre-cpp/include/fibre/../../stream_utils.hpp ****         } else {
 781              		.loc 7 136 31 view .LVU148
 782 0056 F7E7     		b	.L15
 783              	.LBE669:
 784              		.cfi_endproc
 785              	.LFE6279:
 786              		.fnend
 788              		.section	.text._ZN5fibre16Stm32UsbTxStream11start_writeENS_16generic_bufptr_tIKhEEPjNS_8CallbackIv
 789              		.align	1
 790              		.global	_ZN5fibre16Stm32UsbTxStream11start_writeENS_16generic_bufptr_tIKhEEPjNS_8CallbackIvJNS_11W
 791              		.syntax unified
 792              		.thumb
 793              		.thumb_func
 795              	_ZN5fibre16Stm32UsbTxStream11start_writeENS_16generic_bufptr_tIKhEEPjNS_8CallbackIvJNS_11WriteResul
 796              		.fnstart
 797              	.LVL62:
 798              	.LFB5186:
  55:communication/interface_usb.cpp ****     if (handle) {
 799              		.loc 1 55 117 is_stmt 1 view -0
ARM GAS  /tmp/ccrmmslP.s 			page 44


 800              		.cfi_startproc
 801              		@ args = 4, pretend = 0, frame = 48
 802              		@ frame_needed = 0, uses_anonymous_args = 0
  55:communication/interface_usb.cpp ****     if (handle) {
 803              		.loc 1 55 117 is_stmt 0 view .LVU150
 804 0000 70B5     		push	{r4, r5, r6, lr}
 805              		.save {r4, r5, r6, lr}
 806              	.LCFI6:
 807              		.cfi_def_cfa_offset 16
 808              		.cfi_offset 4, -16
 809              		.cfi_offset 5, -12
 810              		.cfi_offset 6, -8
 811              		.cfi_offset 14, -4
 812              		.pad #48
 813 0002 8CB0     		sub	sp, sp, #48
 814              	.LCFI7:
 815              		.cfi_def_cfa_offset 64
 816 0004 0446     		mov	r4, r0
 817 0006 6846     		mov	r0, sp
 818              	.LVL63:
  55:communication/interface_usb.cpp ****     if (handle) {
 819              		.loc 1 55 117 view .LVU151
 820 0008 80E80600 		stm	r0, {r1, r2}
 821 000c 109D     		ldr	r5, [sp, #64]
  56:communication/interface_usb.cpp ****         *handle = reinterpret_cast<TransferHandle>(this);
 822              		.loc 1 56 5 is_stmt 1 view .LVU152
 823 000e 03B1     		cbz	r3, .L22
  57:communication/interface_usb.cpp ****     }
 824              		.loc 1 57 9 view .LVU153
  57:communication/interface_usb.cpp ****     }
 825              		.loc 1 57 17 is_stmt 0 view .LVU154
 826 0010 1C60     		str	r4, [r3]
 827              	.L22:
  60:communication/interface_usb.cpp ****         completer.invoke({kStreamClosed, buffer.begin()});
 828              		.loc 1 60 5 is_stmt 1 view .LVU155
  60:communication/interface_usb.cpp ****         completer.invoke({kStreamClosed, buffer.begin()});
 829              		.loc 1 60 10 is_stmt 0 view .LVU156
 830 0012 6379     		ldrb	r3, [r4, #5]	@ zero_extendqisi2
 831              	.LVL64:
  60:communication/interface_usb.cpp ****         completer.invoke({kStreamClosed, buffer.begin()});
 832              		.loc 1 60 5 view .LVU157
 833 0014 CBB1     		cbz	r3, .L33
  71:communication/interface_usb.cpp ****         completer.invoke({kStreamError, buffer.begin()});
 834              		.loc 1 71 5 is_stmt 1 view .LVU158
 835              	.LVL65:
 836              	.LBB670:
 837              	.LBI670:
  26:fibre-cpp/include/fibre/bufptr.hpp **** 
  27:fibre-cpp/include/fibre/bufptr.hpp ****     template<size_t I>
  28:fibre-cpp/include/fibre/bufptr.hpp ****     generic_bufptr_t(T (&begin)[I]) : generic_bufptr_t(begin, I) {}
  29:fibre-cpp/include/fibre/bufptr.hpp **** 
  30:fibre-cpp/include/fibre/bufptr.hpp ****     generic_bufptr_t(std::vector<typename std::remove_const<T>::type>& vector)
  31:fibre-cpp/include/fibre/bufptr.hpp ****         : generic_bufptr_t(vector.data(), vector.size()) {}
  32:fibre-cpp/include/fibre/bufptr.hpp **** 
  33:fibre-cpp/include/fibre/bufptr.hpp ****     generic_bufptr_t(const std::vector<typename std::remove_const<T>::type>& vector)
  34:fibre-cpp/include/fibre/bufptr.hpp ****         : generic_bufptr_t(vector.data(), vector.size()) {}
  35:fibre-cpp/include/fibre/bufptr.hpp **** 
ARM GAS  /tmp/ccrmmslP.s 			page 45


  36:fibre-cpp/include/fibre/bufptr.hpp ****     generic_bufptr_t(const generic_bufptr_t<typename std::remove_const<T>::type>& other)
  37:fibre-cpp/include/fibre/bufptr.hpp ****         : generic_bufptr_t(other.begin(), other.end()) {}
  38:fibre-cpp/include/fibre/bufptr.hpp **** 
  39:fibre-cpp/include/fibre/bufptr.hpp ****     generic_bufptr_t& operator+=(size_t num) {
  40:fibre-cpp/include/fibre/bufptr.hpp ****         if (!soft_assert(num <= size())) {
  41:fibre-cpp/include/fibre/bufptr.hpp ****             num = size();
  42:fibre-cpp/include/fibre/bufptr.hpp ****         }
  43:fibre-cpp/include/fibre/bufptr.hpp ****         begin_ += num;
  44:fibre-cpp/include/fibre/bufptr.hpp ****         return *this;
  45:fibre-cpp/include/fibre/bufptr.hpp ****     }
  46:fibre-cpp/include/fibre/bufptr.hpp **** 
  47:fibre-cpp/include/fibre/bufptr.hpp ****     generic_bufptr_t operator++(int) {
  48:fibre-cpp/include/fibre/bufptr.hpp ****         generic_bufptr_t result = *this;
  49:fibre-cpp/include/fibre/bufptr.hpp ****         *this += 1;
  50:fibre-cpp/include/fibre/bufptr.hpp ****         return result;
  51:fibre-cpp/include/fibre/bufptr.hpp ****     }
  52:fibre-cpp/include/fibre/bufptr.hpp **** 
  53:fibre-cpp/include/fibre/bufptr.hpp ****     T& operator*() {
  54:fibre-cpp/include/fibre/bufptr.hpp ****         return *begin_;
  55:fibre-cpp/include/fibre/bufptr.hpp ****     }
  56:fibre-cpp/include/fibre/bufptr.hpp **** 
  57:fibre-cpp/include/fibre/bufptr.hpp ****     generic_bufptr_t take(size_t num) const {
  58:fibre-cpp/include/fibre/bufptr.hpp ****         if (!soft_assert(num <= size())) {
  59:fibre-cpp/include/fibre/bufptr.hpp ****             num = size();
  60:fibre-cpp/include/fibre/bufptr.hpp ****         }
  61:fibre-cpp/include/fibre/bufptr.hpp ****         generic_bufptr_t result = {begin_, num};
  62:fibre-cpp/include/fibre/bufptr.hpp ****         return result;
  63:fibre-cpp/include/fibre/bufptr.hpp ****     }
  64:fibre-cpp/include/fibre/bufptr.hpp **** 
  65:fibre-cpp/include/fibre/bufptr.hpp ****     generic_bufptr_t skip(size_t num, size_t* processed_bytes = nullptr) const {
  66:fibre-cpp/include/fibre/bufptr.hpp ****         if (!soft_assert(num <= size())) {
  67:fibre-cpp/include/fibre/bufptr.hpp ****             num = size();
  68:fibre-cpp/include/fibre/bufptr.hpp ****         }
  69:fibre-cpp/include/fibre/bufptr.hpp ****         if (processed_bytes)
  70:fibre-cpp/include/fibre/bufptr.hpp ****             (*processed_bytes) += num;
  71:fibre-cpp/include/fibre/bufptr.hpp ****         return {begin_ + num, end_};
  72:fibre-cpp/include/fibre/bufptr.hpp ****     }
  73:fibre-cpp/include/fibre/bufptr.hpp **** 
  74:fibre-cpp/include/fibre/bufptr.hpp ****     size_t size() const {
 838              		.loc 5 74 12 view .LVU159
 839              	.LBB671:
  75:fibre-cpp/include/fibre/bufptr.hpp ****         return end_ - begin_;
 840              		.loc 5 75 16 is_stmt 0 view .LVU160
 841 0016 019A     		ldr	r2, [sp, #4]
 842              		.loc 5 75 23 view .LVU161
 843 0018 009E     		ldr	r6, [sp]
 844              		.loc 5 75 21 view .LVU162
 845 001a 931B     		subs	r3, r2, r6
 846              	.LVL66:
 847              		.loc 5 75 21 view .LVU163
 848              	.LBE671:
 849              	.LBE670:
  71:communication/interface_usb.cpp ****         completer.invoke({kStreamError, buffer.begin()});
 850              		.loc 1 71 5 view .LVU164
 851 001c 3F2B     		cmp	r3, #63
 852 001e 27D8     		bhi	.L34
  76:communication/interface_usb.cpp ****         completer.invoke({kStreamError, buffer.begin()});
ARM GAS  /tmp/ccrmmslP.s 			page 46


 853              		.loc 1 76 5 is_stmt 1 view .LVU165
 854              	.LVL67:
 855              	.LBB672:
 856              	.LBI672:
  55:fibre-cpp/include/fibre/callback.hpp ****         return cb_;
 857              		.loc 3 55 5 view .LVU166
 858              	.LBB673:
  56:fibre-cpp/include/fibre/callback.hpp ****     }
 859              		.loc 3 56 16 is_stmt 0 view .LVU167
 860 0020 A168     		ldr	r1, [r4, #8]
 861              	.LVL68:
  56:fibre-cpp/include/fibre/callback.hpp ****     }
 862              		.loc 3 56 16 view .LVU168
 863              	.LBE673:
 864              	.LBE672:
  76:communication/interface_usb.cpp ****         completer.invoke({kStreamError, buffer.begin()});
 865              		.loc 1 76 20 view .LVU169
 866 0022 0029     		cmp	r1, #0
 867 0024 36D0     		beq	.L35
 868              	.L28:
  77:communication/interface_usb.cpp ****         return;
 869              		.loc 1 77 9 is_stmt 1 view .LVU170
  77:communication/interface_usb.cpp ****         return;
 870              		.loc 1 77 25 is_stmt 0 view .LVU171
 871 0026 0323     		movs	r3, #3
 872 0028 8DF82030 		strb	r3, [sp, #32]
 873 002c 0996     		str	r6, [sp, #36]
 874              	.LVL69:
  77:communication/interface_usb.cpp ****         return;
 875              		.loc 1 77 25 view .LVU172
 876 002e 02AB     		add	r3, sp, #8
 877 0030 08AA     		add	r2, sp, #32
 878 0032 92E80300 		ldm	r2, {r0, r1}
 879 0036 83E80300 		stm	r3, {r0, r1}
 880              	.LBB674:
 881              	.LBI674:
  59:fibre-cpp/include/fibre/callback.hpp ****         if (cb_) {
 882              		.loc 3 59 10 is_stmt 1 view .LVU173
 883              	.LBB675:
  60:fibre-cpp/include/fibre/callback.hpp ****             return (*cb_)(ctx_, arg...);
 884              		.loc 3 60 13 is_stmt 0 view .LVU174
 885 003a 2B68     		ldr	r3, [r5]
  60:fibre-cpp/include/fibre/callback.hpp ****             return (*cb_)(ctx_, arg...);
 886              		.loc 3 60 9 view .LVU175
 887 003c 1BB1     		cbz	r3, .L21
  61:fibre-cpp/include/fibre/callback.hpp ****         }
 888              		.loc 3 61 22 view .LVU176
 889 003e 02AA     		add	r2, sp, #8
 890 0040 06CA     		ldm	r2, {r1, r2}
 891 0042 6868     		ldr	r0, [r5, #4]
 892 0044 9847     		blx	r3
 893              	.LVL70:
  61:fibre-cpp/include/fibre/callback.hpp ****         }
 894              		.loc 3 61 22 view .LVU177
 895              	.LBE675:
 896              	.LBE674:
  78:communication/interface_usb.cpp ****     }
ARM GAS  /tmp/ccrmmslP.s 			page 47


 897              		.loc 1 78 9 is_stmt 1 view .LVU178
 898              	.L21:
  96:communication/interface_usb.cpp **** 
 899              		.loc 1 96 1 is_stmt 0 view .LVU179
 900 0046 0CB0     		add	sp, sp, #48
 901              	.LCFI8:
 902              		.cfi_remember_state
 903              		.cfi_def_cfa_offset 16
 904              		@ sp needed
 905 0048 70BD     		pop	{r4, r5, r6, pc}
 906              	.LVL71:
 907              	.L33:
 908              	.LCFI9:
 909              		.cfi_restore_state
  61:communication/interface_usb.cpp ****         return;
 910              		.loc 1 61 9 is_stmt 1 view .LVU180
  61:communication/interface_usb.cpp ****         return;
 911              		.loc 1 61 25 is_stmt 0 view .LVU181
 912 004a 0223     		movs	r3, #2
 913 004c 8DF81030 		strb	r3, [sp, #16]
  61:communication/interface_usb.cpp ****         return;
 914              		.loc 1 61 54 view .LVU182
 915 0050 009B     		ldr	r3, [sp]
  61:communication/interface_usb.cpp ****         return;
 916              		.loc 1 61 25 view .LVU183
 917 0052 0593     		str	r3, [sp, #20]
 918              	.LVL72:
  61:communication/interface_usb.cpp ****         return;
 919              		.loc 1 61 25 view .LVU184
 920 0054 02AB     		add	r3, sp, #8
 921 0056 04AA     		add	r2, sp, #16
 922 0058 92E80300 		ldm	r2, {r0, r1}
 923 005c 83E80300 		stm	r3, {r0, r1}
 924              	.LBB676:
 925              	.LBI676:
  59:fibre-cpp/include/fibre/callback.hpp ****         if (cb_) {
 926              		.loc 3 59 10 is_stmt 1 view .LVU185
 927              	.LBB677:
  60:fibre-cpp/include/fibre/callback.hpp ****             return (*cb_)(ctx_, arg...);
 928              		.loc 3 60 13 is_stmt 0 view .LVU186
 929 0060 2B68     		ldr	r3, [r5]
  60:fibre-cpp/include/fibre/callback.hpp ****             return (*cb_)(ctx_, arg...);
 930              		.loc 3 60 9 view .LVU187
 931 0062 002B     		cmp	r3, #0
 932 0064 EFD0     		beq	.L21
  61:fibre-cpp/include/fibre/callback.hpp ****         }
 933              		.loc 3 61 22 view .LVU188
 934 0066 02AA     		add	r2, sp, #8
 935 0068 06CA     		ldm	r2, {r1, r2}
 936 006a 6868     		ldr	r0, [r5, #4]
 937 006c 9847     		blx	r3
 938              	.LVL73:
  61:fibre-cpp/include/fibre/callback.hpp ****         }
 939              		.loc 3 61 22 view .LVU189
 940              	.LBE677:
 941              	.LBE676:
  62:communication/interface_usb.cpp ****     }
ARM GAS  /tmp/ccrmmslP.s 			page 48


 942              		.loc 1 62 9 is_stmt 1 view .LVU190
 943 006e EAE7     		b	.L21
 944              	.L34:
  72:communication/interface_usb.cpp ****         return;
 945              		.loc 1 72 9 view .LVU191
  72:communication/interface_usb.cpp ****         return;
 946              		.loc 1 72 25 is_stmt 0 view .LVU192
 947 0070 0323     		movs	r3, #3
 948 0072 8DF81830 		strb	r3, [sp, #24]
 949 0076 0796     		str	r6, [sp, #28]
 950              	.LVL74:
  72:communication/interface_usb.cpp ****         return;
 951              		.loc 1 72 25 view .LVU193
 952 0078 02AB     		add	r3, sp, #8
 953 007a 06AA     		add	r2, sp, #24
 954 007c 92E80300 		ldm	r2, {r0, r1}
 955 0080 83E80300 		stm	r3, {r0, r1}
 956              	.LBB678:
 957              	.LBI678:
  59:fibre-cpp/include/fibre/callback.hpp ****         if (cb_) {
 958              		.loc 3 59 10 is_stmt 1 view .LVU194
 959              	.LBB679:
  60:fibre-cpp/include/fibre/callback.hpp ****             return (*cb_)(ctx_, arg...);
 960              		.loc 3 60 13 is_stmt 0 view .LVU195
 961 0084 2B68     		ldr	r3, [r5]
  60:fibre-cpp/include/fibre/callback.hpp ****             return (*cb_)(ctx_, arg...);
 962              		.loc 3 60 9 view .LVU196
 963 0086 002B     		cmp	r3, #0
 964 0088 DDD0     		beq	.L21
  61:fibre-cpp/include/fibre/callback.hpp ****         }
 965              		.loc 3 61 22 view .LVU197
 966 008a 02AA     		add	r2, sp, #8
 967 008c 06CA     		ldm	r2, {r1, r2}
 968 008e 6868     		ldr	r0, [r5, #4]
 969 0090 9847     		blx	r3
 970              	.LVL75:
  61:fibre-cpp/include/fibre/callback.hpp ****         }
 971              		.loc 3 61 22 view .LVU198
 972              	.LBE679:
 973              	.LBE678:
  73:communication/interface_usb.cpp ****     }
 974              		.loc 1 73 9 is_stmt 1 view .LVU199
 975 0092 D8E7     		b	.L21
 976              	.L35:
  76:communication/interface_usb.cpp ****         completer.invoke({kStreamError, buffer.begin()});
 977              		.loc 1 76 23 is_stmt 0 discriminator 2 view .LVU200
 978 0094 2169     		ldr	r1, [r4, #16]
  76:communication/interface_usb.cpp ****         completer.invoke({kStreamError, buffer.begin()});
 979              		.loc 1 76 20 discriminator 2 view .LVU201
 980 0096 0029     		cmp	r1, #0
 981 0098 C5D1     		bne	.L28
  81:communication/interface_usb.cpp ****     tx_end_ = buffer.end();
 982              		.loc 1 81 5 is_stmt 1 view .LVU202
  81:communication/interface_usb.cpp ****     tx_end_ = buffer.end();
 983              		.loc 1 81 16 is_stmt 0 view .LVU203
 984 009a 04F1080C 		add	ip, r4, #8
 985 009e 95E80300 		ldm	r5, {r0, r1}
ARM GAS  /tmp/ccrmmslP.s 			page 49


 986 00a2 CCE90001 		strd	r0, r1, [ip]
  82:communication/interface_usb.cpp **** 
 987              		.loc 1 82 5 is_stmt 1 view .LVU204
  82:communication/interface_usb.cpp **** 
 988              		.loc 1 82 13 is_stmt 0 view .LVU205
 989 00a6 2261     		str	r2, [r4, #16]
  84:communication/interface_usb.cpp **** #if HW_VERSION_MAJOR == 3 // TODO: remove preprocessor switch
 990              		.loc 1 84 5 is_stmt 1 view .LVU206
  92:communication/interface_usb.cpp ****         tx_end_ = nullptr;
 991              		.loc 1 92 9 is_stmt 0 view .LVU207
 992 00a8 2279     		ldrb	r2, [r4, #4]	@ zero_extendqisi2
 993 00aa 99B2     		uxth	r1, r3
 994 00ac 3046     		mov	r0, r6
 995 00ae FFF7FEFF 		bl	CDC_Transmit_FS
 996              	.LVL76:
  84:communication/interface_usb.cpp **** #if HW_VERSION_MAJOR == 3 // TODO: remove preprocessor switch
 997              		.loc 1 84 5 view .LVU208
 998 00b2 0028     		cmp	r0, #0
 999 00b4 C7D0     		beq	.L21
  93:communication/interface_usb.cpp ****         completer_.invoke_and_clear({kStreamError, buffer.begin()});
 1000              		.loc 1 93 9 is_stmt 1 view .LVU209
  93:communication/interface_usb.cpp ****         completer_.invoke_and_clear({kStreamError, buffer.begin()});
 1001              		.loc 1 93 17 is_stmt 0 view .LVU210
 1002 00b6 0023     		movs	r3, #0
 1003 00b8 2361     		str	r3, [r4, #16]
  94:communication/interface_usb.cpp ****     }
 1004              		.loc 1 94 9 is_stmt 1 view .LVU211
  94:communication/interface_usb.cpp ****     }
 1005              		.loc 1 94 36 is_stmt 0 view .LVU212
 1006 00ba 0322     		movs	r2, #3
 1007 00bc 8DF82820 		strb	r2, [sp, #40]
 1008 00c0 0B96     		str	r6, [sp, #44]
 1009              	.LVL77:
  94:communication/interface_usb.cpp ****     }
 1010              		.loc 1 94 36 view .LVU213
 1011 00c2 02AA     		add	r2, sp, #8
 1012 00c4 0CA9     		add	r1, sp, #48
 1013 00c6 11E90300 		ldmdb	r1, {r0, r1}
 1014 00ca 82E80300 		stm	r2, {r0, r1}
 1015              	.LBB680:
 1016              	.LBI680:
  66:fibre-cpp/include/fibre/callback.hpp ****         void* ctx = ctx_;
 1017              		.loc 3 66 10 is_stmt 1 view .LVU214
 1018              	.LBB681:
  67:fibre-cpp/include/fibre/callback.hpp ****         auto cb = cb_;
 1019              		.loc 3 67 15 is_stmt 0 view .LVU215
 1020 00ce E068     		ldr	r0, [r4, #12]
 1021              	.LVL78:
  68:fibre-cpp/include/fibre/callback.hpp ****         ctx_ = nullptr;
 1022              		.loc 3 68 14 view .LVU216
 1023 00d0 A568     		ldr	r5, [r4, #8]
 1024              	.LVL79:
  69:fibre-cpp/include/fibre/callback.hpp ****         cb_ = nullptr;
 1025              		.loc 3 69 14 view .LVU217
 1026 00d2 E360     		str	r3, [r4, #12]
  70:fibre-cpp/include/fibre/callback.hpp ****         if (cb) {
 1027              		.loc 3 70 13 view .LVU218
ARM GAS  /tmp/ccrmmslP.s 			page 50


 1028 00d4 A360     		str	r3, [r4, #8]
  71:fibre-cpp/include/fibre/callback.hpp ****             return (*cb)(ctx, arg...);
 1029              		.loc 3 71 9 view .LVU219
 1030 00d6 002D     		cmp	r5, #0
 1031 00d8 B5D0     		beq	.L21
 1032              		.loc 3 72 25 view .LVU220
 1033 00da D2E90012 		ldrd	r1, r2, [r2]
 1034 00de A847     		blx	r5
 1035              	.LVL80:
 1036              		.loc 3 72 37 view .LVU221
 1037 00e0 B1E7     		b	.L21
 1038              	.LBE681:
 1039              	.LBE680:
 1040              		.cfi_endproc
 1041              	.LFE5186:
 1042              		.fnend
 1044              		.section	.text._ZN5fibre16Stm32UsbRxStream10start_readENS_16generic_bufptr_tIhEEPjNS_8CallbackIvJN
 1045              		.align	1
 1046              		.global	_ZN5fibre16Stm32UsbRxStream10start_readENS_16generic_bufptr_tIhEEPjNS_8CallbackIvJNS_10Rea
 1047              		.syntax unified
 1048              		.thumb
 1049              		.thumb_func
 1051              	_ZN5fibre16Stm32UsbRxStream10start_readENS_16generic_bufptr_tIhEEPjNS_8CallbackIvJNS_10ReadResultEE
 1052              		.fnstart
 1053              	.LVL81:
 1054              	.LFB5189:
 108:communication/interface_usb.cpp ****     if (handle) {
 1055              		.loc 1 108 114 is_stmt 1 view -0
 1056              		.cfi_startproc
 1057              		@ args = 0, pretend = 0, frame = 32
 1058              		@ frame_needed = 0, uses_anonymous_args = 0
 108:communication/interface_usb.cpp ****     if (handle) {
 1059              		.loc 1 108 114 is_stmt 0 view .LVU223
 1060 0000 30B5     		push	{r4, r5, lr}
 1061              		.save {r4, r5, lr}
 1062              	.LCFI10:
 1063              		.cfi_def_cfa_offset 12
 1064              		.cfi_offset 4, -12
 1065              		.cfi_offset 5, -8
 1066              		.cfi_offset 14, -4
 1067              		.pad #36
 1068 0002 89B0     		sub	sp, sp, #36
 1069              	.LCFI11:
 1070              		.cfi_def_cfa_offset 48
 1071 0004 0446     		mov	r4, r0
 1072 0006 0D46     		mov	r5, r1
 109:communication/interface_usb.cpp ****         *handle = reinterpret_cast<TransferHandle>(this);
 1073              		.loc 1 109 5 is_stmt 1 view .LVU224
 1074 0008 02B1     		cbz	r2, .L37
 110:communication/interface_usb.cpp ****     }
 1075              		.loc 1 110 9 view .LVU225
 110:communication/interface_usb.cpp ****     }
 1076              		.loc 1 110 17 is_stmt 0 view .LVU226
 1077 000a 1060     		str	r0, [r2]
 1078              	.L37:
 113:communication/interface_usb.cpp ****         completer.invoke({kStreamClosed, buffer.begin()});
 1079              		.loc 1 113 5 is_stmt 1 view .LVU227
ARM GAS  /tmp/ccrmmslP.s 			page 51


 113:communication/interface_usb.cpp ****         completer.invoke({kStreamClosed, buffer.begin()});
 1080              		.loc 1 113 10 is_stmt 0 view .LVU228
 1081 000c 6279     		ldrb	r2, [r4, #5]	@ zero_extendqisi2
 1082              	.LVL82:
 113:communication/interface_usb.cpp ****         completer.invoke({kStreamClosed, buffer.begin()});
 1083              		.loc 1 113 5 view .LVU229
 1084 000e 92B1     		cbz	r2, .L46
 118:communication/interface_usb.cpp ****         completer.invoke({kStreamError, buffer.begin()});
 1085              		.loc 1 118 5 is_stmt 1 view .LVU230
 1086              	.LVL83:
 1087              	.LBB682:
 1088              	.LBI682:
  55:fibre-cpp/include/fibre/callback.hpp ****         return cb_;
 1089              		.loc 3 55 5 view .LVU231
 1090              	.LBB683:
  56:fibre-cpp/include/fibre/callback.hpp ****     }
 1091              		.loc 3 56 16 is_stmt 0 view .LVU232
 1092 0010 A268     		ldr	r2, [r4, #8]
 1093              	.LVL84:
  56:fibre-cpp/include/fibre/callback.hpp ****     }
 1094              		.loc 3 56 16 view .LVU233
 1095              	.LBE683:
 1096              	.LBE682:
 118:communication/interface_usb.cpp ****         completer.invoke({kStreamError, buffer.begin()});
 1097              		.loc 1 118 20 view .LVU234
 1098 0012 0AB3     		cbz	r2, .L47
 1099              	.L41:
 119:communication/interface_usb.cpp ****         return;
 1100              		.loc 1 119 9 is_stmt 1 view .LVU235
 119:communication/interface_usb.cpp ****         return;
 1101              		.loc 1 119 25 is_stmt 0 view .LVU236
 1102 0014 0322     		movs	r2, #3
 1103 0016 8DF81020 		strb	r2, [sp, #16]
 119:communication/interface_usb.cpp ****         return;
 1104              		.loc 1 119 53 view .LVU237
 1105 001a 2A68     		ldr	r2, [r5]
 119:communication/interface_usb.cpp ****         return;
 1106              		.loc 1 119 25 view .LVU238
 1107 001c 0592     		str	r2, [sp, #20]
 1108              	.LVL85:
 119:communication/interface_usb.cpp ****         return;
 1109              		.loc 1 119 25 view .LVU239
 1110 001e 6A46     		mov	r2, sp
 1111 0020 04A9     		add	r1, sp, #16
 1112              	.LVL86:
 119:communication/interface_usb.cpp ****         return;
 1113              		.loc 1 119 25 view .LVU240
 1114 0022 03C9     		ldm	r1, {r0, r1}
 1115              	.LVL87:
 119:communication/interface_usb.cpp ****         return;
 1116              		.loc 1 119 25 view .LVU241
 1117 0024 82E80300 		stm	r2, {r0, r1}
 1118              	.LBB684:
 1119              	.LBI684:
  59:fibre-cpp/include/fibre/callback.hpp ****         if (cb_) {
 1120              		.loc 3 59 10 is_stmt 1 view .LVU242
 1121              	.LBB685:
ARM GAS  /tmp/ccrmmslP.s 			page 52


  60:fibre-cpp/include/fibre/callback.hpp ****             return (*cb_)(ctx_, arg...);
 1122              		.loc 3 60 13 is_stmt 0 view .LVU243
 1123 0028 1C68     		ldr	r4, [r3]
 1124              	.LVL88:
  60:fibre-cpp/include/fibre/callback.hpp ****             return (*cb_)(ctx_, arg...);
 1125              		.loc 3 60 9 view .LVU244
 1126 002a 14B1     		cbz	r4, .L36
  61:fibre-cpp/include/fibre/callback.hpp ****         }
 1127              		.loc 3 61 22 view .LVU245
 1128 002c 06CA     		ldm	r2, {r1, r2}
 1129 002e 5868     		ldr	r0, [r3, #4]
 1130 0030 A047     		blx	r4
 1131              	.LVL89:
  61:fibre-cpp/include/fibre/callback.hpp ****         }
 1132              		.loc 3 61 22 view .LVU246
 1133              	.LBE685:
 1134              	.LBE684:
 120:communication/interface_usb.cpp ****     }
 1135              		.loc 1 120 9 is_stmt 1 view .LVU247
 1136              	.L36:
 131:communication/interface_usb.cpp **** 
 1137              		.loc 1 131 1 is_stmt 0 view .LVU248
 1138 0032 09B0     		add	sp, sp, #36
 1139              	.LCFI12:
 1140              		.cfi_remember_state
 1141              		.cfi_def_cfa_offset 12
 1142              		@ sp needed
 1143 0034 30BD     		pop	{r4, r5, pc}
 1144              	.LVL90:
 1145              	.L46:
 1146              	.LCFI13:
 1147              		.cfi_restore_state
 114:communication/interface_usb.cpp ****         return;
 1148              		.loc 1 114 9 is_stmt 1 view .LVU249
 114:communication/interface_usb.cpp ****         return;
 1149              		.loc 1 114 25 is_stmt 0 view .LVU250
 1150 0036 0222     		movs	r2, #2
 1151 0038 8DF80820 		strb	r2, [sp, #8]
 114:communication/interface_usb.cpp ****         return;
 1152              		.loc 1 114 54 view .LVU251
 1153 003c 2A68     		ldr	r2, [r5]
 114:communication/interface_usb.cpp ****         return;
 1154              		.loc 1 114 25 view .LVU252
 1155 003e 0392     		str	r2, [sp, #12]
 1156              	.LVL91:
 114:communication/interface_usb.cpp ****         return;
 1157              		.loc 1 114 25 view .LVU253
 1158 0040 6A46     		mov	r2, sp
 1159 0042 02A9     		add	r1, sp, #8
 1160              	.LVL92:
 114:communication/interface_usb.cpp ****         return;
 1161              		.loc 1 114 25 view .LVU254
 1162 0044 03C9     		ldm	r1, {r0, r1}
 1163              	.LVL93:
 114:communication/interface_usb.cpp ****         return;
 1164              		.loc 1 114 25 view .LVU255
 1165 0046 82E80300 		stm	r2, {r0, r1}
ARM GAS  /tmp/ccrmmslP.s 			page 53


 1166              	.LBB686:
 1167              	.LBI686:
  59:fibre-cpp/include/fibre/callback.hpp ****         if (cb_) {
 1168              		.loc 3 59 10 is_stmt 1 view .LVU256
 1169              	.LBB687:
  60:fibre-cpp/include/fibre/callback.hpp ****             return (*cb_)(ctx_, arg...);
 1170              		.loc 3 60 13 is_stmt 0 view .LVU257
 1171 004a 1C68     		ldr	r4, [r3]
 1172              	.LVL94:
  60:fibre-cpp/include/fibre/callback.hpp ****             return (*cb_)(ctx_, arg...);
 1173              		.loc 3 60 9 view .LVU258
 1174 004c 002C     		cmp	r4, #0
 1175 004e F0D0     		beq	.L36
  61:fibre-cpp/include/fibre/callback.hpp ****         }
 1176              		.loc 3 61 22 view .LVU259
 1177 0050 06CA     		ldm	r2, {r1, r2}
 1178 0052 5868     		ldr	r0, [r3, #4]
 1179 0054 A047     		blx	r4
 1180              	.LVL95:
  61:fibre-cpp/include/fibre/callback.hpp ****         }
 1181              		.loc 3 61 22 view .LVU260
 1182              	.LBE687:
 1183              	.LBE686:
 115:communication/interface_usb.cpp ****     }
 1184              		.loc 1 115 9 is_stmt 1 view .LVU261
 1185 0056 ECE7     		b	.L36
 1186              	.LVL96:
 1187              	.L47:
 118:communication/interface_usb.cpp ****         completer.invoke({kStreamError, buffer.begin()});
 1188              		.loc 1 118 23 is_stmt 0 discriminator 2 view .LVU262
 1189 0058 2269     		ldr	r2, [r4, #16]
 118:communication/interface_usb.cpp ****         completer.invoke({kStreamError, buffer.begin()});
 1190              		.loc 1 118 20 discriminator 2 view .LVU263
 1191 005a 002A     		cmp	r2, #0
 1192 005c DAD1     		bne	.L41
 123:communication/interface_usb.cpp ****     rx_end_ = buffer.begin(); // the pointer is updated at the end of the transfer
 1193              		.loc 1 123 5 is_stmt 1 view .LVU264
 123:communication/interface_usb.cpp ****     rx_end_ = buffer.begin(); // the pointer is updated at the end of the transfer
 1194              		.loc 1 123 16 is_stmt 0 view .LVU265
 1195 005e 04F10802 		add	r2, r4, #8
 1196 0062 93E80300 		ldm	r3, {r0, r1}
 1197              	.LVL97:
 123:communication/interface_usb.cpp ****     rx_end_ = buffer.begin(); // the pointer is updated at the end of the transfer
 1198              		.loc 1 123 16 view .LVU266
 1199 0066 C2E90001 		strd	r0, r1, [r2]
 124:communication/interface_usb.cpp **** 
 1200              		.loc 1 124 5 is_stmt 1 view .LVU267
 124:communication/interface_usb.cpp **** 
 1201              		.loc 1 124 27 is_stmt 0 view .LVU268
 1202 006a 2968     		ldr	r1, [r5]
 124:communication/interface_usb.cpp **** 
 1203              		.loc 1 124 13 view .LVU269
 1204 006c 2161     		str	r1, [r4, #16]
 126:communication/interface_usb.cpp ****         rx_end_ = nullptr;
 1205              		.loc 1 126 5 is_stmt 1 view .LVU270
 1206              	.LVL98:
 1207              	.LBB688:
ARM GAS  /tmp/ccrmmslP.s 			page 54


 1208              	.LBI688:
  74:fibre-cpp/include/fibre/bufptr.hpp ****         return end_ - begin_;
 1209              		.loc 5 74 12 view .LVU271
 1210              	.LBB689:
 1211              		.loc 5 75 16 is_stmt 0 view .LVU272
 1212 006e 6A68     		ldr	r2, [r5, #4]
 1213              		.loc 5 75 21 view .LVU273
 1214 0070 521A     		subs	r2, r2, r1
 1215              	.LVL99:
 1216              		.loc 5 75 21 view .LVU274
 1217              	.LBE689:
 1218              	.LBE688:
 126:communication/interface_usb.cpp ****         rx_end_ = nullptr;
 1219              		.loc 1 126 31 view .LVU275
 1220 0072 2379     		ldrb	r3, [r4, #4]	@ zero_extendqisi2
 1221              	.LVL100:
 126:communication/interface_usb.cpp ****         rx_end_ = nullptr;
 1222              		.loc 1 126 31 view .LVU276
 1223 0074 92B2     		uxth	r2, r2
 1224 0076 0E48     		ldr	r0, .L48
 1225 0078 0068     		ldr	r0, [r0]
 1226 007a FFF7FEFF 		bl	USBD_CDC_ReceivePacket
 1227              	.LVL101:
 126:communication/interface_usb.cpp ****         rx_end_ = nullptr;
 1228              		.loc 1 126 5 view .LVU277
 1229 007e 0028     		cmp	r0, #0
 1230 0080 D7D0     		beq	.L36
 127:communication/interface_usb.cpp ****         completer_.invoke_and_clear({kStreamError, buffer.begin()});
 1231              		.loc 1 127 9 is_stmt 1 view .LVU278
 127:communication/interface_usb.cpp ****         completer_.invoke_and_clear({kStreamError, buffer.begin()});
 1232              		.loc 1 127 17 is_stmt 0 view .LVU279
 1233 0082 0023     		movs	r3, #0
 1234 0084 2361     		str	r3, [r4, #16]
 128:communication/interface_usb.cpp ****         return;
 1235              		.loc 1 128 9 is_stmt 1 view .LVU280
 128:communication/interface_usb.cpp ****         return;
 1236              		.loc 1 128 36 is_stmt 0 view .LVU281
 1237 0086 0322     		movs	r2, #3
 1238 0088 8DF81820 		strb	r2, [sp, #24]
 128:communication/interface_usb.cpp ****         return;
 1239              		.loc 1 128 64 view .LVU282
 1240 008c 2A68     		ldr	r2, [r5]
 128:communication/interface_usb.cpp ****         return;
 1241              		.loc 1 128 36 view .LVU283
 1242 008e 0792     		str	r2, [sp, #28]
 1243              	.LVL102:
 128:communication/interface_usb.cpp ****         return;
 1244              		.loc 1 128 36 view .LVU284
 1245 0090 6A46     		mov	r2, sp
 1246 0092 08A9     		add	r1, sp, #32
 1247 0094 11E90300 		ldmdb	r1, {r0, r1}
 1248 0098 82E80300 		stm	r2, {r0, r1}
 1249              	.LBB690:
 1250              	.LBI690:
  66:fibre-cpp/include/fibre/callback.hpp ****         void* ctx = ctx_;
 1251              		.loc 3 66 10 is_stmt 1 view .LVU285
 1252              	.LBB691:
ARM GAS  /tmp/ccrmmslP.s 			page 55


  67:fibre-cpp/include/fibre/callback.hpp ****         auto cb = cb_;
 1253              		.loc 3 67 15 is_stmt 0 view .LVU286
 1254 009c E068     		ldr	r0, [r4, #12]
 1255              	.LVL103:
  68:fibre-cpp/include/fibre/callback.hpp ****         ctx_ = nullptr;
 1256              		.loc 3 68 14 view .LVU287
 1257 009e A568     		ldr	r5, [r4, #8]
 1258              	.LVL104:
  69:fibre-cpp/include/fibre/callback.hpp ****         cb_ = nullptr;
 1259              		.loc 3 69 14 view .LVU288
 1260 00a0 E360     		str	r3, [r4, #12]
  70:fibre-cpp/include/fibre/callback.hpp ****         if (cb) {
 1261              		.loc 3 70 13 view .LVU289
 1262 00a2 A360     		str	r3, [r4, #8]
  71:fibre-cpp/include/fibre/callback.hpp ****             return (*cb)(ctx, arg...);
 1263              		.loc 3 71 9 view .LVU290
 1264 00a4 002D     		cmp	r5, #0
 1265 00a6 C4D0     		beq	.L36
 1266              		.loc 3 72 25 view .LVU291
 1267 00a8 D2E90012 		ldrd	r1, r2, [r2]
 1268 00ac A847     		blx	r5
 1269              	.LVL105:
 1270              		.loc 3 72 25 view .LVU292
 1271              	.LBE691:
 1272              	.LBE690:
 129:communication/interface_usb.cpp ****     }
 1273              		.loc 1 129 9 is_stmt 1 view .LVU293
 1274 00ae C0E7     		b	.L36
 1275              	.L49:
 1276              		.align	2
 1277              	.L48:
 1278 00b0 00000000 		.word	usb_dev_handle
 1279              		.cfi_endproc
 1280              	.LFE5189:
 1281              		.fnend
 1283              		.section	.text._ZN5fibre16Stm32UsbTxStream10did_finishEv,"ax",%progbits
 1284              		.align	1
 1285              		.global	_ZN5fibre16Stm32UsbTxStream10did_finishEv
 1286              		.syntax unified
 1287              		.thumb
 1288              		.thumb_func
 1290              	_ZN5fibre16Stm32UsbTxStream10did_finishEv:
 1291              		.fnstart
 1292              	.LVL106:
 1293              	.LFB5188:
 102:communication/interface_usb.cpp ****     const uint8_t* tx_end = tx_end_;
 1294              		.loc 1 102 37 view -0
 1295              		.cfi_startproc
 1296              		@ args = 0, pretend = 0, frame = 16
 1297              		@ frame_needed = 0, uses_anonymous_args = 0
 102:communication/interface_usb.cpp ****     const uint8_t* tx_end = tx_end_;
 1298              		.loc 1 102 37 is_stmt 0 view .LVU295
 1299 0000 10B5     		push	{r4, lr}
 1300              		.save {r4, lr}
 1301              	.LCFI14:
 1302              		.cfi_def_cfa_offset 8
 1303              		.cfi_offset 4, -8
ARM GAS  /tmp/ccrmmslP.s 			page 56


 1304              		.cfi_offset 14, -4
 1305              		.pad #16
 1306 0002 84B0     		sub	sp, sp, #16
 1307              	.LCFI15:
 1308              		.cfi_def_cfa_offset 24
 1309 0004 0346     		mov	r3, r0
 103:communication/interface_usb.cpp ****     tx_end_ = nullptr;
 1310              		.loc 1 103 5 is_stmt 1 view .LVU296
 103:communication/interface_usb.cpp ****     tx_end_ = nullptr;
 1311              		.loc 1 103 20 is_stmt 0 view .LVU297
 1312 0006 0269     		ldr	r2, [r0, #16]
 1313              	.LVL107:
 104:communication/interface_usb.cpp ****     completer_.invoke_and_clear({connected_ ? kStreamOk : kStreamClosed, tx_end});
 1314              		.loc 1 104 5 is_stmt 1 view .LVU298
 104:communication/interface_usb.cpp ****     completer_.invoke_and_clear({connected_ ? kStreamOk : kStreamClosed, tx_end});
 1315              		.loc 1 104 13 is_stmt 0 view .LVU299
 1316 0008 0021     		movs	r1, #0
 1317 000a 0161     		str	r1, [r0, #16]
 105:communication/interface_usb.cpp **** }
 1318              		.loc 1 105 5 is_stmt 1 view .LVU300
 105:communication/interface_usb.cpp **** }
 1319              		.loc 1 105 34 is_stmt 0 view .LVU301
 1320 000c 4179     		ldrb	r1, [r0, #5]	@ zero_extendqisi2
 105:communication/interface_usb.cpp **** }
 1321              		.loc 1 105 45 view .LVU302
 1322 000e A9B1     		cbz	r1, .L53
 1323 0010 0021     		movs	r1, #0
 1324              	.L51:
 105:communication/interface_usb.cpp **** }
 1325              		.loc 1 105 32 discriminator 4 view .LVU303
 1326 0012 8DF80810 		strb	r1, [sp, #8]
 1327 0016 0392     		str	r2, [sp, #12]
 1328              	.LVL108:
 105:communication/interface_usb.cpp **** }
 1329              		.loc 1 105 32 discriminator 4 view .LVU304
 1330 0018 6A46     		mov	r2, sp
 1331              	.LVL109:
 105:communication/interface_usb.cpp **** }
 1332              		.loc 1 105 32 discriminator 4 view .LVU305
 1333 001a 04A9     		add	r1, sp, #16
 1334 001c 11E90300 		ldmdb	r1, {r0, r1}
 1335              	.LVL110:
 105:communication/interface_usb.cpp **** }
 1336              		.loc 1 105 32 discriminator 4 view .LVU306
 1337 0020 82E80300 		stm	r2, {r0, r1}
 1338              	.LBB692:
 1339              	.LBI692:
  66:fibre-cpp/include/fibre/callback.hpp ****         void* ctx = ctx_;
 1340              		.loc 3 66 10 is_stmt 1 discriminator 4 view .LVU307
 1341              	.LBB693:
  67:fibre-cpp/include/fibre/callback.hpp ****         auto cb = cb_;
 1342              		.loc 3 67 15 is_stmt 0 discriminator 4 view .LVU308
 1343 0024 D868     		ldr	r0, [r3, #12]
 1344              	.LVL111:
  68:fibre-cpp/include/fibre/callback.hpp ****         ctx_ = nullptr;
 1345              		.loc 3 68 14 discriminator 4 view .LVU309
 1346 0026 9C68     		ldr	r4, [r3, #8]
ARM GAS  /tmp/ccrmmslP.s 			page 57


 1347              	.LVL112:
  69:fibre-cpp/include/fibre/callback.hpp ****         cb_ = nullptr;
 1348              		.loc 3 69 14 discriminator 4 view .LVU310
 1349 0028 0022     		movs	r2, #0
 1350 002a DA60     		str	r2, [r3, #12]
  70:fibre-cpp/include/fibre/callback.hpp ****         if (cb) {
 1351              		.loc 3 70 13 discriminator 4 view .LVU311
 1352 002c 9A60     		str	r2, [r3, #8]
  71:fibre-cpp/include/fibre/callback.hpp ****             return (*cb)(ctx, arg...);
 1353              		.loc 3 71 9 discriminator 4 view .LVU312
 1354 002e 1CB1     		cbz	r4, .L50
 1355              		.loc 3 72 25 view .LVU313
 1356 0030 6B46     		mov	r3, sp
 1357              	.LVL113:
 1358              		.loc 3 72 25 view .LVU314
 1359 0032 93E80600 		ldm	r3, {r1, r2}
 1360 0036 A047     		blx	r4
 1361              	.LVL114:
 1362              	.L50:
 1363              		.loc 3 72 25 view .LVU315
 1364              	.LBE693:
 1365              	.LBE692:
 106:communication/interface_usb.cpp **** 
 1366              		.loc 1 106 1 view .LVU316
 1367 0038 04B0     		add	sp, sp, #16
 1368              	.LCFI16:
 1369              		.cfi_remember_state
 1370              		.cfi_def_cfa_offset 8
 1371              		@ sp needed
 1372 003a 10BD     		pop	{r4, pc}
 1373              	.LVL115:
 1374              	.L53:
 1375              	.LCFI17:
 1376              		.cfi_restore_state
 105:communication/interface_usb.cpp **** }
 1377              		.loc 1 105 45 view .LVU317
 1378 003c 0221     		movs	r1, #2
 1379 003e E8E7     		b	.L51
 1380              		.cfi_endproc
 1381              	.LFE5188:
 1382              		.fnend
 1384              		.section	.text._ZN5fibre16Stm32UsbRxStream10did_finishEv,"ax",%progbits
 1385              		.align	1
 1386              		.global	_ZN5fibre16Stm32UsbRxStream10did_finishEv
 1387              		.syntax unified
 1388              		.thumb
 1389              		.thumb_func
 1391              	_ZN5fibre16Stm32UsbRxStream10did_finishEv:
 1392              		.fnstart
 1393              	.LVL116:
 1394              	.LFB5191:
 137:communication/interface_usb.cpp ****     uint8_t* rx_end = rx_end_;
 1395              		.loc 1 137 37 is_stmt 1 view -0
 1396              		.cfi_startproc
 1397              		@ args = 0, pretend = 0, frame = 16
 1398              		@ frame_needed = 0, uses_anonymous_args = 0
 137:communication/interface_usb.cpp ****     uint8_t* rx_end = rx_end_;
ARM GAS  /tmp/ccrmmslP.s 			page 58


 1399              		.loc 1 137 37 is_stmt 0 view .LVU319
 1400 0000 10B5     		push	{r4, lr}
 1401              		.save {r4, lr}
 1402              	.LCFI18:
 1403              		.cfi_def_cfa_offset 8
 1404              		.cfi_offset 4, -8
 1405              		.cfi_offset 14, -4
 1406              		.pad #16
 1407 0002 84B0     		sub	sp, sp, #16
 1408              	.LCFI19:
 1409              		.cfi_def_cfa_offset 24
 1410 0004 0346     		mov	r3, r0
 138:communication/interface_usb.cpp ****     rx_end_ = nullptr;
 1411              		.loc 1 138 5 is_stmt 1 view .LVU320
 138:communication/interface_usb.cpp ****     rx_end_ = nullptr;
 1412              		.loc 1 138 14 is_stmt 0 view .LVU321
 1413 0006 0269     		ldr	r2, [r0, #16]
 1414              	.LVL117:
 139:communication/interface_usb.cpp ****     completer_.invoke_and_clear({connected_ ? kStreamOk : kStreamClosed, rx_end});
 1415              		.loc 1 139 5 is_stmt 1 view .LVU322
 139:communication/interface_usb.cpp ****     completer_.invoke_and_clear({connected_ ? kStreamOk : kStreamClosed, rx_end});
 1416              		.loc 1 139 13 is_stmt 0 view .LVU323
 1417 0008 0021     		movs	r1, #0
 1418 000a 0161     		str	r1, [r0, #16]
 140:communication/interface_usb.cpp **** }
 1419              		.loc 1 140 5 is_stmt 1 view .LVU324
 140:communication/interface_usb.cpp **** }
 1420              		.loc 1 140 34 is_stmt 0 view .LVU325
 1421 000c 4179     		ldrb	r1, [r0, #5]	@ zero_extendqisi2
 140:communication/interface_usb.cpp **** }
 1422              		.loc 1 140 45 view .LVU326
 1423 000e A9B1     		cbz	r1, .L58
 1424 0010 0021     		movs	r1, #0
 1425              	.L56:
 140:communication/interface_usb.cpp **** }
 1426              		.loc 1 140 32 discriminator 4 view .LVU327
 1427 0012 8DF80810 		strb	r1, [sp, #8]
 1428 0016 0392     		str	r2, [sp, #12]
 1429              	.LVL118:
 140:communication/interface_usb.cpp **** }
 1430              		.loc 1 140 32 discriminator 4 view .LVU328
 1431 0018 6A46     		mov	r2, sp
 1432              	.LVL119:
 140:communication/interface_usb.cpp **** }
 1433              		.loc 1 140 32 discriminator 4 view .LVU329
 1434 001a 04A9     		add	r1, sp, #16
 1435 001c 11E90300 		ldmdb	r1, {r0, r1}
 1436              	.LVL120:
 140:communication/interface_usb.cpp **** }
 1437              		.loc 1 140 32 discriminator 4 view .LVU330
 1438 0020 82E80300 		stm	r2, {r0, r1}
 1439              	.LBB694:
 1440              	.LBI694:
  66:fibre-cpp/include/fibre/callback.hpp ****         void* ctx = ctx_;
 1441              		.loc 3 66 10 is_stmt 1 discriminator 4 view .LVU331
 1442              	.LBB695:
  67:fibre-cpp/include/fibre/callback.hpp ****         auto cb = cb_;
ARM GAS  /tmp/ccrmmslP.s 			page 59


 1443              		.loc 3 67 15 is_stmt 0 discriminator 4 view .LVU332
 1444 0024 D868     		ldr	r0, [r3, #12]
 1445              	.LVL121:
  68:fibre-cpp/include/fibre/callback.hpp ****         ctx_ = nullptr;
 1446              		.loc 3 68 14 discriminator 4 view .LVU333
 1447 0026 9C68     		ldr	r4, [r3, #8]
 1448              	.LVL122:
  69:fibre-cpp/include/fibre/callback.hpp ****         cb_ = nullptr;
 1449              		.loc 3 69 14 discriminator 4 view .LVU334
 1450 0028 0022     		movs	r2, #0
 1451 002a DA60     		str	r2, [r3, #12]
  70:fibre-cpp/include/fibre/callback.hpp ****         if (cb) {
 1452              		.loc 3 70 13 discriminator 4 view .LVU335
 1453 002c 9A60     		str	r2, [r3, #8]
  71:fibre-cpp/include/fibre/callback.hpp ****             return (*cb)(ctx, arg...);
 1454              		.loc 3 71 9 discriminator 4 view .LVU336
 1455 002e 1CB1     		cbz	r4, .L55
 1456              		.loc 3 72 25 view .LVU337
 1457 0030 6B46     		mov	r3, sp
 1458              	.LVL123:
 1459              		.loc 3 72 25 view .LVU338
 1460 0032 93E80600 		ldm	r3, {r1, r2}
 1461 0036 A047     		blx	r4
 1462              	.LVL124:
 1463              	.L55:
 1464              		.loc 3 72 25 view .LVU339
 1465              	.LBE695:
 1466              	.LBE694:
 141:communication/interface_usb.cpp **** 
 1467              		.loc 1 141 1 view .LVU340
 1468 0038 04B0     		add	sp, sp, #16
 1469              	.LCFI20:
 1470              		.cfi_remember_state
 1471              		.cfi_def_cfa_offset 8
 1472              		@ sp needed
 1473 003a 10BD     		pop	{r4, pc}
 1474              	.LVL125:
 1475              	.L58:
 1476              	.LCFI21:
 1477              		.cfi_restore_state
 140:communication/interface_usb.cpp **** }
 1478              		.loc 1 140 45 view .LVU341
 1479 003c 0221     		movs	r1, #2
 1480 003e E8E7     		b	.L56
 1481              		.cfi_endproc
 1482              	.LFE5191:
 1483              		.fnend
 1485              		.section	.text.usb_rx_process_packet,"ax",%progbits
 1486              		.align	1
 1487              		.global	usb_rx_process_packet
 1488              		.syntax unified
 1489              		.thumb
 1490              		.thumb_func
 1492              	usb_rx_process_packet:
 1493              		.fnstart
 1494              	.LVL126:
 1495              	.LFB5210:
ARM GAS  /tmp/ccrmmslP.s 			page 60


 223:communication/interface_usb.cpp ****     if (endpoint_pair == CDC_OUT_EP && usb_cdc_rx_stream.rx_end_) {
 1496              		.loc 1 223 79 is_stmt 1 view -0
 1497              		.cfi_startproc
 1498              		@ args = 0, pretend = 0, frame = 0
 1499              		@ frame_needed = 0, uses_anonymous_args = 0
 223:communication/interface_usb.cpp ****     if (endpoint_pair == CDC_OUT_EP && usb_cdc_rx_stream.rx_end_) {
 1500              		.loc 1 223 79 is_stmt 0 view .LVU343
 1501 0000 08B5     		push	{r3, lr}
 1502              		.save {r3, lr}
 1503              	.LCFI22:
 1504              		.cfi_def_cfa_offset 8
 1505              		.cfi_offset 3, -8
 1506              		.cfi_offset 14, -4
 224:communication/interface_usb.cpp ****         usb_cdc_rx_stream.rx_end_ += len;
 1507              		.loc 1 224 5 is_stmt 1 view .LVU344
 1508 0002 012A     		cmp	r2, #1
 1509 0004 02D0     		beq	.L64
 1510              	.L61:
 227:communication/interface_usb.cpp ****         usb_native_rx_stream.rx_end_ += len;
 1511              		.loc 1 227 12 view .LVU345
 1512 0006 032A     		cmp	r2, #3
 1513 0008 0ED0     		beq	.L65
 1514              	.LVL127:
 1515              	.L60:
 231:communication/interface_usb.cpp **** 
 1516              		.loc 1 231 1 is_stmt 0 view .LVU346
 1517 000a 08BD     		pop	{r3, pc}
 1518              	.LVL128:
 1519              	.L64:
 224:communication/interface_usb.cpp ****         usb_cdc_rx_stream.rx_end_ += len;
 1520              		.loc 1 224 58 discriminator 1 view .LVU347
 1521 000c 0D4B     		ldr	r3, .L66
 1522 000e 1B69     		ldr	r3, [r3, #16]
 224:communication/interface_usb.cpp ****         usb_cdc_rx_stream.rx_end_ += len;
 1523              		.loc 1 224 37 discriminator 1 view .LVU348
 1524 0010 002B     		cmp	r3, #0
 1525 0012 F8D0     		beq	.L61
 225:communication/interface_usb.cpp ****         osMessagePut(usb_event_queue, 5, 0);
 1526              		.loc 1 225 9 is_stmt 1 view .LVU349
 225:communication/interface_usb.cpp ****         osMessagePut(usb_event_queue, 5, 0);
 1527              		.loc 1 225 35 is_stmt 0 view .LVU350
 1528 0014 1944     		add	r1, r1, r3
 1529              	.LVL129:
 225:communication/interface_usb.cpp ****         osMessagePut(usb_event_queue, 5, 0);
 1530              		.loc 1 225 35 view .LVU351
 1531 0016 0B4B     		ldr	r3, .L66
 1532 0018 1961     		str	r1, [r3, #16]
 226:communication/interface_usb.cpp ****     } else if (endpoint_pair == ODRIVE_OUT_EP && usb_native_rx_stream.rx_end_) {
 1533              		.loc 1 226 9 is_stmt 1 view .LVU352
 226:communication/interface_usb.cpp ****     } else if (endpoint_pair == ODRIVE_OUT_EP && usb_native_rx_stream.rx_end_) {
 1534              		.loc 1 226 21 is_stmt 0 view .LVU353
 1535 001a 0022     		movs	r2, #0
 1536              	.LVL130:
 226:communication/interface_usb.cpp ****     } else if (endpoint_pair == ODRIVE_OUT_EP && usb_native_rx_stream.rx_end_) {
 1537              		.loc 1 226 21 view .LVU354
 1538 001c 0521     		movs	r1, #5
 1539 001e 0A4B     		ldr	r3, .L66+4
ARM GAS  /tmp/ccrmmslP.s 			page 61


 1540 0020 1868     		ldr	r0, [r3]
 1541              	.LVL131:
 226:communication/interface_usb.cpp ****     } else if (endpoint_pair == ODRIVE_OUT_EP && usb_native_rx_stream.rx_end_) {
 1542              		.loc 1 226 21 view .LVU355
 1543 0022 FFF7FEFF 		bl	osMessagePut
 1544              	.LVL132:
 1545 0026 F0E7     		b	.L60
 1546              	.LVL133:
 1547              	.L65:
 227:communication/interface_usb.cpp ****         usb_native_rx_stream.rx_end_ += len;
 1548              		.loc 1 227 71 discriminator 1 view .LVU356
 1549 0028 084B     		ldr	r3, .L66+8
 1550 002a 1B69     		ldr	r3, [r3, #16]
 227:communication/interface_usb.cpp ****         usb_native_rx_stream.rx_end_ += len;
 1551              		.loc 1 227 47 discriminator 1 view .LVU357
 1552 002c 002B     		cmp	r3, #0
 1553 002e ECD0     		beq	.L60
 228:communication/interface_usb.cpp ****         osMessagePut(usb_event_queue, 6, 0);
 1554              		.loc 1 228 9 is_stmt 1 view .LVU358
 228:communication/interface_usb.cpp ****         osMessagePut(usb_event_queue, 6, 0);
 1555              		.loc 1 228 38 is_stmt 0 view .LVU359
 1556 0030 1944     		add	r1, r1, r3
 1557              	.LVL134:
 228:communication/interface_usb.cpp ****         osMessagePut(usb_event_queue, 6, 0);
 1558              		.loc 1 228 38 view .LVU360
 1559 0032 064B     		ldr	r3, .L66+8
 1560 0034 1961     		str	r1, [r3, #16]
 229:communication/interface_usb.cpp ****     }
 1561              		.loc 1 229 9 is_stmt 1 view .LVU361
 229:communication/interface_usb.cpp ****     }
 1562              		.loc 1 229 21 is_stmt 0 view .LVU362
 1563 0036 0022     		movs	r2, #0
 1564              	.LVL135:
 229:communication/interface_usb.cpp ****     }
 1565              		.loc 1 229 21 view .LVU363
 1566 0038 0621     		movs	r1, #6
 1567 003a 034B     		ldr	r3, .L66+4
 1568 003c 1868     		ldr	r0, [r3]
 1569              	.LVL136:
 229:communication/interface_usb.cpp ****     }
 1570              		.loc 1 229 21 view .LVU364
 1571 003e FFF7FEFF 		bl	osMessagePut
 1572              	.LVL137:
 231:communication/interface_usb.cpp **** 
 1573              		.loc 1 231 1 view .LVU365
 1574 0042 E2E7     		b	.L60
 1575              	.L67:
 1576              		.align	2
 1577              	.L66:
 1578 0044 00000000 		.word	.LANCHOR4
 1579 0048 00000000 		.word	usb_event_queue
 1580 004c 00000000 		.word	.LANCHOR6
 1581              		.cfi_endproc
 1582              	.LFE5210:
 1583              		.fnend
 1585              		.section	.text.start_usb_server,"ax",%progbits
 1586              		.align	1
ARM GAS  /tmp/ccrmmslP.s 			page 62


 1587              		.global	start_usb_server
 1588              		.syntax unified
 1589              		.thumb
 1590              		.thumb_func
 1592              	start_usb_server:
 1593              		.fnstart
 1594              	.LFB5211:
 233:communication/interface_usb.cpp ****     // Start USB communication thread
 1595              		.loc 1 233 25 is_stmt 1 view -0
 1596              		.cfi_startproc
 1597              		@ args = 0, pretend = 0, frame = 24
 1598              		@ frame_needed = 0, uses_anonymous_args = 0
 1599 0000 10B5     		push	{r4, lr}
 1600              		.save {r4, lr}
 1601              	.LCFI23:
 1602              		.cfi_def_cfa_offset 8
 1603              		.cfi_offset 4, -8
 1604              		.cfi_offset 14, -4
 1605              		.pad #24
 1606 0002 86B0     		sub	sp, sp, #24
 1607              	.LCFI24:
 1608              		.cfi_def_cfa_offset 32
 235:communication/interface_usb.cpp ****     usb_thread = osThreadCreate(osThread(usb_server_thread_def), NULL);
 1609              		.loc 1 235 5 view .LVU367
 1610 0004 0DF1040C 		add	ip, sp, #4
 1611 0008 074C     		ldr	r4, .L70
 1612 000a 0FCC     		ldmia	r4!, {r0, r1, r2, r3}
 1613 000c ACE80F00 		stmia	ip!, {r0, r1, r2, r3}
 1614 0010 2368     		ldr	r3, [r4]
 1615 0012 CCF80030 		str	r3, [ip]
 236:communication/interface_usb.cpp **** }
 1616              		.loc 1 236 5 view .LVU368
 236:communication/interface_usb.cpp **** }
 1617              		.loc 1 236 32 is_stmt 0 view .LVU369
 1618 0016 0021     		movs	r1, #0
 1619 0018 01A8     		add	r0, sp, #4
 1620 001a FFF7FEFF 		bl	osThreadCreate
 1621              	.LVL138:
 236:communication/interface_usb.cpp **** }
 1622              		.loc 1 236 16 view .LVU370
 1623 001e 034B     		ldr	r3, .L70+4
 1624 0020 1860     		str	r0, [r3]
 1625              		.loc 1 237 1 view .LVU371
 1626 0022 06B0     		add	sp, sp, #24
 1627              	.LCFI25:
 1628              		.cfi_def_cfa_offset 8
 1629              		@ sp needed
 1630 0024 10BD     		pop	{r4, pc}
 1631              	.L71:
 1632 0026 00BF     		.align	2
 1633              	.L70:
 1634 0028 00000000 		.word	.LANCHOR11
 1635 002c 00000000 		.word	.LANCHOR12
 1636              		.cfi_endproc
 1637              	.LFE5211:
 1638              		.fnend
 1640              		.section	.text._ZN5fibre13make_callbackIMNS_18BufferedStreamSinkILj64EEEFvNS_11WriteResultEEXadL_Z
ARM GAS  /tmp/ccrmmslP.s 			page 63


 1641              		.align	1
 1642              		.weak	_ZN5fibre13make_callbackIMNS_18BufferedStreamSinkILj64EEEFvNS_11WriteResultEEXadL_ZNS2_17on_
 1643              		.syntax unified
 1644              		.thumb
 1645              		.thumb_func
 1647              	_ZN5fibre13make_callbackIMNS_18BufferedStreamSinkILj64EEEFvNS_11WriteResultEEXadL_ZNS2_17on_write_c
 1648              		.fnstart
 1649              	.LVL139:
 1650              	.LFB5951:
  73:fibre-cpp/include/fibre/callback.hpp ****         }
  74:fibre-cpp/include/fibre/callback.hpp ****         return detail::get_default<TRet>::val();
  75:fibre-cpp/include/fibre/callback.hpp ****     }
  76:fibre-cpp/include/fibre/callback.hpp **** 
  77:fibre-cpp/include/fibre/callback.hpp ****     typedef TRet(*cb_t)(void*, TArgs...);
  78:fibre-cpp/include/fibre/callback.hpp ****     cb_t get_ptr() { return cb_; }
  79:fibre-cpp/include/fibre/callback.hpp ****     void* get_ctx() { return ctx_; }
  80:fibre-cpp/include/fibre/callback.hpp **** 
  81:fibre-cpp/include/fibre/callback.hpp **** private:
  82:fibre-cpp/include/fibre/callback.hpp ****     TRet(*cb_)(void*, TArgs...);
  83:fibre-cpp/include/fibre/callback.hpp ****     void* ctx_;
  84:fibre-cpp/include/fibre/callback.hpp **** };
  85:fibre-cpp/include/fibre/callback.hpp **** 
  86:fibre-cpp/include/fibre/callback.hpp **** template<typename _TRet, typename _TObj, typename ... _TArgs>
  87:fibre-cpp/include/fibre/callback.hpp **** struct function_traits {
  88:fibre-cpp/include/fibre/callback.hpp ****     using TRet = _TRet;
  89:fibre-cpp/include/fibre/callback.hpp ****     using TArgs = std::tuple<_TArgs...>;
  90:fibre-cpp/include/fibre/callback.hpp ****     using TObj = _TObj;
  91:fibre-cpp/include/fibre/callback.hpp **** };
  92:fibre-cpp/include/fibre/callback.hpp **** 
  93:fibre-cpp/include/fibre/callback.hpp **** template<typename _TRet, typename _TObj, typename ... _TArgs>
  94:fibre-cpp/include/fibre/callback.hpp **** function_traits<_TRet, _TObj, _TArgs...> make_function_traits(_TRet (_TObj::*)(_TArgs...)) {
  95:fibre-cpp/include/fibre/callback.hpp ****     return {};
  96:fibre-cpp/include/fibre/callback.hpp **** }
  97:fibre-cpp/include/fibre/callback.hpp **** 
  98:fibre-cpp/include/fibre/callback.hpp **** template<typename T1, T1 T2, typename T3, typename T4, typename T5>
  99:fibre-cpp/include/fibre/callback.hpp **** struct MemberCallback;
 100:fibre-cpp/include/fibre/callback.hpp **** 
 101:fibre-cpp/include/fibre/callback.hpp **** template<typename T, T func, typename TObj, typename TRes, typename ... TArgs>
 102:fibre-cpp/include/fibre/callback.hpp **** struct MemberCallback<T, func, TObj, TRes, std::tuple<TArgs...>> {
 103:fibre-cpp/include/fibre/callback.hpp ****     using cb_t = Callback<TRes, TArgs...>;
 104:fibre-cpp/include/fibre/callback.hpp ****     static cb_t with(TObj* obj) {
 105:fibre-cpp/include/fibre/callback.hpp ****         return cb_t{[](void* obj, TArgs... arg) {
 106:fibre-cpp/include/fibre/callback.hpp ****             return (((TObj*)obj)->*func)(arg...);
 107:fibre-cpp/include/fibre/callback.hpp ****         }, obj};
 108:fibre-cpp/include/fibre/callback.hpp ****     }
 109:fibre-cpp/include/fibre/callback.hpp **** };
 110:fibre-cpp/include/fibre/callback.hpp **** 
 111:fibre-cpp/include/fibre/callback.hpp **** template<typename T, T func,
 112:fibre-cpp/include/fibre/callback.hpp ****          typename TTraits = decltype(make_function_traits(func)),
 113:fibre-cpp/include/fibre/callback.hpp ****          typename MemCb = MemberCallback<T, func, typename TTraits::TObj, typename TTraits::TRet, t
 114:fibre-cpp/include/fibre/callback.hpp **** typename MemCb::cb_t make_callback(typename TTraits::TObj* obj) {
 1651              		.loc 3 114 22 is_stmt 1 view -0
 1652              		.cfi_startproc
 1653              		@ args = 0, pretend = 0, frame = 0
 1654              		@ frame_needed = 0, uses_anonymous_args = 0
 1655              		@ link register save eliminated.
 1656              	.LBB696:
ARM GAS  /tmp/ccrmmslP.s 			page 64


 1657              	.LBI696:
 104:fibre-cpp/include/fibre/callback.hpp ****         return cb_t{[](void* obj, TArgs... arg) {
 1658              		.loc 3 104 17 view .LVU373
 1659              	.LBB697:
 1660              	.LBB698:
 1661              	.LBI698:
  22:fibre-cpp/include/fibre/callback.hpp ****         cb_(callback), ctx_(ctx) {}
 1662              		.loc 3 22 5 view .LVU374
 1663              	.LBB699:
  23:fibre-cpp/include/fibre/callback.hpp **** 
 1664              		.loc 3 23 32 is_stmt 0 view .LVU375
 1665 0000 014A     		ldr	r2, .L73
 1666 0002 0260     		str	r2, [r0]
 1667 0004 4160     		str	r1, [r0, #4]
 1668              	.LVL140:
  23:fibre-cpp/include/fibre/callback.hpp **** 
 1669              		.loc 3 23 32 view .LVU376
 1670              	.LBE699:
 1671              	.LBE698:
 1672              	.LBE697:
 1673              	.LBE696:
 115:fibre-cpp/include/fibre/callback.hpp ****     return MemCb::with(obj);
 116:fibre-cpp/include/fibre/callback.hpp **** }
 1674              		.loc 3 116 1 view .LVU377
 1675 0006 7047     		bx	lr
 1676              	.L74:
 1677              		.align	2
 1678              	.L73:
 1679 0008 00000000 		.word	_ZZN5fibre14MemberCallbackIMNS_18BufferedStreamSinkILj64EEEFvNS_11WriteResultEEXadL_ZNS2_17o
 1680              		.cfi_endproc
 1681              	.LFE5951:
 1682              		.cantunwind
 1683              		.fnend
 1685              		.section	.text._ZZN5fibre14MemberCallbackIMNS_18BufferedStreamSinkILj64EEEFvNS_11WriteResultEEXadL
 1686              		.align	1
 1687              		.weak	_ZZN5fibre14MemberCallbackIMNS_18BufferedStreamSinkILj64EEEFvNS_11WriteResultEEXadL_ZNS2_17o
 1688              		.syntax unified
 1689              		.thumb
 1690              		.thumb_func
 1692              	_ZZN5fibre14MemberCallbackIMNS_18BufferedStreamSinkILj64EEEFvNS_11WriteResultEEXadL_ZNS2_17on_write
 1693              		.fnstart
 1694              	.LFB6085:
 105:fibre-cpp/include/fibre/callback.hpp ****             return (((TObj*)obj)->*func)(arg...);
 1695              		.loc 3 105 21 is_stmt 1 view -0
 1696              		.cfi_startproc
 1697              		@ args = 0, pretend = 0, frame = 56
 1698              		@ frame_needed = 0, uses_anonymous_args = 0
 1699 0000 F0B5     		push	{r4, r5, r6, r7, lr}
 1700              		.save {r4, r5, r6, r7, lr}
 1701              	.LCFI26:
 1702              		.cfi_def_cfa_offset 20
 1703              		.cfi_offset 4, -20
 1704              		.cfi_offset 5, -16
 1705              		.cfi_offset 6, -12
 1706              		.cfi_offset 7, -8
 1707              		.cfi_offset 14, -4
 1708              		.pad #68
ARM GAS  /tmp/ccrmmslP.s 			page 65


 1709 0002 91B0     		sub	sp, sp, #68
 1710              	.LCFI27:
 1711              		.cfi_def_cfa_offset 88
 1712 0004 0446     		mov	r4, r0
 1713 0006 02A8     		add	r0, sp, #8
 1714 0008 80E80600 		stm	r0, {r1, r2}
 1715              	.LVL141:
 105:fibre-cpp/include/fibre/callback.hpp ****             return (((TObj*)obj)->*func)(arg...);
 1716              		.loc 3 105 21 is_stmt 0 view .LVU379
 1717 000c 04AB     		add	r3, sp, #16
