ARM GAS  /tmp/ccjyQa7a.s 			page 1


   1              		.cpu cortex-m4
   2              		.arch armv7e-m
   3              		.fpu fpv4-sp-d16
   4              		.eabi_attribute 27, 1
   5              		.eabi_attribute 28, 1
   6              		.eabi_attribute 20, 1
   7              		.eabi_attribute 21, 1
   8              		.eabi_attribute 23, 3
   9              		.eabi_attribute 24, 1
  10              		.eabi_attribute 25, 1
  11              		.eabi_attribute 26, 1
  12              		.eabi_attribute 30, 1
  13              		.eabi_attribute 34, 1
  14              		.eabi_attribute 18, 4
  15              		.file	"legacy_protocol.cpp"
  16              		.text
  17              	.Ltext0:
  18              		.cfi_sections	.debug_frame
  19              		.section	.text._ZN5fibre13PacketWrapper12cancel_writeEj,"ax",%progbits
  20              		.align	1
  21              		.global	_ZN5fibre13PacketWrapper12cancel_writeEj
  22              		.syntax unified
  23              		.thumb
  24              		.thumb_func
  26              	_ZN5fibre13PacketWrapper12cancel_writeEj:
  27              		.fnstart
  28              	.LVL0:
  29              	.LFB4598:
  30              		.file 1 "fibre-cpp/legacy_protocol.cpp"
   1:fibre-cpp/legacy_protocol.cpp **** 
   2:fibre-cpp/legacy_protocol.cpp **** 
   3:fibre-cpp/legacy_protocol.cpp **** #include "legacy_protocol.hpp"
   4:fibre-cpp/legacy_protocol.cpp **** 
   5:fibre-cpp/legacy_protocol.cpp **** #include "protocol.hpp"
   6:fibre-cpp/legacy_protocol.cpp **** #include "crc.hpp"
   7:fibre-cpp/legacy_protocol.cpp **** #include "logging.hpp"
   8:fibre-cpp/legacy_protocol.cpp **** #include "print_utils.hpp"
   9:fibre-cpp/legacy_protocol.cpp **** #include <fibre/async_stream.hpp>
  10:fibre-cpp/legacy_protocol.cpp **** #include <memory>
  11:fibre-cpp/legacy_protocol.cpp **** #include <stdlib.h>
  12:fibre-cpp/legacy_protocol.cpp **** #include <algorithm>
  13:fibre-cpp/legacy_protocol.cpp **** 
  14:fibre-cpp/legacy_protocol.cpp **** DEFINE_LOG_TOPIC(LEGACY_PROTOCOL);
  15:fibre-cpp/legacy_protocol.cpp **** USE_LOG_TOPIC(LEGACY_PROTOCOL);
  16:fibre-cpp/legacy_protocol.cpp **** 
  17:fibre-cpp/legacy_protocol.cpp **** using namespace fibre;
  18:fibre-cpp/legacy_protocol.cpp **** 
  19:fibre-cpp/legacy_protocol.cpp **** 
  20:fibre-cpp/legacy_protocol.cpp **** /* PacketWrapper -------------------------------------------------------------*/
  21:fibre-cpp/legacy_protocol.cpp **** 
  22:fibre-cpp/legacy_protocol.cpp **** void PacketWrapper::start_write(cbufptr_t buffer, TransferHandle* handle, Callback<void, WriteResul
  23:fibre-cpp/legacy_protocol.cpp ****     if (handle) {
  24:fibre-cpp/legacy_protocol.cpp ****         *handle = reinterpret_cast<TransferHandle>(this);
  25:fibre-cpp/legacy_protocol.cpp ****     }
  26:fibre-cpp/legacy_protocol.cpp **** 
  27:fibre-cpp/legacy_protocol.cpp ****     if (state_ != kStateIdle) {
  28:fibre-cpp/legacy_protocol.cpp ****         completer.invoke({kStreamError, buffer.begin()});
ARM GAS  /tmp/ccjyQa7a.s 			page 2


  29:fibre-cpp/legacy_protocol.cpp ****     }
  30:fibre-cpp/legacy_protocol.cpp **** 
  31:fibre-cpp/legacy_protocol.cpp ****     // TODO: support buffer size >= 128
  32:fibre-cpp/legacy_protocol.cpp ****     if (buffer.size() >= 128) {
  33:fibre-cpp/legacy_protocol.cpp ****         completer.invoke({kStreamError, buffer.begin()});
  34:fibre-cpp/legacy_protocol.cpp ****     }
  35:fibre-cpp/legacy_protocol.cpp **** 
  36:fibre-cpp/legacy_protocol.cpp ****     completer_ = completer;
  37:fibre-cpp/legacy_protocol.cpp **** 
  38:fibre-cpp/legacy_protocol.cpp ****     header_buf_[0] = CANONICAL_PREFIX;
  39:fibre-cpp/legacy_protocol.cpp ****     header_buf_[1] = static_cast<uint8_t>(buffer.size());
  40:fibre-cpp/legacy_protocol.cpp ****     header_buf_[2] = calc_crc8<CANONICAL_CRC8_POLYNOMIAL>(CANONICAL_CRC8_INIT, header_buf_, 2);
  41:fibre-cpp/legacy_protocol.cpp ****     
  42:fibre-cpp/legacy_protocol.cpp ****     payload_buf_ = buffer;
  43:fibre-cpp/legacy_protocol.cpp **** 
  44:fibre-cpp/legacy_protocol.cpp ****     uint16_t crc16 = calc_crc16<CANONICAL_CRC16_POLYNOMIAL>(CANONICAL_CRC16_INIT, buffer.begin(), b
  45:fibre-cpp/legacy_protocol.cpp ****     trailer_buf_[0] = (uint8_t)((crc16 >> 8) & 0xff),
  46:fibre-cpp/legacy_protocol.cpp ****     trailer_buf_[1] = (uint8_t)((crc16 >> 0) & 0xff);
  47:fibre-cpp/legacy_protocol.cpp **** 
  48:fibre-cpp/legacy_protocol.cpp ****     state_ = kStateSendingHeader;
  49:fibre-cpp/legacy_protocol.cpp ****     expected_tx_end_ = header_buf_ + 3;
  50:fibre-cpp/legacy_protocol.cpp ****     tx_channel_->start_write(header_buf_, &inner_transfer_handle_, MEMBER_CB(this, complete));
  51:fibre-cpp/legacy_protocol.cpp **** }
  52:fibre-cpp/legacy_protocol.cpp **** 
  53:fibre-cpp/legacy_protocol.cpp **** void PacketWrapper::cancel_write(TransferHandle transfer_handle) {
  31              		.loc 1 53 66 view -0
  32              		.cfi_startproc
  33              		@ args = 0, pretend = 0, frame = 0
  34              		@ frame_needed = 0, uses_anonymous_args = 0
  35              		.loc 1 53 66 is_stmt 0 view .LVU1
  36 0000 08B5     		push	{r3, lr}
  37              		.save {r3, lr}
  38              	.LCFI0:
  39              		.cfi_def_cfa_offset 8
  40              		.cfi_offset 3, -8
  41              		.cfi_offset 14, -4
  42 0002 0346     		mov	r3, r0
  54:fibre-cpp/legacy_protocol.cpp ****     state_ = kStateCancelling;
  43              		.loc 1 54 5 is_stmt 1 view .LVU2
  44              		.loc 1 54 12 is_stmt 0 view .LVU3
  45 0004 0122     		movs	r2, #1
  46 0006 80F82820 		strb	r2, [r0, #40]
  55:fibre-cpp/legacy_protocol.cpp ****     tx_channel_->cancel_write(inner_transfer_handle_);
  47              		.loc 1 55 5 is_stmt 1 view .LVU4
  48 000a 4068     		ldr	r0, [r0, #4]
  49              	.LVL1:
  50              		.loc 1 55 53 is_stmt 0 view .LVU5
  51 000c 0268     		ldr	r2, [r0]
  52 000e 5268     		ldr	r2, [r2, #4]
  53              		.loc 1 55 30 view .LVU6
  54 0010 9968     		ldr	r1, [r3, #8]
  55              	.LVL2:
  56              		.loc 1 55 30 view .LVU7
  57 0012 9047     		blx	r2
  58              	.LVL3:
  56:fibre-cpp/legacy_protocol.cpp **** }
  59              		.loc 1 56 1 view .LVU8
ARM GAS  /tmp/ccjyQa7a.s 			page 3


  60 0014 08BD     		pop	{r3, pc}
  61              		.cfi_endproc
  62              	.LFE4598:
  63              		.fnend
  65              		.section	.text._ZN5fibre15PacketUnwrapper11cancel_readEj,"ax",%progbits
  66              		.align	1
  67              		.global	_ZN5fibre15PacketUnwrapper11cancel_readEj
  68              		.syntax unified
  69              		.thumb
  70              		.thumb_func
  72              	_ZN5fibre15PacketUnwrapper11cancel_readEj:
  73              		.fnstart
  74              	.LVL4:
  75              	.LFB4601:
  57:fibre-cpp/legacy_protocol.cpp **** 
  58:fibre-cpp/legacy_protocol.cpp **** void PacketWrapper::complete(WriteResult result) {
  59:fibre-cpp/legacy_protocol.cpp ****     if (state_ == kStateCancelling) {
  60:fibre-cpp/legacy_protocol.cpp ****         state_ = kStateIdle;
  61:fibre-cpp/legacy_protocol.cpp ****         completer_.invoke_and_clear({kStreamCancelled, payload_buf_.begin()});
  62:fibre-cpp/legacy_protocol.cpp ****         return;
  63:fibre-cpp/legacy_protocol.cpp ****     }
  64:fibre-cpp/legacy_protocol.cpp **** 
  65:fibre-cpp/legacy_protocol.cpp ****     if (result.status != kStreamOk) {
  66:fibre-cpp/legacy_protocol.cpp ****         state_ = kStateIdle;
  67:fibre-cpp/legacy_protocol.cpp ****         completer_.invoke_and_clear({result.status, payload_buf_.begin()});
  68:fibre-cpp/legacy_protocol.cpp ****         return;
  69:fibre-cpp/legacy_protocol.cpp ****     }
  70:fibre-cpp/legacy_protocol.cpp **** 
  71:fibre-cpp/legacy_protocol.cpp ****     if (result.end < expected_tx_end_) {
  72:fibre-cpp/legacy_protocol.cpp ****         tx_channel_->start_write({result.end, expected_tx_end_}, &inner_transfer_handle_, MEMBER_CB
  73:fibre-cpp/legacy_protocol.cpp ****         return;
  74:fibre-cpp/legacy_protocol.cpp ****     }
  75:fibre-cpp/legacy_protocol.cpp **** 
  76:fibre-cpp/legacy_protocol.cpp ****     if (state_ == kStateSendingHeader) {
  77:fibre-cpp/legacy_protocol.cpp ****         state_ = kStateSendingPayload;
  78:fibre-cpp/legacy_protocol.cpp ****         expected_tx_end_ = payload_buf_.end();
  79:fibre-cpp/legacy_protocol.cpp ****         tx_channel_->start_write(payload_buf_, &inner_transfer_handle_, MEMBER_CB(this, complete));
  80:fibre-cpp/legacy_protocol.cpp **** 
  81:fibre-cpp/legacy_protocol.cpp ****     } else if (state_ == kStateSendingPayload) {
  82:fibre-cpp/legacy_protocol.cpp ****         state_ = kStateSendingTrailer;
  83:fibre-cpp/legacy_protocol.cpp ****         expected_tx_end_ = trailer_buf_ + 2;
  84:fibre-cpp/legacy_protocol.cpp ****         tx_channel_->start_write(trailer_buf_, &inner_transfer_handle_, MEMBER_CB(this, complete));
  85:fibre-cpp/legacy_protocol.cpp **** 
  86:fibre-cpp/legacy_protocol.cpp ****     } else if (state_ == kStateSendingTrailer) {
  87:fibre-cpp/legacy_protocol.cpp ****         state_ = kStateIdle;
  88:fibre-cpp/legacy_protocol.cpp ****         completer_.invoke_and_clear({kStreamOk, payload_buf_.end()});
  89:fibre-cpp/legacy_protocol.cpp ****     }
  90:fibre-cpp/legacy_protocol.cpp **** }
  91:fibre-cpp/legacy_protocol.cpp **** 
  92:fibre-cpp/legacy_protocol.cpp **** 
  93:fibre-cpp/legacy_protocol.cpp **** /* PacketUnwrapper -----------------------------------------------------------*/
  94:fibre-cpp/legacy_protocol.cpp **** 
  95:fibre-cpp/legacy_protocol.cpp **** void PacketUnwrapper::start_read(bufptr_t buffer, TransferHandle* handle, Callback<void, ReadResult
  96:fibre-cpp/legacy_protocol.cpp ****     if (handle) {
  97:fibre-cpp/legacy_protocol.cpp ****         *handle = reinterpret_cast<TransferHandle>(this);
  98:fibre-cpp/legacy_protocol.cpp ****     }
  99:fibre-cpp/legacy_protocol.cpp **** 
ARM GAS  /tmp/ccjyQa7a.s 			page 4


 100:fibre-cpp/legacy_protocol.cpp ****     if (state_ != kStateIdle) {
 101:fibre-cpp/legacy_protocol.cpp ****         completer.invoke({kStreamError, buffer.begin()});
 102:fibre-cpp/legacy_protocol.cpp ****     }
 103:fibre-cpp/legacy_protocol.cpp **** 
 104:fibre-cpp/legacy_protocol.cpp ****     completer_ = completer;
 105:fibre-cpp/legacy_protocol.cpp ****     payload_buf_ = buffer;
 106:fibre-cpp/legacy_protocol.cpp **** 
 107:fibre-cpp/legacy_protocol.cpp ****     state_ = kStateReceivingHeader;
 108:fibre-cpp/legacy_protocol.cpp ****     expected_rx_end_ = rx_buf_ + 3;
 109:fibre-cpp/legacy_protocol.cpp ****     rx_channel_->start_read({rx_buf_, expected_rx_end_}, &inner_transfer_handle_, MEMBER_CB(this, c
 110:fibre-cpp/legacy_protocol.cpp **** }
 111:fibre-cpp/legacy_protocol.cpp **** 
 112:fibre-cpp/legacy_protocol.cpp **** void PacketUnwrapper::cancel_read(TransferHandle transfer_handle) {
  76              		.loc 1 112 67 is_stmt 1 view -0
  77              		.cfi_startproc
  78              		@ args = 0, pretend = 0, frame = 0
  79              		@ frame_needed = 0, uses_anonymous_args = 0
  80              		.loc 1 112 67 is_stmt 0 view .LVU10
  81 0000 08B5     		push	{r3, lr}
  82              		.save {r3, lr}
  83              	.LCFI1:
  84              		.cfi_def_cfa_offset 8
  85              		.cfi_offset 3, -8
  86              		.cfi_offset 14, -4
  87 0002 0346     		mov	r3, r0
 113:fibre-cpp/legacy_protocol.cpp ****     state_ = kStateCancelling;
  88              		.loc 1 113 5 is_stmt 1 view .LVU11
  89              		.loc 1 113 12 is_stmt 0 view .LVU12
  90 0004 0122     		movs	r2, #1
  91 0006 80F82820 		strb	r2, [r0, #40]
 114:fibre-cpp/legacy_protocol.cpp ****     rx_channel_->cancel_read(inner_transfer_handle_);
  92              		.loc 1 114 5 is_stmt 1 view .LVU13
  93 000a 4068     		ldr	r0, [r0, #4]
  94              	.LVL5:
  95              		.loc 1 114 52 is_stmt 0 view .LVU14
  96 000c 0268     		ldr	r2, [r0]
  97 000e 5268     		ldr	r2, [r2, #4]
  98              		.loc 1 114 29 view .LVU15
  99 0010 9968     		ldr	r1, [r3, #8]
 100              	.LVL6:
 101              		.loc 1 114 29 view .LVU16
 102 0012 9047     		blx	r2
 103              	.LVL7:
 115:fibre-cpp/legacy_protocol.cpp **** }
 104              		.loc 1 115 1 view .LVU17
 105 0014 08BD     		pop	{r3, pc}
 106              		.cfi_endproc
 107              	.LFE4601:
 108              		.fnend
 110              		.section	.text._Z8calc_crcIhLj55EET_S0_h,"ax",%progbits
 111              		.align	1
 112              		.syntax unified
 113              		.thumb
 114              		.thumb_func
 116              	_Z8calc_crcIhLj55EET_S0_h:
 117              		.fnstart
 118              	.LVL8:
ARM GAS  /tmp/ccjyQa7a.s 			page 5


 119              	.LFB5496:
 120              		.file 2 "fibre-cpp/crc.hpp"
   1:fibre-cpp/crc.hpp **** #ifndef __CRC_HPP
   2:fibre-cpp/crc.hpp **** #define __CRC_HPP
   3:fibre-cpp/crc.hpp **** 
   4:fibre-cpp/crc.hpp **** #include <stdint.h>
   5:fibre-cpp/crc.hpp **** #include <limits.h>
   6:fibre-cpp/crc.hpp **** 
   7:fibre-cpp/crc.hpp **** // Calculates an arbitrary CRC for one byte.
   8:fibre-cpp/crc.hpp **** // Adapted from https://barrgroup.com/Embedded-Systems/How-To/CRC-Calculation-C-Code
   9:fibre-cpp/crc.hpp **** template<typename T, unsigned POLYNOMIAL>
  10:fibre-cpp/crc.hpp **** static T calc_crc(T remainder, uint8_t value) {
 121              		.loc 2 10 10 is_stmt 1 view -0
 122              		.cfi_startproc
 123              		@ args = 0, pretend = 0, frame = 0
 124              		@ frame_needed = 0, uses_anonymous_args = 0
 125              		@ link register save eliminated.
  11:fibre-cpp/crc.hpp ****     constexpr T BIT_WIDTH = (CHAR_BIT * sizeof(T));
  12:fibre-cpp/crc.hpp ****     constexpr T TOPBIT = ((T)1 << (BIT_WIDTH - 1));
  13:fibre-cpp/crc.hpp ****     
  14:fibre-cpp/crc.hpp ****     // Bring the next byte into the remainder.
  15:fibre-cpp/crc.hpp ****     remainder ^= (value << (BIT_WIDTH - 8));
 126              		.loc 2 15 15 is_stmt 0 view .LVU19
 127 0000 4840     		eors	r0, r0, r1
 128              	.LVL9:
 129              	.LBB571:
  16:fibre-cpp/crc.hpp **** 
  17:fibre-cpp/crc.hpp ****     // Perform modulo-2 division, a bit at a time.
  18:fibre-cpp/crc.hpp ****     for (uint8_t bit = 8; bit; --bit) {
 130              		.loc 2 18 18 view .LVU20
 131 0002 0823     		movs	r3, #8
 132 0004 03E0     		b	.L9
 133              	.LVL10:
 134              	.L7:
  19:fibre-cpp/crc.hpp ****         if (remainder & TOPBIT) {
  20:fibre-cpp/crc.hpp ****             remainder = (remainder << 1) ^ POLYNOMIAL;
  21:fibre-cpp/crc.hpp ****         } else {
  22:fibre-cpp/crc.hpp ****             remainder = (remainder << 1);
 135              		.loc 2 22 23 view .LVU21
 136 0006 4000     		lsls	r0, r0, #1
 137              	.LVL11:
 138              		.loc 2 22 23 view .LVU22
 139 0008 C0B2     		uxtb	r0, r0
 140              	.LVL12:
 141              	.L8:
  18:fibre-cpp/crc.hpp ****         if (remainder & TOPBIT) {
 142              		.loc 2 18 5 is_stmt 1 discriminator 2 view .LVU23
 143 000a 013B     		subs	r3, r3, #1
 144              	.LVL13:
  18:fibre-cpp/crc.hpp ****         if (remainder & TOPBIT) {
 145              		.loc 2 18 5 is_stmt 0 discriminator 2 view .LVU24
 146 000c DBB2     		uxtb	r3, r3
 147              	.LVL14:
 148              	.L9:
  18:fibre-cpp/crc.hpp ****         if (remainder & TOPBIT) {
 149              		.loc 2 18 27 is_stmt 1 discriminator 1 view .LVU25
 150 000e 3BB1     		cbz	r3, .L6
ARM GAS  /tmp/ccjyQa7a.s 			page 6


  19:fibre-cpp/crc.hpp ****         if (remainder & TOPBIT) {
 151              		.loc 2 19 9 is_stmt 0 view .LVU26
 152 0010 10F0800F 		tst	r0, #128
 153 0014 F7D0     		beq	.L7
  20:fibre-cpp/crc.hpp ****         } else {
 154              		.loc 2 20 36 view .LVU27
 155 0016 4000     		lsls	r0, r0, #1
 156              	.LVL15:
  20:fibre-cpp/crc.hpp ****         } else {
 157              		.loc 2 20 36 view .LVU28
 158 0018 C0B2     		uxtb	r0, r0
  20:fibre-cpp/crc.hpp ****         } else {
 159              		.loc 2 20 23 view .LVU29
 160 001a 80F03700 		eor	r0, r0, #55
 161              	.LVL16:
  20:fibre-cpp/crc.hpp ****         } else {
 162              		.loc 2 20 23 view .LVU30
 163 001e F4E7     		b	.L8
 164              	.L6:
  20:fibre-cpp/crc.hpp ****         } else {
 165              		.loc 2 20 23 view .LVU31
 166              	.LBE571:
  23:fibre-cpp/crc.hpp ****         }
  24:fibre-cpp/crc.hpp ****     }
  25:fibre-cpp/crc.hpp **** 
  26:fibre-cpp/crc.hpp ****     return remainder;
  27:fibre-cpp/crc.hpp **** }
 167              		.loc 2 27 1 view .LVU32
 168 0020 7047     		bx	lr
 169              		.cfi_endproc
 170              	.LFE5496:
 171              		.cantunwind
 172              		.fnend
 174              		.section	.text._Z8calc_crcIhLj55EET_S0_PKhj,"ax",%progbits
 175              		.align	1
 176              		.syntax unified
 177              		.thumb
 178              		.thumb_func
 180              	_Z8calc_crcIhLj55EET_S0_PKhj:
 181              		.fnstart
 182              	.LVL17:
 183              	.LFB5339:
  28:fibre-cpp/crc.hpp **** 
  29:fibre-cpp/crc.hpp **** template<typename T, unsigned POLYNOMIAL>
  30:fibre-cpp/crc.hpp **** static T calc_crc(T remainder, const uint8_t* buffer, size_t length) {
 184              		.loc 2 30 10 is_stmt 1 view -0
 185              		.cfi_startproc
 186              		@ args = 0, pretend = 0, frame = 0
 187              		@ frame_needed = 0, uses_anonymous_args = 0
 188              		.loc 2 30 10 is_stmt 0 view .LVU34
 189 0000 38B5     		push	{r3, r4, r5, lr}
 190              	.LCFI2:
 191              		.cfi_def_cfa_offset 16
 192              		.cfi_offset 3, -16
 193              		.cfi_offset 4, -12
 194              		.cfi_offset 5, -8
 195              		.cfi_offset 14, -4
ARM GAS  /tmp/ccjyQa7a.s 			page 7


 196 0002 0C46     		mov	r4, r1
 197 0004 04E0     		b	.L12
 198              	.LVL18:
 199              	.L14:
  31:fibre-cpp/crc.hpp ****     while (length--)
  32:fibre-cpp/crc.hpp ****         remainder = calc_crc<T, POLYNOMIAL>(remainder, *(buffer++));
 200              		.loc 2 32 44 view .LVU35
 201 0006 14F8011B 		ldrb	r1, [r4], #1	@ zero_extendqisi2
 202              	.LVL19:
 203              		.loc 2 32 44 view .LVU36
 204 000a FFF7FEFF 		bl	_Z8calc_crcIhLj55EET_S0_h
 205              	.LVL20:
  31:fibre-cpp/crc.hpp ****     while (length--)
 206              		.loc 2 31 5 view .LVU37
 207 000e 2A46     		mov	r2, r5
 208              	.LVL21:
 209              	.L12:
  31:fibre-cpp/crc.hpp ****     while (length--)
 210              		.loc 2 31 5 is_stmt 1 view .LVU38
 211 0010 551E     		subs	r5, r2, #1
 212              	.LVL22:
  31:fibre-cpp/crc.hpp ****     while (length--)
 213              		.loc 2 31 5 is_stmt 0 view .LVU39
 214 0012 002A     		cmp	r2, #0
 215 0014 F7D1     		bne	.L14
  33:fibre-cpp/crc.hpp ****     return remainder;
  34:fibre-cpp/crc.hpp **** }
 216              		.loc 2 34 1 view .LVU40
 217 0016 38BD     		pop	{r3, r4, r5, pc}
 218              		.loc 2 34 1 view .LVU41
 219              		.cfi_endproc
 220              	.LFE5339:
 221              		.cantunwind
 222              		.fnend
 224              		.section	.text._Z9calc_crc8ILj55EEhhPKhj,"ax",%progbits
 225              		.align	1
 226              		.syntax unified
 227              		.thumb
 228              		.thumb_func
 230              	_Z9calc_crc8ILj55EEhhPKhj:
 231              		.fnstart
 232              	.LVL23:
 233              	.LFB5008:
  35:fibre-cpp/crc.hpp **** 
  36:fibre-cpp/crc.hpp **** template<unsigned POLYNOMIAL>
  37:fibre-cpp/crc.hpp **** static uint8_t calc_crc8(uint8_t remainder, uint8_t value) {
  38:fibre-cpp/crc.hpp ****     return calc_crc<uint8_t, POLYNOMIAL>(remainder, value);
  39:fibre-cpp/crc.hpp **** }
  40:fibre-cpp/crc.hpp **** 
  41:fibre-cpp/crc.hpp **** template<unsigned POLYNOMIAL>
  42:fibre-cpp/crc.hpp **** static uint16_t calc_crc16(uint16_t remainder, uint8_t value) {
  43:fibre-cpp/crc.hpp ****     return calc_crc<uint16_t, POLYNOMIAL>(remainder, value);
  44:fibre-cpp/crc.hpp **** }
  45:fibre-cpp/crc.hpp **** 
  46:fibre-cpp/crc.hpp **** template<unsigned POLYNOMIAL>
  47:fibre-cpp/crc.hpp **** static uint8_t calc_crc8(uint8_t remainder, const uint8_t* buffer, size_t length) {
 234              		.loc 2 47 16 is_stmt 1 view -0
ARM GAS  /tmp/ccjyQa7a.s 			page 8


 235              		.cfi_startproc
 236              		@ args = 0, pretend = 0, frame = 0
 237              		@ frame_needed = 0, uses_anonymous_args = 0
 238              		.loc 2 47 16 is_stmt 0 view .LVU43
 239 0000 08B5     		push	{r3, lr}
 240              	.LCFI3:
 241              		.cfi_def_cfa_offset 8
 242              		.cfi_offset 3, -8
 243              		.cfi_offset 14, -4
  48:fibre-cpp/crc.hpp ****     return calc_crc<uint8_t, POLYNOMIAL>(remainder, buffer, length);
 244              		.loc 2 48 41 view .LVU44
 245 0002 FFF7FEFF 		bl	_Z8calc_crcIhLj55EET_S0_PKhj
 246              	.LVL24:
  49:fibre-cpp/crc.hpp **** }
 247              		.loc 2 49 1 view .LVU45
 248 0006 08BD     		pop	{r3, pc}
 249              		.cfi_endproc
 250              	.LFE5008:
 251              		.cantunwind
 252              		.fnend
 254              		.section	.text._Z8calc_crcItLj15717EET_S0_h,"ax",%progbits
 255              		.align	1
 256              		.syntax unified
 257              		.thumb
 258              		.thumb_func
 260              	_Z8calc_crcItLj15717EET_S0_h:
 261              		.fnstart
 262              	.LVL25:
 263              	.LFB5497:
  10:fibre-cpp/crc.hpp ****     constexpr T BIT_WIDTH = (CHAR_BIT * sizeof(T));
 264              		.loc 2 10 10 is_stmt 1 view -0
 265              		.cfi_startproc
 266              		@ args = 0, pretend = 0, frame = 0
 267              		@ frame_needed = 0, uses_anonymous_args = 0
 268              		@ link register save eliminated.
  15:fibre-cpp/crc.hpp **** 
 269              		.loc 2 15 15 is_stmt 0 view .LVU47
 270 0000 80EA0120 		eor	r0, r0, r1, lsl #8
 271              	.LVL26:
 272              	.LBB572:
  18:fibre-cpp/crc.hpp ****         if (remainder & TOPBIT) {
 273              		.loc 2 18 18 view .LVU48
 274 0004 0823     		movs	r3, #8
 275 0006 03E0     		b	.L21
 276              	.LVL27:
 277              	.L19:
  22:fibre-cpp/crc.hpp ****         }
 278              		.loc 2 22 23 view .LVU49
 279 0008 4000     		lsls	r0, r0, #1
 280              	.LVL28:
  22:fibre-cpp/crc.hpp ****         }
 281              		.loc 2 22 23 view .LVU50
 282 000a 80B2     		uxth	r0, r0
 283              	.LVL29:
 284              	.L20:
  18:fibre-cpp/crc.hpp ****         if (remainder & TOPBIT) {
 285              		.loc 2 18 5 is_stmt 1 discriminator 2 view .LVU51
ARM GAS  /tmp/ccjyQa7a.s 			page 9


 286 000c 013B     		subs	r3, r3, #1
 287              	.LVL30:
  18:fibre-cpp/crc.hpp ****         if (remainder & TOPBIT) {
 288              		.loc 2 18 5 is_stmt 0 discriminator 2 view .LVU52
 289 000e DBB2     		uxtb	r3, r3
 290              	.LVL31:
 291              	.L21:
  18:fibre-cpp/crc.hpp ****         if (remainder & TOPBIT) {
 292              		.loc 2 18 27 is_stmt 1 discriminator 1 view .LVU53
 293 0010 4BB1     		cbz	r3, .L18
  19:fibre-cpp/crc.hpp ****             remainder = (remainder << 1) ^ POLYNOMIAL;
 294              		.loc 2 19 9 is_stmt 0 view .LVU54
 295 0012 10F4004F 		tst	r0, #32768
 296 0016 F7D0     		beq	.L19
  20:fibre-cpp/crc.hpp ****         } else {
 297              		.loc 2 20 36 view .LVU55
 298 0018 4000     		lsls	r0, r0, #1
 299              	.LVL32:
  20:fibre-cpp/crc.hpp ****         } else {
 300              		.loc 2 20 36 view .LVU56
 301 001a 80B2     		uxth	r0, r0
  20:fibre-cpp/crc.hpp ****         } else {
 302              		.loc 2 20 23 view .LVU57
 303 001c 80F47550 		eor	r0, r0, #15680
 304 0020 80F02500 		eor	r0, r0, #37
 305              	.LVL33:
  20:fibre-cpp/crc.hpp ****         } else {
 306              		.loc 2 20 23 view .LVU58
 307 0024 F2E7     		b	.L20
 308              	.L18:
  20:fibre-cpp/crc.hpp ****         } else {
 309              		.loc 2 20 23 view .LVU59
 310              	.LBE572:
  27:fibre-cpp/crc.hpp **** 
 311              		.loc 2 27 1 view .LVU60
 312 0026 7047     		bx	lr
 313              		.cfi_endproc
 314              	.LFE5497:
 315              		.cantunwind
 316              		.fnend
 318              		.section	.text._Z8calc_crcItLj15717EET_S0_PKhj,"ax",%progbits
 319              		.align	1
 320              		.syntax unified
 321              		.thumb
 322              		.thumb_func
 324              	_Z8calc_crcItLj15717EET_S0_PKhj:
 325              		.fnstart
 326              	.LVL34:
 327              	.LFB5340:
  30:fibre-cpp/crc.hpp ****     while (length--)
 328              		.loc 2 30 10 is_stmt 1 view -0
 329              		.cfi_startproc
 330              		@ args = 0, pretend = 0, frame = 0
 331              		@ frame_needed = 0, uses_anonymous_args = 0
  30:fibre-cpp/crc.hpp ****     while (length--)
 332              		.loc 2 30 10 is_stmt 0 view .LVU62
 333 0000 38B5     		push	{r3, r4, r5, lr}
ARM GAS  /tmp/ccjyQa7a.s 			page 10


 334              	.LCFI4:
 335              		.cfi_def_cfa_offset 16
 336              		.cfi_offset 3, -16
 337              		.cfi_offset 4, -12
 338              		.cfi_offset 5, -8
 339              		.cfi_offset 14, -4
 340 0002 0C46     		mov	r4, r1
 341 0004 04E0     		b	.L24
 342              	.LVL35:
 343              	.L26:
  32:fibre-cpp/crc.hpp ****     return remainder;
 344              		.loc 2 32 44 view .LVU63
 345 0006 14F8011B 		ldrb	r1, [r4], #1	@ zero_extendqisi2
 346              	.LVL36:
  32:fibre-cpp/crc.hpp ****     return remainder;
 347              		.loc 2 32 44 view .LVU64
 348 000a FFF7FEFF 		bl	_Z8calc_crcItLj15717EET_S0_h
 349              	.LVL37:
  31:fibre-cpp/crc.hpp ****         remainder = calc_crc<T, POLYNOMIAL>(remainder, *(buffer++));
 350              		.loc 2 31 5 view .LVU65
 351 000e 2A46     		mov	r2, r5
 352              	.LVL38:
 353              	.L24:
  31:fibre-cpp/crc.hpp ****         remainder = calc_crc<T, POLYNOMIAL>(remainder, *(buffer++));
 354              		.loc 2 31 5 is_stmt 1 view .LVU66
 355 0010 551E     		subs	r5, r2, #1
 356              	.LVL39:
  31:fibre-cpp/crc.hpp ****         remainder = calc_crc<T, POLYNOMIAL>(remainder, *(buffer++));
 357              		.loc 2 31 5 is_stmt 0 view .LVU67
 358 0012 002A     		cmp	r2, #0
 359 0014 F7D1     		bne	.L26
  34:fibre-cpp/crc.hpp **** 
 360              		.loc 2 34 1 view .LVU68
 361 0016 38BD     		pop	{r3, r4, r5, pc}
  34:fibre-cpp/crc.hpp **** 
 362              		.loc 2 34 1 view .LVU69
 363              		.cfi_endproc
 364              	.LFE5340:
 365              		.cantunwind
 366              		.fnend
 368              		.section	.text._Z10calc_crc16ILj15717EEttPKhj,"ax",%progbits
 369              		.align	1
 370              		.syntax unified
 371              		.thumb
 372              		.thumb_func
 374              	_Z10calc_crc16ILj15717EEttPKhj:
 375              		.fnstart
 376              	.LVL40:
 377              	.LFB5009:
  50:fibre-cpp/crc.hpp **** 
  51:fibre-cpp/crc.hpp **** template<unsigned POLYNOMIAL>
  52:fibre-cpp/crc.hpp **** static uint16_t calc_crc16(uint16_t remainder, const uint8_t* buffer, size_t length) {
 378              		.loc 2 52 17 is_stmt 1 view -0
 379              		.cfi_startproc
 380              		@ args = 0, pretend = 0, frame = 0
 381              		@ frame_needed = 0, uses_anonymous_args = 0
 382              		.loc 2 52 17 is_stmt 0 view .LVU71
ARM GAS  /tmp/ccjyQa7a.s 			page 11


 383 0000 08B5     		push	{r3, lr}
 384              	.LCFI5:
 385              		.cfi_def_cfa_offset 8
 386              		.cfi_offset 3, -8
 387              		.cfi_offset 14, -4
  53:fibre-cpp/crc.hpp ****     return calc_crc<uint16_t, POLYNOMIAL>(remainder, buffer, length);
 388              		.loc 2 53 42 view .LVU72
 389 0002 FFF7FEFF 		bl	_Z8calc_crcItLj15717EET_S0_PKhj
 390              	.LVL41:
  54:fibre-cpp/crc.hpp **** }
 391              		.loc 2 54 1 view .LVU73
 392 0006 08BD     		pop	{r3, pc}
 393              		.cfi_endproc
 394              	.LFE5009:
 395              		.cantunwind
 396              		.fnend
 398              		.section	.text._ZN5fibre17endpoint0_handlerEPNS_16generic_bufptr_tIKhEEPNS0_IhEE,"ax",%progbits
 399              		.align	1
 400              		.global	_ZN5fibre17endpoint0_handlerEPNS_16generic_bufptr_tIKhEEPNS0_IhEE
 401              		.syntax unified
 402              		.thumb
 403              		.thumb_func
 405              	_ZN5fibre17endpoint0_handlerEPNS_16generic_bufptr_tIKhEEPNS0_IhEE:
 406              		.fnstart
 407              	.LVL42:
 408              	.LFB4603:
 116:fibre-cpp/legacy_protocol.cpp **** 
 117:fibre-cpp/legacy_protocol.cpp **** void PacketUnwrapper::complete(ReadResult result) {
 118:fibre-cpp/legacy_protocol.cpp ****     // All code paths in this function must end with either of these two:
 119:fibre-cpp/legacy_protocol.cpp ****     //   - rx_channel_->start_read() to bounce back control to the underlying stream
 120:fibre-cpp/legacy_protocol.cpp ****     //   - safe_complete() to return control to the client
 121:fibre-cpp/legacy_protocol.cpp **** 
 122:fibre-cpp/legacy_protocol.cpp ****     if (state_ == kStateCancelling) {
 123:fibre-cpp/legacy_protocol.cpp ****         state_ = kStateIdle;
 124:fibre-cpp/legacy_protocol.cpp ****         completer_.invoke_and_clear({kStreamCancelled, payload_buf_.begin()});
 125:fibre-cpp/legacy_protocol.cpp ****         return;
 126:fibre-cpp/legacy_protocol.cpp ****     }
 127:fibre-cpp/legacy_protocol.cpp **** 
 128:fibre-cpp/legacy_protocol.cpp ****     if (result.status != kStreamOk) {
 129:fibre-cpp/legacy_protocol.cpp ****         state_ = kStateIdle;
 130:fibre-cpp/legacy_protocol.cpp ****         completer_.invoke_and_clear({result.status, payload_buf_.begin()});
 131:fibre-cpp/legacy_protocol.cpp ****         return;
 132:fibre-cpp/legacy_protocol.cpp ****     }
 133:fibre-cpp/legacy_protocol.cpp **** 
 134:fibre-cpp/legacy_protocol.cpp ****     if (result.end < expected_rx_end_) {
 135:fibre-cpp/legacy_protocol.cpp ****         rx_channel_->start_read({result.end, expected_rx_end_}, &inner_transfer_handle_, MEMBER_CB(
 136:fibre-cpp/legacy_protocol.cpp ****         return;
 137:fibre-cpp/legacy_protocol.cpp ****     }
 138:fibre-cpp/legacy_protocol.cpp **** 
 139:fibre-cpp/legacy_protocol.cpp ****     if (state_ == kStateReceivingHeader) {
 140:fibre-cpp/legacy_protocol.cpp ****         size_t n_discard;
 141:fibre-cpp/legacy_protocol.cpp **** 
 142:fibre-cpp/legacy_protocol.cpp ****         // Process header
 143:fibre-cpp/legacy_protocol.cpp ****         if (rx_buf_[0] != CANONICAL_PREFIX) {
 144:fibre-cpp/legacy_protocol.cpp ****             n_discard = 1;
 145:fibre-cpp/legacy_protocol.cpp ****         } else if ((rx_buf_[1] & 0x80)) {
 146:fibre-cpp/legacy_protocol.cpp ****             n_discard = 2; // TODO: support packets larger than 128 bytes
ARM GAS  /tmp/ccjyQa7a.s 			page 12


 147:fibre-cpp/legacy_protocol.cpp ****         } else if (calc_crc8<CANONICAL_CRC8_POLYNOMIAL>(CANONICAL_CRC8_INIT, rx_buf_, 3)) {
 148:fibre-cpp/legacy_protocol.cpp ****             n_discard = 3;
 149:fibre-cpp/legacy_protocol.cpp ****         } else {
 150:fibre-cpp/legacy_protocol.cpp ****             state_ = kStateReceivingPayload;
 151:fibre-cpp/legacy_protocol.cpp ****             payload_length_ = std::min(payload_buf_.size(), (size_t)rx_buf_[1]);
 152:fibre-cpp/legacy_protocol.cpp ****             expected_rx_end_ = payload_buf_.begin() + payload_length_;
 153:fibre-cpp/legacy_protocol.cpp ****             rx_channel_->start_read(payload_buf_.take(payload_length_), &inner_transfer_handle_, ME
 154:fibre-cpp/legacy_protocol.cpp ****             return;
 155:fibre-cpp/legacy_protocol.cpp ****         }
 156:fibre-cpp/legacy_protocol.cpp **** 
 157:fibre-cpp/legacy_protocol.cpp ****         // Header was bad: discard the bad header bytes and receive more
 158:fibre-cpp/legacy_protocol.cpp ****         memmove(rx_buf_, rx_buf_ + n_discard, sizeof(rx_buf_) - n_discard);
 159:fibre-cpp/legacy_protocol.cpp ****         rx_channel_->start_read(bufptr_t{rx_buf_}.skip(3 - n_discard), &inner_transfer_handle_, MEM
 160:fibre-cpp/legacy_protocol.cpp **** 
 161:fibre-cpp/legacy_protocol.cpp ****     } else if (state_ == kStateReceivingPayload) {
 162:fibre-cpp/legacy_protocol.cpp ****         expected_rx_end_ = rx_buf_ + 2;
 163:fibre-cpp/legacy_protocol.cpp ****         state_ = kStateReceivingTrailer;
 164:fibre-cpp/legacy_protocol.cpp ****         rx_channel_->start_read({rx_buf_, expected_rx_end_}, &inner_transfer_handle_, MEMBER_CB(thi
 165:fibre-cpp/legacy_protocol.cpp **** 
 166:fibre-cpp/legacy_protocol.cpp ****     } else if (state_ == kStateReceivingTrailer) {
 167:fibre-cpp/legacy_protocol.cpp ****         uint16_t crc = calc_crc16<CANONICAL_CRC16_POLYNOMIAL>(CANONICAL_CRC16_INIT, payload_buf_.be
 168:fibre-cpp/legacy_protocol.cpp ****         crc = calc_crc16<CANONICAL_CRC16_POLYNOMIAL>(crc, rx_buf_, 2);
 169:fibre-cpp/legacy_protocol.cpp **** 
 170:fibre-cpp/legacy_protocol.cpp ****         if (!crc) {
 171:fibre-cpp/legacy_protocol.cpp ****             state_ = kStateIdle;
 172:fibre-cpp/legacy_protocol.cpp ****             completer_.invoke_and_clear({kStreamOk, payload_buf_.begin() + payload_length_});
 173:fibre-cpp/legacy_protocol.cpp ****         } else {
 174:fibre-cpp/legacy_protocol.cpp ****             state_ = kStateReceivingHeader;
 175:fibre-cpp/legacy_protocol.cpp ****             expected_rx_end_ = rx_buf_ + 3;
 176:fibre-cpp/legacy_protocol.cpp ****             rx_channel_->start_read({rx_buf_, expected_rx_end_}, &inner_transfer_handle_, MEMBER_CB
 177:fibre-cpp/legacy_protocol.cpp ****         }
 178:fibre-cpp/legacy_protocol.cpp ****     }
 179:fibre-cpp/legacy_protocol.cpp **** }
 180:fibre-cpp/legacy_protocol.cpp **** 
 181:fibre-cpp/legacy_protocol.cpp **** 
 182:fibre-cpp/legacy_protocol.cpp **** /* LegacyProtocolPacketBased -------------------------------------------------*/
 183:fibre-cpp/legacy_protocol.cpp **** 
 184:fibre-cpp/legacy_protocol.cpp **** #if FIBRE_ENABLE_CLIENT
 185:fibre-cpp/legacy_protocol.cpp **** 
 186:fibre-cpp/legacy_protocol.cpp **** /**
 187:fibre-cpp/legacy_protocol.cpp ****  * @brief Starts a remote endpoint operation.
 188:fibre-cpp/legacy_protocol.cpp ****  * 
 189:fibre-cpp/legacy_protocol.cpp ****  * @param endpoint_id: The endpoint ID to invoke the operation on.
 190:fibre-cpp/legacy_protocol.cpp ****  * @param tx_buf: The tx_buf to write to the endpoint. Must remain valid until
 191:fibre-cpp/legacy_protocol.cpp ****  *        the completer is invoked.
 192:fibre-cpp/legacy_protocol.cpp ****  * @param rx_length: The desired number of bytes to read from the endpoint. The
 193:fibre-cpp/legacy_protocol.cpp ****  *        actual returned buffer may be smaller.
 194:fibre-cpp/legacy_protocol.cpp ****  * @param completer: The completer that will be notified once the operation
 195:fibre-cpp/legacy_protocol.cpp ****  *        completes (whether successful or not).
 196:fibre-cpp/legacy_protocol.cpp ****  *        The buffer given to the completer is only valid if the status is
 197:fibre-cpp/legacy_protocol.cpp ****  *        kStreamOk and until the completer returns.
 198:fibre-cpp/legacy_protocol.cpp ****  * @param handle: The variable pointed to by this argument is set to a handle
 199:fibre-cpp/legacy_protocol.cpp ****  *        that can be passed to cancel_endpoint_operation() to cancel the
 200:fibre-cpp/legacy_protocol.cpp ****  *        ongoing operation. If the completer is invoked directly from within
 201:fibre-cpp/legacy_protocol.cpp ****  *        this function then the handle is not set later than invoking the
 202:fibre-cpp/legacy_protocol.cpp ****  *        completer.
 203:fibre-cpp/legacy_protocol.cpp ****  */
ARM GAS  /tmp/ccjyQa7a.s 			page 13


 204:fibre-cpp/legacy_protocol.cpp **** void LegacyProtocolPacketBased::start_endpoint_operation(uint16_t endpoint_id, cbufptr_t tx_buf, bu
 205:fibre-cpp/legacy_protocol.cpp ****     outbound_seq_no_ = ((outbound_seq_no_ + 1) & 0x7fff);
 206:fibre-cpp/legacy_protocol.cpp **** 
 207:fibre-cpp/legacy_protocol.cpp ****     EndpointOperation op = {
 208:fibre-cpp/legacy_protocol.cpp ****         .seqno = (uint16_t)(outbound_seq_no_ | 0x0080), // FIXME: we hardwire one bit of the seq-no
 209:fibre-cpp/legacy_protocol.cpp ****         .endpoint_id = endpoint_id,
 210:fibre-cpp/legacy_protocol.cpp ****         .tx_buf = tx_buf,
 211:fibre-cpp/legacy_protocol.cpp ****         .rx_buf = rx_buf,
 212:fibre-cpp/legacy_protocol.cpp ****         .callback = callback
 213:fibre-cpp/legacy_protocol.cpp ****     };
 214:fibre-cpp/legacy_protocol.cpp **** 
 215:fibre-cpp/legacy_protocol.cpp ****     if (handle) {
 216:fibre-cpp/legacy_protocol.cpp ****         *handle = op.seqno | 0xffff0000;
 217:fibre-cpp/legacy_protocol.cpp ****     }
 218:fibre-cpp/legacy_protocol.cpp **** 
 219:fibre-cpp/legacy_protocol.cpp ****     if (tx_handle_) {
 220:fibre-cpp/legacy_protocol.cpp ****         FIBRE_LOG(D) << "Endpoint operation already in progress. Enqueuing this one.";
 221:fibre-cpp/legacy_protocol.cpp **** 
 222:fibre-cpp/legacy_protocol.cpp ****         // A TX operation is already in progress. Enqueue this one.
 223:fibre-cpp/legacy_protocol.cpp ****         pending_operations_.push_back(op);
 224:fibre-cpp/legacy_protocol.cpp ****         return;
 225:fibre-cpp/legacy_protocol.cpp ****     }
 226:fibre-cpp/legacy_protocol.cpp **** 
 227:fibre-cpp/legacy_protocol.cpp ****     start_endpoint_operation(op);
 228:fibre-cpp/legacy_protocol.cpp **** }
 229:fibre-cpp/legacy_protocol.cpp **** 
 230:fibre-cpp/legacy_protocol.cpp **** void LegacyProtocolPacketBased::start_endpoint_operation(EndpointOperation op) {
 231:fibre-cpp/legacy_protocol.cpp ****     write_le<uint16_t>(op.seqno, tx_buf_);
 232:fibre-cpp/legacy_protocol.cpp ****     write_le<uint16_t>(op.endpoint_id | 0x8000, tx_buf_ + 2);
 233:fibre-cpp/legacy_protocol.cpp ****     write_le<uint16_t>(op.rx_buf.size(), tx_buf_ + 4);
 234:fibre-cpp/legacy_protocol.cpp **** 
 235:fibre-cpp/legacy_protocol.cpp ****     size_t mtu = std::min(sizeof(tx_buf_), tx_mtu_);
 236:fibre-cpp/legacy_protocol.cpp ****     size_t n_payload = std::min(std::max(mtu, (size_t)8) - 8, op.tx_buf.size());
 237:fibre-cpp/legacy_protocol.cpp **** 
 238:fibre-cpp/legacy_protocol.cpp ****     memcpy(tx_buf_ + 6, op.tx_buf.begin(), n_payload);
 239:fibre-cpp/legacy_protocol.cpp **** 
 240:fibre-cpp/legacy_protocol.cpp ****     uint16_t trailer = (op.endpoint_id & 0x7fff) == 0 ?
 241:fibre-cpp/legacy_protocol.cpp ****                        PROTOCOL_VERSION : client_.json_crc_;
 242:fibre-cpp/legacy_protocol.cpp **** 
 243:fibre-cpp/legacy_protocol.cpp ****     write_le<uint16_t>(trailer, tx_buf_ + 6 + n_payload);
 244:fibre-cpp/legacy_protocol.cpp **** 
 245:fibre-cpp/legacy_protocol.cpp ****     expected_acks_[op.seqno] = op;
 246:fibre-cpp/legacy_protocol.cpp ****     transmitting_op_ = op.seqno | 0xffff0000;
 247:fibre-cpp/legacy_protocol.cpp ****     tx_channel_->start_write(cbufptr_t{tx_buf_}.take(8 + n_payload), &tx_handle_, MEMBER_CB(this, o
 248:fibre-cpp/legacy_protocol.cpp **** }
 249:fibre-cpp/legacy_protocol.cpp **** 
 250:fibre-cpp/legacy_protocol.cpp **** 
 251:fibre-cpp/legacy_protocol.cpp **** void LegacyProtocolPacketBased::cancel_endpoint_operation(EndpointOperationHandle handle) {
 252:fibre-cpp/legacy_protocol.cpp ****     if (!handle) {
 253:fibre-cpp/legacy_protocol.cpp ****         return;
 254:fibre-cpp/legacy_protocol.cpp ****     }
 255:fibre-cpp/legacy_protocol.cpp **** 
 256:fibre-cpp/legacy_protocol.cpp ****     uint16_t seqno = static_cast<uint16_t>(handle & 0xffff);
 257:fibre-cpp/legacy_protocol.cpp **** 
 258:fibre-cpp/legacy_protocol.cpp ****     Callback<void, EndpointOperationResult> callback;
 259:fibre-cpp/legacy_protocol.cpp ****     const uint8_t* tx_end = nullptr;
 260:fibre-cpp/legacy_protocol.cpp ****     uint8_t* rx_end = nullptr;
ARM GAS  /tmp/ccjyQa7a.s 			page 14


 261:fibre-cpp/legacy_protocol.cpp **** 
 262:fibre-cpp/legacy_protocol.cpp ****     auto it0 = std::find_if(pending_operations_.begin(), pending_operations_.end(), [&](EndpointOpe
 263:fibre-cpp/legacy_protocol.cpp ****         return op.seqno == seqno;
 264:fibre-cpp/legacy_protocol.cpp ****     });
 265:fibre-cpp/legacy_protocol.cpp **** 
 266:fibre-cpp/legacy_protocol.cpp ****     if (it0 != pending_operations_.end()) {
 267:fibre-cpp/legacy_protocol.cpp ****         callback = it0->callback;
 268:fibre-cpp/legacy_protocol.cpp ****         tx_end = it0->tx_buf.begin();
 269:fibre-cpp/legacy_protocol.cpp ****         rx_end = it0->rx_buf.begin();
 270:fibre-cpp/legacy_protocol.cpp ****         pending_operations_.erase(it0);
 271:fibre-cpp/legacy_protocol.cpp ****     }
 272:fibre-cpp/legacy_protocol.cpp **** 
 273:fibre-cpp/legacy_protocol.cpp ****     auto it1 = expected_acks_.find(seqno);
 274:fibre-cpp/legacy_protocol.cpp **** 
 275:fibre-cpp/legacy_protocol.cpp ****     if (it1 != expected_acks_.end()) {
 276:fibre-cpp/legacy_protocol.cpp ****         callback = it1->second.callback;
 277:fibre-cpp/legacy_protocol.cpp ****         tx_end = it1->second.tx_buf.begin();
 278:fibre-cpp/legacy_protocol.cpp ****         rx_end = it1->second.rx_buf.begin();
 279:fibre-cpp/legacy_protocol.cpp ****         expected_acks_.erase(it1);
 280:fibre-cpp/legacy_protocol.cpp ****     }
 281:fibre-cpp/legacy_protocol.cpp **** 
 282:fibre-cpp/legacy_protocol.cpp ****     if (transmitting_op_ == handle) {
 283:fibre-cpp/legacy_protocol.cpp ****         // Cancel the TX task because it belongs to the endpoint operation that
 284:fibre-cpp/legacy_protocol.cpp ****         // is being cancelled.
 285:fibre-cpp/legacy_protocol.cpp ****         tx_channel_->cancel_write(tx_handle_);
 286:fibre-cpp/legacy_protocol.cpp ****     } else {
 287:fibre-cpp/legacy_protocol.cpp ****         // Either we're waiting for an ack on this operation or it has not yet
 288:fibre-cpp/legacy_protocol.cpp ****         // been sent. In both cases we can just complete immediately.
 289:fibre-cpp/legacy_protocol.cpp ****         callback.invoke_and_clear({kStreamCancelled, tx_end, rx_end});
 290:fibre-cpp/legacy_protocol.cpp ****     }
 291:fibre-cpp/legacy_protocol.cpp **** }
 292:fibre-cpp/legacy_protocol.cpp **** 
 293:fibre-cpp/legacy_protocol.cpp **** #endif
 294:fibre-cpp/legacy_protocol.cpp **** 
 295:fibre-cpp/legacy_protocol.cpp **** #if FIBRE_ENABLE_SERVER
 296:fibre-cpp/legacy_protocol.cpp **** 
 297:fibre-cpp/legacy_protocol.cpp **** // Returns part of the JSON interface definition.
 298:fibre-cpp/legacy_protocol.cpp **** bool fibre::endpoint0_handler(fibre::cbufptr_t* input_buffer, fibre::bufptr_t* output_buffer) {
 409              		.loc 1 298 95 is_stmt 1 view -0
 410              		.cfi_startproc
 411              		@ args = 0, pretend = 0, frame = 24
 412              		@ frame_needed = 0, uses_anonymous_args = 0
 413              		.loc 1 298 95 is_stmt 0 view .LVU75
 414 0000 70B5     		push	{r4, r5, r6, lr}
 415              	.LCFI6:
 416              		.cfi_def_cfa_offset 16
 417              		.cfi_offset 4, -16
 418              		.cfi_offset 5, -12
 419              		.cfi_offset 6, -8
 420              		.cfi_offset 14, -4
 421 0002 86B0     		sub	sp, sp, #24
 422              	.LCFI7:
 423              		.cfi_def_cfa_offset 40
 424 0004 0E46     		mov	r6, r1
 299:fibre-cpp/legacy_protocol.cpp ****     // The request must contain a 32 bit integer to specify an offset
 300:fibre-cpp/legacy_protocol.cpp ****     std::optional<uint32_t> offset = read_le<uint32_t>(input_buffer);
 425              		.loc 1 300 5 is_stmt 1 view .LVU76
ARM GAS  /tmp/ccjyQa7a.s 			page 15


 426              	.LVL43:
 427              	.LBB633:
 428              	.LBI633:
 429              		.file 3 "fibre-cpp/include/fibre/simple_serdes.hpp"
   1:fibre-cpp/include/fibre/simple_serdes.hpp **** #ifndef __FIBRE_SIMPLE_SERDES
   2:fibre-cpp/include/fibre/simple_serdes.hpp **** #define __FIBRE_SIMPLE_SERDES
   3:fibre-cpp/include/fibre/simple_serdes.hpp **** 
   4:fibre-cpp/include/fibre/simple_serdes.hpp **** #include "cpp_utils.hpp"
   5:fibre-cpp/include/fibre/simple_serdes.hpp **** #include "limits.h"
   6:fibre-cpp/include/fibre/simple_serdes.hpp **** #include <optional> // TODO: make C++11 backport of this
   7:fibre-cpp/include/fibre/simple_serdes.hpp **** #include <cstring>
   8:fibre-cpp/include/fibre/simple_serdes.hpp **** #include <stdint.h>
   9:fibre-cpp/include/fibre/simple_serdes.hpp **** 
  10:fibre-cpp/include/fibre/simple_serdes.hpp **** template<typename T, bool BigEndian, typename = void>
  11:fibre-cpp/include/fibre/simple_serdes.hpp **** struct SimpleSerializer;
  12:fibre-cpp/include/fibre/simple_serdes.hpp **** template<typename T>
  13:fibre-cpp/include/fibre/simple_serdes.hpp **** using LittleEndianSerializer = SimpleSerializer<T, false>;
  14:fibre-cpp/include/fibre/simple_serdes.hpp **** template<typename T>
  15:fibre-cpp/include/fibre/simple_serdes.hpp **** using BigEndianSerializer = SimpleSerializer<T, true>;
  16:fibre-cpp/include/fibre/simple_serdes.hpp **** 
  17:fibre-cpp/include/fibre/simple_serdes.hpp **** 
  18:fibre-cpp/include/fibre/simple_serdes.hpp **** /* @brief Serializer/deserializer for arbitrary integral number types */
  19:fibre-cpp/include/fibre/simple_serdes.hpp **** // TODO: allow reading an arbitrary number of bits
  20:fibre-cpp/include/fibre/simple_serdes.hpp **** template<typename T, bool BigEndian>
  21:fibre-cpp/include/fibre/simple_serdes.hpp **** struct SimpleSerializer<T, BigEndian, typename std::enable_if_t<std::is_integral<T>::value>> {
  22:fibre-cpp/include/fibre/simple_serdes.hpp ****     static constexpr size_t BIT_WIDTH = std::numeric_limits<T>::digits;
  23:fibre-cpp/include/fibre/simple_serdes.hpp ****     static constexpr size_t BYTE_WIDTH = (BIT_WIDTH + 7) / 8;
  24:fibre-cpp/include/fibre/simple_serdes.hpp **** 
  25:fibre-cpp/include/fibre/simple_serdes.hpp ****     template<typename TIterator>
  26:fibre-cpp/include/fibre/simple_serdes.hpp ****     static std::optional<T> read(TIterator* begin, TIterator end = nullptr) {
  27:fibre-cpp/include/fibre/simple_serdes.hpp ****         T result = 0;
  28:fibre-cpp/include/fibre/simple_serdes.hpp ****         if (BigEndian) {
  29:fibre-cpp/include/fibre/simple_serdes.hpp ****             for (size_t i = BYTE_WIDTH; i > 0; (i++, (*begin)++)) {
  30:fibre-cpp/include/fibre/simple_serdes.hpp ****                 if (end && !(*begin < end))
  31:fibre-cpp/include/fibre/simple_serdes.hpp ****                     return std::nullopt;
  32:fibre-cpp/include/fibre/simple_serdes.hpp ****                 uint8_t byte = **begin;
  33:fibre-cpp/include/fibre/simple_serdes.hpp ****                 result |= static_cast<T>(byte) << ((i - 1) << 3);
  34:fibre-cpp/include/fibre/simple_serdes.hpp ****             }
  35:fibre-cpp/include/fibre/simple_serdes.hpp ****         } else {
  36:fibre-cpp/include/fibre/simple_serdes.hpp ****             for (size_t i = 0; i < BYTE_WIDTH; (i++, (*begin)++)) {
  37:fibre-cpp/include/fibre/simple_serdes.hpp ****                 if (end && !(*begin < end))
  38:fibre-cpp/include/fibre/simple_serdes.hpp ****                     return std::nullopt;
  39:fibre-cpp/include/fibre/simple_serdes.hpp ****                 uint8_t byte = **begin;
  40:fibre-cpp/include/fibre/simple_serdes.hpp ****                 result |= static_cast<T>(byte) << (i << 3);
  41:fibre-cpp/include/fibre/simple_serdes.hpp ****             }
  42:fibre-cpp/include/fibre/simple_serdes.hpp ****         }
  43:fibre-cpp/include/fibre/simple_serdes.hpp ****         return result;
  44:fibre-cpp/include/fibre/simple_serdes.hpp ****     }
  45:fibre-cpp/include/fibre/simple_serdes.hpp **** 
  46:fibre-cpp/include/fibre/simple_serdes.hpp ****     template<typename TIterator>
  47:fibre-cpp/include/fibre/simple_serdes.hpp ****     static bool write(T value, TIterator* begin, TIterator end = nullptr) {
  48:fibre-cpp/include/fibre/simple_serdes.hpp ****         if (BigEndian) {
  49:fibre-cpp/include/fibre/simple_serdes.hpp ****             for (size_t i = BYTE_WIDTH; i > 0; (i--, (*begin)++)) {
  50:fibre-cpp/include/fibre/simple_serdes.hpp ****                 if (end && !(*begin < end))
  51:fibre-cpp/include/fibre/simple_serdes.hpp ****                     return false;
  52:fibre-cpp/include/fibre/simple_serdes.hpp ****                 uint8_t byte = static_cast<uint8_t>((value >> ((i - 1) << 3)) & 0xff);
  53:fibre-cpp/include/fibre/simple_serdes.hpp ****                 **begin = byte;
ARM GAS  /tmp/ccjyQa7a.s 			page 16


  54:fibre-cpp/include/fibre/simple_serdes.hpp ****             }
  55:fibre-cpp/include/fibre/simple_serdes.hpp ****         } else {
  56:fibre-cpp/include/fibre/simple_serdes.hpp ****             for (size_t i = 0; i < BYTE_WIDTH; (i++, (*begin)++)) {
  57:fibre-cpp/include/fibre/simple_serdes.hpp ****                 if (end && !(*begin < end))
  58:fibre-cpp/include/fibre/simple_serdes.hpp ****                     return false;
  59:fibre-cpp/include/fibre/simple_serdes.hpp ****                 uint8_t byte = static_cast<uint8_t>((value >> (i << 3)) & 0xff);
  60:fibre-cpp/include/fibre/simple_serdes.hpp ****                 **begin = byte;
  61:fibre-cpp/include/fibre/simple_serdes.hpp ****             }
  62:fibre-cpp/include/fibre/simple_serdes.hpp ****         }
  63:fibre-cpp/include/fibre/simple_serdes.hpp ****         return true;
  64:fibre-cpp/include/fibre/simple_serdes.hpp ****     }
  65:fibre-cpp/include/fibre/simple_serdes.hpp **** };
  66:fibre-cpp/include/fibre/simple_serdes.hpp **** 
  67:fibre-cpp/include/fibre/simple_serdes.hpp **** template<typename T>
  68:fibre-cpp/include/fibre/simple_serdes.hpp **** inline std::optional<T> read_le(fibre::cbufptr_t* buffer) {
 430              		.loc 3 68 25 view .LVU77
 431              	.LBB634:
 432              	.LBB635:
 433              	.LBI635:
 434              		.file 4 "fibre-cpp/include/fibre/bufptr.hpp"
   1:fibre-cpp/include/fibre/bufptr.hpp **** #ifndef __FIBRE_BUFPTR_HPP
   2:fibre-cpp/include/fibre/bufptr.hpp **** #define __FIBRE_BUFPTR_HPP
   3:fibre-cpp/include/fibre/bufptr.hpp **** 
   4:fibre-cpp/include/fibre/bufptr.hpp **** #include <stdlib.h>
   5:fibre-cpp/include/fibre/bufptr.hpp **** #include <vector>
   6:fibre-cpp/include/fibre/bufptr.hpp **** 
   7:fibre-cpp/include/fibre/bufptr.hpp **** namespace fibre {
   8:fibre-cpp/include/fibre/bufptr.hpp **** 
   9:fibre-cpp/include/fibre/bufptr.hpp **** static inline bool soft_assert(bool expr) { return expr; } // TODO: implement
  10:fibre-cpp/include/fibre/bufptr.hpp **** 
  11:fibre-cpp/include/fibre/bufptr.hpp **** /**
  12:fibre-cpp/include/fibre/bufptr.hpp ****  * @brief Holds a reference to a buffer and a length.
  13:fibre-cpp/include/fibre/bufptr.hpp ****  * Since this class implements begin() and end(), you can use it with many
  14:fibre-cpp/include/fibre/bufptr.hpp ****  * standard algorithms that operate on iterable objects.
  15:fibre-cpp/include/fibre/bufptr.hpp ****  */
  16:fibre-cpp/include/fibre/bufptr.hpp **** template<typename T>
  17:fibre-cpp/include/fibre/bufptr.hpp **** struct generic_bufptr_t {
  18:fibre-cpp/include/fibre/bufptr.hpp ****     using iterator = T*;
  19:fibre-cpp/include/fibre/bufptr.hpp ****     using const_iterator = const T*;
  20:fibre-cpp/include/fibre/bufptr.hpp **** 
  21:fibre-cpp/include/fibre/bufptr.hpp ****     generic_bufptr_t(T* begin, size_t length) : begin_(begin), end_(begin + length) {}
  22:fibre-cpp/include/fibre/bufptr.hpp **** 
  23:fibre-cpp/include/fibre/bufptr.hpp ****     generic_bufptr_t(T* begin, T* end) : begin_(begin), end_(end) {}
  24:fibre-cpp/include/fibre/bufptr.hpp **** 
  25:fibre-cpp/include/fibre/bufptr.hpp ****     generic_bufptr_t() : begin_(nullptr), end_(nullptr) {}
  26:fibre-cpp/include/fibre/bufptr.hpp **** 
  27:fibre-cpp/include/fibre/bufptr.hpp ****     template<size_t I>
  28:fibre-cpp/include/fibre/bufptr.hpp ****     generic_bufptr_t(T (&begin)[I]) : generic_bufptr_t(begin, I) {}
  29:fibre-cpp/include/fibre/bufptr.hpp **** 
  30:fibre-cpp/include/fibre/bufptr.hpp ****     generic_bufptr_t(std::vector<typename std::remove_const<T>::type>& vector)
  31:fibre-cpp/include/fibre/bufptr.hpp ****         : generic_bufptr_t(vector.data(), vector.size()) {}
  32:fibre-cpp/include/fibre/bufptr.hpp **** 
  33:fibre-cpp/include/fibre/bufptr.hpp ****     generic_bufptr_t(const std::vector<typename std::remove_const<T>::type>& vector)
  34:fibre-cpp/include/fibre/bufptr.hpp ****         : generic_bufptr_t(vector.data(), vector.size()) {}
  35:fibre-cpp/include/fibre/bufptr.hpp **** 
  36:fibre-cpp/include/fibre/bufptr.hpp ****     generic_bufptr_t(const generic_bufptr_t<typename std::remove_const<T>::type>& other)
  37:fibre-cpp/include/fibre/bufptr.hpp ****         : generic_bufptr_t(other.begin(), other.end()) {}
ARM GAS  /tmp/ccjyQa7a.s 			page 17


  38:fibre-cpp/include/fibre/bufptr.hpp **** 
  39:fibre-cpp/include/fibre/bufptr.hpp ****     generic_bufptr_t& operator+=(size_t num) {
  40:fibre-cpp/include/fibre/bufptr.hpp ****         if (!soft_assert(num <= size())) {
  41:fibre-cpp/include/fibre/bufptr.hpp ****             num = size();
  42:fibre-cpp/include/fibre/bufptr.hpp ****         }
  43:fibre-cpp/include/fibre/bufptr.hpp ****         begin_ += num;
  44:fibre-cpp/include/fibre/bufptr.hpp ****         return *this;
  45:fibre-cpp/include/fibre/bufptr.hpp ****     }
  46:fibre-cpp/include/fibre/bufptr.hpp **** 
  47:fibre-cpp/include/fibre/bufptr.hpp ****     generic_bufptr_t operator++(int) {
  48:fibre-cpp/include/fibre/bufptr.hpp ****         generic_bufptr_t result = *this;
  49:fibre-cpp/include/fibre/bufptr.hpp ****         *this += 1;
  50:fibre-cpp/include/fibre/bufptr.hpp ****         return result;
  51:fibre-cpp/include/fibre/bufptr.hpp ****     }
  52:fibre-cpp/include/fibre/bufptr.hpp **** 
  53:fibre-cpp/include/fibre/bufptr.hpp ****     T& operator*() {
  54:fibre-cpp/include/fibre/bufptr.hpp ****         return *begin_;
  55:fibre-cpp/include/fibre/bufptr.hpp ****     }
  56:fibre-cpp/include/fibre/bufptr.hpp **** 
  57:fibre-cpp/include/fibre/bufptr.hpp ****     generic_bufptr_t take(size_t num) const {
  58:fibre-cpp/include/fibre/bufptr.hpp ****         if (!soft_assert(num <= size())) {
  59:fibre-cpp/include/fibre/bufptr.hpp ****             num = size();
  60:fibre-cpp/include/fibre/bufptr.hpp ****         }
  61:fibre-cpp/include/fibre/bufptr.hpp ****         generic_bufptr_t result = {begin_, num};
  62:fibre-cpp/include/fibre/bufptr.hpp ****         return result;
  63:fibre-cpp/include/fibre/bufptr.hpp ****     }
  64:fibre-cpp/include/fibre/bufptr.hpp **** 
  65:fibre-cpp/include/fibre/bufptr.hpp ****     generic_bufptr_t skip(size_t num, size_t* processed_bytes = nullptr) const {
  66:fibre-cpp/include/fibre/bufptr.hpp ****         if (!soft_assert(num <= size())) {
  67:fibre-cpp/include/fibre/bufptr.hpp ****             num = size();
  68:fibre-cpp/include/fibre/bufptr.hpp ****         }
  69:fibre-cpp/include/fibre/bufptr.hpp ****         if (processed_bytes)
  70:fibre-cpp/include/fibre/bufptr.hpp ****             (*processed_bytes) += num;
  71:fibre-cpp/include/fibre/bufptr.hpp ****         return {begin_ + num, end_};
  72:fibre-cpp/include/fibre/bufptr.hpp ****     }
  73:fibre-cpp/include/fibre/bufptr.hpp **** 
  74:fibre-cpp/include/fibre/bufptr.hpp ****     size_t size() const {
  75:fibre-cpp/include/fibre/bufptr.hpp ****         return end_ - begin_;
  76:fibre-cpp/include/fibre/bufptr.hpp ****     }
  77:fibre-cpp/include/fibre/bufptr.hpp **** 
  78:fibre-cpp/include/fibre/bufptr.hpp ****     bool empty() const {
  79:fibre-cpp/include/fibre/bufptr.hpp ****         return size() == 0;
  80:fibre-cpp/include/fibre/bufptr.hpp ****     }
  81:fibre-cpp/include/fibre/bufptr.hpp **** 
  82:fibre-cpp/include/fibre/bufptr.hpp ****     T*& begin() { return begin_; }
 435              		.loc 4 82 9 view .LVU78
 436              		.loc 4 82 9 is_stmt 0 view .LVU79
 437              	.LBE635:
  69:fibre-cpp/include/fibre/simple_serdes.hpp ****     static_assert(is_complete<LittleEndianSerializer<T>>(), "no LittleEndianSerializer is defined f
  70:fibre-cpp/include/fibre/simple_serdes.hpp ****     return LittleEndianSerializer<T>::read(&buffer->begin(), buffer->end());
 438              		.loc 3 70 43 view .LVU80
 439 0006 4568     		ldr	r5, [r0, #4]
 440              	.LVL44:
 441              	.LBB636:
 442              	.LBI636:
  26:fibre-cpp/include/fibre/simple_serdes.hpp ****         T result = 0;
 443              		.loc 3 26 29 is_stmt 1 view .LVU81
ARM GAS  /tmp/ccjyQa7a.s 			page 18


 444              	.LBB637:
  27:fibre-cpp/include/fibre/simple_serdes.hpp ****         if (BigEndian) {
 445              		.loc 3 27 11 is_stmt 0 view .LVU82
 446 0008 0024     		movs	r4, #0
 447              	.LBB638:
  36:fibre-cpp/include/fibre/simple_serdes.hpp ****                 if (end && !(*begin < end))
 448              		.loc 3 36 25 view .LVU83
 449 000a 2346     		mov	r3, r4
 450 000c 09E0     		b	.L33
 451              	.LVL45:
 452              	.L31:
 453              	.LBB639:
  39:fibre-cpp/include/fibre/simple_serdes.hpp ****                 result |= static_cast<T>(byte) << (i << 3);
 454              		.loc 3 39 25 view .LVU84
 455 000e 0268     		ldr	r2, [r0]
 456 0010 12F801CB 		ldrb	ip, [r2], #1	@ zero_extendqisi2
 457              	.LVL46:
  40:fibre-cpp/include/fibre/simple_serdes.hpp ****             }
 458              		.loc 3 40 54 view .LVU85
 459 0014 D900     		lsls	r1, r3, #3
  40:fibre-cpp/include/fibre/simple_serdes.hpp ****             }
 460              		.loc 3 40 48 view .LVU86
 461 0016 0CFA01FC 		lsl	ip, ip, r1
 462              	.LVL47:
  40:fibre-cpp/include/fibre/simple_serdes.hpp ****             }
 463              		.loc 3 40 24 view .LVU87
 464 001a 44EA0C04 		orr	r4, r4, ip
 465              	.LVL48:
  40:fibre-cpp/include/fibre/simple_serdes.hpp ****             }
 466              		.loc 3 40 24 view .LVU88
 467              	.LBE639:
  36:fibre-cpp/include/fibre/simple_serdes.hpp ****                 if (end && !(*begin < end))
 468              		.loc 3 36 13 is_stmt 1 view .LVU89
 469 001e 0133     		adds	r3, r3, #1
 470              	.LVL49:
  36:fibre-cpp/include/fibre/simple_serdes.hpp ****                 if (end && !(*begin < end))
 471              		.loc 3 36 13 is_stmt 0 view .LVU90
 472 0020 0260     		str	r2, [r0]
 473              	.LVL50:
 474              	.L33:
  36:fibre-cpp/include/fibre/simple_serdes.hpp ****                 if (end && !(*begin < end))
 475              		.loc 3 36 34 is_stmt 1 view .LVU91
 476 0022 032B     		cmp	r3, #3
 477 0024 08D8     		bhi	.L30
 478              	.LBB647:
  37:fibre-cpp/include/fibre/simple_serdes.hpp ****                     return std::nullopt;
 479              		.loc 3 37 17 is_stmt 0 view .LVU92
 480 0026 002D     		cmp	r5, #0
 481 0028 F1D0     		beq	.L31
  37:fibre-cpp/include/fibre/simple_serdes.hpp ****                     return std::nullopt;
 482              		.loc 3 37 37 view .LVU93
 483 002a 0268     		ldr	r2, [r0]
  37:fibre-cpp/include/fibre/simple_serdes.hpp ****                     return std::nullopt;
 484              		.loc 3 37 25 view .LVU94
 485 002c 9542     		cmp	r5, r2
 486 002e EED8     		bhi	.L31
 487              	.LVL51:
ARM GAS  /tmp/ccjyQa7a.s 			page 19


 488              	.LBB640:
 489              	.LBI640:
 490              		.file 5 "/opt/gcc-arm-none-eabi/arm-none-eabi/include/c++/10.3.1/optional"
   1:/opt/gcc-arm-none-eabi/arm-none-eabi/include/c++/10.3.1/optional **** // <optional> -*- C++ -*-
   2:/opt/gcc-arm-none-eabi/arm-none-eabi/include/c++/10.3.1/optional **** 
   3:/opt/gcc-arm-none-eabi/arm-none-eabi/include/c++/10.3.1/optional **** // Copyright (C) 2013-2020 Free Software Foundation, Inc.
   4:/opt/gcc-arm-none-eabi/arm-none-eabi/include/c++/10.3.1/optional **** //
   5:/opt/gcc-arm-none-eabi/arm-none-eabi/include/c++/10.3.1/optional **** // This file is part of the GNU ISO C++ Library.  This library is free
   6:/opt/gcc-arm-none-eabi/arm-none-eabi/include/c++/10.3.1/optional **** // software; you can redistribute it and/or modify it under the
   7:/opt/gcc-arm-none-eabi/arm-none-eabi/include/c++/10.3.1/optional **** // terms of the GNU General Public License as published by the
   8:/opt/gcc-arm-none-eabi/arm-none-eabi/include/c++/10.3.1/optional **** // Free Software Foundation; either version 3, or (at your option)
   9:/opt/gcc-arm-none-eabi/arm-none-eabi/include/c++/10.3.1/optional **** // any later version.
  10:/opt/gcc-arm-none-eabi/arm-none-eabi/include/c++/10.3.1/optional **** 
  11:/opt/gcc-arm-none-eabi/arm-none-eabi/include/c++/10.3.1/optional **** // This library is distributed in the hope that it will be useful,
  12:/opt/gcc-arm-none-eabi/arm-none-eabi/include/c++/10.3.1/optional **** // but WITHOUT ANY WARRANTY; without even the implied warranty of
  13:/opt/gcc-arm-none-eabi/arm-none-eabi/include/c++/10.3.1/optional **** // MERCHANTABILITY or FITNESS FOR A PARTICULAR PURPOSE.  See the
  14:/opt/gcc-arm-none-eabi/arm-none-eabi/include/c++/10.3.1/optional **** // GNU General Public License for more details.
  15:/opt/gcc-arm-none-eabi/arm-none-eabi/include/c++/10.3.1/optional **** 
  16:/opt/gcc-arm-none-eabi/arm-none-eabi/include/c++/10.3.1/optional **** // Under Section 7 of GPL version 3, you are granted additional
  17:/opt/gcc-arm-none-eabi/arm-none-eabi/include/c++/10.3.1/optional **** // permissions described in the GCC Runtime Library Exception, version
  18:/opt/gcc-arm-none-eabi/arm-none-eabi/include/c++/10.3.1/optional **** // 3.1, as published by the Free Software Foundation.
  19:/opt/gcc-arm-none-eabi/arm-none-eabi/include/c++/10.3.1/optional **** 
  20:/opt/gcc-arm-none-eabi/arm-none-eabi/include/c++/10.3.1/optional **** // You should have received a copy of the GNU General Public License and
  21:/opt/gcc-arm-none-eabi/arm-none-eabi/include/c++/10.3.1/optional **** // a copy of the GCC Runtime Library Exception along with this program;
  22:/opt/gcc-arm-none-eabi/arm-none-eabi/include/c++/10.3.1/optional **** // see the files COPYING3 and COPYING.RUNTIME respectively.  If not, see
  23:/opt/gcc-arm-none-eabi/arm-none-eabi/include/c++/10.3.1/optional **** // <http://www.gnu.org/licenses/>.
  24:/opt/gcc-arm-none-eabi/arm-none-eabi/include/c++/10.3.1/optional **** 
  25:/opt/gcc-arm-none-eabi/arm-none-eabi/include/c++/10.3.1/optional **** /** @file include/optional
  26:/opt/gcc-arm-none-eabi/arm-none-eabi/include/c++/10.3.1/optional ****  *  This is a Standard C++ Library header.
  27:/opt/gcc-arm-none-eabi/arm-none-eabi/include/c++/10.3.1/optional ****  */
  28:/opt/gcc-arm-none-eabi/arm-none-eabi/include/c++/10.3.1/optional **** 
  29:/opt/gcc-arm-none-eabi/arm-none-eabi/include/c++/10.3.1/optional **** #ifndef _GLIBCXX_OPTIONAL
  30:/opt/gcc-arm-none-eabi/arm-none-eabi/include/c++/10.3.1/optional **** #define _GLIBCXX_OPTIONAL 1
  31:/opt/gcc-arm-none-eabi/arm-none-eabi/include/c++/10.3.1/optional **** 
  32:/opt/gcc-arm-none-eabi/arm-none-eabi/include/c++/10.3.1/optional **** #pragma GCC system_header
  33:/opt/gcc-arm-none-eabi/arm-none-eabi/include/c++/10.3.1/optional **** 
  34:/opt/gcc-arm-none-eabi/arm-none-eabi/include/c++/10.3.1/optional **** #if __cplusplus >= 201703L
  35:/opt/gcc-arm-none-eabi/arm-none-eabi/include/c++/10.3.1/optional **** 
  36:/opt/gcc-arm-none-eabi/arm-none-eabi/include/c++/10.3.1/optional **** #include <utility>
  37:/opt/gcc-arm-none-eabi/arm-none-eabi/include/c++/10.3.1/optional **** #include <type_traits>
  38:/opt/gcc-arm-none-eabi/arm-none-eabi/include/c++/10.3.1/optional **** #include <exception>
  39:/opt/gcc-arm-none-eabi/arm-none-eabi/include/c++/10.3.1/optional **** #include <new>
  40:/opt/gcc-arm-none-eabi/arm-none-eabi/include/c++/10.3.1/optional **** #include <initializer_list>
  41:/opt/gcc-arm-none-eabi/arm-none-eabi/include/c++/10.3.1/optional **** #include <bits/exception_defines.h>
  42:/opt/gcc-arm-none-eabi/arm-none-eabi/include/c++/10.3.1/optional **** #include <bits/functional_hash.h>
  43:/opt/gcc-arm-none-eabi/arm-none-eabi/include/c++/10.3.1/optional **** #include <bits/enable_special_members.h>
  44:/opt/gcc-arm-none-eabi/arm-none-eabi/include/c++/10.3.1/optional **** #if __cplusplus > 201703L
  45:/opt/gcc-arm-none-eabi/arm-none-eabi/include/c++/10.3.1/optional **** # include <compare>
  46:/opt/gcc-arm-none-eabi/arm-none-eabi/include/c++/10.3.1/optional **** #endif
  47:/opt/gcc-arm-none-eabi/arm-none-eabi/include/c++/10.3.1/optional **** 
  48:/opt/gcc-arm-none-eabi/arm-none-eabi/include/c++/10.3.1/optional **** namespace std _GLIBCXX_VISIBILITY(default)
  49:/opt/gcc-arm-none-eabi/arm-none-eabi/include/c++/10.3.1/optional **** {
  50:/opt/gcc-arm-none-eabi/arm-none-eabi/include/c++/10.3.1/optional **** _GLIBCXX_BEGIN_NAMESPACE_VERSION
  51:/opt/gcc-arm-none-eabi/arm-none-eabi/include/c++/10.3.1/optional **** 
  52:/opt/gcc-arm-none-eabi/arm-none-eabi/include/c++/10.3.1/optional ****   /**
  53:/opt/gcc-arm-none-eabi/arm-none-eabi/include/c++/10.3.1/optional ****    *  @addtogroup utilities
  54:/opt/gcc-arm-none-eabi/arm-none-eabi/include/c++/10.3.1/optional ****    *  @{
ARM GAS  /tmp/ccjyQa7a.s 			page 20


  55:/opt/gcc-arm-none-eabi/arm-none-eabi/include/c++/10.3.1/optional ****    */
  56:/opt/gcc-arm-none-eabi/arm-none-eabi/include/c++/10.3.1/optional **** 
  57:/opt/gcc-arm-none-eabi/arm-none-eabi/include/c++/10.3.1/optional **** #define __cpp_lib_optional 201606L
  58:/opt/gcc-arm-none-eabi/arm-none-eabi/include/c++/10.3.1/optional **** 
  59:/opt/gcc-arm-none-eabi/arm-none-eabi/include/c++/10.3.1/optional ****   template<typename _Tp>
  60:/opt/gcc-arm-none-eabi/arm-none-eabi/include/c++/10.3.1/optional ****     class optional;
  61:/opt/gcc-arm-none-eabi/arm-none-eabi/include/c++/10.3.1/optional **** 
  62:/opt/gcc-arm-none-eabi/arm-none-eabi/include/c++/10.3.1/optional ****   /// Tag type to disengage optional objects.
  63:/opt/gcc-arm-none-eabi/arm-none-eabi/include/c++/10.3.1/optional ****   struct nullopt_t
  64:/opt/gcc-arm-none-eabi/arm-none-eabi/include/c++/10.3.1/optional ****   {
  65:/opt/gcc-arm-none-eabi/arm-none-eabi/include/c++/10.3.1/optional ****     // Do not user-declare default constructor at all for
  66:/opt/gcc-arm-none-eabi/arm-none-eabi/include/c++/10.3.1/optional ****     // optional_value = {} syntax to work.
  67:/opt/gcc-arm-none-eabi/arm-none-eabi/include/c++/10.3.1/optional ****     // nullopt_t() = delete;
  68:/opt/gcc-arm-none-eabi/arm-none-eabi/include/c++/10.3.1/optional **** 
  69:/opt/gcc-arm-none-eabi/arm-none-eabi/include/c++/10.3.1/optional ****     // Used for constructing nullopt.
  70:/opt/gcc-arm-none-eabi/arm-none-eabi/include/c++/10.3.1/optional ****     enum class _Construct { _Token };
  71:/opt/gcc-arm-none-eabi/arm-none-eabi/include/c++/10.3.1/optional **** 
  72:/opt/gcc-arm-none-eabi/arm-none-eabi/include/c++/10.3.1/optional ****     // Must be constexpr for nullopt_t to be literal.
  73:/opt/gcc-arm-none-eabi/arm-none-eabi/include/c++/10.3.1/optional ****     explicit constexpr nullopt_t(_Construct) { }
  74:/opt/gcc-arm-none-eabi/arm-none-eabi/include/c++/10.3.1/optional ****   };
  75:/opt/gcc-arm-none-eabi/arm-none-eabi/include/c++/10.3.1/optional **** 
  76:/opt/gcc-arm-none-eabi/arm-none-eabi/include/c++/10.3.1/optional ****   /// Tag to disengage optional objects.
  77:/opt/gcc-arm-none-eabi/arm-none-eabi/include/c++/10.3.1/optional ****   inline constexpr nullopt_t nullopt { nullopt_t::_Construct::_Token };
  78:/opt/gcc-arm-none-eabi/arm-none-eabi/include/c++/10.3.1/optional **** 
  79:/opt/gcc-arm-none-eabi/arm-none-eabi/include/c++/10.3.1/optional ****   /**
  80:/opt/gcc-arm-none-eabi/arm-none-eabi/include/c++/10.3.1/optional ****    *  @brief Exception class thrown when a disengaged optional object is
  81:/opt/gcc-arm-none-eabi/arm-none-eabi/include/c++/10.3.1/optional ****    *  dereferenced.
  82:/opt/gcc-arm-none-eabi/arm-none-eabi/include/c++/10.3.1/optional ****    *  @ingroup exceptions
  83:/opt/gcc-arm-none-eabi/arm-none-eabi/include/c++/10.3.1/optional ****    */
  84:/opt/gcc-arm-none-eabi/arm-none-eabi/include/c++/10.3.1/optional ****   class bad_optional_access : public exception
  85:/opt/gcc-arm-none-eabi/arm-none-eabi/include/c++/10.3.1/optional ****   {
  86:/opt/gcc-arm-none-eabi/arm-none-eabi/include/c++/10.3.1/optional ****   public:
  87:/opt/gcc-arm-none-eabi/arm-none-eabi/include/c++/10.3.1/optional ****     bad_optional_access() = default;
  88:/opt/gcc-arm-none-eabi/arm-none-eabi/include/c++/10.3.1/optional ****     virtual ~bad_optional_access() = default;
  89:/opt/gcc-arm-none-eabi/arm-none-eabi/include/c++/10.3.1/optional **** 
  90:/opt/gcc-arm-none-eabi/arm-none-eabi/include/c++/10.3.1/optional ****     const char* what() const noexcept override
  91:/opt/gcc-arm-none-eabi/arm-none-eabi/include/c++/10.3.1/optional ****     { return "bad optional access"; }
  92:/opt/gcc-arm-none-eabi/arm-none-eabi/include/c++/10.3.1/optional ****   };
  93:/opt/gcc-arm-none-eabi/arm-none-eabi/include/c++/10.3.1/optional **** 
  94:/opt/gcc-arm-none-eabi/arm-none-eabi/include/c++/10.3.1/optional ****   void
  95:/opt/gcc-arm-none-eabi/arm-none-eabi/include/c++/10.3.1/optional ****   __throw_bad_optional_access()
  96:/opt/gcc-arm-none-eabi/arm-none-eabi/include/c++/10.3.1/optional ****   __attribute__((__noreturn__));
  97:/opt/gcc-arm-none-eabi/arm-none-eabi/include/c++/10.3.1/optional **** 
  98:/opt/gcc-arm-none-eabi/arm-none-eabi/include/c++/10.3.1/optional ****   // XXX Does not belong here.
  99:/opt/gcc-arm-none-eabi/arm-none-eabi/include/c++/10.3.1/optional ****   inline void
 100:/opt/gcc-arm-none-eabi/arm-none-eabi/include/c++/10.3.1/optional ****   __throw_bad_optional_access()
 101:/opt/gcc-arm-none-eabi/arm-none-eabi/include/c++/10.3.1/optional ****   { _GLIBCXX_THROW_OR_ABORT(bad_optional_access()); }
 102:/opt/gcc-arm-none-eabi/arm-none-eabi/include/c++/10.3.1/optional **** 
 103:/opt/gcc-arm-none-eabi/arm-none-eabi/include/c++/10.3.1/optional ****   // This class template manages construction/destruction of
 104:/opt/gcc-arm-none-eabi/arm-none-eabi/include/c++/10.3.1/optional ****   // the contained value for a std::optional.
 105:/opt/gcc-arm-none-eabi/arm-none-eabi/include/c++/10.3.1/optional ****   template <typename _Tp>
 106:/opt/gcc-arm-none-eabi/arm-none-eabi/include/c++/10.3.1/optional ****     struct _Optional_payload_base
 107:/opt/gcc-arm-none-eabi/arm-none-eabi/include/c++/10.3.1/optional ****     {
 108:/opt/gcc-arm-none-eabi/arm-none-eabi/include/c++/10.3.1/optional ****       using _Stored_type = remove_const_t<_Tp>;
 109:/opt/gcc-arm-none-eabi/arm-none-eabi/include/c++/10.3.1/optional **** 
 110:/opt/gcc-arm-none-eabi/arm-none-eabi/include/c++/10.3.1/optional ****       _Optional_payload_base() = default;
 111:/opt/gcc-arm-none-eabi/arm-none-eabi/include/c++/10.3.1/optional ****       ~_Optional_payload_base() = default;
ARM GAS  /tmp/ccjyQa7a.s 			page 21


 112:/opt/gcc-arm-none-eabi/arm-none-eabi/include/c++/10.3.1/optional **** 
 113:/opt/gcc-arm-none-eabi/arm-none-eabi/include/c++/10.3.1/optional ****       template<typename... _Args>
 114:/opt/gcc-arm-none-eabi/arm-none-eabi/include/c++/10.3.1/optional **** 	constexpr
 115:/opt/gcc-arm-none-eabi/arm-none-eabi/include/c++/10.3.1/optional **** 	_Optional_payload_base(in_place_t __tag, _Args&&... __args)
 116:/opt/gcc-arm-none-eabi/arm-none-eabi/include/c++/10.3.1/optional **** 	: _M_payload(__tag, std::forward<_Args>(__args)...),
 117:/opt/gcc-arm-none-eabi/arm-none-eabi/include/c++/10.3.1/optional **** 	  _M_engaged(true)
 118:/opt/gcc-arm-none-eabi/arm-none-eabi/include/c++/10.3.1/optional **** 	{ }
 119:/opt/gcc-arm-none-eabi/arm-none-eabi/include/c++/10.3.1/optional **** 
 120:/opt/gcc-arm-none-eabi/arm-none-eabi/include/c++/10.3.1/optional ****       template<typename _Up, typename... _Args>
 121:/opt/gcc-arm-none-eabi/arm-none-eabi/include/c++/10.3.1/optional **** 	constexpr
 122:/opt/gcc-arm-none-eabi/arm-none-eabi/include/c++/10.3.1/optional **** 	_Optional_payload_base(std::initializer_list<_Up> __il,
 123:/opt/gcc-arm-none-eabi/arm-none-eabi/include/c++/10.3.1/optional **** 			       _Args&&... __args)
 124:/opt/gcc-arm-none-eabi/arm-none-eabi/include/c++/10.3.1/optional **** 	: _M_payload(__il, std::forward<_Args>(__args)...),
 125:/opt/gcc-arm-none-eabi/arm-none-eabi/include/c++/10.3.1/optional **** 	  _M_engaged(true)
 126:/opt/gcc-arm-none-eabi/arm-none-eabi/include/c++/10.3.1/optional **** 	{ }
 127:/opt/gcc-arm-none-eabi/arm-none-eabi/include/c++/10.3.1/optional **** 
 128:/opt/gcc-arm-none-eabi/arm-none-eabi/include/c++/10.3.1/optional ****       // Constructor used by _Optional_base copy constructor when the
 129:/opt/gcc-arm-none-eabi/arm-none-eabi/include/c++/10.3.1/optional ****       // contained value is not trivially copy constructible.
 130:/opt/gcc-arm-none-eabi/arm-none-eabi/include/c++/10.3.1/optional ****       constexpr
 131:/opt/gcc-arm-none-eabi/arm-none-eabi/include/c++/10.3.1/optional ****       _Optional_payload_base(bool __engaged,
 132:/opt/gcc-arm-none-eabi/arm-none-eabi/include/c++/10.3.1/optional **** 			     const _Optional_payload_base& __other)
 133:/opt/gcc-arm-none-eabi/arm-none-eabi/include/c++/10.3.1/optional ****       {
 134:/opt/gcc-arm-none-eabi/arm-none-eabi/include/c++/10.3.1/optional **** 	if (__other._M_engaged)
 135:/opt/gcc-arm-none-eabi/arm-none-eabi/include/c++/10.3.1/optional **** 	  this->_M_construct(__other._M_get());
 136:/opt/gcc-arm-none-eabi/arm-none-eabi/include/c++/10.3.1/optional ****       }
 137:/opt/gcc-arm-none-eabi/arm-none-eabi/include/c++/10.3.1/optional **** 
 138:/opt/gcc-arm-none-eabi/arm-none-eabi/include/c++/10.3.1/optional ****       // Constructor used by _Optional_base move constructor when the
 139:/opt/gcc-arm-none-eabi/arm-none-eabi/include/c++/10.3.1/optional ****       // contained value is not trivially move constructible.
 140:/opt/gcc-arm-none-eabi/arm-none-eabi/include/c++/10.3.1/optional ****       constexpr
 141:/opt/gcc-arm-none-eabi/arm-none-eabi/include/c++/10.3.1/optional ****       _Optional_payload_base(bool __engaged,
 142:/opt/gcc-arm-none-eabi/arm-none-eabi/include/c++/10.3.1/optional **** 			     _Optional_payload_base&& __other)
 143:/opt/gcc-arm-none-eabi/arm-none-eabi/include/c++/10.3.1/optional ****       {
 144:/opt/gcc-arm-none-eabi/arm-none-eabi/include/c++/10.3.1/optional **** 	if (__other._M_engaged)
 145:/opt/gcc-arm-none-eabi/arm-none-eabi/include/c++/10.3.1/optional **** 	  this->_M_construct(std::move(__other._M_get()));
 146:/opt/gcc-arm-none-eabi/arm-none-eabi/include/c++/10.3.1/optional ****       }
 147:/opt/gcc-arm-none-eabi/arm-none-eabi/include/c++/10.3.1/optional **** 
 148:/opt/gcc-arm-none-eabi/arm-none-eabi/include/c++/10.3.1/optional ****       // Copy constructor is only used to when the contained value is
 149:/opt/gcc-arm-none-eabi/arm-none-eabi/include/c++/10.3.1/optional ****       // trivially copy constructible.
 150:/opt/gcc-arm-none-eabi/arm-none-eabi/include/c++/10.3.1/optional ****       _Optional_payload_base(const _Optional_payload_base&) = default;
 151:/opt/gcc-arm-none-eabi/arm-none-eabi/include/c++/10.3.1/optional **** 
 152:/opt/gcc-arm-none-eabi/arm-none-eabi/include/c++/10.3.1/optional ****       // Move constructor is only used to when the contained value is
 153:/opt/gcc-arm-none-eabi/arm-none-eabi/include/c++/10.3.1/optional ****       // trivially copy constructible.
 154:/opt/gcc-arm-none-eabi/arm-none-eabi/include/c++/10.3.1/optional ****       _Optional_payload_base(_Optional_payload_base&&) = default;
 155:/opt/gcc-arm-none-eabi/arm-none-eabi/include/c++/10.3.1/optional **** 
 156:/opt/gcc-arm-none-eabi/arm-none-eabi/include/c++/10.3.1/optional ****       _Optional_payload_base&
 157:/opt/gcc-arm-none-eabi/arm-none-eabi/include/c++/10.3.1/optional ****       operator=(const _Optional_payload_base&) = default;
 158:/opt/gcc-arm-none-eabi/arm-none-eabi/include/c++/10.3.1/optional **** 
 159:/opt/gcc-arm-none-eabi/arm-none-eabi/include/c++/10.3.1/optional ****       _Optional_payload_base&
 160:/opt/gcc-arm-none-eabi/arm-none-eabi/include/c++/10.3.1/optional ****       operator=(_Optional_payload_base&&) = default;
 161:/opt/gcc-arm-none-eabi/arm-none-eabi/include/c++/10.3.1/optional **** 
 162:/opt/gcc-arm-none-eabi/arm-none-eabi/include/c++/10.3.1/optional ****       // used to perform non-trivial copy assignment.
 163:/opt/gcc-arm-none-eabi/arm-none-eabi/include/c++/10.3.1/optional ****       constexpr void
 164:/opt/gcc-arm-none-eabi/arm-none-eabi/include/c++/10.3.1/optional ****       _M_copy_assign(const _Optional_payload_base& __other)
 165:/opt/gcc-arm-none-eabi/arm-none-eabi/include/c++/10.3.1/optional ****       {
 166:/opt/gcc-arm-none-eabi/arm-none-eabi/include/c++/10.3.1/optional ****         if (this->_M_engaged && __other._M_engaged)
 167:/opt/gcc-arm-none-eabi/arm-none-eabi/include/c++/10.3.1/optional ****           this->_M_get() = __other._M_get();
 168:/opt/gcc-arm-none-eabi/arm-none-eabi/include/c++/10.3.1/optional ****         else
ARM GAS  /tmp/ccjyQa7a.s 			page 22


 169:/opt/gcc-arm-none-eabi/arm-none-eabi/include/c++/10.3.1/optional **** 	  {
 170:/opt/gcc-arm-none-eabi/arm-none-eabi/include/c++/10.3.1/optional **** 	    if (__other._M_engaged)
 171:/opt/gcc-arm-none-eabi/arm-none-eabi/include/c++/10.3.1/optional **** 	      this->_M_construct(__other._M_get());
 172:/opt/gcc-arm-none-eabi/arm-none-eabi/include/c++/10.3.1/optional **** 	    else
 173:/opt/gcc-arm-none-eabi/arm-none-eabi/include/c++/10.3.1/optional **** 	      this->_M_reset();
 174:/opt/gcc-arm-none-eabi/arm-none-eabi/include/c++/10.3.1/optional **** 	  }
 175:/opt/gcc-arm-none-eabi/arm-none-eabi/include/c++/10.3.1/optional ****       }
 176:/opt/gcc-arm-none-eabi/arm-none-eabi/include/c++/10.3.1/optional **** 
 177:/opt/gcc-arm-none-eabi/arm-none-eabi/include/c++/10.3.1/optional ****       // used to perform non-trivial move assignment.
 178:/opt/gcc-arm-none-eabi/arm-none-eabi/include/c++/10.3.1/optional ****       constexpr void
 179:/opt/gcc-arm-none-eabi/arm-none-eabi/include/c++/10.3.1/optional ****       _M_move_assign(_Optional_payload_base&& __other)
 180:/opt/gcc-arm-none-eabi/arm-none-eabi/include/c++/10.3.1/optional ****       noexcept(__and_v<is_nothrow_move_constructible<_Tp>,
 181:/opt/gcc-arm-none-eabi/arm-none-eabi/include/c++/10.3.1/optional **** 		       is_nothrow_move_assignable<_Tp>>)
 182:/opt/gcc-arm-none-eabi/arm-none-eabi/include/c++/10.3.1/optional ****       {
 183:/opt/gcc-arm-none-eabi/arm-none-eabi/include/c++/10.3.1/optional **** 	if (this->_M_engaged && __other._M_engaged)
 184:/opt/gcc-arm-none-eabi/arm-none-eabi/include/c++/10.3.1/optional **** 	  this->_M_get() = std::move(__other._M_get());
 185:/opt/gcc-arm-none-eabi/arm-none-eabi/include/c++/10.3.1/optional **** 	else
 186:/opt/gcc-arm-none-eabi/arm-none-eabi/include/c++/10.3.1/optional **** 	  {
 187:/opt/gcc-arm-none-eabi/arm-none-eabi/include/c++/10.3.1/optional **** 	    if (__other._M_engaged)
 188:/opt/gcc-arm-none-eabi/arm-none-eabi/include/c++/10.3.1/optional **** 	      this->_M_construct(std::move(__other._M_get()));
 189:/opt/gcc-arm-none-eabi/arm-none-eabi/include/c++/10.3.1/optional **** 	    else
 190:/opt/gcc-arm-none-eabi/arm-none-eabi/include/c++/10.3.1/optional **** 	      this->_M_reset();
 191:/opt/gcc-arm-none-eabi/arm-none-eabi/include/c++/10.3.1/optional **** 	  }
 192:/opt/gcc-arm-none-eabi/arm-none-eabi/include/c++/10.3.1/optional ****       }
 193:/opt/gcc-arm-none-eabi/arm-none-eabi/include/c++/10.3.1/optional **** 
 194:/opt/gcc-arm-none-eabi/arm-none-eabi/include/c++/10.3.1/optional ****       struct _Empty_byte { };
 195:/opt/gcc-arm-none-eabi/arm-none-eabi/include/c++/10.3.1/optional **** 
 196:/opt/gcc-arm-none-eabi/arm-none-eabi/include/c++/10.3.1/optional ****       template<typename _Up, bool = is_trivially_destructible_v<_Up>>
 197:/opt/gcc-arm-none-eabi/arm-none-eabi/include/c++/10.3.1/optional **** 	union _Storage
 198:/opt/gcc-arm-none-eabi/arm-none-eabi/include/c++/10.3.1/optional **** 	{
 199:/opt/gcc-arm-none-eabi/arm-none-eabi/include/c++/10.3.1/optional **** 	  constexpr _Storage() noexcept : _M_empty() { }
 200:/opt/gcc-arm-none-eabi/arm-none-eabi/include/c++/10.3.1/optional **** 
 201:/opt/gcc-arm-none-eabi/arm-none-eabi/include/c++/10.3.1/optional **** 	  template<typename... _Args>
 202:/opt/gcc-arm-none-eabi/arm-none-eabi/include/c++/10.3.1/optional **** 	    constexpr
 203:/opt/gcc-arm-none-eabi/arm-none-eabi/include/c++/10.3.1/optional **** 	    _Storage(in_place_t, _Args&&... __args)
 204:/opt/gcc-arm-none-eabi/arm-none-eabi/include/c++/10.3.1/optional **** 	    : _M_value(std::forward<_Args>(__args)...)
 205:/opt/gcc-arm-none-eabi/arm-none-eabi/include/c++/10.3.1/optional **** 	    { }
 206:/opt/gcc-arm-none-eabi/arm-none-eabi/include/c++/10.3.1/optional **** 
 207:/opt/gcc-arm-none-eabi/arm-none-eabi/include/c++/10.3.1/optional **** 	  template<typename _Vp, typename... _Args>
 208:/opt/gcc-arm-none-eabi/arm-none-eabi/include/c++/10.3.1/optional **** 	    constexpr
 209:/opt/gcc-arm-none-eabi/arm-none-eabi/include/c++/10.3.1/optional **** 	    _Storage(std::initializer_list<_Vp> __il, _Args&&... __args)
 210:/opt/gcc-arm-none-eabi/arm-none-eabi/include/c++/10.3.1/optional **** 	    : _M_value(__il, std::forward<_Args>(__args)...)
 211:/opt/gcc-arm-none-eabi/arm-none-eabi/include/c++/10.3.1/optional **** 	    { }
 212:/opt/gcc-arm-none-eabi/arm-none-eabi/include/c++/10.3.1/optional **** 
 213:/opt/gcc-arm-none-eabi/arm-none-eabi/include/c++/10.3.1/optional **** 	  _Empty_byte _M_empty;
 214:/opt/gcc-arm-none-eabi/arm-none-eabi/include/c++/10.3.1/optional ****           _Up _M_value;
 215:/opt/gcc-arm-none-eabi/arm-none-eabi/include/c++/10.3.1/optional **** 	};
 216:/opt/gcc-arm-none-eabi/arm-none-eabi/include/c++/10.3.1/optional **** 
 217:/opt/gcc-arm-none-eabi/arm-none-eabi/include/c++/10.3.1/optional ****       template<typename _Up>
 218:/opt/gcc-arm-none-eabi/arm-none-eabi/include/c++/10.3.1/optional **** 	union _Storage<_Up, false>
 219:/opt/gcc-arm-none-eabi/arm-none-eabi/include/c++/10.3.1/optional **** 	{
 220:/opt/gcc-arm-none-eabi/arm-none-eabi/include/c++/10.3.1/optional **** 	  constexpr _Storage() noexcept : _M_empty() { }
 221:/opt/gcc-arm-none-eabi/arm-none-eabi/include/c++/10.3.1/optional **** 
 222:/opt/gcc-arm-none-eabi/arm-none-eabi/include/c++/10.3.1/optional **** 	  template<typename... _Args>
 223:/opt/gcc-arm-none-eabi/arm-none-eabi/include/c++/10.3.1/optional **** 	    constexpr
 224:/opt/gcc-arm-none-eabi/arm-none-eabi/include/c++/10.3.1/optional **** 	    _Storage(in_place_t, _Args&&... __args)
 225:/opt/gcc-arm-none-eabi/arm-none-eabi/include/c++/10.3.1/optional **** 	    : _M_value(std::forward<_Args>(__args)...)
ARM GAS  /tmp/ccjyQa7a.s 			page 23


 226:/opt/gcc-arm-none-eabi/arm-none-eabi/include/c++/10.3.1/optional **** 	    { }
 227:/opt/gcc-arm-none-eabi/arm-none-eabi/include/c++/10.3.1/optional **** 
 228:/opt/gcc-arm-none-eabi/arm-none-eabi/include/c++/10.3.1/optional **** 	  template<typename _Vp, typename... _Args>
 229:/opt/gcc-arm-none-eabi/arm-none-eabi/include/c++/10.3.1/optional **** 	    constexpr
 230:/opt/gcc-arm-none-eabi/arm-none-eabi/include/c++/10.3.1/optional **** 	    _Storage(std::initializer_list<_Vp> __il, _Args&&... __args)
 231:/opt/gcc-arm-none-eabi/arm-none-eabi/include/c++/10.3.1/optional **** 	    : _M_value(__il, std::forward<_Args>(__args)...)
 232:/opt/gcc-arm-none-eabi/arm-none-eabi/include/c++/10.3.1/optional **** 	    { }
 233:/opt/gcc-arm-none-eabi/arm-none-eabi/include/c++/10.3.1/optional **** 
 234:/opt/gcc-arm-none-eabi/arm-none-eabi/include/c++/10.3.1/optional **** 	  // User-provided destructor is needed when _Up has non-trivial dtor.
 235:/opt/gcc-arm-none-eabi/arm-none-eabi/include/c++/10.3.1/optional **** 	  ~_Storage() { }
 236:/opt/gcc-arm-none-eabi/arm-none-eabi/include/c++/10.3.1/optional **** 
 237:/opt/gcc-arm-none-eabi/arm-none-eabi/include/c++/10.3.1/optional **** 	  _Empty_byte _M_empty;
 238:/opt/gcc-arm-none-eabi/arm-none-eabi/include/c++/10.3.1/optional ****           _Up _M_value;
 239:/opt/gcc-arm-none-eabi/arm-none-eabi/include/c++/10.3.1/optional **** 	};
 240:/opt/gcc-arm-none-eabi/arm-none-eabi/include/c++/10.3.1/optional **** 
 241:/opt/gcc-arm-none-eabi/arm-none-eabi/include/c++/10.3.1/optional ****       _Storage<_Stored_type> _M_payload;
 242:/opt/gcc-arm-none-eabi/arm-none-eabi/include/c++/10.3.1/optional **** 
 243:/opt/gcc-arm-none-eabi/arm-none-eabi/include/c++/10.3.1/optional ****       bool _M_engaged = false;
 244:/opt/gcc-arm-none-eabi/arm-none-eabi/include/c++/10.3.1/optional **** 
 245:/opt/gcc-arm-none-eabi/arm-none-eabi/include/c++/10.3.1/optional ****       template<typename... _Args>
 246:/opt/gcc-arm-none-eabi/arm-none-eabi/include/c++/10.3.1/optional ****         void
 247:/opt/gcc-arm-none-eabi/arm-none-eabi/include/c++/10.3.1/optional ****         _M_construct(_Args&&... __args)
 248:/opt/gcc-arm-none-eabi/arm-none-eabi/include/c++/10.3.1/optional ****         noexcept(is_nothrow_constructible_v<_Stored_type, _Args...>)
 249:/opt/gcc-arm-none-eabi/arm-none-eabi/include/c++/10.3.1/optional ****         {
 250:/opt/gcc-arm-none-eabi/arm-none-eabi/include/c++/10.3.1/optional ****           ::new ((void *) std::__addressof(this->_M_payload))
 251:/opt/gcc-arm-none-eabi/arm-none-eabi/include/c++/10.3.1/optional ****             _Stored_type(std::forward<_Args>(__args)...);
 252:/opt/gcc-arm-none-eabi/arm-none-eabi/include/c++/10.3.1/optional ****           this->_M_engaged = true;
 253:/opt/gcc-arm-none-eabi/arm-none-eabi/include/c++/10.3.1/optional ****         }
 254:/opt/gcc-arm-none-eabi/arm-none-eabi/include/c++/10.3.1/optional **** 
 255:/opt/gcc-arm-none-eabi/arm-none-eabi/include/c++/10.3.1/optional ****       constexpr void
 256:/opt/gcc-arm-none-eabi/arm-none-eabi/include/c++/10.3.1/optional ****       _M_destroy() noexcept
 257:/opt/gcc-arm-none-eabi/arm-none-eabi/include/c++/10.3.1/optional ****       {
 258:/opt/gcc-arm-none-eabi/arm-none-eabi/include/c++/10.3.1/optional **** 	_M_engaged = false;
 259:/opt/gcc-arm-none-eabi/arm-none-eabi/include/c++/10.3.1/optional **** 	_M_payload._M_value.~_Stored_type();
 260:/opt/gcc-arm-none-eabi/arm-none-eabi/include/c++/10.3.1/optional ****       }
 261:/opt/gcc-arm-none-eabi/arm-none-eabi/include/c++/10.3.1/optional **** 
 262:/opt/gcc-arm-none-eabi/arm-none-eabi/include/c++/10.3.1/optional ****       // The _M_get() operations have _M_engaged as a precondition.
 263:/opt/gcc-arm-none-eabi/arm-none-eabi/include/c++/10.3.1/optional ****       // They exist to access the contained value with the appropriate
 264:/opt/gcc-arm-none-eabi/arm-none-eabi/include/c++/10.3.1/optional ****       // const-qualification, because _M_payload has had the const removed.
 265:/opt/gcc-arm-none-eabi/arm-none-eabi/include/c++/10.3.1/optional **** 
 266:/opt/gcc-arm-none-eabi/arm-none-eabi/include/c++/10.3.1/optional ****       constexpr _Tp&
 267:/opt/gcc-arm-none-eabi/arm-none-eabi/include/c++/10.3.1/optional ****       _M_get() noexcept
 268:/opt/gcc-arm-none-eabi/arm-none-eabi/include/c++/10.3.1/optional ****       { return this->_M_payload._M_value; }
 269:/opt/gcc-arm-none-eabi/arm-none-eabi/include/c++/10.3.1/optional **** 
 270:/opt/gcc-arm-none-eabi/arm-none-eabi/include/c++/10.3.1/optional ****       constexpr const _Tp&
 271:/opt/gcc-arm-none-eabi/arm-none-eabi/include/c++/10.3.1/optional ****       _M_get() const noexcept
 272:/opt/gcc-arm-none-eabi/arm-none-eabi/include/c++/10.3.1/optional ****       { return this->_M_payload._M_value; }
 273:/opt/gcc-arm-none-eabi/arm-none-eabi/include/c++/10.3.1/optional **** 
 274:/opt/gcc-arm-none-eabi/arm-none-eabi/include/c++/10.3.1/optional ****       // _M_reset is a 'safe' operation with no precondition.
 275:/opt/gcc-arm-none-eabi/arm-none-eabi/include/c++/10.3.1/optional ****       constexpr void
 276:/opt/gcc-arm-none-eabi/arm-none-eabi/include/c++/10.3.1/optional ****       _M_reset() noexcept
 277:/opt/gcc-arm-none-eabi/arm-none-eabi/include/c++/10.3.1/optional ****       {
 278:/opt/gcc-arm-none-eabi/arm-none-eabi/include/c++/10.3.1/optional **** 	if (this->_M_engaged)
 279:/opt/gcc-arm-none-eabi/arm-none-eabi/include/c++/10.3.1/optional **** 	  _M_destroy();
 280:/opt/gcc-arm-none-eabi/arm-none-eabi/include/c++/10.3.1/optional ****       }
 281:/opt/gcc-arm-none-eabi/arm-none-eabi/include/c++/10.3.1/optional ****     };
 282:/opt/gcc-arm-none-eabi/arm-none-eabi/include/c++/10.3.1/optional **** 
ARM GAS  /tmp/ccjyQa7a.s 			page 24


 283:/opt/gcc-arm-none-eabi/arm-none-eabi/include/c++/10.3.1/optional ****   // Class template that manages the payload for optionals.
 284:/opt/gcc-arm-none-eabi/arm-none-eabi/include/c++/10.3.1/optional ****   template <typename _Tp,
 285:/opt/gcc-arm-none-eabi/arm-none-eabi/include/c++/10.3.1/optional **** 	    bool /*_HasTrivialDestructor*/ =
 286:/opt/gcc-arm-none-eabi/arm-none-eabi/include/c++/10.3.1/optional **** 	      is_trivially_destructible_v<_Tp>,
 287:/opt/gcc-arm-none-eabi/arm-none-eabi/include/c++/10.3.1/optional **** 	    bool /*_HasTrivialCopy */ =
 288:/opt/gcc-arm-none-eabi/arm-none-eabi/include/c++/10.3.1/optional **** 	      is_trivially_copy_assignable_v<_Tp>
 289:/opt/gcc-arm-none-eabi/arm-none-eabi/include/c++/10.3.1/optional **** 	      && is_trivially_copy_constructible_v<_Tp>,
 290:/opt/gcc-arm-none-eabi/arm-none-eabi/include/c++/10.3.1/optional **** 	    bool /*_HasTrivialMove */ =
 291:/opt/gcc-arm-none-eabi/arm-none-eabi/include/c++/10.3.1/optional **** 	      is_trivially_move_assignable_v<_Tp>
 292:/opt/gcc-arm-none-eabi/arm-none-eabi/include/c++/10.3.1/optional **** 	      && is_trivially_move_constructible_v<_Tp>>
 293:/opt/gcc-arm-none-eabi/arm-none-eabi/include/c++/10.3.1/optional ****     struct _Optional_payload;
 294:/opt/gcc-arm-none-eabi/arm-none-eabi/include/c++/10.3.1/optional **** 
 295:/opt/gcc-arm-none-eabi/arm-none-eabi/include/c++/10.3.1/optional ****   // Payload for potentially-constexpr optionals (trivial copy/move/destroy).
 296:/opt/gcc-arm-none-eabi/arm-none-eabi/include/c++/10.3.1/optional ****   template <typename _Tp>
 297:/opt/gcc-arm-none-eabi/arm-none-eabi/include/c++/10.3.1/optional ****     struct _Optional_payload<_Tp, true, true, true>
 298:/opt/gcc-arm-none-eabi/arm-none-eabi/include/c++/10.3.1/optional ****     : _Optional_payload_base<_Tp>
 299:/opt/gcc-arm-none-eabi/arm-none-eabi/include/c++/10.3.1/optional ****     {
 300:/opt/gcc-arm-none-eabi/arm-none-eabi/include/c++/10.3.1/optional ****       using _Optional_payload_base<_Tp>::_Optional_payload_base;
 301:/opt/gcc-arm-none-eabi/arm-none-eabi/include/c++/10.3.1/optional **** 
 302:/opt/gcc-arm-none-eabi/arm-none-eabi/include/c++/10.3.1/optional ****       _Optional_payload() = default;
 303:/opt/gcc-arm-none-eabi/arm-none-eabi/include/c++/10.3.1/optional ****     };
 304:/opt/gcc-arm-none-eabi/arm-none-eabi/include/c++/10.3.1/optional **** 
 305:/opt/gcc-arm-none-eabi/arm-none-eabi/include/c++/10.3.1/optional ****   // Payload for optionals with non-trivial copy construction/assignment.
 306:/opt/gcc-arm-none-eabi/arm-none-eabi/include/c++/10.3.1/optional ****   template <typename _Tp>
 307:/opt/gcc-arm-none-eabi/arm-none-eabi/include/c++/10.3.1/optional ****     struct _Optional_payload<_Tp, true, false, true>
 308:/opt/gcc-arm-none-eabi/arm-none-eabi/include/c++/10.3.1/optional ****     : _Optional_payload_base<_Tp>
 309:/opt/gcc-arm-none-eabi/arm-none-eabi/include/c++/10.3.1/optional ****     {
 310:/opt/gcc-arm-none-eabi/arm-none-eabi/include/c++/10.3.1/optional ****       using _Optional_payload_base<_Tp>::_Optional_payload_base;
 311:/opt/gcc-arm-none-eabi/arm-none-eabi/include/c++/10.3.1/optional **** 
 312:/opt/gcc-arm-none-eabi/arm-none-eabi/include/c++/10.3.1/optional ****       _Optional_payload() = default;
 313:/opt/gcc-arm-none-eabi/arm-none-eabi/include/c++/10.3.1/optional ****       ~_Optional_payload() = default;
 314:/opt/gcc-arm-none-eabi/arm-none-eabi/include/c++/10.3.1/optional ****       _Optional_payload(const _Optional_payload&) = default;
 315:/opt/gcc-arm-none-eabi/arm-none-eabi/include/c++/10.3.1/optional ****       _Optional_payload(_Optional_payload&&) = default;
 316:/opt/gcc-arm-none-eabi/arm-none-eabi/include/c++/10.3.1/optional ****       _Optional_payload& operator=(_Optional_payload&&) = default;
 317:/opt/gcc-arm-none-eabi/arm-none-eabi/include/c++/10.3.1/optional **** 
 318:/opt/gcc-arm-none-eabi/arm-none-eabi/include/c++/10.3.1/optional ****       // Non-trivial copy assignment.
 319:/opt/gcc-arm-none-eabi/arm-none-eabi/include/c++/10.3.1/optional ****       constexpr
 320:/opt/gcc-arm-none-eabi/arm-none-eabi/include/c++/10.3.1/optional ****       _Optional_payload&
 321:/opt/gcc-arm-none-eabi/arm-none-eabi/include/c++/10.3.1/optional ****       operator=(const _Optional_payload& __other)
 322:/opt/gcc-arm-none-eabi/arm-none-eabi/include/c++/10.3.1/optional ****       {
 323:/opt/gcc-arm-none-eabi/arm-none-eabi/include/c++/10.3.1/optional **** 	this->_M_copy_assign(__other);
 324:/opt/gcc-arm-none-eabi/arm-none-eabi/include/c++/10.3.1/optional **** 	return *this;
 325:/opt/gcc-arm-none-eabi/arm-none-eabi/include/c++/10.3.1/optional ****       }
 326:/opt/gcc-arm-none-eabi/arm-none-eabi/include/c++/10.3.1/optional ****     };
 327:/opt/gcc-arm-none-eabi/arm-none-eabi/include/c++/10.3.1/optional **** 
 328:/opt/gcc-arm-none-eabi/arm-none-eabi/include/c++/10.3.1/optional ****   // Payload for optionals with non-trivial move construction/assignment.
 329:/opt/gcc-arm-none-eabi/arm-none-eabi/include/c++/10.3.1/optional ****   template <typename _Tp>
 330:/opt/gcc-arm-none-eabi/arm-none-eabi/include/c++/10.3.1/optional ****     struct _Optional_payload<_Tp, true, true, false>
 331:/opt/gcc-arm-none-eabi/arm-none-eabi/include/c++/10.3.1/optional ****     : _Optional_payload_base<_Tp>
 332:/opt/gcc-arm-none-eabi/arm-none-eabi/include/c++/10.3.1/optional ****     {
 333:/opt/gcc-arm-none-eabi/arm-none-eabi/include/c++/10.3.1/optional ****       using _Optional_payload_base<_Tp>::_Optional_payload_base;
 334:/opt/gcc-arm-none-eabi/arm-none-eabi/include/c++/10.3.1/optional **** 
 335:/opt/gcc-arm-none-eabi/arm-none-eabi/include/c++/10.3.1/optional ****       _Optional_payload() = default;
 336:/opt/gcc-arm-none-eabi/arm-none-eabi/include/c++/10.3.1/optional ****       ~_Optional_payload() = default;
 337:/opt/gcc-arm-none-eabi/arm-none-eabi/include/c++/10.3.1/optional ****       _Optional_payload(const _Optional_payload&) = default;
 338:/opt/gcc-arm-none-eabi/arm-none-eabi/include/c++/10.3.1/optional ****       _Optional_payload(_Optional_payload&&) = default;
 339:/opt/gcc-arm-none-eabi/arm-none-eabi/include/c++/10.3.1/optional ****       _Optional_payload& operator=(const _Optional_payload&) = default;
ARM GAS  /tmp/ccjyQa7a.s 			page 25


 340:/opt/gcc-arm-none-eabi/arm-none-eabi/include/c++/10.3.1/optional **** 
 341:/opt/gcc-arm-none-eabi/arm-none-eabi/include/c++/10.3.1/optional ****       // Non-trivial move assignment.
 342:/opt/gcc-arm-none-eabi/arm-none-eabi/include/c++/10.3.1/optional ****       constexpr
 343:/opt/gcc-arm-none-eabi/arm-none-eabi/include/c++/10.3.1/optional ****       _Optional_payload&
 344:/opt/gcc-arm-none-eabi/arm-none-eabi/include/c++/10.3.1/optional ****       operator=(_Optional_payload&& __other)
 345:/opt/gcc-arm-none-eabi/arm-none-eabi/include/c++/10.3.1/optional ****       noexcept(__and_v<is_nothrow_move_constructible<_Tp>,
 346:/opt/gcc-arm-none-eabi/arm-none-eabi/include/c++/10.3.1/optional **** 		       is_nothrow_move_assignable<_Tp>>)
 347:/opt/gcc-arm-none-eabi/arm-none-eabi/include/c++/10.3.1/optional ****       {
 348:/opt/gcc-arm-none-eabi/arm-none-eabi/include/c++/10.3.1/optional **** 	this->_M_move_assign(std::move(__other));
 349:/opt/gcc-arm-none-eabi/arm-none-eabi/include/c++/10.3.1/optional **** 	return *this;
 350:/opt/gcc-arm-none-eabi/arm-none-eabi/include/c++/10.3.1/optional ****       }
 351:/opt/gcc-arm-none-eabi/arm-none-eabi/include/c++/10.3.1/optional ****     };
 352:/opt/gcc-arm-none-eabi/arm-none-eabi/include/c++/10.3.1/optional **** 
 353:/opt/gcc-arm-none-eabi/arm-none-eabi/include/c++/10.3.1/optional ****   // Payload for optionals with non-trivial copy and move assignment.
 354:/opt/gcc-arm-none-eabi/arm-none-eabi/include/c++/10.3.1/optional ****   template <typename _Tp>
 355:/opt/gcc-arm-none-eabi/arm-none-eabi/include/c++/10.3.1/optional ****     struct _Optional_payload<_Tp, true, false, false>
 356:/opt/gcc-arm-none-eabi/arm-none-eabi/include/c++/10.3.1/optional ****     : _Optional_payload_base<_Tp>
 357:/opt/gcc-arm-none-eabi/arm-none-eabi/include/c++/10.3.1/optional ****     {
 358:/opt/gcc-arm-none-eabi/arm-none-eabi/include/c++/10.3.1/optional ****       using _Optional_payload_base<_Tp>::_Optional_payload_base;
 359:/opt/gcc-arm-none-eabi/arm-none-eabi/include/c++/10.3.1/optional **** 
 360:/opt/gcc-arm-none-eabi/arm-none-eabi/include/c++/10.3.1/optional ****       _Optional_payload() = default;
 361:/opt/gcc-arm-none-eabi/arm-none-eabi/include/c++/10.3.1/optional ****       ~_Optional_payload() = default;
 362:/opt/gcc-arm-none-eabi/arm-none-eabi/include/c++/10.3.1/optional ****       _Optional_payload(const _Optional_payload&) = default;
 363:/opt/gcc-arm-none-eabi/arm-none-eabi/include/c++/10.3.1/optional ****       _Optional_payload(_Optional_payload&&) = default;
 364:/opt/gcc-arm-none-eabi/arm-none-eabi/include/c++/10.3.1/optional **** 
 365:/opt/gcc-arm-none-eabi/arm-none-eabi/include/c++/10.3.1/optional ****       // Non-trivial copy assignment.
 366:/opt/gcc-arm-none-eabi/arm-none-eabi/include/c++/10.3.1/optional ****       constexpr
 367:/opt/gcc-arm-none-eabi/arm-none-eabi/include/c++/10.3.1/optional ****       _Optional_payload&
 368:/opt/gcc-arm-none-eabi/arm-none-eabi/include/c++/10.3.1/optional ****       operator=(const _Optional_payload& __other)
 369:/opt/gcc-arm-none-eabi/arm-none-eabi/include/c++/10.3.1/optional ****       {
 370:/opt/gcc-arm-none-eabi/arm-none-eabi/include/c++/10.3.1/optional **** 	this->_M_copy_assign(__other);
 371:/opt/gcc-arm-none-eabi/arm-none-eabi/include/c++/10.3.1/optional **** 	return *this;
 372:/opt/gcc-arm-none-eabi/arm-none-eabi/include/c++/10.3.1/optional ****       }
 373:/opt/gcc-arm-none-eabi/arm-none-eabi/include/c++/10.3.1/optional **** 
 374:/opt/gcc-arm-none-eabi/arm-none-eabi/include/c++/10.3.1/optional ****       // Non-trivial move assignment.
 375:/opt/gcc-arm-none-eabi/arm-none-eabi/include/c++/10.3.1/optional ****       constexpr
 376:/opt/gcc-arm-none-eabi/arm-none-eabi/include/c++/10.3.1/optional ****       _Optional_payload&
 377:/opt/gcc-arm-none-eabi/arm-none-eabi/include/c++/10.3.1/optional ****       operator=(_Optional_payload&& __other)
 378:/opt/gcc-arm-none-eabi/arm-none-eabi/include/c++/10.3.1/optional ****       noexcept(__and_v<is_nothrow_move_constructible<_Tp>,
 379:/opt/gcc-arm-none-eabi/arm-none-eabi/include/c++/10.3.1/optional **** 		       is_nothrow_move_assignable<_Tp>>)
 380:/opt/gcc-arm-none-eabi/arm-none-eabi/include/c++/10.3.1/optional ****       {
 381:/opt/gcc-arm-none-eabi/arm-none-eabi/include/c++/10.3.1/optional **** 	this->_M_move_assign(std::move(__other));
 382:/opt/gcc-arm-none-eabi/arm-none-eabi/include/c++/10.3.1/optional **** 	return *this;
 383:/opt/gcc-arm-none-eabi/arm-none-eabi/include/c++/10.3.1/optional ****       }
 384:/opt/gcc-arm-none-eabi/arm-none-eabi/include/c++/10.3.1/optional ****     };
 385:/opt/gcc-arm-none-eabi/arm-none-eabi/include/c++/10.3.1/optional **** 
 386:/opt/gcc-arm-none-eabi/arm-none-eabi/include/c++/10.3.1/optional ****   // Payload for optionals with non-trivial destructors.
 387:/opt/gcc-arm-none-eabi/arm-none-eabi/include/c++/10.3.1/optional ****   template <typename _Tp, bool _Copy, bool _Move>
 388:/opt/gcc-arm-none-eabi/arm-none-eabi/include/c++/10.3.1/optional ****     struct _Optional_payload<_Tp, false, _Copy, _Move>
 389:/opt/gcc-arm-none-eabi/arm-none-eabi/include/c++/10.3.1/optional ****     : _Optional_payload<_Tp, true, false, false>
 390:/opt/gcc-arm-none-eabi/arm-none-eabi/include/c++/10.3.1/optional ****     {
 391:/opt/gcc-arm-none-eabi/arm-none-eabi/include/c++/10.3.1/optional ****       // Base class implements all the constructors and assignment operators:
 392:/opt/gcc-arm-none-eabi/arm-none-eabi/include/c++/10.3.1/optional ****       using _Optional_payload<_Tp, true, false, false>::_Optional_payload;
 393:/opt/gcc-arm-none-eabi/arm-none-eabi/include/c++/10.3.1/optional ****       _Optional_payload() = default;
 394:/opt/gcc-arm-none-eabi/arm-none-eabi/include/c++/10.3.1/optional ****       _Optional_payload(const _Optional_payload&) = default;
 395:/opt/gcc-arm-none-eabi/arm-none-eabi/include/c++/10.3.1/optional ****       _Optional_payload(_Optional_payload&&) = default;
 396:/opt/gcc-arm-none-eabi/arm-none-eabi/include/c++/10.3.1/optional ****       _Optional_payload& operator=(const _Optional_payload&) = default;
ARM GAS  /tmp/ccjyQa7a.s 			page 26


 397:/opt/gcc-arm-none-eabi/arm-none-eabi/include/c++/10.3.1/optional ****       _Optional_payload& operator=(_Optional_payload&&) = default;
 398:/opt/gcc-arm-none-eabi/arm-none-eabi/include/c++/10.3.1/optional **** 
 399:/opt/gcc-arm-none-eabi/arm-none-eabi/include/c++/10.3.1/optional ****       // Destructor needs to destroy the contained value:
 400:/opt/gcc-arm-none-eabi/arm-none-eabi/include/c++/10.3.1/optional ****       ~_Optional_payload() { this->_M_reset(); }
 401:/opt/gcc-arm-none-eabi/arm-none-eabi/include/c++/10.3.1/optional ****     };
 402:/opt/gcc-arm-none-eabi/arm-none-eabi/include/c++/10.3.1/optional **** 
 403:/opt/gcc-arm-none-eabi/arm-none-eabi/include/c++/10.3.1/optional ****   // Common base class for _Optional_base<T> to avoid repeating these
 404:/opt/gcc-arm-none-eabi/arm-none-eabi/include/c++/10.3.1/optional ****   // member functions in each specialization.
 405:/opt/gcc-arm-none-eabi/arm-none-eabi/include/c++/10.3.1/optional ****   template<typename _Tp, typename _Dp>
 406:/opt/gcc-arm-none-eabi/arm-none-eabi/include/c++/10.3.1/optional ****     class _Optional_base_impl
 407:/opt/gcc-arm-none-eabi/arm-none-eabi/include/c++/10.3.1/optional ****     {
 408:/opt/gcc-arm-none-eabi/arm-none-eabi/include/c++/10.3.1/optional ****     protected:
 409:/opt/gcc-arm-none-eabi/arm-none-eabi/include/c++/10.3.1/optional ****       using _Stored_type = remove_const_t<_Tp>;
 410:/opt/gcc-arm-none-eabi/arm-none-eabi/include/c++/10.3.1/optional **** 
 411:/opt/gcc-arm-none-eabi/arm-none-eabi/include/c++/10.3.1/optional ****       // The _M_construct operation has !_M_engaged as a precondition
 412:/opt/gcc-arm-none-eabi/arm-none-eabi/include/c++/10.3.1/optional ****       // while _M_destruct has _M_engaged as a precondition.
 413:/opt/gcc-arm-none-eabi/arm-none-eabi/include/c++/10.3.1/optional ****       template<typename... _Args>
 414:/opt/gcc-arm-none-eabi/arm-none-eabi/include/c++/10.3.1/optional **** 	void
 415:/opt/gcc-arm-none-eabi/arm-none-eabi/include/c++/10.3.1/optional **** 	_M_construct(_Args&&... __args)
 416:/opt/gcc-arm-none-eabi/arm-none-eabi/include/c++/10.3.1/optional **** 	noexcept(is_nothrow_constructible_v<_Stored_type, _Args...>)
 417:/opt/gcc-arm-none-eabi/arm-none-eabi/include/c++/10.3.1/optional **** 	{
 418:/opt/gcc-arm-none-eabi/arm-none-eabi/include/c++/10.3.1/optional **** 	  ::new
 419:/opt/gcc-arm-none-eabi/arm-none-eabi/include/c++/10.3.1/optional **** 	    (std::__addressof(static_cast<_Dp*>(this)->_M_payload._M_payload))
 420:/opt/gcc-arm-none-eabi/arm-none-eabi/include/c++/10.3.1/optional **** 	    _Stored_type(std::forward<_Args>(__args)...);
 421:/opt/gcc-arm-none-eabi/arm-none-eabi/include/c++/10.3.1/optional **** 	  static_cast<_Dp*>(this)->_M_payload._M_engaged = true;
 422:/opt/gcc-arm-none-eabi/arm-none-eabi/include/c++/10.3.1/optional **** 	}
 423:/opt/gcc-arm-none-eabi/arm-none-eabi/include/c++/10.3.1/optional **** 
 424:/opt/gcc-arm-none-eabi/arm-none-eabi/include/c++/10.3.1/optional ****       void
 425:/opt/gcc-arm-none-eabi/arm-none-eabi/include/c++/10.3.1/optional ****       _M_destruct() noexcept
 426:/opt/gcc-arm-none-eabi/arm-none-eabi/include/c++/10.3.1/optional ****       { static_cast<_Dp*>(this)->_M_payload._M_destroy(); }
 427:/opt/gcc-arm-none-eabi/arm-none-eabi/include/c++/10.3.1/optional **** 
 428:/opt/gcc-arm-none-eabi/arm-none-eabi/include/c++/10.3.1/optional ****       // _M_reset is a 'safe' operation with no precondition.
 429:/opt/gcc-arm-none-eabi/arm-none-eabi/include/c++/10.3.1/optional ****       constexpr void
 430:/opt/gcc-arm-none-eabi/arm-none-eabi/include/c++/10.3.1/optional ****       _M_reset() noexcept
 431:/opt/gcc-arm-none-eabi/arm-none-eabi/include/c++/10.3.1/optional ****       { static_cast<_Dp*>(this)->_M_payload._M_reset(); }
 432:/opt/gcc-arm-none-eabi/arm-none-eabi/include/c++/10.3.1/optional **** 
 433:/opt/gcc-arm-none-eabi/arm-none-eabi/include/c++/10.3.1/optional ****       constexpr bool _M_is_engaged() const noexcept
 434:/opt/gcc-arm-none-eabi/arm-none-eabi/include/c++/10.3.1/optional ****       { return static_cast<const _Dp*>(this)->_M_payload._M_engaged; }
 435:/opt/gcc-arm-none-eabi/arm-none-eabi/include/c++/10.3.1/optional **** 
 436:/opt/gcc-arm-none-eabi/arm-none-eabi/include/c++/10.3.1/optional ****       // The _M_get operations have _M_engaged as a precondition.
 437:/opt/gcc-arm-none-eabi/arm-none-eabi/include/c++/10.3.1/optional ****       constexpr _Tp&
 438:/opt/gcc-arm-none-eabi/arm-none-eabi/include/c++/10.3.1/optional ****       _M_get() noexcept
 439:/opt/gcc-arm-none-eabi/arm-none-eabi/include/c++/10.3.1/optional ****       {
 440:/opt/gcc-arm-none-eabi/arm-none-eabi/include/c++/10.3.1/optional **** 	__glibcxx_assert(this->_M_is_engaged());
 441:/opt/gcc-arm-none-eabi/arm-none-eabi/include/c++/10.3.1/optional **** 	return static_cast<_Dp*>(this)->_M_payload._M_get();
 442:/opt/gcc-arm-none-eabi/arm-none-eabi/include/c++/10.3.1/optional ****       }
 443:/opt/gcc-arm-none-eabi/arm-none-eabi/include/c++/10.3.1/optional **** 
 444:/opt/gcc-arm-none-eabi/arm-none-eabi/include/c++/10.3.1/optional ****       constexpr const _Tp&
 445:/opt/gcc-arm-none-eabi/arm-none-eabi/include/c++/10.3.1/optional ****       _M_get() const noexcept
 446:/opt/gcc-arm-none-eabi/arm-none-eabi/include/c++/10.3.1/optional ****       {
 447:/opt/gcc-arm-none-eabi/arm-none-eabi/include/c++/10.3.1/optional **** 	__glibcxx_assert(this->_M_is_engaged());
 448:/opt/gcc-arm-none-eabi/arm-none-eabi/include/c++/10.3.1/optional **** 	return static_cast<const _Dp*>(this)->_M_payload._M_get();
 449:/opt/gcc-arm-none-eabi/arm-none-eabi/include/c++/10.3.1/optional ****       }
 450:/opt/gcc-arm-none-eabi/arm-none-eabi/include/c++/10.3.1/optional ****     };
 451:/opt/gcc-arm-none-eabi/arm-none-eabi/include/c++/10.3.1/optional **** 
 452:/opt/gcc-arm-none-eabi/arm-none-eabi/include/c++/10.3.1/optional ****   /**
 453:/opt/gcc-arm-none-eabi/arm-none-eabi/include/c++/10.3.1/optional ****     * @brief Class template that provides copy/move constructors of optional.
ARM GAS  /tmp/ccjyQa7a.s 			page 27


 454:/opt/gcc-arm-none-eabi/arm-none-eabi/include/c++/10.3.1/optional ****     *
 455:/opt/gcc-arm-none-eabi/arm-none-eabi/include/c++/10.3.1/optional ****     * Such a separate base class template is necessary in order to
 456:/opt/gcc-arm-none-eabi/arm-none-eabi/include/c++/10.3.1/optional ****     * conditionally make copy/move constructors trivial.
 457:/opt/gcc-arm-none-eabi/arm-none-eabi/include/c++/10.3.1/optional ****     *
 458:/opt/gcc-arm-none-eabi/arm-none-eabi/include/c++/10.3.1/optional ****     * When the contained value is trivially copy/move constructible,
 459:/opt/gcc-arm-none-eabi/arm-none-eabi/include/c++/10.3.1/optional ****     * the copy/move constructors of _Optional_base will invoke the
 460:/opt/gcc-arm-none-eabi/arm-none-eabi/include/c++/10.3.1/optional ****     * trivial copy/move constructor of _Optional_payload. Otherwise,
 461:/opt/gcc-arm-none-eabi/arm-none-eabi/include/c++/10.3.1/optional ****     * they will invoke _Optional_payload(bool, const _Optional_payload&)
 462:/opt/gcc-arm-none-eabi/arm-none-eabi/include/c++/10.3.1/optional ****     * or _Optional_payload(bool, _Optional_payload&&) to initialize
 463:/opt/gcc-arm-none-eabi/arm-none-eabi/include/c++/10.3.1/optional ****     * the contained value, if copying/moving an engaged optional.
 464:/opt/gcc-arm-none-eabi/arm-none-eabi/include/c++/10.3.1/optional ****     *
 465:/opt/gcc-arm-none-eabi/arm-none-eabi/include/c++/10.3.1/optional ****     * Whether the other special members are trivial is determined by the
 466:/opt/gcc-arm-none-eabi/arm-none-eabi/include/c++/10.3.1/optional ****     * _Optional_payload<_Tp> specialization used for the _M_payload member.
 467:/opt/gcc-arm-none-eabi/arm-none-eabi/include/c++/10.3.1/optional ****     *
 468:/opt/gcc-arm-none-eabi/arm-none-eabi/include/c++/10.3.1/optional ****     * @see optional, _Enable_special_members
 469:/opt/gcc-arm-none-eabi/arm-none-eabi/include/c++/10.3.1/optional ****     */
 470:/opt/gcc-arm-none-eabi/arm-none-eabi/include/c++/10.3.1/optional ****   template<typename _Tp,
 471:/opt/gcc-arm-none-eabi/arm-none-eabi/include/c++/10.3.1/optional **** 	   bool = is_trivially_copy_constructible_v<_Tp>,
 472:/opt/gcc-arm-none-eabi/arm-none-eabi/include/c++/10.3.1/optional **** 	   bool = is_trivially_move_constructible_v<_Tp>>
 473:/opt/gcc-arm-none-eabi/arm-none-eabi/include/c++/10.3.1/optional ****     struct _Optional_base
 474:/opt/gcc-arm-none-eabi/arm-none-eabi/include/c++/10.3.1/optional ****       : _Optional_base_impl<_Tp, _Optional_base<_Tp>>
 475:/opt/gcc-arm-none-eabi/arm-none-eabi/include/c++/10.3.1/optional ****     {
 476:/opt/gcc-arm-none-eabi/arm-none-eabi/include/c++/10.3.1/optional ****       // Constructors for disengaged optionals.
 477:/opt/gcc-arm-none-eabi/arm-none-eabi/include/c++/10.3.1/optional ****       constexpr _Optional_base() = default;
 478:/opt/gcc-arm-none-eabi/arm-none-eabi/include/c++/10.3.1/optional **** 
 479:/opt/gcc-arm-none-eabi/arm-none-eabi/include/c++/10.3.1/optional ****       // Constructors for engaged optionals.
 480:/opt/gcc-arm-none-eabi/arm-none-eabi/include/c++/10.3.1/optional ****       template<typename... _Args,
 481:/opt/gcc-arm-none-eabi/arm-none-eabi/include/c++/10.3.1/optional **** 	       enable_if_t<is_constructible_v<_Tp, _Args&&...>, bool> = false>
 482:/opt/gcc-arm-none-eabi/arm-none-eabi/include/c++/10.3.1/optional ****         constexpr explicit _Optional_base(in_place_t, _Args&&... __args)
 483:/opt/gcc-arm-none-eabi/arm-none-eabi/include/c++/10.3.1/optional ****         : _M_payload(in_place,
 484:/opt/gcc-arm-none-eabi/arm-none-eabi/include/c++/10.3.1/optional **** 		     std::forward<_Args>(__args)...) { }
 485:/opt/gcc-arm-none-eabi/arm-none-eabi/include/c++/10.3.1/optional **** 
 486:/opt/gcc-arm-none-eabi/arm-none-eabi/include/c++/10.3.1/optional ****       template<typename _Up, typename... _Args,
 487:/opt/gcc-arm-none-eabi/arm-none-eabi/include/c++/10.3.1/optional ****                enable_if_t<is_constructible_v<_Tp,
 488:/opt/gcc-arm-none-eabi/arm-none-eabi/include/c++/10.3.1/optional **** 					      initializer_list<_Up>&,
 489:/opt/gcc-arm-none-eabi/arm-none-eabi/include/c++/10.3.1/optional **** 					      _Args&&...>, bool> = false>
 490:/opt/gcc-arm-none-eabi/arm-none-eabi/include/c++/10.3.1/optional ****         constexpr explicit _Optional_base(in_place_t,
 491:/opt/gcc-arm-none-eabi/arm-none-eabi/include/c++/10.3.1/optional ****                                           initializer_list<_Up> __il,
 492:/opt/gcc-arm-none-eabi/arm-none-eabi/include/c++/10.3.1/optional ****                                           _Args&&... __args)
 493:/opt/gcc-arm-none-eabi/arm-none-eabi/include/c++/10.3.1/optional ****         : _M_payload(in_place,
 494:/opt/gcc-arm-none-eabi/arm-none-eabi/include/c++/10.3.1/optional **** 		     __il, std::forward<_Args>(__args)...)
 495:/opt/gcc-arm-none-eabi/arm-none-eabi/include/c++/10.3.1/optional ****         { }
 496:/opt/gcc-arm-none-eabi/arm-none-eabi/include/c++/10.3.1/optional **** 
 497:/opt/gcc-arm-none-eabi/arm-none-eabi/include/c++/10.3.1/optional ****       // Copy and move constructors.
 498:/opt/gcc-arm-none-eabi/arm-none-eabi/include/c++/10.3.1/optional ****       constexpr _Optional_base(const _Optional_base& __other)
 499:/opt/gcc-arm-none-eabi/arm-none-eabi/include/c++/10.3.1/optional **** 	: _M_payload(__other._M_payload._M_engaged,
 500:/opt/gcc-arm-none-eabi/arm-none-eabi/include/c++/10.3.1/optional **** 		     __other._M_payload)
 501:/opt/gcc-arm-none-eabi/arm-none-eabi/include/c++/10.3.1/optional ****       { }
 502:/opt/gcc-arm-none-eabi/arm-none-eabi/include/c++/10.3.1/optional **** 
 503:/opt/gcc-arm-none-eabi/arm-none-eabi/include/c++/10.3.1/optional ****       constexpr _Optional_base(_Optional_base&& __other)
 504:/opt/gcc-arm-none-eabi/arm-none-eabi/include/c++/10.3.1/optional ****       noexcept(is_nothrow_move_constructible_v<_Tp>)
 505:/opt/gcc-arm-none-eabi/arm-none-eabi/include/c++/10.3.1/optional **** 	: _M_payload(__other._M_payload._M_engaged,
 506:/opt/gcc-arm-none-eabi/arm-none-eabi/include/c++/10.3.1/optional **** 		     std::move(__other._M_payload))
 507:/opt/gcc-arm-none-eabi/arm-none-eabi/include/c++/10.3.1/optional ****       { }
 508:/opt/gcc-arm-none-eabi/arm-none-eabi/include/c++/10.3.1/optional **** 
 509:/opt/gcc-arm-none-eabi/arm-none-eabi/include/c++/10.3.1/optional ****       // Assignment operators.
 510:/opt/gcc-arm-none-eabi/arm-none-eabi/include/c++/10.3.1/optional ****       _Optional_base& operator=(const _Optional_base&) = default;
ARM GAS  /tmp/ccjyQa7a.s 			page 28


 511:/opt/gcc-arm-none-eabi/arm-none-eabi/include/c++/10.3.1/optional ****       _Optional_base& operator=(_Optional_base&&) = default;
 512:/opt/gcc-arm-none-eabi/arm-none-eabi/include/c++/10.3.1/optional **** 
 513:/opt/gcc-arm-none-eabi/arm-none-eabi/include/c++/10.3.1/optional ****       _Optional_payload<_Tp> _M_payload;
 514:/opt/gcc-arm-none-eabi/arm-none-eabi/include/c++/10.3.1/optional ****     };
 515:/opt/gcc-arm-none-eabi/arm-none-eabi/include/c++/10.3.1/optional **** 
 516:/opt/gcc-arm-none-eabi/arm-none-eabi/include/c++/10.3.1/optional ****   template<typename _Tp>
 517:/opt/gcc-arm-none-eabi/arm-none-eabi/include/c++/10.3.1/optional ****     struct _Optional_base<_Tp, false, true>
 518:/opt/gcc-arm-none-eabi/arm-none-eabi/include/c++/10.3.1/optional ****       : _Optional_base_impl<_Tp, _Optional_base<_Tp>>
 519:/opt/gcc-arm-none-eabi/arm-none-eabi/include/c++/10.3.1/optional ****     {
 520:/opt/gcc-arm-none-eabi/arm-none-eabi/include/c++/10.3.1/optional ****       // Constructors for disengaged optionals.
 521:/opt/gcc-arm-none-eabi/arm-none-eabi/include/c++/10.3.1/optional ****       constexpr _Optional_base() = default;
 522:/opt/gcc-arm-none-eabi/arm-none-eabi/include/c++/10.3.1/optional **** 
 523:/opt/gcc-arm-none-eabi/arm-none-eabi/include/c++/10.3.1/optional ****       // Constructors for engaged optionals.
 524:/opt/gcc-arm-none-eabi/arm-none-eabi/include/c++/10.3.1/optional ****       template<typename... _Args,
 525:/opt/gcc-arm-none-eabi/arm-none-eabi/include/c++/10.3.1/optional **** 	       enable_if_t<is_constructible_v<_Tp, _Args&&...>, bool> = false>
 526:/opt/gcc-arm-none-eabi/arm-none-eabi/include/c++/10.3.1/optional ****         constexpr explicit _Optional_base(in_place_t, _Args&&... __args)
 527:/opt/gcc-arm-none-eabi/arm-none-eabi/include/c++/10.3.1/optional ****         : _M_payload(in_place,
 528:/opt/gcc-arm-none-eabi/arm-none-eabi/include/c++/10.3.1/optional **** 		     std::forward<_Args>(__args)...) { }
 529:/opt/gcc-arm-none-eabi/arm-none-eabi/include/c++/10.3.1/optional **** 
 530:/opt/gcc-arm-none-eabi/arm-none-eabi/include/c++/10.3.1/optional ****       template<typename _Up, typename... _Args,
 531:/opt/gcc-arm-none-eabi/arm-none-eabi/include/c++/10.3.1/optional ****                enable_if_t<is_constructible_v<_Tp,
 532:/opt/gcc-arm-none-eabi/arm-none-eabi/include/c++/10.3.1/optional **** 					      initializer_list<_Up>&,
 533:/opt/gcc-arm-none-eabi/arm-none-eabi/include/c++/10.3.1/optional **** 					      _Args&&...>, bool> = false>
 534:/opt/gcc-arm-none-eabi/arm-none-eabi/include/c++/10.3.1/optional ****         constexpr explicit _Optional_base(in_place_t,
 535:/opt/gcc-arm-none-eabi/arm-none-eabi/include/c++/10.3.1/optional ****                                           initializer_list<_Up> __il,
 536:/opt/gcc-arm-none-eabi/arm-none-eabi/include/c++/10.3.1/optional ****                                           _Args&&... __args)
 537:/opt/gcc-arm-none-eabi/arm-none-eabi/include/c++/10.3.1/optional ****         : _M_payload(in_place,
 538:/opt/gcc-arm-none-eabi/arm-none-eabi/include/c++/10.3.1/optional **** 		     __il, std::forward<_Args>(__args)...)
 539:/opt/gcc-arm-none-eabi/arm-none-eabi/include/c++/10.3.1/optional ****         { }
 540:/opt/gcc-arm-none-eabi/arm-none-eabi/include/c++/10.3.1/optional **** 
 541:/opt/gcc-arm-none-eabi/arm-none-eabi/include/c++/10.3.1/optional ****       // Copy and move constructors.
 542:/opt/gcc-arm-none-eabi/arm-none-eabi/include/c++/10.3.1/optional ****       constexpr _Optional_base(const _Optional_base& __other)
 543:/opt/gcc-arm-none-eabi/arm-none-eabi/include/c++/10.3.1/optional **** 	: _M_payload(__other._M_payload._M_engaged,
 544:/opt/gcc-arm-none-eabi/arm-none-eabi/include/c++/10.3.1/optional **** 		     __other._M_payload)
 545:/opt/gcc-arm-none-eabi/arm-none-eabi/include/c++/10.3.1/optional ****       { }
 546:/opt/gcc-arm-none-eabi/arm-none-eabi/include/c++/10.3.1/optional **** 
 547:/opt/gcc-arm-none-eabi/arm-none-eabi/include/c++/10.3.1/optional ****       constexpr _Optional_base(_Optional_base&& __other) = default;
 548:/opt/gcc-arm-none-eabi/arm-none-eabi/include/c++/10.3.1/optional **** 
 549:/opt/gcc-arm-none-eabi/arm-none-eabi/include/c++/10.3.1/optional ****       // Assignment operators.
 550:/opt/gcc-arm-none-eabi/arm-none-eabi/include/c++/10.3.1/optional ****       _Optional_base& operator=(const _Optional_base&) = default;
 551:/opt/gcc-arm-none-eabi/arm-none-eabi/include/c++/10.3.1/optional ****       _Optional_base& operator=(_Optional_base&&) = default;
 552:/opt/gcc-arm-none-eabi/arm-none-eabi/include/c++/10.3.1/optional **** 
 553:/opt/gcc-arm-none-eabi/arm-none-eabi/include/c++/10.3.1/optional ****       _Optional_payload<_Tp> _M_payload;
 554:/opt/gcc-arm-none-eabi/arm-none-eabi/include/c++/10.3.1/optional ****     };
 555:/opt/gcc-arm-none-eabi/arm-none-eabi/include/c++/10.3.1/optional **** 
 556:/opt/gcc-arm-none-eabi/arm-none-eabi/include/c++/10.3.1/optional ****   template<typename _Tp>
 557:/opt/gcc-arm-none-eabi/arm-none-eabi/include/c++/10.3.1/optional ****     struct _Optional_base<_Tp, true, false>
 558:/opt/gcc-arm-none-eabi/arm-none-eabi/include/c++/10.3.1/optional ****       : _Optional_base_impl<_Tp, _Optional_base<_Tp>>
 559:/opt/gcc-arm-none-eabi/arm-none-eabi/include/c++/10.3.1/optional ****     {
 560:/opt/gcc-arm-none-eabi/arm-none-eabi/include/c++/10.3.1/optional ****       // Constructors for disengaged optionals.
 561:/opt/gcc-arm-none-eabi/arm-none-eabi/include/c++/10.3.1/optional ****       constexpr _Optional_base() = default;
 562:/opt/gcc-arm-none-eabi/arm-none-eabi/include/c++/10.3.1/optional **** 
 563:/opt/gcc-arm-none-eabi/arm-none-eabi/include/c++/10.3.1/optional ****       // Constructors for engaged optionals.
 564:/opt/gcc-arm-none-eabi/arm-none-eabi/include/c++/10.3.1/optional ****       template<typename... _Args,
 565:/opt/gcc-arm-none-eabi/arm-none-eabi/include/c++/10.3.1/optional **** 	       enable_if_t<is_constructible_v<_Tp, _Args&&...>, bool> = false>
 566:/opt/gcc-arm-none-eabi/arm-none-eabi/include/c++/10.3.1/optional ****         constexpr explicit _Optional_base(in_place_t, _Args&&... __args)
 567:/opt/gcc-arm-none-eabi/arm-none-eabi/include/c++/10.3.1/optional ****         : _M_payload(in_place,
ARM GAS  /tmp/ccjyQa7a.s 			page 29


 568:/opt/gcc-arm-none-eabi/arm-none-eabi/include/c++/10.3.1/optional **** 		     std::forward<_Args>(__args)...) { }
 569:/opt/gcc-arm-none-eabi/arm-none-eabi/include/c++/10.3.1/optional **** 
 570:/opt/gcc-arm-none-eabi/arm-none-eabi/include/c++/10.3.1/optional ****       template<typename _Up, typename... _Args,
 571:/opt/gcc-arm-none-eabi/arm-none-eabi/include/c++/10.3.1/optional ****                enable_if_t<is_constructible_v<_Tp,
 572:/opt/gcc-arm-none-eabi/arm-none-eabi/include/c++/10.3.1/optional **** 					      initializer_list<_Up>&,
 573:/opt/gcc-arm-none-eabi/arm-none-eabi/include/c++/10.3.1/optional **** 					      _Args&&...>, bool> = false>
 574:/opt/gcc-arm-none-eabi/arm-none-eabi/include/c++/10.3.1/optional ****         constexpr explicit _Optional_base(in_place_t,
 575:/opt/gcc-arm-none-eabi/arm-none-eabi/include/c++/10.3.1/optional ****                                           initializer_list<_Up> __il,
 576:/opt/gcc-arm-none-eabi/arm-none-eabi/include/c++/10.3.1/optional ****                                           _Args&&... __args)
 577:/opt/gcc-arm-none-eabi/arm-none-eabi/include/c++/10.3.1/optional ****         : _M_payload(in_place,
 578:/opt/gcc-arm-none-eabi/arm-none-eabi/include/c++/10.3.1/optional **** 		     __il, std::forward<_Args>(__args)...)
 579:/opt/gcc-arm-none-eabi/arm-none-eabi/include/c++/10.3.1/optional ****         { }
 580:/opt/gcc-arm-none-eabi/arm-none-eabi/include/c++/10.3.1/optional **** 
 581:/opt/gcc-arm-none-eabi/arm-none-eabi/include/c++/10.3.1/optional ****       // Copy and move constructors.
 582:/opt/gcc-arm-none-eabi/arm-none-eabi/include/c++/10.3.1/optional ****       constexpr _Optional_base(const _Optional_base& __other) = default;
 583:/opt/gcc-arm-none-eabi/arm-none-eabi/include/c++/10.3.1/optional **** 
 584:/opt/gcc-arm-none-eabi/arm-none-eabi/include/c++/10.3.1/optional ****       constexpr _Optional_base(_Optional_base&& __other)
 585:/opt/gcc-arm-none-eabi/arm-none-eabi/include/c++/10.3.1/optional ****       noexcept(is_nothrow_move_constructible_v<_Tp>)
 586:/opt/gcc-arm-none-eabi/arm-none-eabi/include/c++/10.3.1/optional **** 	: _M_payload(__other._M_payload._M_engaged,
 587:/opt/gcc-arm-none-eabi/arm-none-eabi/include/c++/10.3.1/optional **** 		     std::move(__other._M_payload))
 588:/opt/gcc-arm-none-eabi/arm-none-eabi/include/c++/10.3.1/optional ****       { }
 589:/opt/gcc-arm-none-eabi/arm-none-eabi/include/c++/10.3.1/optional **** 
 590:/opt/gcc-arm-none-eabi/arm-none-eabi/include/c++/10.3.1/optional ****       // Assignment operators.
 591:/opt/gcc-arm-none-eabi/arm-none-eabi/include/c++/10.3.1/optional ****       _Optional_base& operator=(const _Optional_base&) = default;
 592:/opt/gcc-arm-none-eabi/arm-none-eabi/include/c++/10.3.1/optional ****       _Optional_base& operator=(_Optional_base&&) = default;
 593:/opt/gcc-arm-none-eabi/arm-none-eabi/include/c++/10.3.1/optional **** 
 594:/opt/gcc-arm-none-eabi/arm-none-eabi/include/c++/10.3.1/optional ****       _Optional_payload<_Tp> _M_payload;
 595:/opt/gcc-arm-none-eabi/arm-none-eabi/include/c++/10.3.1/optional ****     };
 596:/opt/gcc-arm-none-eabi/arm-none-eabi/include/c++/10.3.1/optional **** 
 597:/opt/gcc-arm-none-eabi/arm-none-eabi/include/c++/10.3.1/optional ****   template<typename _Tp>
 598:/opt/gcc-arm-none-eabi/arm-none-eabi/include/c++/10.3.1/optional ****     struct _Optional_base<_Tp, true, true>
 599:/opt/gcc-arm-none-eabi/arm-none-eabi/include/c++/10.3.1/optional ****       : _Optional_base_impl<_Tp, _Optional_base<_Tp>>
 600:/opt/gcc-arm-none-eabi/arm-none-eabi/include/c++/10.3.1/optional ****     {
 601:/opt/gcc-arm-none-eabi/arm-none-eabi/include/c++/10.3.1/optional ****       // Constructors for disengaged optionals.
 602:/opt/gcc-arm-none-eabi/arm-none-eabi/include/c++/10.3.1/optional ****       constexpr _Optional_base() = default;
 603:/opt/gcc-arm-none-eabi/arm-none-eabi/include/c++/10.3.1/optional **** 
 604:/opt/gcc-arm-none-eabi/arm-none-eabi/include/c++/10.3.1/optional ****       // Constructors for engaged optionals.
 605:/opt/gcc-arm-none-eabi/arm-none-eabi/include/c++/10.3.1/optional ****       template<typename... _Args,
 606:/opt/gcc-arm-none-eabi/arm-none-eabi/include/c++/10.3.1/optional **** 	       enable_if_t<is_constructible_v<_Tp, _Args&&...>, bool> = false>
 607:/opt/gcc-arm-none-eabi/arm-none-eabi/include/c++/10.3.1/optional ****         constexpr explicit _Optional_base(in_place_t, _Args&&... __args)
 608:/opt/gcc-arm-none-eabi/arm-none-eabi/include/c++/10.3.1/optional ****         : _M_payload(in_place,
 609:/opt/gcc-arm-none-eabi/arm-none-eabi/include/c++/10.3.1/optional **** 		     std::forward<_Args>(__args)...) { }
 610:/opt/gcc-arm-none-eabi/arm-none-eabi/include/c++/10.3.1/optional **** 
 611:/opt/gcc-arm-none-eabi/arm-none-eabi/include/c++/10.3.1/optional ****       template<typename _Up, typename... _Args,
 612:/opt/gcc-arm-none-eabi/arm-none-eabi/include/c++/10.3.1/optional ****                enable_if_t<is_constructible_v<_Tp,
 613:/opt/gcc-arm-none-eabi/arm-none-eabi/include/c++/10.3.1/optional **** 					      initializer_list<_Up>&,
 614:/opt/gcc-arm-none-eabi/arm-none-eabi/include/c++/10.3.1/optional **** 					      _Args&&...>, bool> = false>
 615:/opt/gcc-arm-none-eabi/arm-none-eabi/include/c++/10.3.1/optional ****         constexpr explicit _Optional_base(in_place_t,
 616:/opt/gcc-arm-none-eabi/arm-none-eabi/include/c++/10.3.1/optional ****                                           initializer_list<_Up> __il,
 617:/opt/gcc-arm-none-eabi/arm-none-eabi/include/c++/10.3.1/optional ****                                           _Args&&... __args)
 618:/opt/gcc-arm-none-eabi/arm-none-eabi/include/c++/10.3.1/optional ****         : _M_payload(in_place,
 619:/opt/gcc-arm-none-eabi/arm-none-eabi/include/c++/10.3.1/optional **** 		     __il, std::forward<_Args>(__args)...)
 620:/opt/gcc-arm-none-eabi/arm-none-eabi/include/c++/10.3.1/optional ****         { }
 621:/opt/gcc-arm-none-eabi/arm-none-eabi/include/c++/10.3.1/optional **** 
 622:/opt/gcc-arm-none-eabi/arm-none-eabi/include/c++/10.3.1/optional ****       // Copy and move constructors.
 623:/opt/gcc-arm-none-eabi/arm-none-eabi/include/c++/10.3.1/optional ****       constexpr _Optional_base(const _Optional_base& __other) = default;
 624:/opt/gcc-arm-none-eabi/arm-none-eabi/include/c++/10.3.1/optional ****       constexpr _Optional_base(_Optional_base&& __other) = default;
ARM GAS  /tmp/ccjyQa7a.s 			page 30


 625:/opt/gcc-arm-none-eabi/arm-none-eabi/include/c++/10.3.1/optional **** 
 626:/opt/gcc-arm-none-eabi/arm-none-eabi/include/c++/10.3.1/optional ****       // Assignment operators.
 627:/opt/gcc-arm-none-eabi/arm-none-eabi/include/c++/10.3.1/optional ****       _Optional_base& operator=(const _Optional_base&) = default;
 628:/opt/gcc-arm-none-eabi/arm-none-eabi/include/c++/10.3.1/optional ****       _Optional_base& operator=(_Optional_base&&) = default;
 629:/opt/gcc-arm-none-eabi/arm-none-eabi/include/c++/10.3.1/optional **** 
 630:/opt/gcc-arm-none-eabi/arm-none-eabi/include/c++/10.3.1/optional ****       _Optional_payload<_Tp> _M_payload;
 631:/opt/gcc-arm-none-eabi/arm-none-eabi/include/c++/10.3.1/optional ****     };
 632:/opt/gcc-arm-none-eabi/arm-none-eabi/include/c++/10.3.1/optional **** 
 633:/opt/gcc-arm-none-eabi/arm-none-eabi/include/c++/10.3.1/optional ****   template<typename _Tp>
 634:/opt/gcc-arm-none-eabi/arm-none-eabi/include/c++/10.3.1/optional ****   class optional;
 635:/opt/gcc-arm-none-eabi/arm-none-eabi/include/c++/10.3.1/optional **** 
 636:/opt/gcc-arm-none-eabi/arm-none-eabi/include/c++/10.3.1/optional ****   template<typename _Tp, typename _Up>
 637:/opt/gcc-arm-none-eabi/arm-none-eabi/include/c++/10.3.1/optional ****     using __converts_from_optional =
 638:/opt/gcc-arm-none-eabi/arm-none-eabi/include/c++/10.3.1/optional ****       __or_<is_constructible<_Tp, const optional<_Up>&>,
 639:/opt/gcc-arm-none-eabi/arm-none-eabi/include/c++/10.3.1/optional **** 	    is_constructible<_Tp, optional<_Up>&>,
 640:/opt/gcc-arm-none-eabi/arm-none-eabi/include/c++/10.3.1/optional **** 	    is_constructible<_Tp, const optional<_Up>&&>,
 641:/opt/gcc-arm-none-eabi/arm-none-eabi/include/c++/10.3.1/optional **** 	    is_constructible<_Tp, optional<_Up>&&>,
 642:/opt/gcc-arm-none-eabi/arm-none-eabi/include/c++/10.3.1/optional **** 	    is_convertible<const optional<_Up>&, _Tp>,
 643:/opt/gcc-arm-none-eabi/arm-none-eabi/include/c++/10.3.1/optional **** 	    is_convertible<optional<_Up>&, _Tp>,
 644:/opt/gcc-arm-none-eabi/arm-none-eabi/include/c++/10.3.1/optional **** 	    is_convertible<const optional<_Up>&&, _Tp>,
 645:/opt/gcc-arm-none-eabi/arm-none-eabi/include/c++/10.3.1/optional **** 	    is_convertible<optional<_Up>&&, _Tp>>;
 646:/opt/gcc-arm-none-eabi/arm-none-eabi/include/c++/10.3.1/optional **** 
 647:/opt/gcc-arm-none-eabi/arm-none-eabi/include/c++/10.3.1/optional ****   template<typename _Tp, typename _Up>
 648:/opt/gcc-arm-none-eabi/arm-none-eabi/include/c++/10.3.1/optional ****     using __assigns_from_optional =
 649:/opt/gcc-arm-none-eabi/arm-none-eabi/include/c++/10.3.1/optional ****       __or_<is_assignable<_Tp&, const optional<_Up>&>,
 650:/opt/gcc-arm-none-eabi/arm-none-eabi/include/c++/10.3.1/optional **** 	    is_assignable<_Tp&, optional<_Up>&>,
 651:/opt/gcc-arm-none-eabi/arm-none-eabi/include/c++/10.3.1/optional **** 	    is_assignable<_Tp&, const optional<_Up>&&>,
 652:/opt/gcc-arm-none-eabi/arm-none-eabi/include/c++/10.3.1/optional **** 	    is_assignable<_Tp&, optional<_Up>&&>>;
 653:/opt/gcc-arm-none-eabi/arm-none-eabi/include/c++/10.3.1/optional **** 
 654:/opt/gcc-arm-none-eabi/arm-none-eabi/include/c++/10.3.1/optional ****   /**
 655:/opt/gcc-arm-none-eabi/arm-none-eabi/include/c++/10.3.1/optional ****     * @brief Class template for optional values.
 656:/opt/gcc-arm-none-eabi/arm-none-eabi/include/c++/10.3.1/optional ****     */
 657:/opt/gcc-arm-none-eabi/arm-none-eabi/include/c++/10.3.1/optional ****   template<typename _Tp>
 658:/opt/gcc-arm-none-eabi/arm-none-eabi/include/c++/10.3.1/optional ****     class optional
 659:/opt/gcc-arm-none-eabi/arm-none-eabi/include/c++/10.3.1/optional ****     : private _Optional_base<_Tp>,
 660:/opt/gcc-arm-none-eabi/arm-none-eabi/include/c++/10.3.1/optional ****       private _Enable_copy_move<
 661:/opt/gcc-arm-none-eabi/arm-none-eabi/include/c++/10.3.1/optional **** 	// Copy constructor.
 662:/opt/gcc-arm-none-eabi/arm-none-eabi/include/c++/10.3.1/optional **** 	is_copy_constructible_v<_Tp>,
 663:/opt/gcc-arm-none-eabi/arm-none-eabi/include/c++/10.3.1/optional **** 	// Copy assignment.
 664:/opt/gcc-arm-none-eabi/arm-none-eabi/include/c++/10.3.1/optional **** 	__and_v<is_copy_constructible<_Tp>, is_copy_assignable<_Tp>>,
 665:/opt/gcc-arm-none-eabi/arm-none-eabi/include/c++/10.3.1/optional **** 	// Move constructor.
 666:/opt/gcc-arm-none-eabi/arm-none-eabi/include/c++/10.3.1/optional **** 	is_move_constructible_v<_Tp>,
 667:/opt/gcc-arm-none-eabi/arm-none-eabi/include/c++/10.3.1/optional **** 	// Move assignment.
 668:/opt/gcc-arm-none-eabi/arm-none-eabi/include/c++/10.3.1/optional **** 	__and_v<is_move_constructible<_Tp>, is_move_assignable<_Tp>>,
 669:/opt/gcc-arm-none-eabi/arm-none-eabi/include/c++/10.3.1/optional **** 	// Unique tag type.
 670:/opt/gcc-arm-none-eabi/arm-none-eabi/include/c++/10.3.1/optional **** 	optional<_Tp>>
 671:/opt/gcc-arm-none-eabi/arm-none-eabi/include/c++/10.3.1/optional ****     {
 672:/opt/gcc-arm-none-eabi/arm-none-eabi/include/c++/10.3.1/optional ****       static_assert(!is_same_v<remove_cv_t<_Tp>, nullopt_t>);
 673:/opt/gcc-arm-none-eabi/arm-none-eabi/include/c++/10.3.1/optional ****       static_assert(!is_same_v<remove_cv_t<_Tp>, in_place_t>);
 674:/opt/gcc-arm-none-eabi/arm-none-eabi/include/c++/10.3.1/optional ****       static_assert(!is_reference_v<_Tp>);
 675:/opt/gcc-arm-none-eabi/arm-none-eabi/include/c++/10.3.1/optional **** 
 676:/opt/gcc-arm-none-eabi/arm-none-eabi/include/c++/10.3.1/optional ****     private:
 677:/opt/gcc-arm-none-eabi/arm-none-eabi/include/c++/10.3.1/optional ****       using _Base = _Optional_base<_Tp>;
 678:/opt/gcc-arm-none-eabi/arm-none-eabi/include/c++/10.3.1/optional **** 
 679:/opt/gcc-arm-none-eabi/arm-none-eabi/include/c++/10.3.1/optional ****       // SFINAE helpers
 680:/opt/gcc-arm-none-eabi/arm-none-eabi/include/c++/10.3.1/optional ****       template<typename _Up>
 681:/opt/gcc-arm-none-eabi/arm-none-eabi/include/c++/10.3.1/optional **** 	using __not_self = __not_<is_same<optional, __remove_cvref_t<_Up>>>;
ARM GAS  /tmp/ccjyQa7a.s 			page 31


 682:/opt/gcc-arm-none-eabi/arm-none-eabi/include/c++/10.3.1/optional ****       template<typename _Up>
 683:/opt/gcc-arm-none-eabi/arm-none-eabi/include/c++/10.3.1/optional **** 	using __not_tag = __not_<is_same<in_place_t, __remove_cvref_t<_Up>>>;
 684:/opt/gcc-arm-none-eabi/arm-none-eabi/include/c++/10.3.1/optional ****       template<typename... _Cond>
 685:/opt/gcc-arm-none-eabi/arm-none-eabi/include/c++/10.3.1/optional **** 	using _Requires = enable_if_t<__and_v<_Cond...>, bool>;
 686:/opt/gcc-arm-none-eabi/arm-none-eabi/include/c++/10.3.1/optional **** 
 687:/opt/gcc-arm-none-eabi/arm-none-eabi/include/c++/10.3.1/optional ****     public:
 688:/opt/gcc-arm-none-eabi/arm-none-eabi/include/c++/10.3.1/optional ****       using value_type = _Tp;
 689:/opt/gcc-arm-none-eabi/arm-none-eabi/include/c++/10.3.1/optional **** 
 690:/opt/gcc-arm-none-eabi/arm-none-eabi/include/c++/10.3.1/optional ****       constexpr optional() = default;
 691:/opt/gcc-arm-none-eabi/arm-none-eabi/include/c++/10.3.1/optional **** 
 692:/opt/gcc-arm-none-eabi/arm-none-eabi/include/c++/10.3.1/optional ****       constexpr optional(nullopt_t) noexcept { }
 491              		.loc 5 692 17 is_stmt 1 view .LVU95
 492              	.LBB641:
 493              	.LBB642:
 494              	.LBI642:
 602:/opt/gcc-arm-none-eabi/arm-none-eabi/include/c++/10.3.1/optional **** 
 495              		.loc 5 602 17 view .LVU96
 496              	.LBB643:
 497              	.LBI643:
 302:/opt/gcc-arm-none-eabi/arm-none-eabi/include/c++/10.3.1/optional ****     };
 498              		.loc 5 302 7 view .LVU97
 499              	.LBB644:
 500              	.LBI644:
 110:/opt/gcc-arm-none-eabi/arm-none-eabi/include/c++/10.3.1/optional ****       ~_Optional_payload_base() = default;
 501              		.loc 5 110 7 view .LVU98
 502              	.LBB645:
 503              	.LBB646:
 504              	.LBI646:
 199:/opt/gcc-arm-none-eabi/arm-none-eabi/include/c++/10.3.1/optional **** 
 505              		.loc 5 199 14 view .LVU99
 199:/opt/gcc-arm-none-eabi/arm-none-eabi/include/c++/10.3.1/optional **** 
 506              		.loc 5 199 14 is_stmt 0 view .LVU100
 507              	.LBE646:
 110:/opt/gcc-arm-none-eabi/arm-none-eabi/include/c++/10.3.1/optional ****       ~_Optional_payload_base() = default;
 508              		.loc 5 110 7 view .LVU101
 509 0030 0023     		movs	r3, #0
 510              	.LVL52:
 110:/opt/gcc-arm-none-eabi/arm-none-eabi/include/c++/10.3.1/optional ****       ~_Optional_payload_base() = default;
 511              		.loc 5 110 7 view .LVU102
 512 0032 8DF80430 		strb	r3, [sp, #4]
 513              	.LVL53:
 110:/opt/gcc-arm-none-eabi/arm-none-eabi/include/c++/10.3.1/optional ****       ~_Optional_payload_base() = default;
 514              		.loc 5 110 7 view .LVU103
 515              	.LBE645:
 516              	.LBE644:
 517              	.LBE643:
 518              	.LBE642:
 519              	.LBE641:
 520              	.LBE640:
  38:fibre-cpp/include/fibre/simple_serdes.hpp ****                 uint8_t byte = **begin;
 521              		.loc 3 38 33 view .LVU104
 522 0036 03E0     		b	.L32
 523              	.LVL54:
 524              	.L30:
  38:fibre-cpp/include/fibre/simple_serdes.hpp ****                 uint8_t byte = **begin;
 525              		.loc 3 38 33 view .LVU105
 526              	.LBE647:
ARM GAS  /tmp/ccjyQa7a.s 			page 32


 527              	.LBE638:
 528              	.LBB648:
 529              	.LBI648:
 693:/opt/gcc-arm-none-eabi/arm-none-eabi/include/c++/10.3.1/optional **** 
 694:/opt/gcc-arm-none-eabi/arm-none-eabi/include/c++/10.3.1/optional ****       // Converting constructors for engaged optionals.
 695:/opt/gcc-arm-none-eabi/arm-none-eabi/include/c++/10.3.1/optional ****       template<typename _Up = _Tp,
 696:/opt/gcc-arm-none-eabi/arm-none-eabi/include/c++/10.3.1/optional **** 	       _Requires<__not_self<_Up>, __not_tag<_Up>,
 697:/opt/gcc-arm-none-eabi/arm-none-eabi/include/c++/10.3.1/optional **** 			 is_constructible<_Tp, _Up&&>,
 698:/opt/gcc-arm-none-eabi/arm-none-eabi/include/c++/10.3.1/optional **** 			 is_convertible<_Up&&, _Tp>> = true>
 699:/opt/gcc-arm-none-eabi/arm-none-eabi/include/c++/10.3.1/optional **** 	constexpr
 700:/opt/gcc-arm-none-eabi/arm-none-eabi/include/c++/10.3.1/optional **** 	optional(_Up&& __t)
 530              		.loc 5 700 2 is_stmt 1 view .LVU106
 531              	.LBB649:
 532              	.LBB650:
 533              	.LBB651:
 534              	.LBI651:
 535              		.file 6 "/opt/gcc-arm-none-eabi/arm-none-eabi/include/c++/10.3.1/bits/move.h"
   1:/opt/gcc-arm-none-eabi/arm-none-eabi/include/c++/10.3.1/bits/move.h **** // Move, forward and identity for C++11 + swap -*- C++ -*-
   2:/opt/gcc-arm-none-eabi/arm-none-eabi/include/c++/10.3.1/bits/move.h **** 
   3:/opt/gcc-arm-none-eabi/arm-none-eabi/include/c++/10.3.1/bits/move.h **** // Copyright (C) 2007-2020 Free Software Foundation, Inc.
   4:/opt/gcc-arm-none-eabi/arm-none-eabi/include/c++/10.3.1/bits/move.h **** //
   5:/opt/gcc-arm-none-eabi/arm-none-eabi/include/c++/10.3.1/bits/move.h **** // This file is part of the GNU ISO C++ Library.  This library is free
   6:/opt/gcc-arm-none-eabi/arm-none-eabi/include/c++/10.3.1/bits/move.h **** // software; you can redistribute it and/or modify it under the
   7:/opt/gcc-arm-none-eabi/arm-none-eabi/include/c++/10.3.1/bits/move.h **** // terms of the GNU General Public License as published by the
   8:/opt/gcc-arm-none-eabi/arm-none-eabi/include/c++/10.3.1/bits/move.h **** // Free Software Foundation; either version 3, or (at your option)
   9:/opt/gcc-arm-none-eabi/arm-none-eabi/include/c++/10.3.1/bits/move.h **** // any later version.
  10:/opt/gcc-arm-none-eabi/arm-none-eabi/include/c++/10.3.1/bits/move.h **** 
  11:/opt/gcc-arm-none-eabi/arm-none-eabi/include/c++/10.3.1/bits/move.h **** // This library is distributed in the hope that it will be useful,
  12:/opt/gcc-arm-none-eabi/arm-none-eabi/include/c++/10.3.1/bits/move.h **** // but WITHOUT ANY WARRANTY; without even the implied warranty of
  13:/opt/gcc-arm-none-eabi/arm-none-eabi/include/c++/10.3.1/bits/move.h **** // MERCHANTABILITY or FITNESS FOR A PARTICULAR PURPOSE.  See the
  14:/opt/gcc-arm-none-eabi/arm-none-eabi/include/c++/10.3.1/bits/move.h **** // GNU General Public License for more details.
  15:/opt/gcc-arm-none-eabi/arm-none-eabi/include/c++/10.3.1/bits/move.h **** 
  16:/opt/gcc-arm-none-eabi/arm-none-eabi/include/c++/10.3.1/bits/move.h **** // Under Section 7 of GPL version 3, you are granted additional
  17:/opt/gcc-arm-none-eabi/arm-none-eabi/include/c++/10.3.1/bits/move.h **** // permissions described in the GCC Runtime Library Exception, version
  18:/opt/gcc-arm-none-eabi/arm-none-eabi/include/c++/10.3.1/bits/move.h **** // 3.1, as published by the Free Software Foundation.
  19:/opt/gcc-arm-none-eabi/arm-none-eabi/include/c++/10.3.1/bits/move.h **** 
  20:/opt/gcc-arm-none-eabi/arm-none-eabi/include/c++/10.3.1/bits/move.h **** // You should have received a copy of the GNU General Public License and
  21:/opt/gcc-arm-none-eabi/arm-none-eabi/include/c++/10.3.1/bits/move.h **** // a copy of the GCC Runtime Library Exception along with this program;
  22:/opt/gcc-arm-none-eabi/arm-none-eabi/include/c++/10.3.1/bits/move.h **** // see the files COPYING3 and COPYING.RUNTIME respectively.  If not, see
  23:/opt/gcc-arm-none-eabi/arm-none-eabi/include/c++/10.3.1/bits/move.h **** // <http://www.gnu.org/licenses/>.
  24:/opt/gcc-arm-none-eabi/arm-none-eabi/include/c++/10.3.1/bits/move.h **** 
  25:/opt/gcc-arm-none-eabi/arm-none-eabi/include/c++/10.3.1/bits/move.h **** /** @file bits/move.h
  26:/opt/gcc-arm-none-eabi/arm-none-eabi/include/c++/10.3.1/bits/move.h ****  *  This is an internal header file, included by other library headers.
  27:/opt/gcc-arm-none-eabi/arm-none-eabi/include/c++/10.3.1/bits/move.h ****  *  Do not attempt to use it directly. @headername{utility}
  28:/opt/gcc-arm-none-eabi/arm-none-eabi/include/c++/10.3.1/bits/move.h ****  */
  29:/opt/gcc-arm-none-eabi/arm-none-eabi/include/c++/10.3.1/bits/move.h **** 
  30:/opt/gcc-arm-none-eabi/arm-none-eabi/include/c++/10.3.1/bits/move.h **** #ifndef _MOVE_H
  31:/opt/gcc-arm-none-eabi/arm-none-eabi/include/c++/10.3.1/bits/move.h **** #define _MOVE_H 1
  32:/opt/gcc-arm-none-eabi/arm-none-eabi/include/c++/10.3.1/bits/move.h **** 
  33:/opt/gcc-arm-none-eabi/arm-none-eabi/include/c++/10.3.1/bits/move.h **** #include <bits/c++config.h>
  34:/opt/gcc-arm-none-eabi/arm-none-eabi/include/c++/10.3.1/bits/move.h **** #if __cplusplus < 201103L
  35:/opt/gcc-arm-none-eabi/arm-none-eabi/include/c++/10.3.1/bits/move.h **** # include <bits/concept_check.h>
  36:/opt/gcc-arm-none-eabi/arm-none-eabi/include/c++/10.3.1/bits/move.h **** #endif
  37:/opt/gcc-arm-none-eabi/arm-none-eabi/include/c++/10.3.1/bits/move.h **** 
  38:/opt/gcc-arm-none-eabi/arm-none-eabi/include/c++/10.3.1/bits/move.h **** namespace std _GLIBCXX_VISIBILITY(default)
  39:/opt/gcc-arm-none-eabi/arm-none-eabi/include/c++/10.3.1/bits/move.h **** {
  40:/opt/gcc-arm-none-eabi/arm-none-eabi/include/c++/10.3.1/bits/move.h **** _GLIBCXX_BEGIN_NAMESPACE_VERSION
ARM GAS  /tmp/ccjyQa7a.s 			page 33


  41:/opt/gcc-arm-none-eabi/arm-none-eabi/include/c++/10.3.1/bits/move.h **** 
  42:/opt/gcc-arm-none-eabi/arm-none-eabi/include/c++/10.3.1/bits/move.h ****   // Used, in C++03 mode too, by allocators, etc.
  43:/opt/gcc-arm-none-eabi/arm-none-eabi/include/c++/10.3.1/bits/move.h ****   /**
  44:/opt/gcc-arm-none-eabi/arm-none-eabi/include/c++/10.3.1/bits/move.h ****    *  @brief Same as C++11 std::addressof
  45:/opt/gcc-arm-none-eabi/arm-none-eabi/include/c++/10.3.1/bits/move.h ****    *  @ingroup utilities
  46:/opt/gcc-arm-none-eabi/arm-none-eabi/include/c++/10.3.1/bits/move.h ****    */
  47:/opt/gcc-arm-none-eabi/arm-none-eabi/include/c++/10.3.1/bits/move.h ****   template<typename _Tp>
  48:/opt/gcc-arm-none-eabi/arm-none-eabi/include/c++/10.3.1/bits/move.h ****     inline _GLIBCXX_CONSTEXPR _Tp*
  49:/opt/gcc-arm-none-eabi/arm-none-eabi/include/c++/10.3.1/bits/move.h ****     __addressof(_Tp& __r) _GLIBCXX_NOEXCEPT
  50:/opt/gcc-arm-none-eabi/arm-none-eabi/include/c++/10.3.1/bits/move.h ****     { return __builtin_addressof(__r); }
  51:/opt/gcc-arm-none-eabi/arm-none-eabi/include/c++/10.3.1/bits/move.h **** 
  52:/opt/gcc-arm-none-eabi/arm-none-eabi/include/c++/10.3.1/bits/move.h **** #if __cplusplus >= 201103L
  53:/opt/gcc-arm-none-eabi/arm-none-eabi/include/c++/10.3.1/bits/move.h **** 
  54:/opt/gcc-arm-none-eabi/arm-none-eabi/include/c++/10.3.1/bits/move.h **** _GLIBCXX_END_NAMESPACE_VERSION
  55:/opt/gcc-arm-none-eabi/arm-none-eabi/include/c++/10.3.1/bits/move.h **** } // namespace
  56:/opt/gcc-arm-none-eabi/arm-none-eabi/include/c++/10.3.1/bits/move.h **** 
  57:/opt/gcc-arm-none-eabi/arm-none-eabi/include/c++/10.3.1/bits/move.h **** #include <type_traits> // Brings in std::declval too.
  58:/opt/gcc-arm-none-eabi/arm-none-eabi/include/c++/10.3.1/bits/move.h **** 
  59:/opt/gcc-arm-none-eabi/arm-none-eabi/include/c++/10.3.1/bits/move.h **** namespace std _GLIBCXX_VISIBILITY(default)
  60:/opt/gcc-arm-none-eabi/arm-none-eabi/include/c++/10.3.1/bits/move.h **** {
  61:/opt/gcc-arm-none-eabi/arm-none-eabi/include/c++/10.3.1/bits/move.h **** _GLIBCXX_BEGIN_NAMESPACE_VERSION
  62:/opt/gcc-arm-none-eabi/arm-none-eabi/include/c++/10.3.1/bits/move.h **** 
  63:/opt/gcc-arm-none-eabi/arm-none-eabi/include/c++/10.3.1/bits/move.h ****   /**
  64:/opt/gcc-arm-none-eabi/arm-none-eabi/include/c++/10.3.1/bits/move.h ****    *  @addtogroup utilities
  65:/opt/gcc-arm-none-eabi/arm-none-eabi/include/c++/10.3.1/bits/move.h ****    *  @{
  66:/opt/gcc-arm-none-eabi/arm-none-eabi/include/c++/10.3.1/bits/move.h ****    */
  67:/opt/gcc-arm-none-eabi/arm-none-eabi/include/c++/10.3.1/bits/move.h **** 
  68:/opt/gcc-arm-none-eabi/arm-none-eabi/include/c++/10.3.1/bits/move.h ****   /**
  69:/opt/gcc-arm-none-eabi/arm-none-eabi/include/c++/10.3.1/bits/move.h ****    *  @brief  Forward an lvalue.
  70:/opt/gcc-arm-none-eabi/arm-none-eabi/include/c++/10.3.1/bits/move.h ****    *  @return The parameter cast to the specified type.
  71:/opt/gcc-arm-none-eabi/arm-none-eabi/include/c++/10.3.1/bits/move.h ****    *
  72:/opt/gcc-arm-none-eabi/arm-none-eabi/include/c++/10.3.1/bits/move.h ****    *  This function is used to implement "perfect forwarding".
  73:/opt/gcc-arm-none-eabi/arm-none-eabi/include/c++/10.3.1/bits/move.h ****    */
  74:/opt/gcc-arm-none-eabi/arm-none-eabi/include/c++/10.3.1/bits/move.h ****   template<typename _Tp>
  75:/opt/gcc-arm-none-eabi/arm-none-eabi/include/c++/10.3.1/bits/move.h ****     constexpr _Tp&&
  76:/opt/gcc-arm-none-eabi/arm-none-eabi/include/c++/10.3.1/bits/move.h ****     forward(typename std::remove_reference<_Tp>::type& __t) noexcept
 536              		.loc 6 76 5 view .LVU107
 537              		.loc 6 76 5 is_stmt 0 view .LVU108
 538              	.LBE651:
 539              	.LBB652:
 540              	.LBI652:
 607:/opt/gcc-arm-none-eabi/arm-none-eabi/include/c++/10.3.1/optional ****         : _M_payload(in_place,
 541              		.loc 5 607 28 is_stmt 1 view .LVU109
 542              	.LBB653:
 543              	.LBB654:
 544              	.LBB655:
 545              	.LBI655:
 546              		.loc 6 76 5 view .LVU110
 547              		.loc 6 76 5 is_stmt 0 view .LVU111
 548              	.LBE655:
 549              	.LBB656:
 550              	.LBI656:
 300:/opt/gcc-arm-none-eabi/arm-none-eabi/include/c++/10.3.1/optional **** 
 551              		.loc 5 300 42 is_stmt 1 view .LVU112
 552              	.LBB657:
 553              	.LBB658:
 554              	.LBB659:
ARM GAS  /tmp/ccjyQa7a.s 			page 34


 555              	.LBI659:
 115:/opt/gcc-arm-none-eabi/arm-none-eabi/include/c++/10.3.1/optional **** 	: _M_payload(__tag, std::forward<_Args>(__args)...),
 556              		.loc 5 115 2 view .LVU113
 557              	.LBB660:
 558              	.LBB661:
 559              	.LBB662:
 560              	.LBI662:
 561              		.loc 6 76 5 view .LVU114
 562              		.loc 6 76 5 is_stmt 0 view .LVU115
 563              	.LBE662:
 564              	.LBB663:
 565              	.LBI663:
 203:/opt/gcc-arm-none-eabi/arm-none-eabi/include/c++/10.3.1/optional **** 	    : _M_value(std::forward<_Args>(__args)...)
 566              		.loc 5 203 6 is_stmt 1 view .LVU116
 567              	.LBB664:
 568              	.LBB665:
 569              	.LBB666:
 570              	.LBI666:
 571              		.loc 6 76 5 view .LVU117
 572              		.loc 6 76 5 is_stmt 0 view .LVU118
 573              	.LBE666:
 204:/opt/gcc-arm-none-eabi/arm-none-eabi/include/c++/10.3.1/optional **** 	    { }
 574              		.loc 5 204 47 view .LVU119
 575 0038 0094     		str	r4, [sp]
 576              	.LVL55:
 204:/opt/gcc-arm-none-eabi/arm-none-eabi/include/c++/10.3.1/optional **** 	    { }
 577              		.loc 5 204 47 view .LVU120
 578              	.LBE665:
 579              	.LBE664:
 580              	.LBE663:
 117:/opt/gcc-arm-none-eabi/arm-none-eabi/include/c++/10.3.1/optional **** 	{ }
 581              		.loc 5 117 19 view .LVU121
 582 003a 0123     		movs	r3, #1
 583              	.LVL56:
 117:/opt/gcc-arm-none-eabi/arm-none-eabi/include/c++/10.3.1/optional **** 	{ }
 584              		.loc 5 117 19 view .LVU122
 585 003c 8DF80430 		strb	r3, [sp, #4]
 586              	.LVL57:
 587              	.L32:
 117:/opt/gcc-arm-none-eabi/arm-none-eabi/include/c++/10.3.1/optional **** 	{ }
 588              		.loc 5 117 19 view .LVU123
 589              	.LBE661:
 590              	.LBE660:
 591              	.LBE659:
 592              	.LBE658:
 593              	.LBE657:
 594              	.LBE656:
 595              	.LBE654:
 596              	.LBE653:
 597              	.LBE652:
 598              	.LBE650:
 599              	.LBE649:
 600              	.LBE648:
 601              	.LBE637:
 602              	.LBE636:
 603              	.LBE634:
 604              	.LBE633:
ARM GAS  /tmp/ccjyQa7a.s 			page 35


 301:fibre-cpp/legacy_protocol.cpp ****     
 302:fibre-cpp/legacy_protocol.cpp ****     if (!offset.has_value()) {
 605              		.loc 1 302 5 is_stmt 1 view .LVU124
 606              	.LBB667:
 607              	.LBB668:
 608              	.LBI668:
 701:/opt/gcc-arm-none-eabi/arm-none-eabi/include/c++/10.3.1/optional **** 	: _Base(std::in_place, std::forward<_Up>(__t)) { }
 702:/opt/gcc-arm-none-eabi/arm-none-eabi/include/c++/10.3.1/optional **** 
 703:/opt/gcc-arm-none-eabi/arm-none-eabi/include/c++/10.3.1/optional ****       template<typename _Up = _Tp,
 704:/opt/gcc-arm-none-eabi/arm-none-eabi/include/c++/10.3.1/optional **** 	       _Requires<__not_self<_Up>, __not_tag<_Up>,
 705:/opt/gcc-arm-none-eabi/arm-none-eabi/include/c++/10.3.1/optional **** 			 is_constructible<_Tp, _Up&&>,
 706:/opt/gcc-arm-none-eabi/arm-none-eabi/include/c++/10.3.1/optional **** 			 __not_<is_convertible<_Up&&, _Tp>>> = false>
 707:/opt/gcc-arm-none-eabi/arm-none-eabi/include/c++/10.3.1/optional **** 	explicit constexpr
 708:/opt/gcc-arm-none-eabi/arm-none-eabi/include/c++/10.3.1/optional **** 	optional(_Up&& __t)
 709:/opt/gcc-arm-none-eabi/arm-none-eabi/include/c++/10.3.1/optional ****         : _Base(std::in_place, std::forward<_Up>(__t)) { }
 710:/opt/gcc-arm-none-eabi/arm-none-eabi/include/c++/10.3.1/optional **** 
 711:/opt/gcc-arm-none-eabi/arm-none-eabi/include/c++/10.3.1/optional ****       template<typename _Up,
 712:/opt/gcc-arm-none-eabi/arm-none-eabi/include/c++/10.3.1/optional **** 	       _Requires<__not_<is_same<_Tp, _Up>>,
 713:/opt/gcc-arm-none-eabi/arm-none-eabi/include/c++/10.3.1/optional **** 			 is_constructible<_Tp, const _Up&>,
 714:/opt/gcc-arm-none-eabi/arm-none-eabi/include/c++/10.3.1/optional **** 			 is_convertible<const _Up&, _Tp>,
 715:/opt/gcc-arm-none-eabi/arm-none-eabi/include/c++/10.3.1/optional **** 			 __not_<__converts_from_optional<_Tp, _Up>>> = true>
 716:/opt/gcc-arm-none-eabi/arm-none-eabi/include/c++/10.3.1/optional **** 	constexpr
 717:/opt/gcc-arm-none-eabi/arm-none-eabi/include/c++/10.3.1/optional **** 	optional(const optional<_Up>& __t)
 718:/opt/gcc-arm-none-eabi/arm-none-eabi/include/c++/10.3.1/optional **** 	{
 719:/opt/gcc-arm-none-eabi/arm-none-eabi/include/c++/10.3.1/optional **** 	  if (__t)
 720:/opt/gcc-arm-none-eabi/arm-none-eabi/include/c++/10.3.1/optional **** 	    emplace(*__t);
 721:/opt/gcc-arm-none-eabi/arm-none-eabi/include/c++/10.3.1/optional **** 	}
 722:/opt/gcc-arm-none-eabi/arm-none-eabi/include/c++/10.3.1/optional **** 
 723:/opt/gcc-arm-none-eabi/arm-none-eabi/include/c++/10.3.1/optional ****       template<typename _Up,
 724:/opt/gcc-arm-none-eabi/arm-none-eabi/include/c++/10.3.1/optional **** 	       _Requires<__not_<is_same<_Tp, _Up>>,
 725:/opt/gcc-arm-none-eabi/arm-none-eabi/include/c++/10.3.1/optional **** 			 is_constructible<_Tp, const _Up&>,
 726:/opt/gcc-arm-none-eabi/arm-none-eabi/include/c++/10.3.1/optional **** 			 __not_<is_convertible<const _Up&, _Tp>>,
 727:/opt/gcc-arm-none-eabi/arm-none-eabi/include/c++/10.3.1/optional **** 			 __not_<__converts_from_optional<_Tp, _Up>>> = false>
 728:/opt/gcc-arm-none-eabi/arm-none-eabi/include/c++/10.3.1/optional **** 	explicit constexpr
 729:/opt/gcc-arm-none-eabi/arm-none-eabi/include/c++/10.3.1/optional **** 	optional(const optional<_Up>& __t)
 730:/opt/gcc-arm-none-eabi/arm-none-eabi/include/c++/10.3.1/optional **** 	{
 731:/opt/gcc-arm-none-eabi/arm-none-eabi/include/c++/10.3.1/optional **** 	  if (__t)
 732:/opt/gcc-arm-none-eabi/arm-none-eabi/include/c++/10.3.1/optional **** 	    emplace(*__t);
 733:/opt/gcc-arm-none-eabi/arm-none-eabi/include/c++/10.3.1/optional **** 	}
 734:/opt/gcc-arm-none-eabi/arm-none-eabi/include/c++/10.3.1/optional **** 
 735:/opt/gcc-arm-none-eabi/arm-none-eabi/include/c++/10.3.1/optional ****       template <typename _Up,
 736:/opt/gcc-arm-none-eabi/arm-none-eabi/include/c++/10.3.1/optional **** 		_Requires<__not_<is_same<_Tp, _Up>>,
 737:/opt/gcc-arm-none-eabi/arm-none-eabi/include/c++/10.3.1/optional **** 			  is_constructible<_Tp, _Up&&>,
 738:/opt/gcc-arm-none-eabi/arm-none-eabi/include/c++/10.3.1/optional **** 			  is_convertible<_Up&&, _Tp>,
 739:/opt/gcc-arm-none-eabi/arm-none-eabi/include/c++/10.3.1/optional **** 			  __not_<__converts_from_optional<_Tp, _Up>>> = true>
 740:/opt/gcc-arm-none-eabi/arm-none-eabi/include/c++/10.3.1/optional **** 	constexpr
 741:/opt/gcc-arm-none-eabi/arm-none-eabi/include/c++/10.3.1/optional **** 	optional(optional<_Up>&& __t)
 742:/opt/gcc-arm-none-eabi/arm-none-eabi/include/c++/10.3.1/optional **** 	{
 743:/opt/gcc-arm-none-eabi/arm-none-eabi/include/c++/10.3.1/optional **** 	  if (__t)
 744:/opt/gcc-arm-none-eabi/arm-none-eabi/include/c++/10.3.1/optional **** 	    emplace(std::move(*__t));
 745:/opt/gcc-arm-none-eabi/arm-none-eabi/include/c++/10.3.1/optional **** 	}
 746:/opt/gcc-arm-none-eabi/arm-none-eabi/include/c++/10.3.1/optional **** 
 747:/opt/gcc-arm-none-eabi/arm-none-eabi/include/c++/10.3.1/optional ****       template <typename _Up,
 748:/opt/gcc-arm-none-eabi/arm-none-eabi/include/c++/10.3.1/optional **** 		_Requires<__not_<is_same<_Tp, _Up>>,
 749:/opt/gcc-arm-none-eabi/arm-none-eabi/include/c++/10.3.1/optional **** 			  is_constructible<_Tp, _Up&&>,
 750:/opt/gcc-arm-none-eabi/arm-none-eabi/include/c++/10.3.1/optional **** 			  __not_<is_convertible<_Up&&, _Tp>>,
 751:/opt/gcc-arm-none-eabi/arm-none-eabi/include/c++/10.3.1/optional **** 			  __not_<__converts_from_optional<_Tp, _Up>>> = false>
ARM GAS  /tmp/ccjyQa7a.s 			page 36


 752:/opt/gcc-arm-none-eabi/arm-none-eabi/include/c++/10.3.1/optional **** 	explicit constexpr
 753:/opt/gcc-arm-none-eabi/arm-none-eabi/include/c++/10.3.1/optional **** 	optional(optional<_Up>&& __t)
 754:/opt/gcc-arm-none-eabi/arm-none-eabi/include/c++/10.3.1/optional **** 	{
 755:/opt/gcc-arm-none-eabi/arm-none-eabi/include/c++/10.3.1/optional **** 	  if (__t)
 756:/opt/gcc-arm-none-eabi/arm-none-eabi/include/c++/10.3.1/optional **** 	    emplace(std::move(*__t));
 757:/opt/gcc-arm-none-eabi/arm-none-eabi/include/c++/10.3.1/optional **** 	}
 758:/opt/gcc-arm-none-eabi/arm-none-eabi/include/c++/10.3.1/optional **** 
 759:/opt/gcc-arm-none-eabi/arm-none-eabi/include/c++/10.3.1/optional ****       template<typename... _Args,
 760:/opt/gcc-arm-none-eabi/arm-none-eabi/include/c++/10.3.1/optional **** 	       _Requires<is_constructible<_Tp, _Args&&...>> = false>
 761:/opt/gcc-arm-none-eabi/arm-none-eabi/include/c++/10.3.1/optional **** 	explicit constexpr
 762:/opt/gcc-arm-none-eabi/arm-none-eabi/include/c++/10.3.1/optional **** 	optional(in_place_t, _Args&&... __args)
 763:/opt/gcc-arm-none-eabi/arm-none-eabi/include/c++/10.3.1/optional **** 	: _Base(std::in_place, std::forward<_Args>(__args)...) { }
 764:/opt/gcc-arm-none-eabi/arm-none-eabi/include/c++/10.3.1/optional **** 
 765:/opt/gcc-arm-none-eabi/arm-none-eabi/include/c++/10.3.1/optional ****       template<typename _Up, typename... _Args,
 766:/opt/gcc-arm-none-eabi/arm-none-eabi/include/c++/10.3.1/optional **** 	       _Requires<is_constructible<_Tp,
 767:/opt/gcc-arm-none-eabi/arm-none-eabi/include/c++/10.3.1/optional **** 					  initializer_list<_Up>&,
 768:/opt/gcc-arm-none-eabi/arm-none-eabi/include/c++/10.3.1/optional **** 					  _Args&&...>> = false>
 769:/opt/gcc-arm-none-eabi/arm-none-eabi/include/c++/10.3.1/optional **** 	explicit constexpr
 770:/opt/gcc-arm-none-eabi/arm-none-eabi/include/c++/10.3.1/optional **** 	optional(in_place_t, initializer_list<_Up> __il, _Args&&... __args)
 771:/opt/gcc-arm-none-eabi/arm-none-eabi/include/c++/10.3.1/optional **** 	: _Base(std::in_place, __il, std::forward<_Args>(__args)...) { }
 772:/opt/gcc-arm-none-eabi/arm-none-eabi/include/c++/10.3.1/optional **** 
 773:/opt/gcc-arm-none-eabi/arm-none-eabi/include/c++/10.3.1/optional ****       // Assignment operators.
 774:/opt/gcc-arm-none-eabi/arm-none-eabi/include/c++/10.3.1/optional ****       optional&
 775:/opt/gcc-arm-none-eabi/arm-none-eabi/include/c++/10.3.1/optional ****       operator=(nullopt_t) noexcept
 776:/opt/gcc-arm-none-eabi/arm-none-eabi/include/c++/10.3.1/optional ****       {
 777:/opt/gcc-arm-none-eabi/arm-none-eabi/include/c++/10.3.1/optional **** 	this->_M_reset();
 778:/opt/gcc-arm-none-eabi/arm-none-eabi/include/c++/10.3.1/optional **** 	return *this;
 779:/opt/gcc-arm-none-eabi/arm-none-eabi/include/c++/10.3.1/optional ****       }
 780:/opt/gcc-arm-none-eabi/arm-none-eabi/include/c++/10.3.1/optional **** 
 781:/opt/gcc-arm-none-eabi/arm-none-eabi/include/c++/10.3.1/optional ****       template<typename _Up = _Tp>
 782:/opt/gcc-arm-none-eabi/arm-none-eabi/include/c++/10.3.1/optional **** 	enable_if_t<__and_v<__not_self<_Up>,
 783:/opt/gcc-arm-none-eabi/arm-none-eabi/include/c++/10.3.1/optional **** 			    __not_<__and_<is_scalar<_Tp>,
 784:/opt/gcc-arm-none-eabi/arm-none-eabi/include/c++/10.3.1/optional **** 					  is_same<_Tp, decay_t<_Up>>>>,
 785:/opt/gcc-arm-none-eabi/arm-none-eabi/include/c++/10.3.1/optional **** 			    is_constructible<_Tp, _Up>,
 786:/opt/gcc-arm-none-eabi/arm-none-eabi/include/c++/10.3.1/optional **** 			    is_assignable<_Tp&, _Up>>,
 787:/opt/gcc-arm-none-eabi/arm-none-eabi/include/c++/10.3.1/optional **** 		    optional&>
 788:/opt/gcc-arm-none-eabi/arm-none-eabi/include/c++/10.3.1/optional **** 	operator=(_Up&& __u)
 789:/opt/gcc-arm-none-eabi/arm-none-eabi/include/c++/10.3.1/optional **** 	{
 790:/opt/gcc-arm-none-eabi/arm-none-eabi/include/c++/10.3.1/optional **** 	  if (this->_M_is_engaged())
 791:/opt/gcc-arm-none-eabi/arm-none-eabi/include/c++/10.3.1/optional **** 	    this->_M_get() = std::forward<_Up>(__u);
 792:/opt/gcc-arm-none-eabi/arm-none-eabi/include/c++/10.3.1/optional **** 	  else
 793:/opt/gcc-arm-none-eabi/arm-none-eabi/include/c++/10.3.1/optional **** 	    this->_M_construct(std::forward<_Up>(__u));
 794:/opt/gcc-arm-none-eabi/arm-none-eabi/include/c++/10.3.1/optional **** 
 795:/opt/gcc-arm-none-eabi/arm-none-eabi/include/c++/10.3.1/optional **** 	  return *this;
 796:/opt/gcc-arm-none-eabi/arm-none-eabi/include/c++/10.3.1/optional **** 	}
 797:/opt/gcc-arm-none-eabi/arm-none-eabi/include/c++/10.3.1/optional **** 
 798:/opt/gcc-arm-none-eabi/arm-none-eabi/include/c++/10.3.1/optional ****       template<typename _Up>
 799:/opt/gcc-arm-none-eabi/arm-none-eabi/include/c++/10.3.1/optional **** 	enable_if_t<__and_v<__not_<is_same<_Tp, _Up>>,
 800:/opt/gcc-arm-none-eabi/arm-none-eabi/include/c++/10.3.1/optional **** 			    is_constructible<_Tp, const _Up&>,
 801:/opt/gcc-arm-none-eabi/arm-none-eabi/include/c++/10.3.1/optional **** 			    is_assignable<_Tp&, const _Up&>,
 802:/opt/gcc-arm-none-eabi/arm-none-eabi/include/c++/10.3.1/optional **** 			    __not_<__converts_from_optional<_Tp, _Up>>,
 803:/opt/gcc-arm-none-eabi/arm-none-eabi/include/c++/10.3.1/optional **** 			    __not_<__assigns_from_optional<_Tp, _Up>>>,
 804:/opt/gcc-arm-none-eabi/arm-none-eabi/include/c++/10.3.1/optional **** 		    optional&>
 805:/opt/gcc-arm-none-eabi/arm-none-eabi/include/c++/10.3.1/optional **** 	operator=(const optional<_Up>& __u)
 806:/opt/gcc-arm-none-eabi/arm-none-eabi/include/c++/10.3.1/optional **** 	{
 807:/opt/gcc-arm-none-eabi/arm-none-eabi/include/c++/10.3.1/optional **** 	  if (__u)
 808:/opt/gcc-arm-none-eabi/arm-none-eabi/include/c++/10.3.1/optional **** 	    {
ARM GAS  /tmp/ccjyQa7a.s 			page 37


 809:/opt/gcc-arm-none-eabi/arm-none-eabi/include/c++/10.3.1/optional **** 	      if (this->_M_is_engaged())
 810:/opt/gcc-arm-none-eabi/arm-none-eabi/include/c++/10.3.1/optional **** 		this->_M_get() = *__u;
 811:/opt/gcc-arm-none-eabi/arm-none-eabi/include/c++/10.3.1/optional **** 	      else
 812:/opt/gcc-arm-none-eabi/arm-none-eabi/include/c++/10.3.1/optional **** 		this->_M_construct(*__u);
 813:/opt/gcc-arm-none-eabi/arm-none-eabi/include/c++/10.3.1/optional **** 	    }
 814:/opt/gcc-arm-none-eabi/arm-none-eabi/include/c++/10.3.1/optional **** 	  else
 815:/opt/gcc-arm-none-eabi/arm-none-eabi/include/c++/10.3.1/optional **** 	    {
 816:/opt/gcc-arm-none-eabi/arm-none-eabi/include/c++/10.3.1/optional **** 	      this->_M_reset();
 817:/opt/gcc-arm-none-eabi/arm-none-eabi/include/c++/10.3.1/optional **** 	    }
 818:/opt/gcc-arm-none-eabi/arm-none-eabi/include/c++/10.3.1/optional **** 	  return *this;
 819:/opt/gcc-arm-none-eabi/arm-none-eabi/include/c++/10.3.1/optional **** 	}
 820:/opt/gcc-arm-none-eabi/arm-none-eabi/include/c++/10.3.1/optional **** 
 821:/opt/gcc-arm-none-eabi/arm-none-eabi/include/c++/10.3.1/optional ****       template<typename _Up>
 822:/opt/gcc-arm-none-eabi/arm-none-eabi/include/c++/10.3.1/optional ****         enable_if_t<__and_v<__not_<is_same<_Tp, _Up>>,
 823:/opt/gcc-arm-none-eabi/arm-none-eabi/include/c++/10.3.1/optional **** 			    is_constructible<_Tp, _Up>,
 824:/opt/gcc-arm-none-eabi/arm-none-eabi/include/c++/10.3.1/optional **** 			    is_assignable<_Tp&, _Up>,
 825:/opt/gcc-arm-none-eabi/arm-none-eabi/include/c++/10.3.1/optional **** 			    __not_<__converts_from_optional<_Tp, _Up>>,
 826:/opt/gcc-arm-none-eabi/arm-none-eabi/include/c++/10.3.1/optional **** 			    __not_<__assigns_from_optional<_Tp, _Up>>>,
 827:/opt/gcc-arm-none-eabi/arm-none-eabi/include/c++/10.3.1/optional **** 		    optional&>
 828:/opt/gcc-arm-none-eabi/arm-none-eabi/include/c++/10.3.1/optional **** 	operator=(optional<_Up>&& __u)
 829:/opt/gcc-arm-none-eabi/arm-none-eabi/include/c++/10.3.1/optional **** 	{
 830:/opt/gcc-arm-none-eabi/arm-none-eabi/include/c++/10.3.1/optional **** 	  if (__u)
 831:/opt/gcc-arm-none-eabi/arm-none-eabi/include/c++/10.3.1/optional **** 	    {
 832:/opt/gcc-arm-none-eabi/arm-none-eabi/include/c++/10.3.1/optional **** 	      if (this->_M_is_engaged())
 833:/opt/gcc-arm-none-eabi/arm-none-eabi/include/c++/10.3.1/optional **** 		this->_M_get() = std::move(*__u);
 834:/opt/gcc-arm-none-eabi/arm-none-eabi/include/c++/10.3.1/optional **** 	      else
 835:/opt/gcc-arm-none-eabi/arm-none-eabi/include/c++/10.3.1/optional **** 		this->_M_construct(std::move(*__u));
 836:/opt/gcc-arm-none-eabi/arm-none-eabi/include/c++/10.3.1/optional **** 	    }
 837:/opt/gcc-arm-none-eabi/arm-none-eabi/include/c++/10.3.1/optional **** 	  else
 838:/opt/gcc-arm-none-eabi/arm-none-eabi/include/c++/10.3.1/optional **** 	    {
 839:/opt/gcc-arm-none-eabi/arm-none-eabi/include/c++/10.3.1/optional **** 	      this->_M_reset();
 840:/opt/gcc-arm-none-eabi/arm-none-eabi/include/c++/10.3.1/optional **** 	    }
 841:/opt/gcc-arm-none-eabi/arm-none-eabi/include/c++/10.3.1/optional **** 
 842:/opt/gcc-arm-none-eabi/arm-none-eabi/include/c++/10.3.1/optional **** 	  return *this;
 843:/opt/gcc-arm-none-eabi/arm-none-eabi/include/c++/10.3.1/optional **** 	}
 844:/opt/gcc-arm-none-eabi/arm-none-eabi/include/c++/10.3.1/optional **** 
 845:/opt/gcc-arm-none-eabi/arm-none-eabi/include/c++/10.3.1/optional ****       template<typename... _Args>
 846:/opt/gcc-arm-none-eabi/arm-none-eabi/include/c++/10.3.1/optional **** 	enable_if_t<is_constructible_v<_Tp, _Args&&...>, _Tp&>
 847:/opt/gcc-arm-none-eabi/arm-none-eabi/include/c++/10.3.1/optional **** 	emplace(_Args&&... __args)
 848:/opt/gcc-arm-none-eabi/arm-none-eabi/include/c++/10.3.1/optional **** 	{
 849:/opt/gcc-arm-none-eabi/arm-none-eabi/include/c++/10.3.1/optional **** 	  this->_M_reset();
 850:/opt/gcc-arm-none-eabi/arm-none-eabi/include/c++/10.3.1/optional **** 	  this->_M_construct(std::forward<_Args>(__args)...);
 851:/opt/gcc-arm-none-eabi/arm-none-eabi/include/c++/10.3.1/optional **** 	  return this->_M_get();
 852:/opt/gcc-arm-none-eabi/arm-none-eabi/include/c++/10.3.1/optional **** 	}
 853:/opt/gcc-arm-none-eabi/arm-none-eabi/include/c++/10.3.1/optional **** 
 854:/opt/gcc-arm-none-eabi/arm-none-eabi/include/c++/10.3.1/optional ****       template<typename _Up, typename... _Args>
 855:/opt/gcc-arm-none-eabi/arm-none-eabi/include/c++/10.3.1/optional **** 	enable_if_t<is_constructible_v<_Tp, initializer_list<_Up>&,
 856:/opt/gcc-arm-none-eabi/arm-none-eabi/include/c++/10.3.1/optional **** 				       _Args&&...>, _Tp&>
 857:/opt/gcc-arm-none-eabi/arm-none-eabi/include/c++/10.3.1/optional **** 	emplace(initializer_list<_Up> __il, _Args&&... __args)
 858:/opt/gcc-arm-none-eabi/arm-none-eabi/include/c++/10.3.1/optional **** 	{
 859:/opt/gcc-arm-none-eabi/arm-none-eabi/include/c++/10.3.1/optional **** 	  this->_M_reset();
 860:/opt/gcc-arm-none-eabi/arm-none-eabi/include/c++/10.3.1/optional **** 	  this->_M_construct(__il, std::forward<_Args>(__args)...);
 861:/opt/gcc-arm-none-eabi/arm-none-eabi/include/c++/10.3.1/optional **** 	  return this->_M_get();
 862:/opt/gcc-arm-none-eabi/arm-none-eabi/include/c++/10.3.1/optional **** 	}
 863:/opt/gcc-arm-none-eabi/arm-none-eabi/include/c++/10.3.1/optional **** 
 864:/opt/gcc-arm-none-eabi/arm-none-eabi/include/c++/10.3.1/optional ****       // Destructor is implicit, implemented in _Optional_base.
 865:/opt/gcc-arm-none-eabi/arm-none-eabi/include/c++/10.3.1/optional **** 
ARM GAS  /tmp/ccjyQa7a.s 			page 38


 866:/opt/gcc-arm-none-eabi/arm-none-eabi/include/c++/10.3.1/optional ****       // Swap.
 867:/opt/gcc-arm-none-eabi/arm-none-eabi/include/c++/10.3.1/optional ****       void
 868:/opt/gcc-arm-none-eabi/arm-none-eabi/include/c++/10.3.1/optional ****       swap(optional& __other)
 869:/opt/gcc-arm-none-eabi/arm-none-eabi/include/c++/10.3.1/optional ****       noexcept(is_nothrow_move_constructible_v<_Tp>
 870:/opt/gcc-arm-none-eabi/arm-none-eabi/include/c++/10.3.1/optional **** 	       && is_nothrow_swappable_v<_Tp>)
 871:/opt/gcc-arm-none-eabi/arm-none-eabi/include/c++/10.3.1/optional ****       {
 872:/opt/gcc-arm-none-eabi/arm-none-eabi/include/c++/10.3.1/optional **** 	using std::swap;
 873:/opt/gcc-arm-none-eabi/arm-none-eabi/include/c++/10.3.1/optional **** 
 874:/opt/gcc-arm-none-eabi/arm-none-eabi/include/c++/10.3.1/optional **** 	if (this->_M_is_engaged() && __other._M_is_engaged())
 875:/opt/gcc-arm-none-eabi/arm-none-eabi/include/c++/10.3.1/optional **** 	  swap(this->_M_get(), __other._M_get());
 876:/opt/gcc-arm-none-eabi/arm-none-eabi/include/c++/10.3.1/optional **** 	else if (this->_M_is_engaged())
 877:/opt/gcc-arm-none-eabi/arm-none-eabi/include/c++/10.3.1/optional **** 	  {
 878:/opt/gcc-arm-none-eabi/arm-none-eabi/include/c++/10.3.1/optional **** 	    __other._M_construct(std::move(this->_M_get()));
 879:/opt/gcc-arm-none-eabi/arm-none-eabi/include/c++/10.3.1/optional **** 	    this->_M_destruct();
 880:/opt/gcc-arm-none-eabi/arm-none-eabi/include/c++/10.3.1/optional **** 	  }
 881:/opt/gcc-arm-none-eabi/arm-none-eabi/include/c++/10.3.1/optional **** 	else if (__other._M_is_engaged())
 882:/opt/gcc-arm-none-eabi/arm-none-eabi/include/c++/10.3.1/optional **** 	  {
 883:/opt/gcc-arm-none-eabi/arm-none-eabi/include/c++/10.3.1/optional **** 	    this->_M_construct(std::move(__other._M_get()));
 884:/opt/gcc-arm-none-eabi/arm-none-eabi/include/c++/10.3.1/optional **** 	    __other._M_destruct();
 885:/opt/gcc-arm-none-eabi/arm-none-eabi/include/c++/10.3.1/optional **** 	  }
 886:/opt/gcc-arm-none-eabi/arm-none-eabi/include/c++/10.3.1/optional ****       }
 887:/opt/gcc-arm-none-eabi/arm-none-eabi/include/c++/10.3.1/optional **** 
 888:/opt/gcc-arm-none-eabi/arm-none-eabi/include/c++/10.3.1/optional ****       // Observers.
 889:/opt/gcc-arm-none-eabi/arm-none-eabi/include/c++/10.3.1/optional ****       constexpr const _Tp*
 890:/opt/gcc-arm-none-eabi/arm-none-eabi/include/c++/10.3.1/optional ****       operator->() const
 891:/opt/gcc-arm-none-eabi/arm-none-eabi/include/c++/10.3.1/optional ****       { return std::__addressof(this->_M_get()); }
 892:/opt/gcc-arm-none-eabi/arm-none-eabi/include/c++/10.3.1/optional **** 
 893:/opt/gcc-arm-none-eabi/arm-none-eabi/include/c++/10.3.1/optional ****       constexpr _Tp*
 894:/opt/gcc-arm-none-eabi/arm-none-eabi/include/c++/10.3.1/optional ****       operator->()
 895:/opt/gcc-arm-none-eabi/arm-none-eabi/include/c++/10.3.1/optional ****       { return std::__addressof(this->_M_get()); }
 896:/opt/gcc-arm-none-eabi/arm-none-eabi/include/c++/10.3.1/optional **** 
 897:/opt/gcc-arm-none-eabi/arm-none-eabi/include/c++/10.3.1/optional ****       constexpr const _Tp&
 898:/opt/gcc-arm-none-eabi/arm-none-eabi/include/c++/10.3.1/optional ****       operator*() const&
 899:/opt/gcc-arm-none-eabi/arm-none-eabi/include/c++/10.3.1/optional ****       { return this->_M_get(); }
 900:/opt/gcc-arm-none-eabi/arm-none-eabi/include/c++/10.3.1/optional **** 
 901:/opt/gcc-arm-none-eabi/arm-none-eabi/include/c++/10.3.1/optional ****       constexpr _Tp&
 902:/opt/gcc-arm-none-eabi/arm-none-eabi/include/c++/10.3.1/optional ****       operator*()&
 903:/opt/gcc-arm-none-eabi/arm-none-eabi/include/c++/10.3.1/optional ****       { return this->_M_get(); }
 904:/opt/gcc-arm-none-eabi/arm-none-eabi/include/c++/10.3.1/optional **** 
 905:/opt/gcc-arm-none-eabi/arm-none-eabi/include/c++/10.3.1/optional ****       constexpr _Tp&&
 906:/opt/gcc-arm-none-eabi/arm-none-eabi/include/c++/10.3.1/optional ****       operator*()&&
 907:/opt/gcc-arm-none-eabi/arm-none-eabi/include/c++/10.3.1/optional ****       { return std::move(this->_M_get()); }
 908:/opt/gcc-arm-none-eabi/arm-none-eabi/include/c++/10.3.1/optional **** 
 909:/opt/gcc-arm-none-eabi/arm-none-eabi/include/c++/10.3.1/optional ****       constexpr const _Tp&&
 910:/opt/gcc-arm-none-eabi/arm-none-eabi/include/c++/10.3.1/optional ****       operator*() const&&
 911:/opt/gcc-arm-none-eabi/arm-none-eabi/include/c++/10.3.1/optional ****       { return std::move(this->_M_get()); }
 912:/opt/gcc-arm-none-eabi/arm-none-eabi/include/c++/10.3.1/optional **** 
 913:/opt/gcc-arm-none-eabi/arm-none-eabi/include/c++/10.3.1/optional ****       constexpr explicit operator bool() const noexcept
 914:/opt/gcc-arm-none-eabi/arm-none-eabi/include/c++/10.3.1/optional ****       { return this->_M_is_engaged(); }
 915:/opt/gcc-arm-none-eabi/arm-none-eabi/include/c++/10.3.1/optional **** 
 916:/opt/gcc-arm-none-eabi/arm-none-eabi/include/c++/10.3.1/optional ****       constexpr bool has_value() const noexcept
 609              		.loc 5 916 22 view .LVU125
 610              	.LBB669:
 611              	.LBI669:
 433:/opt/gcc-arm-none-eabi/arm-none-eabi/include/c++/10.3.1/optional ****       { return static_cast<const _Dp*>(this)->_M_payload._M_engaged; }
 612              		.loc 5 433 22 view .LVU126
 613              	.LBB670:
ARM GAS  /tmp/ccjyQa7a.s 			page 39


 434:/opt/gcc-arm-none-eabi/arm-none-eabi/include/c++/10.3.1/optional **** 
 614              		.loc 5 434 58 is_stmt 0 view .LVU127
 615 0040 9DF80440 		ldrb	r4, [sp, #4]	@ zero_extendqisi2
 616              	.LVL58:
 434:/opt/gcc-arm-none-eabi/arm-none-eabi/include/c++/10.3.1/optional **** 
 617              		.loc 5 434 58 view .LVU128
 618              	.LBE670:
 619              	.LBE669:
 620              	.LBE668:
 621              		.loc 1 302 5 view .LVU129
 622 0044 2CB3     		cbz	r4, .L34
 623              	.LBE667:
 303:fibre-cpp/legacy_protocol.cpp ****         // Didn't receive any offset
 304:fibre-cpp/legacy_protocol.cpp ****         return false;
 305:fibre-cpp/legacy_protocol.cpp ****     } else if (*offset == 0xffffffff) {
 624              		.loc 1 305 12 is_stmt 1 view .LVU130
 625              	.LBB703:
 626              	.LBB671:
 627              		.loc 1 305 16 is_stmt 0 view .LVU131
 628 0046 009B     		ldr	r3, [sp]
 629              		.loc 1 305 12 view .LVU132
 630 0048 B3F1FF3F 		cmp	r3, #-1
 631 004c 24D0     		beq	.L44
 632              	.LBE671:
 633              	.LBE703:
 306:fibre-cpp/legacy_protocol.cpp ****         // If the offset is special value 0xFFFFFFFF, send back the JSON version ID instead
 307:fibre-cpp/legacy_protocol.cpp ****         return write_le<uint32_t>(json_version_id_, output_buffer);
 308:fibre-cpp/legacy_protocol.cpp ****     } else if (*offset >= embedded_json_length) {
 634              		.loc 1 308 12 is_stmt 1 view .LVU133
 635              	.LBB704:
 636              	.LBB700:
 637              	.LBB672:
 638              		.loc 1 308 27 is_stmt 0 view .LVU134
 639 004e 1F4A     		ldr	r2, .L45
 640 0050 1268     		ldr	r2, [r2]
 641              		.loc 1 308 12 view .LVU135
 642 0052 9342     		cmp	r3, r2
 643 0054 1DD2     		bcs	.L34
 644              	.LBB673:
 309:fibre-cpp/legacy_protocol.cpp ****         // Attempt to read beyond the buffer end - return empty response
 310:fibre-cpp/legacy_protocol.cpp ****         return true;
 311:fibre-cpp/legacy_protocol.cpp ****     } else {
 312:fibre-cpp/legacy_protocol.cpp ****         // Return part of the json file
 313:fibre-cpp/legacy_protocol.cpp ****         size_t n_copy = std::min(output_buffer->size(), embedded_json_length - (size_t)*offset);
 645              		.loc 1 313 9 is_stmt 1 view .LVU136
 646              	.LVL59:
 647              	.LBB674:
 648              	.LBI674:
  74:fibre-cpp/include/fibre/bufptr.hpp ****         return end_ - begin_;
 649              		.loc 4 74 12 view .LVU137
 650              	.LBB675:
  75:fibre-cpp/include/fibre/bufptr.hpp ****     }
 651              		.loc 4 75 16 is_stmt 0 view .LVU138
 652 0056 7168     		ldr	r1, [r6, #4]
  75:fibre-cpp/include/fibre/bufptr.hpp ****     }
 653              		.loc 4 75 23 view .LVU139
 654 0058 3068     		ldr	r0, [r6]
ARM GAS  /tmp/ccjyQa7a.s 			page 40


 655              	.LVL60:
  75:fibre-cpp/include/fibre/bufptr.hpp ****     }
 656              		.loc 4 75 21 view .LVU140
 657 005a 091A     		subs	r1, r1, r0
 658              	.LVL61:
  75:fibre-cpp/include/fibre/bufptr.hpp ****     }
 659              		.loc 4 75 21 view .LVU141
 660              	.LBE675:
 661              	.LBE674:
 662              		.loc 1 313 53 view .LVU142
 663 005c 0291     		str	r1, [sp, #8]
 664              		.loc 1 313 78 view .LVU143
 665 005e D21A     		subs	r2, r2, r3
 666 0060 0392     		str	r2, [sp, #12]
 667              	.LVL62:
 668              	.LBB676:
 669              	.LBI676:
 670              		.file 7 "/opt/gcc-arm-none-eabi/arm-none-eabi/include/c++/10.3.1/bits/stl_algobase.h"
   1:/opt/gcc-arm-none-eabi/arm-none-eabi/include/c++/10.3.1/bits/stl_algobase.h **** // Core algorithmic facilities -*- C++ -*-
   2:/opt/gcc-arm-none-eabi/arm-none-eabi/include/c++/10.3.1/bits/stl_algobase.h **** 
   3:/opt/gcc-arm-none-eabi/arm-none-eabi/include/c++/10.3.1/bits/stl_algobase.h **** // Copyright (C) 2001-2020 Free Software Foundation, Inc.
   4:/opt/gcc-arm-none-eabi/arm-none-eabi/include/c++/10.3.1/bits/stl_algobase.h **** //
   5:/opt/gcc-arm-none-eabi/arm-none-eabi/include/c++/10.3.1/bits/stl_algobase.h **** // This file is part of the GNU ISO C++ Library.  This library is free
   6:/opt/gcc-arm-none-eabi/arm-none-eabi/include/c++/10.3.1/bits/stl_algobase.h **** // software; you can redistribute it and/or modify it under the
   7:/opt/gcc-arm-none-eabi/arm-none-eabi/include/c++/10.3.1/bits/stl_algobase.h **** // terms of the GNU General Public License as published by the
   8:/opt/gcc-arm-none-eabi/arm-none-eabi/include/c++/10.3.1/bits/stl_algobase.h **** // Free Software Foundation; either version 3, or (at your option)
   9:/opt/gcc-arm-none-eabi/arm-none-eabi/include/c++/10.3.1/bits/stl_algobase.h **** // any later version.
  10:/opt/gcc-arm-none-eabi/arm-none-eabi/include/c++/10.3.1/bits/stl_algobase.h **** 
  11:/opt/gcc-arm-none-eabi/arm-none-eabi/include/c++/10.3.1/bits/stl_algobase.h **** // This library is distributed in the hope that it will be useful,
  12:/opt/gcc-arm-none-eabi/arm-none-eabi/include/c++/10.3.1/bits/stl_algobase.h **** // but WITHOUT ANY WARRANTY; without even the implied warranty of
  13:/opt/gcc-arm-none-eabi/arm-none-eabi/include/c++/10.3.1/bits/stl_algobase.h **** // MERCHANTABILITY or FITNESS FOR A PARTICULAR PURPOSE.  See the
  14:/opt/gcc-arm-none-eabi/arm-none-eabi/include/c++/10.3.1/bits/stl_algobase.h **** // GNU General Public License for more details.
  15:/opt/gcc-arm-none-eabi/arm-none-eabi/include/c++/10.3.1/bits/stl_algobase.h **** 
  16:/opt/gcc-arm-none-eabi/arm-none-eabi/include/c++/10.3.1/bits/stl_algobase.h **** // Under Section 7 of GPL version 3, you are granted additional
  17:/opt/gcc-arm-none-eabi/arm-none-eabi/include/c++/10.3.1/bits/stl_algobase.h **** // permissions described in the GCC Runtime Library Exception, version
  18:/opt/gcc-arm-none-eabi/arm-none-eabi/include/c++/10.3.1/bits/stl_algobase.h **** // 3.1, as published by the Free Software Foundation.
  19:/opt/gcc-arm-none-eabi/arm-none-eabi/include/c++/10.3.1/bits/stl_algobase.h **** 
  20:/opt/gcc-arm-none-eabi/arm-none-eabi/include/c++/10.3.1/bits/stl_algobase.h **** // You should have received a copy of the GNU General Public License and
  21:/opt/gcc-arm-none-eabi/arm-none-eabi/include/c++/10.3.1/bits/stl_algobase.h **** // a copy of the GCC Runtime Library Exception along with this program;
  22:/opt/gcc-arm-none-eabi/arm-none-eabi/include/c++/10.3.1/bits/stl_algobase.h **** // see the files COPYING3 and COPYING.RUNTIME respectively.  If not, see
  23:/opt/gcc-arm-none-eabi/arm-none-eabi/include/c++/10.3.1/bits/stl_algobase.h **** // <http://www.gnu.org/licenses/>.
  24:/opt/gcc-arm-none-eabi/arm-none-eabi/include/c++/10.3.1/bits/stl_algobase.h **** 
  25:/opt/gcc-arm-none-eabi/arm-none-eabi/include/c++/10.3.1/bits/stl_algobase.h **** /*
  26:/opt/gcc-arm-none-eabi/arm-none-eabi/include/c++/10.3.1/bits/stl_algobase.h ****  *
  27:/opt/gcc-arm-none-eabi/arm-none-eabi/include/c++/10.3.1/bits/stl_algobase.h ****  * Copyright (c) 1994
  28:/opt/gcc-arm-none-eabi/arm-none-eabi/include/c++/10.3.1/bits/stl_algobase.h ****  * Hewlett-Packard Company
  29:/opt/gcc-arm-none-eabi/arm-none-eabi/include/c++/10.3.1/bits/stl_algobase.h ****  *
  30:/opt/gcc-arm-none-eabi/arm-none-eabi/include/c++/10.3.1/bits/stl_algobase.h ****  * Permission to use, copy, modify, distribute and sell this software
  31:/opt/gcc-arm-none-eabi/arm-none-eabi/include/c++/10.3.1/bits/stl_algobase.h ****  * and its documentation for any purpose is hereby granted without fee,
  32:/opt/gcc-arm-none-eabi/arm-none-eabi/include/c++/10.3.1/bits/stl_algobase.h ****  * provided that the above copyright notice appear in all copies and
  33:/opt/gcc-arm-none-eabi/arm-none-eabi/include/c++/10.3.1/bits/stl_algobase.h ****  * that both that copyright notice and this permission notice appear
  34:/opt/gcc-arm-none-eabi/arm-none-eabi/include/c++/10.3.1/bits/stl_algobase.h ****  * in supporting documentation.  Hewlett-Packard Company makes no
  35:/opt/gcc-arm-none-eabi/arm-none-eabi/include/c++/10.3.1/bits/stl_algobase.h ****  * representations about the suitability of this software for any
  36:/opt/gcc-arm-none-eabi/arm-none-eabi/include/c++/10.3.1/bits/stl_algobase.h ****  * purpose.  It is provided "as is" without express or implied warranty.
  37:/opt/gcc-arm-none-eabi/arm-none-eabi/include/c++/10.3.1/bits/stl_algobase.h ****  *
  38:/opt/gcc-arm-none-eabi/arm-none-eabi/include/c++/10.3.1/bits/stl_algobase.h ****  *
  39:/opt/gcc-arm-none-eabi/arm-none-eabi/include/c++/10.3.1/bits/stl_algobase.h ****  * Copyright (c) 1996-1998
ARM GAS  /tmp/ccjyQa7a.s 			page 41


  40:/opt/gcc-arm-none-eabi/arm-none-eabi/include/c++/10.3.1/bits/stl_algobase.h ****  * Silicon Graphics Computer Systems, Inc.
  41:/opt/gcc-arm-none-eabi/arm-none-eabi/include/c++/10.3.1/bits/stl_algobase.h ****  *
  42:/opt/gcc-arm-none-eabi/arm-none-eabi/include/c++/10.3.1/bits/stl_algobase.h ****  * Permission to use, copy, modify, distribute and sell this software
  43:/opt/gcc-arm-none-eabi/arm-none-eabi/include/c++/10.3.1/bits/stl_algobase.h ****  * and its documentation for any purpose is hereby granted without fee,
  44:/opt/gcc-arm-none-eabi/arm-none-eabi/include/c++/10.3.1/bits/stl_algobase.h ****  * provided that the above copyright notice appear in all copies and
  45:/opt/gcc-arm-none-eabi/arm-none-eabi/include/c++/10.3.1/bits/stl_algobase.h ****  * that both that copyright notice and this permission notice appear
  46:/opt/gcc-arm-none-eabi/arm-none-eabi/include/c++/10.3.1/bits/stl_algobase.h ****  * in supporting documentation.  Silicon Graphics makes no
  47:/opt/gcc-arm-none-eabi/arm-none-eabi/include/c++/10.3.1/bits/stl_algobase.h ****  * representations about the suitability of this software for any
  48:/opt/gcc-arm-none-eabi/arm-none-eabi/include/c++/10.3.1/bits/stl_algobase.h ****  * purpose.  It is provided "as is" without express or implied warranty.
  49:/opt/gcc-arm-none-eabi/arm-none-eabi/include/c++/10.3.1/bits/stl_algobase.h ****  */
  50:/opt/gcc-arm-none-eabi/arm-none-eabi/include/c++/10.3.1/bits/stl_algobase.h **** 
  51:/opt/gcc-arm-none-eabi/arm-none-eabi/include/c++/10.3.1/bits/stl_algobase.h **** /** @file bits/stl_algobase.h
  52:/opt/gcc-arm-none-eabi/arm-none-eabi/include/c++/10.3.1/bits/stl_algobase.h ****  *  This is an internal header file, included by other library headers.
  53:/opt/gcc-arm-none-eabi/arm-none-eabi/include/c++/10.3.1/bits/stl_algobase.h ****  *  Do not attempt to use it directly. @headername{algorithm}
  54:/opt/gcc-arm-none-eabi/arm-none-eabi/include/c++/10.3.1/bits/stl_algobase.h ****  */
  55:/opt/gcc-arm-none-eabi/arm-none-eabi/include/c++/10.3.1/bits/stl_algobase.h **** 
  56:/opt/gcc-arm-none-eabi/arm-none-eabi/include/c++/10.3.1/bits/stl_algobase.h **** #ifndef _STL_ALGOBASE_H
  57:/opt/gcc-arm-none-eabi/arm-none-eabi/include/c++/10.3.1/bits/stl_algobase.h **** #define _STL_ALGOBASE_H 1
  58:/opt/gcc-arm-none-eabi/arm-none-eabi/include/c++/10.3.1/bits/stl_algobase.h **** 
  59:/opt/gcc-arm-none-eabi/arm-none-eabi/include/c++/10.3.1/bits/stl_algobase.h **** #include <bits/c++config.h>
  60:/opt/gcc-arm-none-eabi/arm-none-eabi/include/c++/10.3.1/bits/stl_algobase.h **** #include <bits/functexcept.h>
  61:/opt/gcc-arm-none-eabi/arm-none-eabi/include/c++/10.3.1/bits/stl_algobase.h **** #include <bits/cpp_type_traits.h>
  62:/opt/gcc-arm-none-eabi/arm-none-eabi/include/c++/10.3.1/bits/stl_algobase.h **** #include <ext/type_traits.h>
  63:/opt/gcc-arm-none-eabi/arm-none-eabi/include/c++/10.3.1/bits/stl_algobase.h **** #include <ext/numeric_traits.h>
  64:/opt/gcc-arm-none-eabi/arm-none-eabi/include/c++/10.3.1/bits/stl_algobase.h **** #include <bits/stl_pair.h>
  65:/opt/gcc-arm-none-eabi/arm-none-eabi/include/c++/10.3.1/bits/stl_algobase.h **** #include <bits/stl_iterator_base_types.h>
  66:/opt/gcc-arm-none-eabi/arm-none-eabi/include/c++/10.3.1/bits/stl_algobase.h **** #include <bits/stl_iterator_base_funcs.h>
  67:/opt/gcc-arm-none-eabi/arm-none-eabi/include/c++/10.3.1/bits/stl_algobase.h **** #include <bits/stl_iterator.h>
  68:/opt/gcc-arm-none-eabi/arm-none-eabi/include/c++/10.3.1/bits/stl_algobase.h **** #include <bits/concept_check.h>
  69:/opt/gcc-arm-none-eabi/arm-none-eabi/include/c++/10.3.1/bits/stl_algobase.h **** #include <debug/debug.h>
  70:/opt/gcc-arm-none-eabi/arm-none-eabi/include/c++/10.3.1/bits/stl_algobase.h **** #include <bits/move.h> // For std::swap
  71:/opt/gcc-arm-none-eabi/arm-none-eabi/include/c++/10.3.1/bits/stl_algobase.h **** #include <bits/predefined_ops.h>
  72:/opt/gcc-arm-none-eabi/arm-none-eabi/include/c++/10.3.1/bits/stl_algobase.h **** #if __cplusplus >= 201103L
  73:/opt/gcc-arm-none-eabi/arm-none-eabi/include/c++/10.3.1/bits/stl_algobase.h **** # include <type_traits>
  74:/opt/gcc-arm-none-eabi/arm-none-eabi/include/c++/10.3.1/bits/stl_algobase.h **** #endif
  75:/opt/gcc-arm-none-eabi/arm-none-eabi/include/c++/10.3.1/bits/stl_algobase.h **** #if __cplusplus > 201703L
  76:/opt/gcc-arm-none-eabi/arm-none-eabi/include/c++/10.3.1/bits/stl_algobase.h **** # include <compare>
  77:/opt/gcc-arm-none-eabi/arm-none-eabi/include/c++/10.3.1/bits/stl_algobase.h **** #endif
  78:/opt/gcc-arm-none-eabi/arm-none-eabi/include/c++/10.3.1/bits/stl_algobase.h **** 
  79:/opt/gcc-arm-none-eabi/arm-none-eabi/include/c++/10.3.1/bits/stl_algobase.h **** namespace std _GLIBCXX_VISIBILITY(default)
  80:/opt/gcc-arm-none-eabi/arm-none-eabi/include/c++/10.3.1/bits/stl_algobase.h **** {
  81:/opt/gcc-arm-none-eabi/arm-none-eabi/include/c++/10.3.1/bits/stl_algobase.h **** _GLIBCXX_BEGIN_NAMESPACE_VERSION
  82:/opt/gcc-arm-none-eabi/arm-none-eabi/include/c++/10.3.1/bits/stl_algobase.h **** 
  83:/opt/gcc-arm-none-eabi/arm-none-eabi/include/c++/10.3.1/bits/stl_algobase.h ****   /*
  84:/opt/gcc-arm-none-eabi/arm-none-eabi/include/c++/10.3.1/bits/stl_algobase.h ****    * A constexpr wrapper for __builtin_memcmp.
  85:/opt/gcc-arm-none-eabi/arm-none-eabi/include/c++/10.3.1/bits/stl_algobase.h ****    * @param __num The number of elements of type _Tp (not bytes).
  86:/opt/gcc-arm-none-eabi/arm-none-eabi/include/c++/10.3.1/bits/stl_algobase.h ****    */
  87:/opt/gcc-arm-none-eabi/arm-none-eabi/include/c++/10.3.1/bits/stl_algobase.h ****   template<typename _Tp, typename _Up>
  88:/opt/gcc-arm-none-eabi/arm-none-eabi/include/c++/10.3.1/bits/stl_algobase.h ****     _GLIBCXX14_CONSTEXPR
  89:/opt/gcc-arm-none-eabi/arm-none-eabi/include/c++/10.3.1/bits/stl_algobase.h ****     inline int
  90:/opt/gcc-arm-none-eabi/arm-none-eabi/include/c++/10.3.1/bits/stl_algobase.h ****     __memcmp(const _Tp* __first1, const _Up* __first2, size_t __num)
  91:/opt/gcc-arm-none-eabi/arm-none-eabi/include/c++/10.3.1/bits/stl_algobase.h ****     {
  92:/opt/gcc-arm-none-eabi/arm-none-eabi/include/c++/10.3.1/bits/stl_algobase.h **** #if __cplusplus >= 201103L
  93:/opt/gcc-arm-none-eabi/arm-none-eabi/include/c++/10.3.1/bits/stl_algobase.h ****       static_assert(sizeof(_Tp) == sizeof(_Up), "can be compared with memcmp");
  94:/opt/gcc-arm-none-eabi/arm-none-eabi/include/c++/10.3.1/bits/stl_algobase.h **** #endif
  95:/opt/gcc-arm-none-eabi/arm-none-eabi/include/c++/10.3.1/bits/stl_algobase.h **** #ifdef __cpp_lib_is_constant_evaluated
  96:/opt/gcc-arm-none-eabi/arm-none-eabi/include/c++/10.3.1/bits/stl_algobase.h ****       if (std::is_constant_evaluated())
ARM GAS  /tmp/ccjyQa7a.s 			page 42


  97:/opt/gcc-arm-none-eabi/arm-none-eabi/include/c++/10.3.1/bits/stl_algobase.h **** 	{
  98:/opt/gcc-arm-none-eabi/arm-none-eabi/include/c++/10.3.1/bits/stl_algobase.h **** 	  for(; __num > 0; ++__first1, ++__first2, --__num)
  99:/opt/gcc-arm-none-eabi/arm-none-eabi/include/c++/10.3.1/bits/stl_algobase.h **** 	    if (*__first1 != *__first2)
 100:/opt/gcc-arm-none-eabi/arm-none-eabi/include/c++/10.3.1/bits/stl_algobase.h **** 	      return *__first1 < *__first2 ? -1 : 1;
 101:/opt/gcc-arm-none-eabi/arm-none-eabi/include/c++/10.3.1/bits/stl_algobase.h **** 	  return 0;
 102:/opt/gcc-arm-none-eabi/arm-none-eabi/include/c++/10.3.1/bits/stl_algobase.h **** 	}
 103:/opt/gcc-arm-none-eabi/arm-none-eabi/include/c++/10.3.1/bits/stl_algobase.h ****       else
 104:/opt/gcc-arm-none-eabi/arm-none-eabi/include/c++/10.3.1/bits/stl_algobase.h **** #endif
 105:/opt/gcc-arm-none-eabi/arm-none-eabi/include/c++/10.3.1/bits/stl_algobase.h **** 	return __builtin_memcmp(__first1, __first2, sizeof(_Tp) * __num);
 106:/opt/gcc-arm-none-eabi/arm-none-eabi/include/c++/10.3.1/bits/stl_algobase.h ****     }
 107:/opt/gcc-arm-none-eabi/arm-none-eabi/include/c++/10.3.1/bits/stl_algobase.h **** 
 108:/opt/gcc-arm-none-eabi/arm-none-eabi/include/c++/10.3.1/bits/stl_algobase.h **** #if __cplusplus < 201103L
 109:/opt/gcc-arm-none-eabi/arm-none-eabi/include/c++/10.3.1/bits/stl_algobase.h ****   // See http://gcc.gnu.org/ml/libstdc++/2004-08/msg00167.html: in a
 110:/opt/gcc-arm-none-eabi/arm-none-eabi/include/c++/10.3.1/bits/stl_algobase.h ****   // nutshell, we are partially implementing the resolution of DR 187,
 111:/opt/gcc-arm-none-eabi/arm-none-eabi/include/c++/10.3.1/bits/stl_algobase.h ****   // when it's safe, i.e., the value_types are equal.
 112:/opt/gcc-arm-none-eabi/arm-none-eabi/include/c++/10.3.1/bits/stl_algobase.h ****   template<bool _BoolType>
 113:/opt/gcc-arm-none-eabi/arm-none-eabi/include/c++/10.3.1/bits/stl_algobase.h ****     struct __iter_swap
 114:/opt/gcc-arm-none-eabi/arm-none-eabi/include/c++/10.3.1/bits/stl_algobase.h ****     {
 115:/opt/gcc-arm-none-eabi/arm-none-eabi/include/c++/10.3.1/bits/stl_algobase.h ****       template<typename _ForwardIterator1, typename _ForwardIterator2>
 116:/opt/gcc-arm-none-eabi/arm-none-eabi/include/c++/10.3.1/bits/stl_algobase.h **** 	static void
 117:/opt/gcc-arm-none-eabi/arm-none-eabi/include/c++/10.3.1/bits/stl_algobase.h **** 	iter_swap(_ForwardIterator1 __a, _ForwardIterator2 __b)
 118:/opt/gcc-arm-none-eabi/arm-none-eabi/include/c++/10.3.1/bits/stl_algobase.h **** 	{
 119:/opt/gcc-arm-none-eabi/arm-none-eabi/include/c++/10.3.1/bits/stl_algobase.h **** 	  typedef typename iterator_traits<_ForwardIterator1>::value_type
 120:/opt/gcc-arm-none-eabi/arm-none-eabi/include/c++/10.3.1/bits/stl_algobase.h **** 	    _ValueType1;
 121:/opt/gcc-arm-none-eabi/arm-none-eabi/include/c++/10.3.1/bits/stl_algobase.h **** 	  _ValueType1 __tmp = *__a;
 122:/opt/gcc-arm-none-eabi/arm-none-eabi/include/c++/10.3.1/bits/stl_algobase.h **** 	  *__a = *__b;
 123:/opt/gcc-arm-none-eabi/arm-none-eabi/include/c++/10.3.1/bits/stl_algobase.h **** 	  *__b = __tmp;
 124:/opt/gcc-arm-none-eabi/arm-none-eabi/include/c++/10.3.1/bits/stl_algobase.h **** 	}
 125:/opt/gcc-arm-none-eabi/arm-none-eabi/include/c++/10.3.1/bits/stl_algobase.h ****     };
 126:/opt/gcc-arm-none-eabi/arm-none-eabi/include/c++/10.3.1/bits/stl_algobase.h **** 
 127:/opt/gcc-arm-none-eabi/arm-none-eabi/include/c++/10.3.1/bits/stl_algobase.h ****   template<>
 128:/opt/gcc-arm-none-eabi/arm-none-eabi/include/c++/10.3.1/bits/stl_algobase.h ****     struct __iter_swap<true>
 129:/opt/gcc-arm-none-eabi/arm-none-eabi/include/c++/10.3.1/bits/stl_algobase.h ****     {
 130:/opt/gcc-arm-none-eabi/arm-none-eabi/include/c++/10.3.1/bits/stl_algobase.h ****       template<typename _ForwardIterator1, typename _ForwardIterator2>
 131:/opt/gcc-arm-none-eabi/arm-none-eabi/include/c++/10.3.1/bits/stl_algobase.h **** 	static void
 132:/opt/gcc-arm-none-eabi/arm-none-eabi/include/c++/10.3.1/bits/stl_algobase.h **** 	iter_swap(_ForwardIterator1 __a, _ForwardIterator2 __b)
 133:/opt/gcc-arm-none-eabi/arm-none-eabi/include/c++/10.3.1/bits/stl_algobase.h **** 	{
 134:/opt/gcc-arm-none-eabi/arm-none-eabi/include/c++/10.3.1/bits/stl_algobase.h **** 	  swap(*__a, *__b);
 135:/opt/gcc-arm-none-eabi/arm-none-eabi/include/c++/10.3.1/bits/stl_algobase.h **** 	}
 136:/opt/gcc-arm-none-eabi/arm-none-eabi/include/c++/10.3.1/bits/stl_algobase.h ****     };
 137:/opt/gcc-arm-none-eabi/arm-none-eabi/include/c++/10.3.1/bits/stl_algobase.h **** #endif // C++03
 138:/opt/gcc-arm-none-eabi/arm-none-eabi/include/c++/10.3.1/bits/stl_algobase.h **** 
 139:/opt/gcc-arm-none-eabi/arm-none-eabi/include/c++/10.3.1/bits/stl_algobase.h ****   /**
 140:/opt/gcc-arm-none-eabi/arm-none-eabi/include/c++/10.3.1/bits/stl_algobase.h ****    *  @brief Swaps the contents of two iterators.
 141:/opt/gcc-arm-none-eabi/arm-none-eabi/include/c++/10.3.1/bits/stl_algobase.h ****    *  @ingroup mutating_algorithms
 142:/opt/gcc-arm-none-eabi/arm-none-eabi/include/c++/10.3.1/bits/stl_algobase.h ****    *  @param  __a  An iterator.
 143:/opt/gcc-arm-none-eabi/arm-none-eabi/include/c++/10.3.1/bits/stl_algobase.h ****    *  @param  __b  Another iterator.
 144:/opt/gcc-arm-none-eabi/arm-none-eabi/include/c++/10.3.1/bits/stl_algobase.h ****    *  @return   Nothing.
 145:/opt/gcc-arm-none-eabi/arm-none-eabi/include/c++/10.3.1/bits/stl_algobase.h ****    *
 146:/opt/gcc-arm-none-eabi/arm-none-eabi/include/c++/10.3.1/bits/stl_algobase.h ****    *  This function swaps the values pointed to by two iterators, not the
 147:/opt/gcc-arm-none-eabi/arm-none-eabi/include/c++/10.3.1/bits/stl_algobase.h ****    *  iterators themselves.
 148:/opt/gcc-arm-none-eabi/arm-none-eabi/include/c++/10.3.1/bits/stl_algobase.h ****   */
 149:/opt/gcc-arm-none-eabi/arm-none-eabi/include/c++/10.3.1/bits/stl_algobase.h ****   template<typename _ForwardIterator1, typename _ForwardIterator2>
 150:/opt/gcc-arm-none-eabi/arm-none-eabi/include/c++/10.3.1/bits/stl_algobase.h ****     _GLIBCXX20_CONSTEXPR
 151:/opt/gcc-arm-none-eabi/arm-none-eabi/include/c++/10.3.1/bits/stl_algobase.h ****     inline void
 152:/opt/gcc-arm-none-eabi/arm-none-eabi/include/c++/10.3.1/bits/stl_algobase.h ****     iter_swap(_ForwardIterator1 __a, _ForwardIterator2 __b)
 153:/opt/gcc-arm-none-eabi/arm-none-eabi/include/c++/10.3.1/bits/stl_algobase.h ****     {
ARM GAS  /tmp/ccjyQa7a.s 			page 43


 154:/opt/gcc-arm-none-eabi/arm-none-eabi/include/c++/10.3.1/bits/stl_algobase.h ****       // concept requirements
 155:/opt/gcc-arm-none-eabi/arm-none-eabi/include/c++/10.3.1/bits/stl_algobase.h ****       __glibcxx_function_requires(_Mutable_ForwardIteratorConcept<
 156:/opt/gcc-arm-none-eabi/arm-none-eabi/include/c++/10.3.1/bits/stl_algobase.h **** 				  _ForwardIterator1>)
 157:/opt/gcc-arm-none-eabi/arm-none-eabi/include/c++/10.3.1/bits/stl_algobase.h ****       __glibcxx_function_requires(_Mutable_ForwardIteratorConcept<
 158:/opt/gcc-arm-none-eabi/arm-none-eabi/include/c++/10.3.1/bits/stl_algobase.h **** 				  _ForwardIterator2>)
 159:/opt/gcc-arm-none-eabi/arm-none-eabi/include/c++/10.3.1/bits/stl_algobase.h **** 
 160:/opt/gcc-arm-none-eabi/arm-none-eabi/include/c++/10.3.1/bits/stl_algobase.h **** #if __cplusplus < 201103L
 161:/opt/gcc-arm-none-eabi/arm-none-eabi/include/c++/10.3.1/bits/stl_algobase.h ****       typedef typename iterator_traits<_ForwardIterator1>::value_type
 162:/opt/gcc-arm-none-eabi/arm-none-eabi/include/c++/10.3.1/bits/stl_algobase.h **** 	_ValueType1;
 163:/opt/gcc-arm-none-eabi/arm-none-eabi/include/c++/10.3.1/bits/stl_algobase.h ****       typedef typename iterator_traits<_ForwardIterator2>::value_type
 164:/opt/gcc-arm-none-eabi/arm-none-eabi/include/c++/10.3.1/bits/stl_algobase.h **** 	_ValueType2;
 165:/opt/gcc-arm-none-eabi/arm-none-eabi/include/c++/10.3.1/bits/stl_algobase.h **** 
 166:/opt/gcc-arm-none-eabi/arm-none-eabi/include/c++/10.3.1/bits/stl_algobase.h ****       __glibcxx_function_requires(_ConvertibleConcept<_ValueType1,
 167:/opt/gcc-arm-none-eabi/arm-none-eabi/include/c++/10.3.1/bits/stl_algobase.h **** 				  _ValueType2>)
 168:/opt/gcc-arm-none-eabi/arm-none-eabi/include/c++/10.3.1/bits/stl_algobase.h ****       __glibcxx_function_requires(_ConvertibleConcept<_ValueType2,
 169:/opt/gcc-arm-none-eabi/arm-none-eabi/include/c++/10.3.1/bits/stl_algobase.h **** 				  _ValueType1>)
 170:/opt/gcc-arm-none-eabi/arm-none-eabi/include/c++/10.3.1/bits/stl_algobase.h **** 
 171:/opt/gcc-arm-none-eabi/arm-none-eabi/include/c++/10.3.1/bits/stl_algobase.h ****       typedef typename iterator_traits<_ForwardIterator1>::reference
 172:/opt/gcc-arm-none-eabi/arm-none-eabi/include/c++/10.3.1/bits/stl_algobase.h **** 	_ReferenceType1;
 173:/opt/gcc-arm-none-eabi/arm-none-eabi/include/c++/10.3.1/bits/stl_algobase.h ****       typedef typename iterator_traits<_ForwardIterator2>::reference
 174:/opt/gcc-arm-none-eabi/arm-none-eabi/include/c++/10.3.1/bits/stl_algobase.h **** 	_ReferenceType2;
 175:/opt/gcc-arm-none-eabi/arm-none-eabi/include/c++/10.3.1/bits/stl_algobase.h ****       std::__iter_swap<__are_same<_ValueType1, _ValueType2>::__value
 176:/opt/gcc-arm-none-eabi/arm-none-eabi/include/c++/10.3.1/bits/stl_algobase.h **** 	&& __are_same<_ValueType1&, _ReferenceType1>::__value
 177:/opt/gcc-arm-none-eabi/arm-none-eabi/include/c++/10.3.1/bits/stl_algobase.h **** 	&& __are_same<_ValueType2&, _ReferenceType2>::__value>::
 178:/opt/gcc-arm-none-eabi/arm-none-eabi/include/c++/10.3.1/bits/stl_algobase.h **** 	iter_swap(__a, __b);
 179:/opt/gcc-arm-none-eabi/arm-none-eabi/include/c++/10.3.1/bits/stl_algobase.h **** #else
 180:/opt/gcc-arm-none-eabi/arm-none-eabi/include/c++/10.3.1/bits/stl_algobase.h ****       // _GLIBCXX_RESOLVE_LIB_DEFECTS
 181:/opt/gcc-arm-none-eabi/arm-none-eabi/include/c++/10.3.1/bits/stl_algobase.h ****       // 187. iter_swap underspecified
 182:/opt/gcc-arm-none-eabi/arm-none-eabi/include/c++/10.3.1/bits/stl_algobase.h ****       swap(*__a, *__b);
 183:/opt/gcc-arm-none-eabi/arm-none-eabi/include/c++/10.3.1/bits/stl_algobase.h **** #endif
 184:/opt/gcc-arm-none-eabi/arm-none-eabi/include/c++/10.3.1/bits/stl_algobase.h ****     }
 185:/opt/gcc-arm-none-eabi/arm-none-eabi/include/c++/10.3.1/bits/stl_algobase.h **** 
 186:/opt/gcc-arm-none-eabi/arm-none-eabi/include/c++/10.3.1/bits/stl_algobase.h ****   /**
 187:/opt/gcc-arm-none-eabi/arm-none-eabi/include/c++/10.3.1/bits/stl_algobase.h ****    *  @brief Swap the elements of two sequences.
 188:/opt/gcc-arm-none-eabi/arm-none-eabi/include/c++/10.3.1/bits/stl_algobase.h ****    *  @ingroup mutating_algorithms
 189:/opt/gcc-arm-none-eabi/arm-none-eabi/include/c++/10.3.1/bits/stl_algobase.h ****    *  @param  __first1  A forward iterator.
 190:/opt/gcc-arm-none-eabi/arm-none-eabi/include/c++/10.3.1/bits/stl_algobase.h ****    *  @param  __last1   A forward iterator.
 191:/opt/gcc-arm-none-eabi/arm-none-eabi/include/c++/10.3.1/bits/stl_algobase.h ****    *  @param  __first2  A forward iterator.
 192:/opt/gcc-arm-none-eabi/arm-none-eabi/include/c++/10.3.1/bits/stl_algobase.h ****    *  @return   An iterator equal to @p first2+(last1-first1).
 193:/opt/gcc-arm-none-eabi/arm-none-eabi/include/c++/10.3.1/bits/stl_algobase.h ****    *
 194:/opt/gcc-arm-none-eabi/arm-none-eabi/include/c++/10.3.1/bits/stl_algobase.h ****    *  Swaps each element in the range @p [first1,last1) with the
 195:/opt/gcc-arm-none-eabi/arm-none-eabi/include/c++/10.3.1/bits/stl_algobase.h ****    *  corresponding element in the range @p [first2,(last1-first1)).
 196:/opt/gcc-arm-none-eabi/arm-none-eabi/include/c++/10.3.1/bits/stl_algobase.h ****    *  The ranges must not overlap.
 197:/opt/gcc-arm-none-eabi/arm-none-eabi/include/c++/10.3.1/bits/stl_algobase.h ****   */
 198:/opt/gcc-arm-none-eabi/arm-none-eabi/include/c++/10.3.1/bits/stl_algobase.h ****   template<typename _ForwardIterator1, typename _ForwardIterator2>
 199:/opt/gcc-arm-none-eabi/arm-none-eabi/include/c++/10.3.1/bits/stl_algobase.h ****     _GLIBCXX20_CONSTEXPR
 200:/opt/gcc-arm-none-eabi/arm-none-eabi/include/c++/10.3.1/bits/stl_algobase.h ****     _ForwardIterator2
 201:/opt/gcc-arm-none-eabi/arm-none-eabi/include/c++/10.3.1/bits/stl_algobase.h ****     swap_ranges(_ForwardIterator1 __first1, _ForwardIterator1 __last1,
 202:/opt/gcc-arm-none-eabi/arm-none-eabi/include/c++/10.3.1/bits/stl_algobase.h **** 		_ForwardIterator2 __first2)
 203:/opt/gcc-arm-none-eabi/arm-none-eabi/include/c++/10.3.1/bits/stl_algobase.h ****     {
 204:/opt/gcc-arm-none-eabi/arm-none-eabi/include/c++/10.3.1/bits/stl_algobase.h ****       // concept requirements
 205:/opt/gcc-arm-none-eabi/arm-none-eabi/include/c++/10.3.1/bits/stl_algobase.h ****       __glibcxx_function_requires(_Mutable_ForwardIteratorConcept<
 206:/opt/gcc-arm-none-eabi/arm-none-eabi/include/c++/10.3.1/bits/stl_algobase.h **** 				  _ForwardIterator1>)
 207:/opt/gcc-arm-none-eabi/arm-none-eabi/include/c++/10.3.1/bits/stl_algobase.h ****       __glibcxx_function_requires(_Mutable_ForwardIteratorConcept<
 208:/opt/gcc-arm-none-eabi/arm-none-eabi/include/c++/10.3.1/bits/stl_algobase.h **** 				  _ForwardIterator2>)
 209:/opt/gcc-arm-none-eabi/arm-none-eabi/include/c++/10.3.1/bits/stl_algobase.h ****       __glibcxx_requires_valid_range(__first1, __last1);
 210:/opt/gcc-arm-none-eabi/arm-none-eabi/include/c++/10.3.1/bits/stl_algobase.h **** 
ARM GAS  /tmp/ccjyQa7a.s 			page 44


 211:/opt/gcc-arm-none-eabi/arm-none-eabi/include/c++/10.3.1/bits/stl_algobase.h ****       for (; __first1 != __last1; ++__first1, (void)++__first2)
 212:/opt/gcc-arm-none-eabi/arm-none-eabi/include/c++/10.3.1/bits/stl_algobase.h **** 	std::iter_swap(__first1, __first2);
 213:/opt/gcc-arm-none-eabi/arm-none-eabi/include/c++/10.3.1/bits/stl_algobase.h ****       return __first2;
 214:/opt/gcc-arm-none-eabi/arm-none-eabi/include/c++/10.3.1/bits/stl_algobase.h ****     }
 215:/opt/gcc-arm-none-eabi/arm-none-eabi/include/c++/10.3.1/bits/stl_algobase.h **** 
 216:/opt/gcc-arm-none-eabi/arm-none-eabi/include/c++/10.3.1/bits/stl_algobase.h ****   /**
 217:/opt/gcc-arm-none-eabi/arm-none-eabi/include/c++/10.3.1/bits/stl_algobase.h ****    *  @brief This does what you think it does.
 218:/opt/gcc-arm-none-eabi/arm-none-eabi/include/c++/10.3.1/bits/stl_algobase.h ****    *  @ingroup sorting_algorithms
 219:/opt/gcc-arm-none-eabi/arm-none-eabi/include/c++/10.3.1/bits/stl_algobase.h ****    *  @param  __a  A thing of arbitrary type.
 220:/opt/gcc-arm-none-eabi/arm-none-eabi/include/c++/10.3.1/bits/stl_algobase.h ****    *  @param  __b  Another thing of arbitrary type.
 221:/opt/gcc-arm-none-eabi/arm-none-eabi/include/c++/10.3.1/bits/stl_algobase.h ****    *  @return   The lesser of the parameters.
 222:/opt/gcc-arm-none-eabi/arm-none-eabi/include/c++/10.3.1/bits/stl_algobase.h ****    *
 223:/opt/gcc-arm-none-eabi/arm-none-eabi/include/c++/10.3.1/bits/stl_algobase.h ****    *  This is the simple classic generic implementation.  It will work on
 224:/opt/gcc-arm-none-eabi/arm-none-eabi/include/c++/10.3.1/bits/stl_algobase.h ****    *  temporary expressions, since they are only evaluated once, unlike a
 225:/opt/gcc-arm-none-eabi/arm-none-eabi/include/c++/10.3.1/bits/stl_algobase.h ****    *  preprocessor macro.
 226:/opt/gcc-arm-none-eabi/arm-none-eabi/include/c++/10.3.1/bits/stl_algobase.h ****   */
 227:/opt/gcc-arm-none-eabi/arm-none-eabi/include/c++/10.3.1/bits/stl_algobase.h ****   template<typename _Tp>
 228:/opt/gcc-arm-none-eabi/arm-none-eabi/include/c++/10.3.1/bits/stl_algobase.h ****     _GLIBCXX14_CONSTEXPR
 229:/opt/gcc-arm-none-eabi/arm-none-eabi/include/c++/10.3.1/bits/stl_algobase.h ****     inline const _Tp&
 230:/opt/gcc-arm-none-eabi/arm-none-eabi/include/c++/10.3.1/bits/stl_algobase.h ****     min(const _Tp& __a, const _Tp& __b)
 671              		.loc 7 230 5 is_stmt 1 view .LVU144
 672              	.LBB677:
 231:/opt/gcc-arm-none-eabi/arm-none-eabi/include/c++/10.3.1/bits/stl_algobase.h ****     {
 232:/opt/gcc-arm-none-eabi/arm-none-eabi/include/c++/10.3.1/bits/stl_algobase.h ****       // concept requirements
 233:/opt/gcc-arm-none-eabi/arm-none-eabi/include/c++/10.3.1/bits/stl_algobase.h ****       __glibcxx_function_requires(_LessThanComparableConcept<_Tp>)
 234:/opt/gcc-arm-none-eabi/arm-none-eabi/include/c++/10.3.1/bits/stl_algobase.h ****       //return __b < __a ? __b : __a;
 235:/opt/gcc-arm-none-eabi/arm-none-eabi/include/c++/10.3.1/bits/stl_algobase.h ****       if (__b < __a)
 673              		.loc 7 235 7 is_stmt 0 view .LVU145
 674 0062 8A42     		cmp	r2, r1
 675 0064 2FD3     		bcc	.L42
 236:/opt/gcc-arm-none-eabi/arm-none-eabi/include/c++/10.3.1/bits/stl_algobase.h **** 	return __b;
 237:/opt/gcc-arm-none-eabi/arm-none-eabi/include/c++/10.3.1/bits/stl_algobase.h ****       return __a;
 676              		.loc 7 237 14 view .LVU146
 677 0066 02AA     		add	r2, sp, #8
 678              	.LVL63:
 679              	.L39:
 680              		.loc 7 237 14 view .LVU147
 681              	.LBE677:
 682              	.LBE676:
 683              		.loc 1 313 95 view .LVU148
 684 0068 1568     		ldr	r5, [r2]
 685              	.LVL64:
 314:fibre-cpp/legacy_protocol.cpp ****         memcpy(output_buffer->begin(), embedded_json + *offset, n_copy);
 686              		.loc 1 314 9 is_stmt 1 view .LVU149
 687              		.loc 1 314 15 is_stmt 0 view .LVU150
 688 006a 2A46     		mov	r2, r5
 689 006c 1849     		ldr	r1, .L45+4
 690 006e 1944     		add	r1, r1, r3
 691 0070 3068     		ldr	r0, [r6]
 692 0072 FFF7FEFF 		bl	memcpy
 693              	.LVL65:
 315:fibre-cpp/legacy_protocol.cpp ****         *output_buffer = output_buffer->skip(n_copy);
 694              		.loc 1 315 9 is_stmt 1 view .LVU151
 695              	.LBB679:
 696              	.LBI679:
  65:fibre-cpp/include/fibre/bufptr.hpp ****         if (!soft_assert(num <= size())) {
 697              		.loc 4 65 22 view .LVU152
ARM GAS  /tmp/ccjyQa7a.s 			page 45


 698              	.LBB680:
 699              	.LBB681:
 700              	.LBI681:
  74:fibre-cpp/include/fibre/bufptr.hpp ****         return end_ - begin_;
 701              		.loc 4 74 12 view .LVU153
 702              	.LBB682:
  75:fibre-cpp/include/fibre/bufptr.hpp ****     }
 703              		.loc 4 75 16 is_stmt 0 view .LVU154
 704 0076 7168     		ldr	r1, [r6, #4]
  75:fibre-cpp/include/fibre/bufptr.hpp ****     }
 705              		.loc 4 75 23 view .LVU155
 706 0078 3368     		ldr	r3, [r6]
  75:fibre-cpp/include/fibre/bufptr.hpp ****     }
 707              		.loc 4 75 21 view .LVU156
 708 007a CA1A     		subs	r2, r1, r3
 709              	.LVL66:
  75:fibre-cpp/include/fibre/bufptr.hpp ****     }
 710              		.loc 4 75 21 view .LVU157
 711              	.LBE682:
 712              	.LBE681:
 713              	.LBE680:
 714              	.LBE679:
 715              	.LBE673:
 716              	.LBE672:
 717              	.LBE700:
 718              	.LBE704:
   9:fibre-cpp/include/fibre/bufptr.hpp **** 
 719              		.loc 4 9 45 is_stmt 1 view .LVU158
 720              	.LBB705:
 721              	.LBB701:
 722              	.LBB690:
 723              	.LBB688:
 724              	.LBB686:
 725              	.LBB685:
  66:fibre-cpp/include/fibre/bufptr.hpp ****             num = size();
 726              		.loc 4 66 9 is_stmt 0 view .LVU159
 727 007c 9542     		cmp	r5, r2
 728 007e 00D8     		bhi	.L40
 729 0080 2A46     		mov	r2, r5
 730              	.L40:
 731              	.LVL67:
  71:fibre-cpp/include/fibre/bufptr.hpp ****     }
 732              		.loc 4 71 35 view .LVU160
 733 0082 1344     		add	r3, r3, r2
 734              	.LVL68:
 735              	.LBB683:
 736              	.LBI683:
  23:fibre-cpp/include/fibre/bufptr.hpp **** 
 737              		.loc 4 23 5 is_stmt 1 view .LVU161
 738              	.LBB684:
  23:fibre-cpp/include/fibre/bufptr.hpp **** 
 739              		.loc 4 23 65 is_stmt 0 view .LVU162
 740 0084 0493     		str	r3, [sp, #16]
 741 0086 0591     		str	r1, [sp, #20]
 742              	.LVL69:
  23:fibre-cpp/include/fibre/bufptr.hpp **** 
 743              		.loc 4 23 65 view .LVU163
ARM GAS  /tmp/ccjyQa7a.s 			page 46


 744              	.LBE684:
 745              	.LBE683:
 746              	.LBE685:
 747              	.LBE686:
 748              		.loc 1 315 24 view .LVU164
 749 0088 06AB     		add	r3, sp, #24
 750 008a 13E90300 		ldmdb	r3, {r0, r1}
 751 008e 86E80300 		stm	r6, {r0, r1}
 316:fibre-cpp/legacy_protocol.cpp ****         return true;
 752              		.loc 1 316 9 is_stmt 1 view .LVU165
 753              	.LVL70:
 754              	.L34:
 755              		.loc 1 316 9 is_stmt 0 view .LVU166
 756              	.LBE688:
 757              	.LBE690:
 758              	.LBE701:
 759              	.LBE705:
 317:fibre-cpp/legacy_protocol.cpp ****     }
 318:fibre-cpp/legacy_protocol.cpp **** }
 760              		.loc 1 318 1 view .LVU167
 761 0092 2046     		mov	r0, r4
 762 0094 06B0     		add	sp, sp, #24
 763              	.LCFI8:
 764              		.cfi_remember_state
 765              		.cfi_def_cfa_offset 16
 766              		@ sp needed
 767 0096 70BD     		pop	{r4, r5, r6, pc}
 768              	.LVL71:
 769              	.L44:
 770              	.LCFI9:
 771              		.cfi_restore_state
 772              	.LBB706:
 773              	.LBB702:
 307:fibre-cpp/legacy_protocol.cpp ****     } else if (*offset >= embedded_json_length) {
 774              		.loc 1 307 9 is_stmt 1 view .LVU168
 307:fibre-cpp/legacy_protocol.cpp ****     } else if (*offset >= embedded_json_length) {
 775              		.loc 1 307 34 is_stmt 0 view .LVU169
 776 0098 0E4B     		ldr	r3, .L45+8
 777 009a 1D68     		ldr	r5, [r3]
 778              	.LVL72:
 779              	.LBB691:
 780              	.LBI691:
  71:fibre-cpp/include/fibre/simple_serdes.hpp **** }
  72:fibre-cpp/include/fibre/simple_serdes.hpp **** 
  73:fibre-cpp/include/fibre/simple_serdes.hpp **** template<typename T>
  74:fibre-cpp/include/fibre/simple_serdes.hpp **** inline bool write_le(T value, fibre::bufptr_t* buffer) {
 781              		.loc 3 74 13 is_stmt 1 view .LVU170
 782              	.LBB692:
 783              	.LBB693:
 784              	.LBI693:
 785              		.loc 4 82 9 view .LVU171
 786              		.loc 4 82 9 is_stmt 0 view .LVU172
 787              	.LBE693:
  75:fibre-cpp/include/fibre/simple_serdes.hpp ****     static_assert(is_complete<LittleEndianSerializer<T>>(), "no LittleEndianSerializer is defined f
  76:fibre-cpp/include/fibre/simple_serdes.hpp ****     return LittleEndianSerializer<T>::write(value, &buffer->begin(), buffer->end());
 788              		.loc 3 76 44 view .LVU173
 789 009c 7168     		ldr	r1, [r6, #4]
ARM GAS  /tmp/ccjyQa7a.s 			page 47


 790              	.LVL73:
 791              	.LBB694:
 792              	.LBI694:
  47:fibre-cpp/include/fibre/simple_serdes.hpp ****         if (BigEndian) {
 793              		.loc 3 47 17 is_stmt 1 view .LVU174
 794              	.LBB695:
 795              	.LBB696:
  56:fibre-cpp/include/fibre/simple_serdes.hpp ****                 if (end && !(*begin < end))
 796              		.loc 3 56 25 is_stmt 0 view .LVU175
 797 009e 0023     		movs	r3, #0
 798 00a0 08E0     		b	.L38
 799              	.LVL74:
 800              	.L37:
 801              	.LBB697:
  59:fibre-cpp/include/fibre/simple_serdes.hpp ****                 **begin = byte;
 802              		.loc 3 59 66 view .LVU176
 803 00a2 DA00     		lsls	r2, r3, #3
  59:fibre-cpp/include/fibre/simple_serdes.hpp ****                 **begin = byte;
 804              		.loc 3 59 60 view .LVU177
 805 00a4 25FA02F2 		lsr	r2, r5, r2
 806              	.LVL75:
  60:fibre-cpp/include/fibre/simple_serdes.hpp ****             }
 807              		.loc 3 60 25 view .LVU178
 808 00a8 3068     		ldr	r0, [r6]
 809 00aa 0270     		strb	r2, [r0]
 810              	.LBE697:
  56:fibre-cpp/include/fibre/simple_serdes.hpp ****                 if (end && !(*begin < end))
 811              		.loc 3 56 13 is_stmt 1 view .LVU179
 812 00ac 0133     		adds	r3, r3, #1
 813              	.LVL76:
  56:fibre-cpp/include/fibre/simple_serdes.hpp ****                 if (end && !(*begin < end))
 814              		.loc 3 56 13 is_stmt 0 view .LVU180
 815 00ae 3268     		ldr	r2, [r6]
 816              	.LVL77:
  56:fibre-cpp/include/fibre/simple_serdes.hpp ****                 if (end && !(*begin < end))
 817              		.loc 3 56 13 view .LVU181
 818 00b0 0132     		adds	r2, r2, #1
 819 00b2 3260     		str	r2, [r6]
 820              	.LVL78:
 821              	.L38:
  56:fibre-cpp/include/fibre/simple_serdes.hpp ****                 if (end && !(*begin < end))
 822              		.loc 3 56 34 is_stmt 1 view .LVU182
 823 00b4 032B     		cmp	r3, #3
 824 00b6 ECD8     		bhi	.L34
 825              	.LBB698:
  57:fibre-cpp/include/fibre/simple_serdes.hpp ****                     return false;
 826              		.loc 3 57 17 is_stmt 0 view .LVU183
 827 00b8 0029     		cmp	r1, #0
 828 00ba F2D0     		beq	.L37
  57:fibre-cpp/include/fibre/simple_serdes.hpp ****                     return false;
 829              		.loc 3 57 37 view .LVU184
 830 00bc 3268     		ldr	r2, [r6]
  57:fibre-cpp/include/fibre/simple_serdes.hpp ****                     return false;
 831              		.loc 3 57 25 view .LVU185
 832 00be 9142     		cmp	r1, r2
 833 00c0 EFD8     		bhi	.L37
  58:fibre-cpp/include/fibre/simple_serdes.hpp ****                 uint8_t byte = static_cast<uint8_t>((value >> (i << 3)) & 0xff);
ARM GAS  /tmp/ccjyQa7a.s 			page 48


 834              		.loc 3 58 28 view .LVU186
 835 00c2 0024     		movs	r4, #0
 836              	.LVL79:
  58:fibre-cpp/include/fibre/simple_serdes.hpp ****                 uint8_t byte = static_cast<uint8_t>((value >> (i << 3)) & 0xff);
 837              		.loc 3 58 28 view .LVU187
 838              	.LBE698:
 839              	.LBE696:
 840              	.LBE695:
 841              	.LBE694:
 842              	.LBE692:
 843              	.LBE691:
 307:fibre-cpp/legacy_protocol.cpp ****     } else if (*offset >= embedded_json_length) {
 844              		.loc 1 307 66 view .LVU188
 845 00c4 E5E7     		b	.L34
 846              	.LVL80:
 847              	.L42:
 848              	.LBB699:
 849              	.LBB689:
 850              	.LBB687:
 851              	.LBB678:
 236:/opt/gcc-arm-none-eabi/arm-none-eabi/include/c++/10.3.1/bits/stl_algobase.h ****       return __a;
 852              		.loc 7 236 9 view .LVU189
 853 00c6 03AA     		add	r2, sp, #12
 854              	.LVL81:
 236:/opt/gcc-arm-none-eabi/arm-none-eabi/include/c++/10.3.1/bits/stl_algobase.h ****       return __a;
 855              		.loc 7 236 9 view .LVU190
 856 00c8 CEE7     		b	.L39
 857              	.L46:
 858 00ca 00BF     		.align	2
 859              	.L45:
 860 00cc 00000000 		.word	_ZN5fibre20embedded_json_lengthE
 861 00d0 00000000 		.word	_ZN5fibre13embedded_jsonE
 862 00d4 00000000 		.word	_ZN5fibre16json_version_id_E
 863              	.LBE678:
 864              	.LBE687:
 865              	.LBE689:
 866              	.LBE699:
 867              	.LBE702:
 868              	.LBE706:
 869              		.cfi_endproc
 870              	.LFE4603:
 871              		.cantunwind
 872              		.fnend
 874              		.section	.text._ZN5fibre25LegacyProtocolPacketBased15on_rx_tx_closedENS_12StreamStatusE,"ax",%prog
 875              		.align	1
 876              		.global	_ZN5fibre25LegacyProtocolPacketBased15on_rx_tx_closedENS_12StreamStatusE
 877              		.syntax unified
 878              		.thumb
 879              		.thumb_func
 881              	_ZN5fibre25LegacyProtocolPacketBased15on_rx_tx_closedENS_12StreamStatusE:
 882              		.fnstart
 883              	.LVL82:
 884              	.LFB4608:
 319:fibre-cpp/legacy_protocol.cpp **** 
 320:fibre-cpp/legacy_protocol.cpp **** #endif
 321:fibre-cpp/legacy_protocol.cpp **** 
 322:fibre-cpp/legacy_protocol.cpp **** void LegacyProtocolPacketBased::on_write_finished(WriteResult result) {
ARM GAS  /tmp/ccjyQa7a.s 			page 49


 323:fibre-cpp/legacy_protocol.cpp ****     tx_handle_ = 0;
 324:fibre-cpp/legacy_protocol.cpp **** 
 325:fibre-cpp/legacy_protocol.cpp ****     if (rx_status_ != kStreamOk) {
 326:fibre-cpp/legacy_protocol.cpp ****         on_rx_tx_closed(rx_status_);
 327:fibre-cpp/legacy_protocol.cpp ****         return;
 328:fibre-cpp/legacy_protocol.cpp ****     }
 329:fibre-cpp/legacy_protocol.cpp **** 
 330:fibre-cpp/legacy_protocol.cpp **** #if FIBRE_ENABLE_CLIENT
 331:fibre-cpp/legacy_protocol.cpp ****     if (transmitting_op_) {
 332:fibre-cpp/legacy_protocol.cpp ****         uint16_t seqno = transmitting_op_ & 0xffff;
 333:fibre-cpp/legacy_protocol.cpp ****         transmitting_op_ = 0;
 334:fibre-cpp/legacy_protocol.cpp **** 
 335:fibre-cpp/legacy_protocol.cpp ****         auto it = expected_acks_.find(seqno);
 336:fibre-cpp/legacy_protocol.cpp **** 
 337:fibre-cpp/legacy_protocol.cpp ****         size_t n_sent = std::max((size_t)(result.end - tx_buf_), (size_t)8) - 8;
 338:fibre-cpp/legacy_protocol.cpp ****         it->second.tx_buf = it->second.tx_buf.skip(n_sent);
 339:fibre-cpp/legacy_protocol.cpp ****         it->second.tx_done = true;
 340:fibre-cpp/legacy_protocol.cpp **** 
 341:fibre-cpp/legacy_protocol.cpp ****         if (it->second.rx_done) {
 342:fibre-cpp/legacy_protocol.cpp ****             // It's possible that the RX operation completes before the TX operation
 343:fibre-cpp/legacy_protocol.cpp ****             auto op = it->second;
 344:fibre-cpp/legacy_protocol.cpp ****             expected_acks_.erase(it);
 345:fibre-cpp/legacy_protocol.cpp ****             op.callback.invoke_and_clear({kStreamOk, op.tx_buf.begin(), op.rx_buf.begin()});
 346:fibre-cpp/legacy_protocol.cpp ****         } else if (result.status != kStreamOk) {
 347:fibre-cpp/legacy_protocol.cpp ****             // If the TX task was a remote endpoint operation but didn't succeed
 348:fibre-cpp/legacy_protocol.cpp ****             // we terminate that operation
 349:fibre-cpp/legacy_protocol.cpp ****             auto op = it->second;
 350:fibre-cpp/legacy_protocol.cpp ****             expected_acks_.erase(it);
 351:fibre-cpp/legacy_protocol.cpp ****             op.callback.invoke_and_clear({result.status, result.end, op.rx_buf.begin()});
 352:fibre-cpp/legacy_protocol.cpp ****         }
 353:fibre-cpp/legacy_protocol.cpp **** 
 354:fibre-cpp/legacy_protocol.cpp ****         if (transmitting_op_) {
 355:fibre-cpp/legacy_protocol.cpp ****             return;
 356:fibre-cpp/legacy_protocol.cpp ****         }
 357:fibre-cpp/legacy_protocol.cpp ****     }
 358:fibre-cpp/legacy_protocol.cpp **** #endif
 359:fibre-cpp/legacy_protocol.cpp **** 
 360:fibre-cpp/legacy_protocol.cpp ****     // TODO: should we prioritize the server or client side here?
 361:fibre-cpp/legacy_protocol.cpp **** 
 362:fibre-cpp/legacy_protocol.cpp **** #if FIBRE_ENABLE_SERVER
 363:fibre-cpp/legacy_protocol.cpp ****     if (rx_end_) {
 364:fibre-cpp/legacy_protocol.cpp ****         // There is a write operation pending from the server side (i.e. an ack
 365:fibre-cpp/legacy_protocol.cpp ****         // for a local endpoint operation).
 366:fibre-cpp/legacy_protocol.cpp ****         uint8_t* rx_end = rx_end_;
 367:fibre-cpp/legacy_protocol.cpp ****         rx_end_ = nullptr;
 368:fibre-cpp/legacy_protocol.cpp ****         on_read_finished({kStreamOk, rx_end});
 369:fibre-cpp/legacy_protocol.cpp **** #if FIBRE_ENABLE_CLIENT
 370:fibre-cpp/legacy_protocol.cpp ****         if (transmitting_op_) {
 371:fibre-cpp/legacy_protocol.cpp ****             return;
 372:fibre-cpp/legacy_protocol.cpp ****         }
 373:fibre-cpp/legacy_protocol.cpp **** #endif
 374:fibre-cpp/legacy_protocol.cpp ****     }
 375:fibre-cpp/legacy_protocol.cpp **** #endif
 376:fibre-cpp/legacy_protocol.cpp **** 
 377:fibre-cpp/legacy_protocol.cpp **** #if FIBRE_ENABLE_CLIENT
 378:fibre-cpp/legacy_protocol.cpp ****     if (pending_operations_.size() > 0) {
 379:fibre-cpp/legacy_protocol.cpp ****         // There is a write operation pending from the client side (i.e. an
ARM GAS  /tmp/ccjyQa7a.s 			page 50


 380:fibre-cpp/legacy_protocol.cpp ****         // outgoing remote endpoint operation).
 381:fibre-cpp/legacy_protocol.cpp ****         EndpointOperation op = pending_operations_[0];
 382:fibre-cpp/legacy_protocol.cpp ****         pending_operations_.erase(pending_operations_.begin());
 383:fibre-cpp/legacy_protocol.cpp ****         start_endpoint_operation(op);
 384:fibre-cpp/legacy_protocol.cpp ****         if (transmitting_op_) {
 385:fibre-cpp/legacy_protocol.cpp ****             return;
 386:fibre-cpp/legacy_protocol.cpp ****         }
 387:fibre-cpp/legacy_protocol.cpp ****     }
 388:fibre-cpp/legacy_protocol.cpp **** #endif
 389:fibre-cpp/legacy_protocol.cpp **** }
 390:fibre-cpp/legacy_protocol.cpp **** 
 391:fibre-cpp/legacy_protocol.cpp **** void LegacyProtocolPacketBased::on_read_finished(ReadResult result) {
 392:fibre-cpp/legacy_protocol.cpp ****     TransferHandle dummy;
 393:fibre-cpp/legacy_protocol.cpp **** 
 394:fibre-cpp/legacy_protocol.cpp ****     if (result.status == kStreamClosed) {
 395:fibre-cpp/legacy_protocol.cpp ****         FIBRE_LOG(D) << "RX stream closed.";
 396:fibre-cpp/legacy_protocol.cpp ****         on_rx_closed(kStreamClosed);
 397:fibre-cpp/legacy_protocol.cpp ****         return;
 398:fibre-cpp/legacy_protocol.cpp ****     } else if (result.status == kStreamCancelled) {
 399:fibre-cpp/legacy_protocol.cpp ****         FIBRE_LOG(W) << "RX operation cancelled.";
 400:fibre-cpp/legacy_protocol.cpp ****         on_rx_closed(kStreamCancelled);
 401:fibre-cpp/legacy_protocol.cpp ****         return;
 402:fibre-cpp/legacy_protocol.cpp ****     } else if (result.status != kStreamOk) {
 403:fibre-cpp/legacy_protocol.cpp ****         FIBRE_LOG(W) << "RX error. Not restarting.";
 404:fibre-cpp/legacy_protocol.cpp ****         // TODO: we should distinguish between permanent and temporary errors.
 405:fibre-cpp/legacy_protocol.cpp ****         // If we try to restart after a permanent error we might end up in a
 406:fibre-cpp/legacy_protocol.cpp ****         // busy loop.
 407:fibre-cpp/legacy_protocol.cpp ****         on_rx_closed(kStreamError);
 408:fibre-cpp/legacy_protocol.cpp ****         return;
 409:fibre-cpp/legacy_protocol.cpp ****     }
 410:fibre-cpp/legacy_protocol.cpp **** 
 411:fibre-cpp/legacy_protocol.cpp ****     cbufptr_t rx_buf = cbufptr_t{rx_buf_, result.end};
 412:fibre-cpp/legacy_protocol.cpp ****     //FIBRE_LOG(D) << "got packet of length " << (result.end - rx_buf_) /*<< ": " << as_hex(rx_buf)
 413:fibre-cpp/legacy_protocol.cpp **** 
 414:fibre-cpp/legacy_protocol.cpp ****     std::optional<uint16_t> seq_no = read_le<uint16_t>(&rx_buf);
 415:fibre-cpp/legacy_protocol.cpp **** 
 416:fibre-cpp/legacy_protocol.cpp ****     if (!seq_no.has_value()) {
 417:fibre-cpp/legacy_protocol.cpp ****         FIBRE_LOG(W) << "packet too short";
 418:fibre-cpp/legacy_protocol.cpp **** 
 419:fibre-cpp/legacy_protocol.cpp ****     } else if (*seq_no & 0x8000) {
 420:fibre-cpp/legacy_protocol.cpp **** 
 421:fibre-cpp/legacy_protocol.cpp **** #if FIBRE_ENABLE_CLIENT
 422:fibre-cpp/legacy_protocol.cpp ****         
 423:fibre-cpp/legacy_protocol.cpp ****         auto it = expected_acks_.find(*seq_no & 0x7fff);
 424:fibre-cpp/legacy_protocol.cpp **** 
 425:fibre-cpp/legacy_protocol.cpp ****         if (it == expected_acks_.end()) {
 426:fibre-cpp/legacy_protocol.cpp ****             FIBRE_LOG(W) << "received unexpected ACK: " << (*seq_no & 0x7fff);
 427:fibre-cpp/legacy_protocol.cpp ****         } else {
 428:fibre-cpp/legacy_protocol.cpp ****             size_t n_copy = std::min((size_t)(result.end - rx_buf.begin()), it->second.rx_buf.size(
 429:fibre-cpp/legacy_protocol.cpp ****             memcpy(it->second.rx_buf.begin(), rx_buf.begin(), n_copy);
 430:fibre-cpp/legacy_protocol.cpp ****             it->second.rx_buf = it->second.rx_buf.skip(n_copy);
 431:fibre-cpp/legacy_protocol.cpp ****             it->second.rx_done = true;
 432:fibre-cpp/legacy_protocol.cpp ****             FIBRE_LOG(T) << "received ACK: " << (*seq_no & 0x7fff);
 433:fibre-cpp/legacy_protocol.cpp **** 
 434:fibre-cpp/legacy_protocol.cpp ****             // It's possible that the RX operation completes before the TX operation
 435:fibre-cpp/legacy_protocol.cpp ****             if (it->second.tx_done) {
 436:fibre-cpp/legacy_protocol.cpp ****                 auto op = it->second;
ARM GAS  /tmp/ccjyQa7a.s 			page 51


 437:fibre-cpp/legacy_protocol.cpp ****                 expected_acks_.erase(it);
 438:fibre-cpp/legacy_protocol.cpp ****                 op.callback.invoke_and_clear({kStreamOk, op.tx_buf.begin(), op.rx_buf.begin()});
 439:fibre-cpp/legacy_protocol.cpp ****             }
 440:fibre-cpp/legacy_protocol.cpp ****         }
 441:fibre-cpp/legacy_protocol.cpp **** 
 442:fibre-cpp/legacy_protocol.cpp **** #else
 443:fibre-cpp/legacy_protocol.cpp ****         FIBRE_LOG(W) << "received ack but client support is not compiled in";
 444:fibre-cpp/legacy_protocol.cpp **** #endif
 445:fibre-cpp/legacy_protocol.cpp **** 
 446:fibre-cpp/legacy_protocol.cpp ****     } else {
 447:fibre-cpp/legacy_protocol.cpp **** 
 448:fibre-cpp/legacy_protocol.cpp **** #if FIBRE_ENABLE_SERVER
 449:fibre-cpp/legacy_protocol.cpp ****         if (rx_buf.size() < 6) {
 450:fibre-cpp/legacy_protocol.cpp ****             FIBRE_LOG(W) << "packet too short";
 451:fibre-cpp/legacy_protocol.cpp ****             rx_channel_->start_read(rx_buf_, &dummy, MEMBER_CB(this, on_read_finished));
 452:fibre-cpp/legacy_protocol.cpp ****             return;
 453:fibre-cpp/legacy_protocol.cpp ****         }
 454:fibre-cpp/legacy_protocol.cpp **** 
 455:fibre-cpp/legacy_protocol.cpp ****         // TODO: think about some kind of ordering guarantees
 456:fibre-cpp/legacy_protocol.cpp ****         // currently the seq_no is just used to associate a response with a request
 457:fibre-cpp/legacy_protocol.cpp **** 
 458:fibre-cpp/legacy_protocol.cpp ****         uint16_t endpoint_id = *read_le<uint16_t>(&rx_buf);
 459:fibre-cpp/legacy_protocol.cpp ****         bool expect_response = endpoint_id & 0x8000;
 460:fibre-cpp/legacy_protocol.cpp ****         endpoint_id &= 0x7fff;
 461:fibre-cpp/legacy_protocol.cpp **** 
 462:fibre-cpp/legacy_protocol.cpp ****         if (expect_response && tx_handle_) {
 463:fibre-cpp/legacy_protocol.cpp ****             // The operation expects a response but the output channel is still
 464:fibre-cpp/legacy_protocol.cpp ****             // busy. Stop receiving for now. This function will be invoked again
 465:fibre-cpp/legacy_protocol.cpp ****             // once the TX operation is finished.
 466:fibre-cpp/legacy_protocol.cpp ****             rx_end_ = result.end;
 467:fibre-cpp/legacy_protocol.cpp ****             return;
 468:fibre-cpp/legacy_protocol.cpp ****         }
 469:fibre-cpp/legacy_protocol.cpp **** 
 470:fibre-cpp/legacy_protocol.cpp ****         // Verify packet trailer. The expected trailer value depends on the selected endpoint.
 471:fibre-cpp/legacy_protocol.cpp ****         // For endpoint 0 this is just the protocol version, for all other endpoints it's a
 472:fibre-cpp/legacy_protocol.cpp ****         // CRC over the entire JSON descriptor tree (this may change in future versions).
 473:fibre-cpp/legacy_protocol.cpp ****         uint16_t expected_trailer = endpoint_id ? fibre::json_crc_ : PROTOCOL_VERSION;
 474:fibre-cpp/legacy_protocol.cpp ****         uint16_t actual_trailer = *(rx_buf.end() - 2) | (*(rx_buf.end() - 1) << 8);
 475:fibre-cpp/legacy_protocol.cpp ****         if (expected_trailer != actual_trailer) {
 476:fibre-cpp/legacy_protocol.cpp ****             FIBRE_LOG(D) << "trailer mismatch for endpoint " << endpoint_id << ": expected " << as_
 477:fibre-cpp/legacy_protocol.cpp ****             rx_channel_->start_read(rx_buf_, &dummy, MEMBER_CB(this, on_read_finished));
 478:fibre-cpp/legacy_protocol.cpp ****             return;
 479:fibre-cpp/legacy_protocol.cpp ****         }
 480:fibre-cpp/legacy_protocol.cpp ****         FIBRE_LOG(D) << "trailer ok for endpoint " << endpoint_id;
 481:fibre-cpp/legacy_protocol.cpp **** 
 482:fibre-cpp/legacy_protocol.cpp ****         // TODO: if more bytes than the MTU were requested, should we abort or just return as much 
 483:fibre-cpp/legacy_protocol.cpp **** 
 484:fibre-cpp/legacy_protocol.cpp ****         uint16_t expected_response_length = *read_le<uint16_t>(&rx_buf);
 485:fibre-cpp/legacy_protocol.cpp **** 
 486:fibre-cpp/legacy_protocol.cpp ****         // Limit response length according to our local TX buffer size
 487:fibre-cpp/legacy_protocol.cpp ****         if (expected_response_length > tx_mtu_ - 2)
 488:fibre-cpp/legacy_protocol.cpp ****             expected_response_length = tx_mtu_ - 2;
 489:fibre-cpp/legacy_protocol.cpp **** 
 490:fibre-cpp/legacy_protocol.cpp ****         fibre::cbufptr_t input_buffer{rx_buf.begin(), rx_buf.end() - 2};
 491:fibre-cpp/legacy_protocol.cpp ****         fibre::bufptr_t output_buffer{tx_buf_ + 2, expected_response_length};
 492:fibre-cpp/legacy_protocol.cpp ****         fibre::endpoint_handler(endpoint_id, &input_buffer, &output_buffer);
 493:fibre-cpp/legacy_protocol.cpp **** 
ARM GAS  /tmp/ccjyQa7a.s 			page 52


 494:fibre-cpp/legacy_protocol.cpp ****         // Send response
 495:fibre-cpp/legacy_protocol.cpp ****         if (expect_response) {
 496:fibre-cpp/legacy_protocol.cpp ****             size_t actual_response_length = expected_response_length - output_buffer.size() + 2;
 497:fibre-cpp/legacy_protocol.cpp ****             write_le<uint16_t>(*seq_no | 0x8000, tx_buf_);
 498:fibre-cpp/legacy_protocol.cpp **** 
 499:fibre-cpp/legacy_protocol.cpp ****             FIBRE_LOG(D) << "send packet: " << as_hex(cbufptr_t{tx_buf_, actual_response_length});
 500:fibre-cpp/legacy_protocol.cpp ****             tx_channel_->start_write({tx_buf_, actual_response_length}, &tx_handle_, MEMBER_CB(this
 501:fibre-cpp/legacy_protocol.cpp ****         }
 502:fibre-cpp/legacy_protocol.cpp **** #else
 503:fibre-cpp/legacy_protocol.cpp ****         FIBRE_LOG(W) << "received request but server support is not compiled in";
 504:fibre-cpp/legacy_protocol.cpp **** #endif
 505:fibre-cpp/legacy_protocol.cpp ****     }
 506:fibre-cpp/legacy_protocol.cpp **** 
 507:fibre-cpp/legacy_protocol.cpp ****     rx_channel_->start_read(rx_buf_, &dummy, MEMBER_CB(this, on_read_finished));
 508:fibre-cpp/legacy_protocol.cpp **** }
 509:fibre-cpp/legacy_protocol.cpp **** 
 510:fibre-cpp/legacy_protocol.cpp **** void LegacyProtocolPacketBased::on_rx_closed(StreamStatus status) {
 511:fibre-cpp/legacy_protocol.cpp ****     if (tx_handle_) {
 512:fibre-cpp/legacy_protocol.cpp ****         // TX operation still in progress - cancel TX operation and defer closing
 513:fibre-cpp/legacy_protocol.cpp ****         // the protocol instance until the TX operation has finished.
 514:fibre-cpp/legacy_protocol.cpp ****         rx_status_ = status;
 515:fibre-cpp/legacy_protocol.cpp ****         tx_channel_->cancel_write(tx_handle_);
 516:fibre-cpp/legacy_protocol.cpp ****     } else {
 517:fibre-cpp/legacy_protocol.cpp ****         // No TX operation in progress - close protocol instance immediately.
 518:fibre-cpp/legacy_protocol.cpp ****         on_rx_tx_closed(status);
 519:fibre-cpp/legacy_protocol.cpp ****     }
 520:fibre-cpp/legacy_protocol.cpp **** }
 521:fibre-cpp/legacy_protocol.cpp **** 
 522:fibre-cpp/legacy_protocol.cpp **** void LegacyProtocolPacketBased::on_rx_tx_closed(StreamStatus status) {
 885              		.loc 1 522 70 is_stmt 1 view -0
 886              		.cfi_startproc
 887              		@ args = 0, pretend = 0, frame = 0
 888              		@ frame_needed = 0, uses_anonymous_args = 0
 889              		.loc 1 522 70 is_stmt 0 view .LVU192
 890 0000 10B5     		push	{r4, lr}
 891              		.save {r4, lr}
 892              	.LCFI10:
 893              		.cfi_def_cfa_offset 8
 894              		.cfi_offset 4, -8
 895              		.cfi_offset 14, -4
 896 0002 0346     		mov	r3, r0
 897 0004 0A46     		mov	r2, r1
 523:fibre-cpp/legacy_protocol.cpp ****     if (status == kStreamClosed || status == kStreamCancelled) {
 898              		.loc 1 523 5 is_stmt 1 view .LVU193
 899              		.loc 1 523 33 is_stmt 0 view .LVU194
 900 0006 0139     		subs	r1, r1, #1
 901              	.LVL83:
 902              		.loc 1 523 33 view .LVU195
 903 0008 C9B2     		uxtb	r1, r1
 904              		.loc 1 523 5 view .LVU196
 905 000a 0129     		cmp	r1, #1
 906 000c 0CD9     		bls	.L52
 907              	.L48:
 908              	.LVL84:
 524:fibre-cpp/legacy_protocol.cpp ****         // TODO: handle app-initiated cancellation via cancel_endpoint_operation() (currently unuse
 525:fibre-cpp/legacy_protocol.cpp ****         status = kStreamError;
 526:fibre-cpp/legacy_protocol.cpp ****     }
ARM GAS  /tmp/ccjyQa7a.s 			page 53


 527:fibre-cpp/legacy_protocol.cpp **** 
 528:fibre-cpp/legacy_protocol.cpp **** #if FIBRE_ENABLE_CLIENT
 529:fibre-cpp/legacy_protocol.cpp ****     // Cancel pending endpoint operation
 530:fibre-cpp/legacy_protocol.cpp ****     for (auto& op: pending_operations_) {
 531:fibre-cpp/legacy_protocol.cpp ****         op.callback.invoke_and_clear({status, op.tx_buf.begin(), op.rx_buf.begin()});
 532:fibre-cpp/legacy_protocol.cpp ****     }
 533:fibre-cpp/legacy_protocol.cpp ****     pending_operations_.clear();
 534:fibre-cpp/legacy_protocol.cpp **** 
 535:fibre-cpp/legacy_protocol.cpp ****     // Cancel all ongoing endpoint operations
 536:fibre-cpp/legacy_protocol.cpp ****     for (auto& item: expected_acks_) {
 537:fibre-cpp/legacy_protocol.cpp ****         if (item.second.callback) {
 538:fibre-cpp/legacy_protocol.cpp ****             item.second.callback.invoke_and_clear({status, item.second.tx_buf.begin(), item.second.
 539:fibre-cpp/legacy_protocol.cpp ****         }
 540:fibre-cpp/legacy_protocol.cpp ****     }
 541:fibre-cpp/legacy_protocol.cpp ****     expected_acks_.clear();
 542:fibre-cpp/legacy_protocol.cpp **** 
 543:fibre-cpp/legacy_protocol.cpp ****     // Report that the root object was lost
 544:fibre-cpp/legacy_protocol.cpp ****     if (client_.on_lost_root_object_ && client_.root_obj_) {
 545:fibre-cpp/legacy_protocol.cpp ****         auto root_obj = client_.root_obj_;
 546:fibre-cpp/legacy_protocol.cpp ****         client_.root_obj_ = nullptr;
 547:fibre-cpp/legacy_protocol.cpp ****         client_.on_lost_root_object_.invoke(&client_, root_obj);
 548:fibre-cpp/legacy_protocol.cpp ****     }
 549:fibre-cpp/legacy_protocol.cpp **** #endif
 550:fibre-cpp/legacy_protocol.cpp ****     on_stopped_.invoke_and_clear(this, status);
 909              		.loc 1 550 5 is_stmt 1 view .LVU197
 910              	.LBB707:
 911              	.LBI707:
 912              		.file 8 "fibre-cpp/include/fibre/callback.hpp"
   1:fibre-cpp/include/fibre/callback.hpp **** #ifndef __CALLBACK_HPP
   2:fibre-cpp/include/fibre/callback.hpp **** #define __CALLBACK_HPP
   3:fibre-cpp/include/fibre/callback.hpp **** 
   4:fibre-cpp/include/fibre/callback.hpp **** #include <stdlib.h>
   5:fibre-cpp/include/fibre/callback.hpp **** #include <typeinfo>
   6:fibre-cpp/include/fibre/callback.hpp **** #include <tuple>
   7:fibre-cpp/include/fibre/callback.hpp **** #include <functional>
   8:fibre-cpp/include/fibre/callback.hpp **** #include <type_traits>
   9:fibre-cpp/include/fibre/callback.hpp **** 
  10:fibre-cpp/include/fibre/callback.hpp **** namespace fibre {
  11:fibre-cpp/include/fibre/callback.hpp **** 
  12:fibre-cpp/include/fibre/callback.hpp **** namespace detail {
  13:fibre-cpp/include/fibre/callback.hpp **** template<typename T> struct get_default { static T val() { return {}; } };
  14:fibre-cpp/include/fibre/callback.hpp **** template<> struct get_default<void> { static void val() {} };
  15:fibre-cpp/include/fibre/callback.hpp **** }
  16:fibre-cpp/include/fibre/callback.hpp **** 
  17:fibre-cpp/include/fibre/callback.hpp **** template<typename TRet, typename ... TArgs>
  18:fibre-cpp/include/fibre/callback.hpp **** class Callback {
  19:fibre-cpp/include/fibre/callback.hpp **** public:
  20:fibre-cpp/include/fibre/callback.hpp ****     Callback() : cb_(nullptr), ctx_(nullptr) {}
  21:fibre-cpp/include/fibre/callback.hpp ****     Callback(std::nullptr_t) : cb_(nullptr), ctx_(nullptr) {}
  22:fibre-cpp/include/fibre/callback.hpp ****     Callback(TRet(*callback)(void*, TArgs...), void* ctx) :
  23:fibre-cpp/include/fibre/callback.hpp ****         cb_(callback), ctx_(ctx) {}
  24:fibre-cpp/include/fibre/callback.hpp **** 
  25:fibre-cpp/include/fibre/callback.hpp ****     /**
  26:fibre-cpp/include/fibre/callback.hpp ****      * @brief Creates a copy of another Callback instance.
  27:fibre-cpp/include/fibre/callback.hpp ****      * 
  28:fibre-cpp/include/fibre/callback.hpp ****      * This is only works it the other callback has identical template parameters.
  29:fibre-cpp/include/fibre/callback.hpp ****      * This constructor is templated so that construction from an incompatible
ARM GAS  /tmp/ccjyQa7a.s 			page 54


  30:fibre-cpp/include/fibre/callback.hpp ****      * callback gives a useful error message.
  31:fibre-cpp/include/fibre/callback.hpp ****      */
  32:fibre-cpp/include/fibre/callback.hpp ****     //template<typename TRetOther, typename ... TArgsOther>
  33:fibre-cpp/include/fibre/callback.hpp ****     //Callback(const Callback<TRetOther, TArgsOther...>& other) : cb_(other.cb_), ctx_(other.ctx_) 
  34:fibre-cpp/include/fibre/callback.hpp ****     //    static_assert(std::is_same<Callback<TRetOther, TArgsOther...>, Callback>::value, "incompa
  35:fibre-cpp/include/fibre/callback.hpp ****     //}
  36:fibre-cpp/include/fibre/callback.hpp **** 
  37:fibre-cpp/include/fibre/callback.hpp ****     Callback(const Callback& other) : cb_(other.cb_), ctx_(other.ctx_) {}
  38:fibre-cpp/include/fibre/callback.hpp **** 
  39:fibre-cpp/include/fibre/callback.hpp ****     // If you get a compile error "[...] invokes a deleted function" that points
  40:fibre-cpp/include/fibre/callback.hpp ****     // here then you're probably trying to assign a Callback with incompatible
  41:fibre-cpp/include/fibre/callback.hpp ****     // template arguments to another Callback.
  42:fibre-cpp/include/fibre/callback.hpp ****     template<typename TRetOther, typename ... TArgsOther>
  43:fibre-cpp/include/fibre/callback.hpp ****     Callback(const Callback<TRetOther, TArgsOther...>& other) = delete;
  44:fibre-cpp/include/fibre/callback.hpp **** 
  45:fibre-cpp/include/fibre/callback.hpp ****     /**
  46:fibre-cpp/include/fibre/callback.hpp ****      * @brief Constructs a callback object from a functor. The functor must
  47:fibre-cpp/include/fibre/callback.hpp ****      * remain allocated throughout the lifetime of the Callback.
  48:fibre-cpp/include/fibre/callback.hpp ****      */
  49:fibre-cpp/include/fibre/callback.hpp ****     template<typename TFunc>
  50:fibre-cpp/include/fibre/callback.hpp ****     Callback(const TFunc& func) :
  51:fibre-cpp/include/fibre/callback.hpp ****         cb_([](void* ctx, TArgs...args){
  52:fibre-cpp/include/fibre/callback.hpp ****             return (*(const TFunc*)ctx)(args...);
  53:fibre-cpp/include/fibre/callback.hpp ****         }), ctx_((void*)&func) {}
  54:fibre-cpp/include/fibre/callback.hpp **** 
  55:fibre-cpp/include/fibre/callback.hpp ****     operator bool() {
  56:fibre-cpp/include/fibre/callback.hpp ****         return cb_;
  57:fibre-cpp/include/fibre/callback.hpp ****     }
  58:fibre-cpp/include/fibre/callback.hpp ****     
  59:fibre-cpp/include/fibre/callback.hpp ****     TRet invoke(TArgs ... arg) const {
  60:fibre-cpp/include/fibre/callback.hpp ****         if (cb_) {
  61:fibre-cpp/include/fibre/callback.hpp ****             return (*cb_)(ctx_, arg...);
  62:fibre-cpp/include/fibre/callback.hpp ****         }
  63:fibre-cpp/include/fibre/callback.hpp ****         return detail::get_default<TRet>::val();
  64:fibre-cpp/include/fibre/callback.hpp ****     }
  65:fibre-cpp/include/fibre/callback.hpp **** 
  66:fibre-cpp/include/fibre/callback.hpp ****     TRet invoke_and_clear(TArgs ... arg) {
 913              		.loc 8 66 10 view .LVU198
 914              	.LBB708:
  67:fibre-cpp/include/fibre/callback.hpp ****         void* ctx = ctx_;
 915              		.loc 8 67 15 is_stmt 0 view .LVU199
 916 000e D3F81C01 		ldr	r0, [r3, #284]
 917              	.LVL85:
  68:fibre-cpp/include/fibre/callback.hpp ****         auto cb = cb_;
 918              		.loc 8 68 14 view .LVU200
 919 0012 D3F81841 		ldr	r4, [r3, #280]
 920              	.LVL86:
  69:fibre-cpp/include/fibre/callback.hpp ****         ctx_ = nullptr;
 921              		.loc 8 69 14 view .LVU201
 922 0016 0021     		movs	r1, #0
 923 0018 C3F81C11 		str	r1, [r3, #284]
  70:fibre-cpp/include/fibre/callback.hpp ****         cb_ = nullptr;
 924              		.loc 8 70 13 view .LVU202
 925 001c C3F81811 		str	r1, [r3, #280]
  71:fibre-cpp/include/fibre/callback.hpp ****         if (cb) {
 926              		.loc 8 71 9 view .LVU203
 927 0020 0CB1     		cbz	r4, .L47
ARM GAS  /tmp/ccjyQa7a.s 			page 55


  72:fibre-cpp/include/fibre/callback.hpp ****             return (*cb)(ctx, arg...);
 928              		.loc 8 72 25 view .LVU204
 929 0022 1946     		mov	r1, r3
 930 0024 A047     		blx	r4
 931              	.LVL87:
 932              	.L47:
 933              		.loc 8 72 25 view .LVU205
 934              	.LBE708:
 935              	.LBE707:
 551:fibre-cpp/legacy_protocol.cpp **** }
 936              		.loc 1 551 1 view .LVU206
 937 0026 10BD     		pop	{r4, pc}
 938              	.LVL88:
 939              	.L52:
 525:fibre-cpp/legacy_protocol.cpp ****     }
 940              		.loc 1 525 16 view .LVU207
 941 0028 0322     		movs	r2, #3
 942 002a F0E7     		b	.L48
 943              		.cfi_endproc
 944              	.LFE4608:
 945              		.fnend
 947              		.section	.text._ZN5fibre25LegacyProtocolPacketBased12on_rx_closedENS_12StreamStatusE,"ax",%progbit
 948              		.align	1
 949              		.global	_ZN5fibre25LegacyProtocolPacketBased12on_rx_closedENS_12StreamStatusE
 950              		.syntax unified
 951              		.thumb
 952              		.thumb_func
 954              	_ZN5fibre25LegacyProtocolPacketBased12on_rx_closedENS_12StreamStatusE:
 955              		.fnstart
 956              	.LVL89:
 957              	.LFB4607:
 510:fibre-cpp/legacy_protocol.cpp ****     if (tx_handle_) {
 958              		.loc 1 510 67 is_stmt 1 view -0
 959              		.cfi_startproc
 960              		@ args = 0, pretend = 0, frame = 0
 961              		@ frame_needed = 0, uses_anonymous_args = 0
 510:fibre-cpp/legacy_protocol.cpp ****     if (tx_handle_) {
 962              		.loc 1 510 67 is_stmt 0 view .LVU209
 963 0000 08B5     		push	{r3, lr}
 964              		.save {r3, lr}
 965              	.LCFI11:
 966              		.cfi_def_cfa_offset 8
 967              		.cfi_offset 3, -8
 968              		.cfi_offset 14, -4
 969 0002 0B46     		mov	r3, r1
 511:fibre-cpp/legacy_protocol.cpp ****         // TX operation still in progress - cancel TX operation and defer closing
 970              		.loc 1 511 5 is_stmt 1 view .LVU210
 511:fibre-cpp/legacy_protocol.cpp ****         // TX operation still in progress - cancel TX operation and defer closing
 971              		.loc 1 511 9 is_stmt 0 view .LVU211
 972 0004 D0F80C11 		ldr	r1, [r0, #268]
 973              	.LVL90:
 511:fibre-cpp/legacy_protocol.cpp ****         // TX operation still in progress - cancel TX operation and defer closing
 974              		.loc 1 511 5 view .LVU212
 975 0008 31B1     		cbz	r1, .L54
 514:fibre-cpp/legacy_protocol.cpp ****         tx_channel_->cancel_write(tx_handle_);
 976              		.loc 1 514 9 is_stmt 1 view .LVU213
 514:fibre-cpp/legacy_protocol.cpp ****         tx_channel_->cancel_write(tx_handle_);
ARM GAS  /tmp/ccjyQa7a.s 			page 56


 977              		.loc 1 514 20 is_stmt 0 view .LVU214
 978 000a 80F81431 		strb	r3, [r0, #276]
 515:fibre-cpp/legacy_protocol.cpp ****     } else {
 979              		.loc 1 515 9 is_stmt 1 view .LVU215
 980 000e 4068     		ldr	r0, [r0, #4]
 981              	.LVL91:
 515:fibre-cpp/legacy_protocol.cpp ****     } else {
 982              		.loc 1 515 45 is_stmt 0 view .LVU216
 983 0010 0368     		ldr	r3, [r0]
 984 0012 5B68     		ldr	r3, [r3, #4]
 515:fibre-cpp/legacy_protocol.cpp ****     } else {
 985              		.loc 1 515 34 view .LVU217
 986 0014 9847     		blx	r3
 987              	.LVL92:
 988              	.L53:
 520:fibre-cpp/legacy_protocol.cpp **** 
 989              		.loc 1 520 1 view .LVU218
 990 0016 08BD     		pop	{r3, pc}
 991              	.LVL93:
 992              	.L54:
 518:fibre-cpp/legacy_protocol.cpp ****     }
 993              		.loc 1 518 9 is_stmt 1 view .LVU219
 518:fibre-cpp/legacy_protocol.cpp ****     }
 994              		.loc 1 518 24 is_stmt 0 view .LVU220
 995 0018 1946     		mov	r1, r3
 996 001a FFF7FEFF 		bl	_ZN5fibre25LegacyProtocolPacketBased15on_rx_tx_closedENS_12StreamStatusE
 997              	.LVL94:
 520:fibre-cpp/legacy_protocol.cpp **** 
 998              		.loc 1 520 1 view .LVU221
 999 001e FAE7     		b	.L53
 1000              		.cfi_endproc
 1001              	.LFE4607:
 1002              		.fnend
 1004              		.section	.text._ZN5fibre13make_callbackIMNS_13PacketWrapperEFvNS_11WriteResultEEXadL_ZNS1_8complet
 1005              		.align	1
 1006              		.weak	_ZN5fibre13make_callbackIMNS_13PacketWrapperEFvNS_11WriteResultEEXadL_ZNS1_8completeES2_EENS
 1007              		.syntax unified
 1008              		.thumb
 1009              		.thumb_func
 1011              	_ZN5fibre13make_callbackIMNS_13PacketWrapperEFvNS_11WriteResultEEXadL_ZNS1_8completeES2_EENS_15func
 1012              		.fnstart
 1013              	.LVL95:
 1014              	.LFB5010:
  73:fibre-cpp/include/fibre/callback.hpp ****         }
  74:fibre-cpp/include/fibre/callback.hpp ****         return detail::get_default<TRet>::val();
  75:fibre-cpp/include/fibre/callback.hpp ****     }
  76:fibre-cpp/include/fibre/callback.hpp **** 
  77:fibre-cpp/include/fibre/callback.hpp ****     typedef TRet(*cb_t)(void*, TArgs...);
  78:fibre-cpp/include/fibre/callback.hpp ****     cb_t get_ptr() { return cb_; }
  79:fibre-cpp/include/fibre/callback.hpp ****     void* get_ctx() { return ctx_; }
  80:fibre-cpp/include/fibre/callback.hpp **** 
  81:fibre-cpp/include/fibre/callback.hpp **** private:
  82:fibre-cpp/include/fibre/callback.hpp ****     TRet(*cb_)(void*, TArgs...);
  83:fibre-cpp/include/fibre/callback.hpp ****     void* ctx_;
  84:fibre-cpp/include/fibre/callback.hpp **** };
  85:fibre-cpp/include/fibre/callback.hpp **** 
  86:fibre-cpp/include/fibre/callback.hpp **** template<typename _TRet, typename _TObj, typename ... _TArgs>
ARM GAS  /tmp/ccjyQa7a.s 			page 57


  87:fibre-cpp/include/fibre/callback.hpp **** struct function_traits {
  88:fibre-cpp/include/fibre/callback.hpp ****     using TRet = _TRet;
  89:fibre-cpp/include/fibre/callback.hpp ****     using TArgs = std::tuple<_TArgs...>;
  90:fibre-cpp/include/fibre/callback.hpp ****     using TObj = _TObj;
  91:fibre-cpp/include/fibre/callback.hpp **** };
  92:fibre-cpp/include/fibre/callback.hpp **** 
  93:fibre-cpp/include/fibre/callback.hpp **** template<typename _TRet, typename _TObj, typename ... _TArgs>
  94:fibre-cpp/include/fibre/callback.hpp **** function_traits<_TRet, _TObj, _TArgs...> make_function_traits(_TRet (_TObj::*)(_TArgs...)) {
  95:fibre-cpp/include/fibre/callback.hpp ****     return {};
  96:fibre-cpp/include/fibre/callback.hpp **** }
  97:fibre-cpp/include/fibre/callback.hpp **** 
  98:fibre-cpp/include/fibre/callback.hpp **** template<typename T1, T1 T2, typename T3, typename T4, typename T5>
  99:fibre-cpp/include/fibre/callback.hpp **** struct MemberCallback;
 100:fibre-cpp/include/fibre/callback.hpp **** 
 101:fibre-cpp/include/fibre/callback.hpp **** template<typename T, T func, typename TObj, typename TRes, typename ... TArgs>
 102:fibre-cpp/include/fibre/callback.hpp **** struct MemberCallback<T, func, TObj, TRes, std::tuple<TArgs...>> {
 103:fibre-cpp/include/fibre/callback.hpp ****     using cb_t = Callback<TRes, TArgs...>;
 104:fibre-cpp/include/fibre/callback.hpp ****     static cb_t with(TObj* obj) {
 105:fibre-cpp/include/fibre/callback.hpp ****         return cb_t{[](void* obj, TArgs... arg) {
 106:fibre-cpp/include/fibre/callback.hpp ****             return (((TObj*)obj)->*func)(arg...);
 107:fibre-cpp/include/fibre/callback.hpp ****         }, obj};
 108:fibre-cpp/include/fibre/callback.hpp ****     }
 109:fibre-cpp/include/fibre/callback.hpp **** };
 110:fibre-cpp/include/fibre/callback.hpp **** 
 111:fibre-cpp/include/fibre/callback.hpp **** template<typename T, T func,
 112:fibre-cpp/include/fibre/callback.hpp ****          typename TTraits = decltype(make_function_traits(func)),
 113:fibre-cpp/include/fibre/callback.hpp ****          typename MemCb = MemberCallback<T, func, typename TTraits::TObj, typename TTraits::TRet, t
 114:fibre-cpp/include/fibre/callback.hpp **** typename MemCb::cb_t make_callback(typename TTraits::TObj* obj) {
 1015              		.loc 8 114 22 is_stmt 1 view -0
 1016              		.cfi_startproc
 1017              		@ args = 0, pretend = 0, frame = 0
 1018              		@ frame_needed = 0, uses_anonymous_args = 0
 1019              		@ link register save eliminated.
 1020              	.LBB709:
 1021              	.LBI709:
 104:fibre-cpp/include/fibre/callback.hpp ****         return cb_t{[](void* obj, TArgs... arg) {
 1022              		.loc 8 104 17 view .LVU223
 1023              	.LBB710:
 1024              	.LBB711:
 1025              	.LBI711:
  22:fibre-cpp/include/fibre/callback.hpp ****         cb_(callback), ctx_(ctx) {}
 1026              		.loc 8 22 5 view .LVU224
 1027              	.LBB712:
  23:fibre-cpp/include/fibre/callback.hpp **** 
 1028              		.loc 8 23 32 is_stmt 0 view .LVU225
 1029 0000 014A     		ldr	r2, .L58
 1030 0002 0260     		str	r2, [r0]
 1031 0004 4160     		str	r1, [r0, #4]
 1032              	.LVL96:
  23:fibre-cpp/include/fibre/callback.hpp **** 
 1033              		.loc 8 23 32 view .LVU226
 1034              	.LBE712:
 1035              	.LBE711:
 1036              	.LBE710:
 1037              	.LBE709:
