ARM GAS  /tmp/ccxBL0ey.s 			page 1


   1              		.cpu cortex-m4
   2              		.arch armv7e-m
   3              		.fpu fpv4-sp-d16
   4              		.eabi_attribute 27, 1
   5              		.eabi_attribute 28, 1
   6              		.eabi_attribute 20, 1
   7              		.eabi_attribute 21, 1
   8              		.eabi_attribute 23, 3
   9              		.eabi_attribute 24, 1
  10              		.eabi_attribute 25, 1
  11              		.eabi_attribute 26, 1
  12              		.eabi_attribute 30, 1
  13              		.eabi_attribute 34, 1
  14              		.eabi_attribute 18, 4
  15              		.file	"low_level.cpp"
  16              		.section	.rodata.str1.4,"aMS",%progbits,1
  17              		.align	2
  18              	.LC0:
  19 0000 616E616C 		.ascii	"analog_thread_def\000"
  19      6F675F74 
  19      68726561 
  19      645F6465 
  19      6600
  20              		.text
  21              	.Ltext0:
  22              		.cfi_sections	.debug_frame
  23              		.section	.text._ZL8get_gpioj,"ax",%progbits
  24              		.align	1
  25              		.syntax unified
  26              		.thumb
  27              		.thumb_func
  29              	_ZL8get_gpioj:
  30              		.fnstart
  31              	.LVL0:
  32              	.LFB5151:
  33              		.file 1 "MotorControl/odrive_main.h"
   1:MotorControl/odrive_main.h **** #ifndef __ODRIVE_MAIN_H
   2:MotorControl/odrive_main.h **** #define __ODRIVE_MAIN_H
   3:MotorControl/odrive_main.h **** 
   4:MotorControl/odrive_main.h **** // Hardware configuration
   5:MotorControl/odrive_main.h **** #include <board.h>
   6:MotorControl/odrive_main.h **** 
   7:MotorControl/odrive_main.h **** #ifdef __cplusplus
   8:MotorControl/odrive_main.h **** #include <communication/interface_usb.h>
   9:MotorControl/odrive_main.h **** #include <communication/interface_i2c.h>
  10:MotorControl/odrive_main.h **** #include <communication/interface_uart.h>
  11:MotorControl/odrive_main.h **** #include <task_timer.hpp>
  12:MotorControl/odrive_main.h **** extern "C" {
  13:MotorControl/odrive_main.h **** #endif
  14:MotorControl/odrive_main.h **** 
  15:MotorControl/odrive_main.h **** // OS includes
  16:MotorControl/odrive_main.h **** #include <cmsis_os.h>
  17:MotorControl/odrive_main.h **** 
  18:MotorControl/odrive_main.h **** // extern const float elec_rad_per_enc;
  19:MotorControl/odrive_main.h **** extern uint32_t _reboot_cookie;
  20:MotorControl/odrive_main.h **** 
  21:MotorControl/odrive_main.h **** extern uint64_t serial_number;
ARM GAS  /tmp/ccxBL0ey.s 			page 2


  22:MotorControl/odrive_main.h **** extern char serial_number_str[13];
  23:MotorControl/odrive_main.h **** 
  24:MotorControl/odrive_main.h **** #ifdef __cplusplus
  25:MotorControl/odrive_main.h **** }
  26:MotorControl/odrive_main.h **** 
  27:MotorControl/odrive_main.h **** typedef struct {
  28:MotorControl/odrive_main.h ****     bool fully_booted;
  29:MotorControl/odrive_main.h ****     uint32_t uptime; // [ms]
  30:MotorControl/odrive_main.h ****     uint32_t min_heap_space; // FreeRTOS heap [Bytes]
  31:MotorControl/odrive_main.h ****     uint32_t max_stack_usage_axis; // minimum remaining space since startup [Bytes]
  32:MotorControl/odrive_main.h ****     uint32_t max_stack_usage_usb;
  33:MotorControl/odrive_main.h ****     uint32_t max_stack_usage_uart;
  34:MotorControl/odrive_main.h ****     uint32_t max_stack_usage_startup;
  35:MotorControl/odrive_main.h ****     uint32_t max_stack_usage_can;
  36:MotorControl/odrive_main.h ****     uint32_t max_stack_usage_analog;
  37:MotorControl/odrive_main.h **** 
  38:MotorControl/odrive_main.h ****     uint32_t stack_size_axis;
  39:MotorControl/odrive_main.h ****     uint32_t stack_size_usb;
  40:MotorControl/odrive_main.h ****     uint32_t stack_size_uart;
  41:MotorControl/odrive_main.h ****     uint32_t stack_size_startup;
  42:MotorControl/odrive_main.h ****     uint32_t stack_size_can;
  43:MotorControl/odrive_main.h ****     uint32_t stack_size_analog;
  44:MotorControl/odrive_main.h **** 
  45:MotorControl/odrive_main.h ****     int32_t prio_axis;
  46:MotorControl/odrive_main.h ****     int32_t prio_usb;
  47:MotorControl/odrive_main.h ****     int32_t prio_uart;
  48:MotorControl/odrive_main.h ****     int32_t prio_startup;
  49:MotorControl/odrive_main.h ****     int32_t prio_can;
  50:MotorControl/odrive_main.h ****     int32_t prio_analog;
  51:MotorControl/odrive_main.h **** 
  52:MotorControl/odrive_main.h ****     USBStats_t& usb = usb_stats_;
  53:MotorControl/odrive_main.h ****     I2CStats_t& i2c = i2c_stats_;
  54:MotorControl/odrive_main.h **** } SystemStats_t;
  55:MotorControl/odrive_main.h **** 
  56:MotorControl/odrive_main.h **** struct PWMMapping_t {
  57:MotorControl/odrive_main.h ****     endpoint_ref_t endpoint = {0, 0};
  58:MotorControl/odrive_main.h ****     float min = 0;
  59:MotorControl/odrive_main.h ****     float max = 0;
  60:MotorControl/odrive_main.h **** };
  61:MotorControl/odrive_main.h **** 
  62:MotorControl/odrive_main.h **** // @brief general user configurable board configuration
  63:MotorControl/odrive_main.h **** struct BoardConfig_t {
  64:MotorControl/odrive_main.h ****     ODriveIntf::GpioMode gpio_modes[GPIO_COUNT] = {
  65:MotorControl/odrive_main.h ****         DEFAULT_GPIO_MODES
  66:MotorControl/odrive_main.h ****     };
  67:MotorControl/odrive_main.h **** 
  68:MotorControl/odrive_main.h ****     bool enable_uart_a = true;
  69:MotorControl/odrive_main.h ****     bool enable_uart_b = false;
  70:MotorControl/odrive_main.h ****     bool enable_uart_c = false;
  71:MotorControl/odrive_main.h ****     uint32_t uart_a_baudrate = 115200;
  72:MotorControl/odrive_main.h ****     uint32_t uart_b_baudrate = 115200;
  73:MotorControl/odrive_main.h ****     uint32_t uart_c_baudrate = 115200;
  74:MotorControl/odrive_main.h ****     bool enable_can_a = true;
  75:MotorControl/odrive_main.h ****     bool enable_i2c_a = false;
  76:MotorControl/odrive_main.h ****     ODriveIntf::StreamProtocolType uart0_protocol = ODriveIntf::STREAM_PROTOCOL_TYPE_ASCII_AND_STDO
  77:MotorControl/odrive_main.h ****     ODriveIntf::StreamProtocolType uart1_protocol = ODriveIntf::STREAM_PROTOCOL_TYPE_ASCII_AND_STDO
  78:MotorControl/odrive_main.h ****     ODriveIntf::StreamProtocolType uart2_protocol = ODriveIntf::STREAM_PROTOCOL_TYPE_ASCII_AND_STDO
ARM GAS  /tmp/ccxBL0ey.s 			page 3


  79:MotorControl/odrive_main.h ****     ODriveIntf::StreamProtocolType usb_cdc_protocol = ODriveIntf::STREAM_PROTOCOL_TYPE_ASCII_AND_ST
  80:MotorControl/odrive_main.h ****     float max_regen_current = 0.0f;
  81:MotorControl/odrive_main.h ****     float brake_resistance = DEFAULT_BRAKE_RESISTANCE;
  82:MotorControl/odrive_main.h ****     bool enable_brake_resistor = false;
  83:MotorControl/odrive_main.h ****     float dc_bus_undervoltage_trip_level = DEFAULT_MIN_DC_VOLTAGE;      //<! [V] minimum voltage be
  84:MotorControl/odrive_main.h ****     float dc_bus_overvoltage_trip_level = 1.07f * HW_VERSION_VOLTAGE;   //<! [V] maximum voltage ab
  85:MotorControl/odrive_main.h ****                                                                         //<! This protects against 
  86:MotorControl/odrive_main.h ****                                                                         //<! the brake power if the
  87:MotorControl/odrive_main.h ****                                                                         //<! The default is 26V for
  88:MotorControl/odrive_main.h **** 
  89:MotorControl/odrive_main.h ****     /**
  90:MotorControl/odrive_main.h ****      * If enabled, if the measured DC voltage exceeds `dc_bus_overvoltage_ramp_start`,
  91:MotorControl/odrive_main.h ****      * the ODrive will sink more power than usual into the the brake resistor
  92:MotorControl/odrive_main.h ****      * in an attempt to bring the voltage down again.
  93:MotorControl/odrive_main.h ****      * 
  94:MotorControl/odrive_main.h ****      * The brake duty cycle is increased by the following amount:
  95:MotorControl/odrive_main.h ****      *  vbus_voltage == dc_bus_overvoltage_ramp_start  =>  brake_duty_cycle += 0%
  96:MotorControl/odrive_main.h ****      *  vbus_voltage == dc_bus_overvoltage_ramp_end  =>  brake_duty_cycle += 100%
  97:MotorControl/odrive_main.h ****      * 
  98:MotorControl/odrive_main.h ****      * Remarks:
  99:MotorControl/odrive_main.h ****      *  - This feature is active even when all motors are disarmed.
 100:MotorControl/odrive_main.h ****      *  - This feature is disabled if `brake_resistance` is non-positive.
 101:MotorControl/odrive_main.h ****      */
 102:MotorControl/odrive_main.h ****     bool enable_dc_bus_overvoltage_ramp = false;
 103:MotorControl/odrive_main.h ****     float dc_bus_overvoltage_ramp_start = 1.07f * HW_VERSION_VOLTAGE; //!< See `enable_dc_bus_overv
 104:MotorControl/odrive_main.h ****                                                                       //!< Do not set this lower th
 105:MotorControl/odrive_main.h ****                                                                       //!< unless you like fried br
 106:MotorControl/odrive_main.h ****     float dc_bus_overvoltage_ramp_end = 1.07f * HW_VERSION_VOLTAGE; //!< See `enable_dc_bus_overvol
 107:MotorControl/odrive_main.h ****                                                                     //!< Must be larger than `dc_bu
 108:MotorControl/odrive_main.h ****                                                                     //!< otherwise the ramp feature
 109:MotorControl/odrive_main.h **** 
 110:MotorControl/odrive_main.h ****     float dc_max_positive_current = INFINITY; // Max current [A] the power supply can source
 111:MotorControl/odrive_main.h ****     float dc_max_negative_current = -0.01f; // Max current [A] the power supply can sink. You most 
 112:MotorControl/odrive_main.h ****     uint32_t error_gpio_pin = DEFAULT_ERROR_PIN;
 113:MotorControl/odrive_main.h ****     PWMMapping_t pwm_mappings[4];
 114:MotorControl/odrive_main.h ****     PWMMapping_t analog_mappings[GPIO_COUNT];
 115:MotorControl/odrive_main.h **** };
 116:MotorControl/odrive_main.h **** 
 117:MotorControl/odrive_main.h **** struct TaskTimes {
 118:MotorControl/odrive_main.h ****     TaskTimer sampling;
 119:MotorControl/odrive_main.h ****     TaskTimer control_loop_misc;
 120:MotorControl/odrive_main.h ****     TaskTimer control_loop_checks;
 121:MotorControl/odrive_main.h ****     TaskTimer dc_calib_wait;
 122:MotorControl/odrive_main.h **** };
 123:MotorControl/odrive_main.h **** 
 124:MotorControl/odrive_main.h **** 
 125:MotorControl/odrive_main.h **** // Forward Declarations
 126:MotorControl/odrive_main.h **** class Axis;
 127:MotorControl/odrive_main.h **** class Motor;
 128:MotorControl/odrive_main.h **** 
 129:MotorControl/odrive_main.h **** // TODO: move
 130:MotorControl/odrive_main.h **** // this is technically not thread-safe but practically it might be
 131:MotorControl/odrive_main.h **** #define DEFINE_ENUM_FLAG_OPERATORS(ENUMTYPE) \
 132:MotorControl/odrive_main.h **** inline ENUMTYPE operator | (ENUMTYPE a, ENUMTYPE b) { return static_cast<ENUMTYPE>(static_cast<std:
 133:MotorControl/odrive_main.h **** inline ENUMTYPE operator & (ENUMTYPE a, ENUMTYPE b) { return static_cast<ENUMTYPE>(static_cast<std:
 134:MotorControl/odrive_main.h **** inline ENUMTYPE operator ^ (ENUMTYPE a, ENUMTYPE b) { return static_cast<ENUMTYPE>(static_cast<std:
 135:MotorControl/odrive_main.h **** inline ENUMTYPE &operator |= (ENUMTYPE &a, ENUMTYPE b) { return reinterpret_cast<ENUMTYPE&>(reinter
ARM GAS  /tmp/ccxBL0ey.s 			page 4


 136:MotorControl/odrive_main.h **** inline ENUMTYPE &operator &= (ENUMTYPE &a, ENUMTYPE b) { return reinterpret_cast<ENUMTYPE&>(reinter
 137:MotorControl/odrive_main.h **** inline ENUMTYPE &operator ^= (ENUMTYPE &a, ENUMTYPE b) { return reinterpret_cast<ENUMTYPE&>(reinter
 138:MotorControl/odrive_main.h **** inline ENUMTYPE operator ~ (ENUMTYPE a) { return static_cast<ENUMTYPE>(~static_cast<std::underlying
 139:MotorControl/odrive_main.h **** 
 140:MotorControl/odrive_main.h **** #include "autogen/interfaces.hpp"
 141:MotorControl/odrive_main.h **** 
 142:MotorControl/odrive_main.h **** // ODrive specific includes
 143:MotorControl/odrive_main.h **** #include <utils.hpp>
 144:MotorControl/odrive_main.h **** #include <low_level.h>
 145:MotorControl/odrive_main.h **** #include <encoder.hpp>
 146:MotorControl/odrive_main.h **** #include <sensorless_estimator.hpp>
 147:MotorControl/odrive_main.h **** #include <controller.hpp>
 148:MotorControl/odrive_main.h **** #include <current_limiter.hpp>
 149:MotorControl/odrive_main.h **** #include <thermistor.hpp>
 150:MotorControl/odrive_main.h **** #include <trapTraj.hpp>
 151:MotorControl/odrive_main.h **** #include <endstop.hpp>
 152:MotorControl/odrive_main.h **** #include <mechanical_brake.hpp>
 153:MotorControl/odrive_main.h **** #include <axis.hpp>
 154:MotorControl/odrive_main.h **** #include <oscilloscope.hpp>
 155:MotorControl/odrive_main.h **** #include <communication/communication.h>
 156:MotorControl/odrive_main.h **** #include <communication/can/odrive_can.hpp>
 157:MotorControl/odrive_main.h **** 
 158:MotorControl/odrive_main.h **** // Defined in autogen/version.c based on git-derived version numbers
 159:MotorControl/odrive_main.h **** extern "C" {
 160:MotorControl/odrive_main.h **** extern const unsigned char fw_version_major_;
 161:MotorControl/odrive_main.h **** extern const unsigned char fw_version_minor_;
 162:MotorControl/odrive_main.h **** extern const unsigned char fw_version_revision_;
 163:MotorControl/odrive_main.h **** extern const unsigned char fw_version_unreleased_;
 164:MotorControl/odrive_main.h **** }
 165:MotorControl/odrive_main.h **** 
 166:MotorControl/odrive_main.h **** static Stm32Gpio get_gpio(size_t gpio_num) {
  34              		.loc 1 166 44 view -0
  35              		.cfi_startproc
  36              		@ args = 0, pretend = 0, frame = 0
  37              		@ frame_needed = 0, uses_anonymous_args = 0
  38              		@ link register save eliminated.
  39              		.loc 1 166 44 is_stmt 0 view .LVU1
  40 0000 0346     		mov	r3, r0
 167:MotorControl/odrive_main.h ****     return (gpio_num < GPIO_COUNT) ? gpios[gpio_num] : GPIO_COUNT ? gpios[0] : Stm32Gpio::none;
  41              		.loc 1 167 5 is_stmt 1 view .LVU2
  42              		.loc 1 167 36 is_stmt 0 view .LVU3
  43 0002 1029     		cmp	r1, #16
  44 0004 07D8     		bhi	.L3
  45              		.loc 1 167 36 discriminator 1 view .LVU4
  46 0006 054A     		ldr	r2, .L4
  47 0008 02EBC101 		add	r1, r2, r1, lsl #3
  48              	.LVL1:
  49              	.L2:
  50              		.loc 1 167 91 discriminator 4 view .LVU5
  51 000c 03C9     		ldm	r1, {r0, r1}
  52              	.LVL2:
  53              		.loc 1 167 91 discriminator 4 view .LVU6
  54 000e 83E80300 		stm	r3, {r0, r1}
 168:MotorControl/odrive_main.h **** }
  55              		.loc 1 168 1 discriminator 4 view .LVU7
  56 0012 1846     		mov	r0, r3
  57 0014 7047     		bx	lr
ARM GAS  /tmp/ccxBL0ey.s 			page 5


  58              	.LVL3:
  59              	.L3:
 167:MotorControl/odrive_main.h ****     return (gpio_num < GPIO_COUNT) ? gpios[gpio_num] : GPIO_COUNT ? gpios[0] : Stm32Gpio::none;
  60              		.loc 1 167 36 view .LVU8
  61 0016 0149     		ldr	r1, .L4
  62              	.LVL4:
 167:MotorControl/odrive_main.h ****     return (gpio_num < GPIO_COUNT) ? gpios[gpio_num] : GPIO_COUNT ? gpios[0] : Stm32Gpio::none;
  63              		.loc 1 167 36 view .LVU9
  64 0018 F8E7     		b	.L2
  65              	.L5:
  66 001a 00BF     		.align	2
  67              	.L4:
  68 001c 00000000 		.word	gpios
  69              		.cfi_endproc
  70              	.LFE5151:
  71              		.cantunwind
  72              		.fnend
  74              		.section	.text.safety_critical_arm_brake_resistor,"ax",%progbits
  75              		.align	1
  76              		.global	safety_critical_arm_brake_resistor
  77              		.syntax unified
  78              		.thumb
  79              		.thumb_func
  81              	safety_critical_arm_brake_resistor:
  82              		.fnstart
  83              	.LFB5158:
  84              		.file 2 "MotorControl/low_level.cpp"
   1:MotorControl/low_level.cpp **** /* Includes ------------------------------------------------------------------*/
   2:MotorControl/low_level.cpp **** 
   3:MotorControl/low_level.cpp **** #include <board.h>
   4:MotorControl/low_level.cpp **** 
   5:MotorControl/low_level.cpp **** #include <cmsis_os.h>
   6:MotorControl/low_level.cpp **** #include <cmath>
   7:MotorControl/low_level.cpp **** #include <stdint.h>
   8:MotorControl/low_level.cpp **** #include <stdlib.h>
   9:MotorControl/low_level.cpp **** 
  10:MotorControl/low_level.cpp **** #include <adc.h>
  11:MotorControl/low_level.cpp **** #include <gpio.h>
  12:MotorControl/low_level.cpp **** #include <main.h>
  13:MotorControl/low_level.cpp **** #include <spi.h>
  14:MotorControl/low_level.cpp **** #include <tim.h>
  15:MotorControl/low_level.cpp **** #include <utils.hpp>
  16:MotorControl/low_level.cpp **** 
  17:MotorControl/low_level.cpp **** #include "odrive_main.h"
  18:MotorControl/low_level.cpp **** 
  19:MotorControl/low_level.cpp **** /* Private defines -----------------------------------------------------------*/
  20:MotorControl/low_level.cpp **** 
  21:MotorControl/low_level.cpp **** // #define DEBUG_PRINT
  22:MotorControl/low_level.cpp **** 
  23:MotorControl/low_level.cpp **** /* Private macros ------------------------------------------------------------*/
  24:MotorControl/low_level.cpp **** /* Private typedef -----------------------------------------------------------*/
  25:MotorControl/low_level.cpp **** /* Global constant data ------------------------------------------------------*/
  26:MotorControl/low_level.cpp **** constexpr float adc_full_scale = static_cast<float>(1UL << 12UL);
  27:MotorControl/low_level.cpp **** constexpr float adc_ref_voltage = 3.3f;
  28:MotorControl/low_level.cpp **** const uint32_t stack_size_analog_thread = 1024;  // Bytes
  29:MotorControl/low_level.cpp **** /* Global variables ----------------------------------------------------------*/
  30:MotorControl/low_level.cpp **** 
ARM GAS  /tmp/ccxBL0ey.s 			page 6


  31:MotorControl/low_level.cpp **** // This value is updated by the DC-bus reading ADC.
  32:MotorControl/low_level.cpp **** // Arbitrary non-zero inital value to avoid division by zero if ADC reading is late
  33:MotorControl/low_level.cpp **** float vbus_voltage = 12.0f;
  34:MotorControl/low_level.cpp **** float ibus_ = 0.0f; // exposed for monitoring only
  35:MotorControl/low_level.cpp **** bool brake_resistor_armed = false;
  36:MotorControl/low_level.cpp **** bool brake_resistor_saturated = false;
  37:MotorControl/low_level.cpp **** float brake_resistor_current = 0.0f;
  38:MotorControl/low_level.cpp **** osThreadId analog_thread = 0;
  39:MotorControl/low_level.cpp **** /* Private constant data -----------------------------------------------------*/
  40:MotorControl/low_level.cpp **** /* CPU critical section helpers ----------------------------------------------*/
  41:MotorControl/low_level.cpp **** 
  42:MotorControl/low_level.cpp **** /* Safety critical functions -------------------------------------------------*/
  43:MotorControl/low_level.cpp **** 
  44:MotorControl/low_level.cpp **** /*
  45:MotorControl/low_level.cpp **** * This section contains all accesses to safety critical hardware registers.
  46:MotorControl/low_level.cpp **** * Specifically, these registers:
  47:MotorControl/low_level.cpp **** *   Motor0 PWMs:
  48:MotorControl/low_level.cpp **** *     Timer1.MOE (master output enabled)
  49:MotorControl/low_level.cpp **** *     Timer1.CCR1 (counter compare register 1)
  50:MotorControl/low_level.cpp **** *     Timer1.CCR2 (counter compare register 2)
  51:MotorControl/low_level.cpp **** *     Timer1.CCR3 (counter compare register 3)
  52:MotorControl/low_level.cpp **** *   Motor1 PWMs:
  53:MotorControl/low_level.cpp **** *     Timer8.MOE (master output enabled)
  54:MotorControl/low_level.cpp **** *     Timer8.CCR1 (counter compare register 1)
  55:MotorControl/low_level.cpp **** *     Timer8.CCR2 (counter compare register 2)
  56:MotorControl/low_level.cpp **** *     Timer8.CCR3 (counter compare register 3)
  57:MotorControl/low_level.cpp **** *   Brake resistor PWM:
  58:MotorControl/low_level.cpp **** *     Timer2.CCR3 (counter compare register 3)
  59:MotorControl/low_level.cpp **** *     Timer2.CCR4 (counter compare register 4)
  60:MotorControl/low_level.cpp **** * 
  61:MotorControl/low_level.cpp **** * The following assumptions are made:
  62:MotorControl/low_level.cpp **** *   - The hardware operates as described in the datasheet:
  63:MotorControl/low_level.cpp **** *     http://www.st.com/content/ccc/resource/technical/document/reference_manual/3d/6d/5a/66/b4/99/
  64:MotorControl/low_level.cpp **** *     This assumption also requires for instance that there are no radiation
  65:MotorControl/low_level.cpp **** *     caused hardware errors.
  66:MotorControl/low_level.cpp **** *   - After startup, all variables used in this section are exclusively modified
  67:MotorControl/low_level.cpp **** *     by the code in this section (this excludes function parameters)
  68:MotorControl/low_level.cpp **** *     This assumption also requires that there is no memory corruption.
  69:MotorControl/low_level.cpp **** *   - This code is compiled by a C standard compliant compiler.
  70:MotorControl/low_level.cpp **** *
  71:MotorControl/low_level.cpp **** * Furthermore:
  72:MotorControl/low_level.cpp **** *   - Between calls to safety_critical_arm_motor_pwm and
  73:MotorControl/low_level.cpp **** *     safety_critical_disarm_motor_pwm the motor's Ibus current is
  74:MotorControl/low_level.cpp **** *     set to the correct value and update_brake_resistor is called
  75:MotorControl/low_level.cpp **** *     at a high rate.
  76:MotorControl/low_level.cpp **** */
  77:MotorControl/low_level.cpp **** 
  78:MotorControl/low_level.cpp **** 
  79:MotorControl/low_level.cpp **** // @brief Arms the brake resistor
  80:MotorControl/low_level.cpp **** void safety_critical_arm_brake_resistor() {
  85              		.loc 2 80 43 is_stmt 1 view -0
  86              		.cfi_startproc
  87              		@ args = 0, pretend = 0, frame = 8
  88              		@ frame_needed = 0, uses_anonymous_args = 0
  89              		@ link register save eliminated.
  90 0000 82B0     		sub	sp, sp, #8
  91              	.LCFI0:
ARM GAS  /tmp/ccxBL0ey.s 			page 7


  92              		.cfi_def_cfa_offset 8
  81:MotorControl/low_level.cpp ****     CRITICAL_SECTION() {
  93              		.loc 2 81 5 view .LVU11
  94              	.LVL5:
  95              	.LBB99:
  96              	.LBB100:
  97              	.LBI100:
  98              		.file 3 "./Drivers/STM32/stm32_system.h"
   1:./Drivers/STM32/stm32_system.h **** #ifndef __STM32_SYSTEM_H
   2:./Drivers/STM32/stm32_system.h **** #define __STM32_SYSTEM_H
   3:./Drivers/STM32/stm32_system.h **** 
   4:./Drivers/STM32/stm32_system.h **** #if defined(STM32F405xx)
   5:./Drivers/STM32/stm32_system.h **** #include <stm32f405xx.h>
   6:./Drivers/STM32/stm32_system.h **** #elif defined(STM32F722xx)
   7:./Drivers/STM32/stm32_system.h **** #include <stm32f722xx.h>
   8:./Drivers/STM32/stm32_system.h **** #else
   9:./Drivers/STM32/stm32_system.h **** #error "unknown STM32 microcontroller"
  10:./Drivers/STM32/stm32_system.h **** #endif
  11:./Drivers/STM32/stm32_system.h **** 
  12:./Drivers/STM32/stm32_system.h **** // C/C++ definitions
  13:./Drivers/STM32/stm32_system.h **** 
  14:./Drivers/STM32/stm32_system.h **** #ifdef __cplusplus
  15:./Drivers/STM32/stm32_system.h **** extern "C" {
  16:./Drivers/STM32/stm32_system.h **** #endif
  17:./Drivers/STM32/stm32_system.h **** 
  18:./Drivers/STM32/stm32_system.h **** // Uncomment the following line to sacrifice 1kB of RAM for the ability to
  19:./Drivers/STM32/stm32_system.h **** // monitor the number of times each interrupt fires.
  20:./Drivers/STM32/stm32_system.h **** //#define ENABLE_IRQ_COUNTER
  21:./Drivers/STM32/stm32_system.h **** 
  22:./Drivers/STM32/stm32_system.h **** #ifdef ENABLE_IRQ_COUNTER
  23:./Drivers/STM32/stm32_system.h **** extern uint32_t irq_counters[];
  24:./Drivers/STM32/stm32_system.h **** #define COUNT_IRQ(irqn) (++irq_counters[irqn + 14])
  25:./Drivers/STM32/stm32_system.h **** #define GET_IRQ_COUNTER(irqn) irq_counters[irqn + 14]
  26:./Drivers/STM32/stm32_system.h **** #else
  27:./Drivers/STM32/stm32_system.h **** #define COUNT_IRQ(irqn) ((void)0)
  28:./Drivers/STM32/stm32_system.h **** #define GET_IRQ_COUNTER(irqn) 0
  29:./Drivers/STM32/stm32_system.h **** #endif
  30:./Drivers/STM32/stm32_system.h **** 
  31:./Drivers/STM32/stm32_system.h **** static inline uint32_t cpu_enter_critical() {
  32:./Drivers/STM32/stm32_system.h ****     uint32_t primask = __get_PRIMASK();
  33:./Drivers/STM32/stm32_system.h ****     __disable_irq();
  34:./Drivers/STM32/stm32_system.h ****     return primask;
  35:./Drivers/STM32/stm32_system.h **** }
  36:./Drivers/STM32/stm32_system.h **** 
  37:./Drivers/STM32/stm32_system.h **** static inline void cpu_exit_critical(uint32_t priority_mask) {
  38:./Drivers/STM32/stm32_system.h ****     __set_PRIMASK(priority_mask);
  39:./Drivers/STM32/stm32_system.h **** }
  40:./Drivers/STM32/stm32_system.h **** 
  41:./Drivers/STM32/stm32_system.h **** #ifdef __cplusplus
  42:./Drivers/STM32/stm32_system.h **** }
  43:./Drivers/STM32/stm32_system.h **** #endif
  44:./Drivers/STM32/stm32_system.h **** 
  45:./Drivers/STM32/stm32_system.h **** 
  46:./Drivers/STM32/stm32_system.h **** // C++ only definitions
  47:./Drivers/STM32/stm32_system.h **** 
  48:./Drivers/STM32/stm32_system.h **** #ifdef __cplusplus
  49:./Drivers/STM32/stm32_system.h **** 
ARM GAS  /tmp/ccxBL0ey.s 			page 8


  50:./Drivers/STM32/stm32_system.h **** struct CriticalSectionContext {
  51:./Drivers/STM32/stm32_system.h ****     CriticalSectionContext(const CriticalSectionContext&) = delete;
  52:./Drivers/STM32/stm32_system.h ****     CriticalSectionContext(const CriticalSectionContext&&) = delete;
  53:./Drivers/STM32/stm32_system.h ****     void operator=(const CriticalSectionContext&) = delete;
  54:./Drivers/STM32/stm32_system.h ****     void operator=(const CriticalSectionContext&&) = delete;
  55:./Drivers/STM32/stm32_system.h ****     operator bool() { return true; };
  56:./Drivers/STM32/stm32_system.h ****     CriticalSectionContext() : mask_(cpu_enter_critical()) {}
  99              		.loc 3 56 5 view .LVU12
 100              	.LBB101:
 101              	.LBB102:
 102              	.LBB103:
 103              	.LBI103:
  31:./Drivers/STM32/stm32_system.h ****     uint32_t primask = __get_PRIMASK();
 104              		.loc 3 31 24 view .LVU13
 105              	.LBB104:
  32:./Drivers/STM32/stm32_system.h ****     __disable_irq();
 106              		.loc 3 32 5 view .LVU14
 107              	.LBB105:
 108              	.LBI105:
 109              		.file 4 "ThirdParty/CMSIS/Include/cmsis_gcc.h"
   1:ThirdParty/CMSIS/Include/cmsis_gcc.h **** /**************************************************************************//**
   2:ThirdParty/CMSIS/Include/cmsis_gcc.h ****  * @file     cmsis_gcc.h
   3:ThirdParty/CMSIS/Include/cmsis_gcc.h ****  * @brief    CMSIS compiler GCC header file
   4:ThirdParty/CMSIS/Include/cmsis_gcc.h ****  * @version  V5.0.4
   5:ThirdParty/CMSIS/Include/cmsis_gcc.h ****  * @date     09. April 2018
   6:ThirdParty/CMSIS/Include/cmsis_gcc.h ****  ******************************************************************************/
   7:ThirdParty/CMSIS/Include/cmsis_gcc.h **** /*
   8:ThirdParty/CMSIS/Include/cmsis_gcc.h ****  * Copyright (c) 2009-2018 Arm Limited. All rights reserved.
   9:ThirdParty/CMSIS/Include/cmsis_gcc.h ****  *
  10:ThirdParty/CMSIS/Include/cmsis_gcc.h ****  * SPDX-License-Identifier: Apache-2.0
  11:ThirdParty/CMSIS/Include/cmsis_gcc.h ****  *
  12:ThirdParty/CMSIS/Include/cmsis_gcc.h ****  * Licensed under the Apache License, Version 2.0 (the License); you may
  13:ThirdParty/CMSIS/Include/cmsis_gcc.h ****  * not use this file except in compliance with the License.
  14:ThirdParty/CMSIS/Include/cmsis_gcc.h ****  * You may obtain a copy of the License at
  15:ThirdParty/CMSIS/Include/cmsis_gcc.h ****  *
  16:ThirdParty/CMSIS/Include/cmsis_gcc.h ****  * www.apache.org/licenses/LICENSE-2.0
  17:ThirdParty/CMSIS/Include/cmsis_gcc.h ****  *
  18:ThirdParty/CMSIS/Include/cmsis_gcc.h ****  * Unless required by applicable law or agreed to in writing, software
  19:ThirdParty/CMSIS/Include/cmsis_gcc.h ****  * distributed under the License is distributed on an AS IS BASIS, WITHOUT
  20:ThirdParty/CMSIS/Include/cmsis_gcc.h ****  * WARRANTIES OR CONDITIONS OF ANY KIND, either express or implied.
  21:ThirdParty/CMSIS/Include/cmsis_gcc.h ****  * See the License for the specific language governing permissions and
  22:ThirdParty/CMSIS/Include/cmsis_gcc.h ****  * limitations under the License.
  23:ThirdParty/CMSIS/Include/cmsis_gcc.h ****  */
  24:ThirdParty/CMSIS/Include/cmsis_gcc.h **** 
  25:ThirdParty/CMSIS/Include/cmsis_gcc.h **** #ifndef __CMSIS_GCC_H
  26:ThirdParty/CMSIS/Include/cmsis_gcc.h **** #define __CMSIS_GCC_H
  27:ThirdParty/CMSIS/Include/cmsis_gcc.h **** 
  28:ThirdParty/CMSIS/Include/cmsis_gcc.h **** /* ignore some GCC warnings */
  29:ThirdParty/CMSIS/Include/cmsis_gcc.h **** #pragma GCC diagnostic push
  30:ThirdParty/CMSIS/Include/cmsis_gcc.h **** #pragma GCC diagnostic ignored "-Wsign-conversion"
  31:ThirdParty/CMSIS/Include/cmsis_gcc.h **** #pragma GCC diagnostic ignored "-Wconversion"
  32:ThirdParty/CMSIS/Include/cmsis_gcc.h **** #pragma GCC diagnostic ignored "-Wunused-parameter"
  33:ThirdParty/CMSIS/Include/cmsis_gcc.h **** 
  34:ThirdParty/CMSIS/Include/cmsis_gcc.h **** /* Fallback for __has_builtin */
  35:ThirdParty/CMSIS/Include/cmsis_gcc.h **** #ifndef __has_builtin
  36:ThirdParty/CMSIS/Include/cmsis_gcc.h ****   #define __has_builtin(x) (0)
  37:ThirdParty/CMSIS/Include/cmsis_gcc.h **** #endif
ARM GAS  /tmp/ccxBL0ey.s 			page 9


  38:ThirdParty/CMSIS/Include/cmsis_gcc.h **** 
  39:ThirdParty/CMSIS/Include/cmsis_gcc.h **** /* CMSIS compiler specific defines */
  40:ThirdParty/CMSIS/Include/cmsis_gcc.h **** #ifndef   __ASM
  41:ThirdParty/CMSIS/Include/cmsis_gcc.h ****   #define __ASM                                  __asm
  42:ThirdParty/CMSIS/Include/cmsis_gcc.h **** #endif
  43:ThirdParty/CMSIS/Include/cmsis_gcc.h **** #ifndef   __INLINE
  44:ThirdParty/CMSIS/Include/cmsis_gcc.h ****   #define __INLINE                               inline
  45:ThirdParty/CMSIS/Include/cmsis_gcc.h **** #endif
  46:ThirdParty/CMSIS/Include/cmsis_gcc.h **** #ifndef   __STATIC_INLINE
  47:ThirdParty/CMSIS/Include/cmsis_gcc.h ****   #define __STATIC_INLINE                        static inline
  48:ThirdParty/CMSIS/Include/cmsis_gcc.h **** #endif
  49:ThirdParty/CMSIS/Include/cmsis_gcc.h **** #ifndef   __STATIC_FORCEINLINE                 
  50:ThirdParty/CMSIS/Include/cmsis_gcc.h ****   #define __STATIC_FORCEINLINE                   __attribute__((always_inline)) static inline
  51:ThirdParty/CMSIS/Include/cmsis_gcc.h **** #endif                                           
  52:ThirdParty/CMSIS/Include/cmsis_gcc.h **** #ifndef   __NO_RETURN
  53:ThirdParty/CMSIS/Include/cmsis_gcc.h ****   #define __NO_RETURN                            __attribute__((__noreturn__))
  54:ThirdParty/CMSIS/Include/cmsis_gcc.h **** #endif
  55:ThirdParty/CMSIS/Include/cmsis_gcc.h **** #ifndef   __USED
  56:ThirdParty/CMSIS/Include/cmsis_gcc.h ****   #define __USED                                 __attribute__((used))
  57:ThirdParty/CMSIS/Include/cmsis_gcc.h **** #endif
  58:ThirdParty/CMSIS/Include/cmsis_gcc.h **** #ifndef   __WEAK
  59:ThirdParty/CMSIS/Include/cmsis_gcc.h ****   #define __WEAK                                 __attribute__((weak))
  60:ThirdParty/CMSIS/Include/cmsis_gcc.h **** #endif
  61:ThirdParty/CMSIS/Include/cmsis_gcc.h **** #ifndef   __PACKED
  62:ThirdParty/CMSIS/Include/cmsis_gcc.h ****   #define __PACKED                               __attribute__((packed, aligned(1)))
  63:ThirdParty/CMSIS/Include/cmsis_gcc.h **** #endif
  64:ThirdParty/CMSIS/Include/cmsis_gcc.h **** #ifndef   __PACKED_STRUCT
  65:ThirdParty/CMSIS/Include/cmsis_gcc.h ****   #define __PACKED_STRUCT                        struct __attribute__((packed, aligned(1)))
  66:ThirdParty/CMSIS/Include/cmsis_gcc.h **** #endif
  67:ThirdParty/CMSIS/Include/cmsis_gcc.h **** #ifndef   __PACKED_UNION
  68:ThirdParty/CMSIS/Include/cmsis_gcc.h ****   #define __PACKED_UNION                         union __attribute__((packed, aligned(1)))
  69:ThirdParty/CMSIS/Include/cmsis_gcc.h **** #endif
  70:ThirdParty/CMSIS/Include/cmsis_gcc.h **** #ifndef   __UNALIGNED_UINT32        /* deprecated */
  71:ThirdParty/CMSIS/Include/cmsis_gcc.h ****   #pragma GCC diagnostic push
  72:ThirdParty/CMSIS/Include/cmsis_gcc.h ****   #pragma GCC diagnostic ignored "-Wpacked"
  73:ThirdParty/CMSIS/Include/cmsis_gcc.h ****   #pragma GCC diagnostic ignored "-Wattributes"
  74:ThirdParty/CMSIS/Include/cmsis_gcc.h ****   struct __attribute__((packed)) T_UINT32 { uint32_t v; };
  75:ThirdParty/CMSIS/Include/cmsis_gcc.h ****   #pragma GCC diagnostic pop
  76:ThirdParty/CMSIS/Include/cmsis_gcc.h ****   #define __UNALIGNED_UINT32(x)                  (((struct T_UINT32 *)(x))->v)
  77:ThirdParty/CMSIS/Include/cmsis_gcc.h **** #endif
  78:ThirdParty/CMSIS/Include/cmsis_gcc.h **** #ifndef   __UNALIGNED_UINT16_WRITE
  79:ThirdParty/CMSIS/Include/cmsis_gcc.h ****   #pragma GCC diagnostic push
  80:ThirdParty/CMSIS/Include/cmsis_gcc.h ****   #pragma GCC diagnostic ignored "-Wpacked"
  81:ThirdParty/CMSIS/Include/cmsis_gcc.h ****   #pragma GCC diagnostic ignored "-Wattributes"
  82:ThirdParty/CMSIS/Include/cmsis_gcc.h ****   __PACKED_STRUCT T_UINT16_WRITE { uint16_t v; };
  83:ThirdParty/CMSIS/Include/cmsis_gcc.h ****   #pragma GCC diagnostic pop
  84:ThirdParty/CMSIS/Include/cmsis_gcc.h ****   #define __UNALIGNED_UINT16_WRITE(addr, val)    (void)((((struct T_UINT16_WRITE *)(void *)(addr))-
  85:ThirdParty/CMSIS/Include/cmsis_gcc.h **** #endif
  86:ThirdParty/CMSIS/Include/cmsis_gcc.h **** #ifndef   __UNALIGNED_UINT16_READ
  87:ThirdParty/CMSIS/Include/cmsis_gcc.h ****   #pragma GCC diagnostic push
  88:ThirdParty/CMSIS/Include/cmsis_gcc.h ****   #pragma GCC diagnostic ignored "-Wpacked"
  89:ThirdParty/CMSIS/Include/cmsis_gcc.h ****   #pragma GCC diagnostic ignored "-Wattributes"
  90:ThirdParty/CMSIS/Include/cmsis_gcc.h ****   __PACKED_STRUCT T_UINT16_READ { uint16_t v; };
  91:ThirdParty/CMSIS/Include/cmsis_gcc.h ****   #pragma GCC diagnostic pop
  92:ThirdParty/CMSIS/Include/cmsis_gcc.h ****   #define __UNALIGNED_UINT16_READ(addr)          (((const struct T_UINT16_READ *)(const void *)(add
  93:ThirdParty/CMSIS/Include/cmsis_gcc.h **** #endif
  94:ThirdParty/CMSIS/Include/cmsis_gcc.h **** #ifndef   __UNALIGNED_UINT32_WRITE
ARM GAS  /tmp/ccxBL0ey.s 			page 10


  95:ThirdParty/CMSIS/Include/cmsis_gcc.h ****   #pragma GCC diagnostic push
  96:ThirdParty/CMSIS/Include/cmsis_gcc.h ****   #pragma GCC diagnostic ignored "-Wpacked"
  97:ThirdParty/CMSIS/Include/cmsis_gcc.h ****   #pragma GCC diagnostic ignored "-Wattributes"
  98:ThirdParty/CMSIS/Include/cmsis_gcc.h ****   __PACKED_STRUCT T_UINT32_WRITE { uint32_t v; };
  99:ThirdParty/CMSIS/Include/cmsis_gcc.h ****   #pragma GCC diagnostic pop
 100:ThirdParty/CMSIS/Include/cmsis_gcc.h ****   #define __UNALIGNED_UINT32_WRITE(addr, val)    (void)((((struct T_UINT32_WRITE *)(void *)(addr))-
 101:ThirdParty/CMSIS/Include/cmsis_gcc.h **** #endif
 102:ThirdParty/CMSIS/Include/cmsis_gcc.h **** #ifndef   __UNALIGNED_UINT32_READ
 103:ThirdParty/CMSIS/Include/cmsis_gcc.h ****   #pragma GCC diagnostic push
 104:ThirdParty/CMSIS/Include/cmsis_gcc.h ****   #pragma GCC diagnostic ignored "-Wpacked"
 105:ThirdParty/CMSIS/Include/cmsis_gcc.h ****   #pragma GCC diagnostic ignored "-Wattributes"
 106:ThirdParty/CMSIS/Include/cmsis_gcc.h ****   __PACKED_STRUCT T_UINT32_READ { uint32_t v; };
 107:ThirdParty/CMSIS/Include/cmsis_gcc.h ****   #pragma GCC diagnostic pop
 108:ThirdParty/CMSIS/Include/cmsis_gcc.h ****   #define __UNALIGNED_UINT32_READ(addr)          (((const struct T_UINT32_READ *)(const void *)(add
 109:ThirdParty/CMSIS/Include/cmsis_gcc.h **** #endif
 110:ThirdParty/CMSIS/Include/cmsis_gcc.h **** #ifndef   __ALIGNED
 111:ThirdParty/CMSIS/Include/cmsis_gcc.h ****   #define __ALIGNED(x)                           __attribute__((aligned(x)))
 112:ThirdParty/CMSIS/Include/cmsis_gcc.h **** #endif
 113:ThirdParty/CMSIS/Include/cmsis_gcc.h **** #ifndef   __RESTRICT
 114:ThirdParty/CMSIS/Include/cmsis_gcc.h ****   #define __RESTRICT                             __restrict
 115:ThirdParty/CMSIS/Include/cmsis_gcc.h **** #endif
 116:ThirdParty/CMSIS/Include/cmsis_gcc.h **** 
 117:ThirdParty/CMSIS/Include/cmsis_gcc.h **** 
 118:ThirdParty/CMSIS/Include/cmsis_gcc.h **** /* ###########################  Core Function Access  ########################### */
 119:ThirdParty/CMSIS/Include/cmsis_gcc.h **** /** \ingroup  CMSIS_Core_FunctionInterface
 120:ThirdParty/CMSIS/Include/cmsis_gcc.h ****     \defgroup CMSIS_Core_RegAccFunctions CMSIS Core Register Access Functions
 121:ThirdParty/CMSIS/Include/cmsis_gcc.h ****   @{
 122:ThirdParty/CMSIS/Include/cmsis_gcc.h ****  */
 123:ThirdParty/CMSIS/Include/cmsis_gcc.h **** 
 124:ThirdParty/CMSIS/Include/cmsis_gcc.h **** /**
 125:ThirdParty/CMSIS/Include/cmsis_gcc.h ****   \brief   Enable IRQ Interrupts
 126:ThirdParty/CMSIS/Include/cmsis_gcc.h ****   \details Enables IRQ interrupts by clearing the I-bit in the CPSR.
 127:ThirdParty/CMSIS/Include/cmsis_gcc.h ****            Can only be executed in Privileged modes.
 128:ThirdParty/CMSIS/Include/cmsis_gcc.h ****  */
 129:ThirdParty/CMSIS/Include/cmsis_gcc.h **** __STATIC_FORCEINLINE void __enable_irq(void)
 130:ThirdParty/CMSIS/Include/cmsis_gcc.h **** {
 131:ThirdParty/CMSIS/Include/cmsis_gcc.h ****   __ASM volatile ("cpsie i" : : : "memory");
 132:ThirdParty/CMSIS/Include/cmsis_gcc.h **** }
 133:ThirdParty/CMSIS/Include/cmsis_gcc.h **** 
 134:ThirdParty/CMSIS/Include/cmsis_gcc.h **** 
 135:ThirdParty/CMSIS/Include/cmsis_gcc.h **** /**
 136:ThirdParty/CMSIS/Include/cmsis_gcc.h ****   \brief   Disable IRQ Interrupts
 137:ThirdParty/CMSIS/Include/cmsis_gcc.h ****   \details Disables IRQ interrupts by setting the I-bit in the CPSR.
 138:ThirdParty/CMSIS/Include/cmsis_gcc.h ****            Can only be executed in Privileged modes.
 139:ThirdParty/CMSIS/Include/cmsis_gcc.h ****  */
 140:ThirdParty/CMSIS/Include/cmsis_gcc.h **** __STATIC_FORCEINLINE void __disable_irq(void)
 141:ThirdParty/CMSIS/Include/cmsis_gcc.h **** {
 142:ThirdParty/CMSIS/Include/cmsis_gcc.h ****   __ASM volatile ("cpsid i" : : : "memory");
 143:ThirdParty/CMSIS/Include/cmsis_gcc.h **** }
 144:ThirdParty/CMSIS/Include/cmsis_gcc.h **** 
 145:ThirdParty/CMSIS/Include/cmsis_gcc.h **** 
 146:ThirdParty/CMSIS/Include/cmsis_gcc.h **** /**
 147:ThirdParty/CMSIS/Include/cmsis_gcc.h ****   \brief   Get Control Register
 148:ThirdParty/CMSIS/Include/cmsis_gcc.h ****   \details Returns the content of the Control Register.
 149:ThirdParty/CMSIS/Include/cmsis_gcc.h ****   \return               Control Register value
 150:ThirdParty/CMSIS/Include/cmsis_gcc.h ****  */
 151:ThirdParty/CMSIS/Include/cmsis_gcc.h **** __STATIC_FORCEINLINE uint32_t __get_CONTROL(void)
ARM GAS  /tmp/ccxBL0ey.s 			page 11


 152:ThirdParty/CMSIS/Include/cmsis_gcc.h **** {
 153:ThirdParty/CMSIS/Include/cmsis_gcc.h ****   uint32_t result;
 154:ThirdParty/CMSIS/Include/cmsis_gcc.h **** 
 155:ThirdParty/CMSIS/Include/cmsis_gcc.h ****   __ASM volatile ("MRS %0, control" : "=r" (result) );
 156:ThirdParty/CMSIS/Include/cmsis_gcc.h ****   return(result);
 157:ThirdParty/CMSIS/Include/cmsis_gcc.h **** }
 158:ThirdParty/CMSIS/Include/cmsis_gcc.h **** 
 159:ThirdParty/CMSIS/Include/cmsis_gcc.h **** 
 160:ThirdParty/CMSIS/Include/cmsis_gcc.h **** #if (defined (__ARM_FEATURE_CMSE ) && (__ARM_FEATURE_CMSE == 3))
 161:ThirdParty/CMSIS/Include/cmsis_gcc.h **** /**
 162:ThirdParty/CMSIS/Include/cmsis_gcc.h ****   \brief   Get Control Register (non-secure)
 163:ThirdParty/CMSIS/Include/cmsis_gcc.h ****   \details Returns the content of the non-secure Control Register when in secure mode.
 164:ThirdParty/CMSIS/Include/cmsis_gcc.h ****   \return               non-secure Control Register value
 165:ThirdParty/CMSIS/Include/cmsis_gcc.h ****  */
 166:ThirdParty/CMSIS/Include/cmsis_gcc.h **** __STATIC_FORCEINLINE uint32_t __TZ_get_CONTROL_NS(void)
 167:ThirdParty/CMSIS/Include/cmsis_gcc.h **** {
 168:ThirdParty/CMSIS/Include/cmsis_gcc.h ****   uint32_t result;
 169:ThirdParty/CMSIS/Include/cmsis_gcc.h **** 
 170:ThirdParty/CMSIS/Include/cmsis_gcc.h ****   __ASM volatile ("MRS %0, control_ns" : "=r" (result) );
 171:ThirdParty/CMSIS/Include/cmsis_gcc.h ****   return(result);
 172:ThirdParty/CMSIS/Include/cmsis_gcc.h **** }
 173:ThirdParty/CMSIS/Include/cmsis_gcc.h **** #endif
 174:ThirdParty/CMSIS/Include/cmsis_gcc.h **** 
 175:ThirdParty/CMSIS/Include/cmsis_gcc.h **** 
 176:ThirdParty/CMSIS/Include/cmsis_gcc.h **** /**
 177:ThirdParty/CMSIS/Include/cmsis_gcc.h ****   \brief   Set Control Register
 178:ThirdParty/CMSIS/Include/cmsis_gcc.h ****   \details Writes the given value to the Control Register.
 179:ThirdParty/CMSIS/Include/cmsis_gcc.h ****   \param [in]    control  Control Register value to set
 180:ThirdParty/CMSIS/Include/cmsis_gcc.h ****  */
 181:ThirdParty/CMSIS/Include/cmsis_gcc.h **** __STATIC_FORCEINLINE void __set_CONTROL(uint32_t control)
 182:ThirdParty/CMSIS/Include/cmsis_gcc.h **** {
 183:ThirdParty/CMSIS/Include/cmsis_gcc.h ****   __ASM volatile ("MSR control, %0" : : "r" (control) : "memory");
 184:ThirdParty/CMSIS/Include/cmsis_gcc.h **** }
 185:ThirdParty/CMSIS/Include/cmsis_gcc.h **** 
 186:ThirdParty/CMSIS/Include/cmsis_gcc.h **** 
 187:ThirdParty/CMSIS/Include/cmsis_gcc.h **** #if (defined (__ARM_FEATURE_CMSE ) && (__ARM_FEATURE_CMSE == 3))
 188:ThirdParty/CMSIS/Include/cmsis_gcc.h **** /**
 189:ThirdParty/CMSIS/Include/cmsis_gcc.h ****   \brief   Set Control Register (non-secure)
 190:ThirdParty/CMSIS/Include/cmsis_gcc.h ****   \details Writes the given value to the non-secure Control Register when in secure state.
 191:ThirdParty/CMSIS/Include/cmsis_gcc.h ****   \param [in]    control  Control Register value to set
 192:ThirdParty/CMSIS/Include/cmsis_gcc.h ****  */
 193:ThirdParty/CMSIS/Include/cmsis_gcc.h **** __STATIC_FORCEINLINE void __TZ_set_CONTROL_NS(uint32_t control)
 194:ThirdParty/CMSIS/Include/cmsis_gcc.h **** {
 195:ThirdParty/CMSIS/Include/cmsis_gcc.h ****   __ASM volatile ("MSR control_ns, %0" : : "r" (control) : "memory");
 196:ThirdParty/CMSIS/Include/cmsis_gcc.h **** }
 197:ThirdParty/CMSIS/Include/cmsis_gcc.h **** #endif
 198:ThirdParty/CMSIS/Include/cmsis_gcc.h **** 
 199:ThirdParty/CMSIS/Include/cmsis_gcc.h **** 
 200:ThirdParty/CMSIS/Include/cmsis_gcc.h **** /**
 201:ThirdParty/CMSIS/Include/cmsis_gcc.h ****   \brief   Get IPSR Register
 202:ThirdParty/CMSIS/Include/cmsis_gcc.h ****   \details Returns the content of the IPSR Register.
 203:ThirdParty/CMSIS/Include/cmsis_gcc.h ****   \return               IPSR Register value
 204:ThirdParty/CMSIS/Include/cmsis_gcc.h ****  */
 205:ThirdParty/CMSIS/Include/cmsis_gcc.h **** __STATIC_FORCEINLINE uint32_t __get_IPSR(void)
 206:ThirdParty/CMSIS/Include/cmsis_gcc.h **** {
 207:ThirdParty/CMSIS/Include/cmsis_gcc.h ****   uint32_t result;
 208:ThirdParty/CMSIS/Include/cmsis_gcc.h **** 
ARM GAS  /tmp/ccxBL0ey.s 			page 12


 209:ThirdParty/CMSIS/Include/cmsis_gcc.h ****   __ASM volatile ("MRS %0, ipsr" : "=r" (result) );
 210:ThirdParty/CMSIS/Include/cmsis_gcc.h ****   return(result);
 211:ThirdParty/CMSIS/Include/cmsis_gcc.h **** }
 212:ThirdParty/CMSIS/Include/cmsis_gcc.h **** 
 213:ThirdParty/CMSIS/Include/cmsis_gcc.h **** 
 214:ThirdParty/CMSIS/Include/cmsis_gcc.h **** /**
 215:ThirdParty/CMSIS/Include/cmsis_gcc.h ****   \brief   Get APSR Register
 216:ThirdParty/CMSIS/Include/cmsis_gcc.h ****   \details Returns the content of the APSR Register.
 217:ThirdParty/CMSIS/Include/cmsis_gcc.h ****   \return               APSR Register value
 218:ThirdParty/CMSIS/Include/cmsis_gcc.h ****  */
 219:ThirdParty/CMSIS/Include/cmsis_gcc.h **** __STATIC_FORCEINLINE uint32_t __get_APSR(void)
 220:ThirdParty/CMSIS/Include/cmsis_gcc.h **** {
 221:ThirdParty/CMSIS/Include/cmsis_gcc.h ****   uint32_t result;
 222:ThirdParty/CMSIS/Include/cmsis_gcc.h **** 
 223:ThirdParty/CMSIS/Include/cmsis_gcc.h ****   __ASM volatile ("MRS %0, apsr" : "=r" (result) );
 224:ThirdParty/CMSIS/Include/cmsis_gcc.h ****   return(result);
 225:ThirdParty/CMSIS/Include/cmsis_gcc.h **** }
 226:ThirdParty/CMSIS/Include/cmsis_gcc.h **** 
 227:ThirdParty/CMSIS/Include/cmsis_gcc.h **** 
 228:ThirdParty/CMSIS/Include/cmsis_gcc.h **** /**
 229:ThirdParty/CMSIS/Include/cmsis_gcc.h ****   \brief   Get xPSR Register
 230:ThirdParty/CMSIS/Include/cmsis_gcc.h ****   \details Returns the content of the xPSR Register.
 231:ThirdParty/CMSIS/Include/cmsis_gcc.h ****   \return               xPSR Register value
 232:ThirdParty/CMSIS/Include/cmsis_gcc.h ****  */
 233:ThirdParty/CMSIS/Include/cmsis_gcc.h **** __STATIC_FORCEINLINE uint32_t __get_xPSR(void)
 234:ThirdParty/CMSIS/Include/cmsis_gcc.h **** {
 235:ThirdParty/CMSIS/Include/cmsis_gcc.h ****   uint32_t result;
 236:ThirdParty/CMSIS/Include/cmsis_gcc.h **** 
 237:ThirdParty/CMSIS/Include/cmsis_gcc.h ****   __ASM volatile ("MRS %0, xpsr" : "=r" (result) );
 238:ThirdParty/CMSIS/Include/cmsis_gcc.h ****   return(result);
 239:ThirdParty/CMSIS/Include/cmsis_gcc.h **** }
 240:ThirdParty/CMSIS/Include/cmsis_gcc.h **** 
 241:ThirdParty/CMSIS/Include/cmsis_gcc.h **** 
 242:ThirdParty/CMSIS/Include/cmsis_gcc.h **** /**
 243:ThirdParty/CMSIS/Include/cmsis_gcc.h ****   \brief   Get Process Stack Pointer
 244:ThirdParty/CMSIS/Include/cmsis_gcc.h ****   \details Returns the current value of the Process Stack Pointer (PSP).
 245:ThirdParty/CMSIS/Include/cmsis_gcc.h ****   \return               PSP Register value
 246:ThirdParty/CMSIS/Include/cmsis_gcc.h ****  */
 247:ThirdParty/CMSIS/Include/cmsis_gcc.h **** __STATIC_FORCEINLINE uint32_t __get_PSP(void)
 248:ThirdParty/CMSIS/Include/cmsis_gcc.h **** {
 249:ThirdParty/CMSIS/Include/cmsis_gcc.h ****   uint32_t result;
 250:ThirdParty/CMSIS/Include/cmsis_gcc.h **** 
 251:ThirdParty/CMSIS/Include/cmsis_gcc.h ****   __ASM volatile ("MRS %0, psp"  : "=r" (result) );
 252:ThirdParty/CMSIS/Include/cmsis_gcc.h ****   return(result);
 253:ThirdParty/CMSIS/Include/cmsis_gcc.h **** }
 254:ThirdParty/CMSIS/Include/cmsis_gcc.h **** 
 255:ThirdParty/CMSIS/Include/cmsis_gcc.h **** 
 256:ThirdParty/CMSIS/Include/cmsis_gcc.h **** #if (defined (__ARM_FEATURE_CMSE ) && (__ARM_FEATURE_CMSE == 3))
 257:ThirdParty/CMSIS/Include/cmsis_gcc.h **** /**
 258:ThirdParty/CMSIS/Include/cmsis_gcc.h ****   \brief   Get Process Stack Pointer (non-secure)
 259:ThirdParty/CMSIS/Include/cmsis_gcc.h ****   \details Returns the current value of the non-secure Process Stack Pointer (PSP) when in secure s
 260:ThirdParty/CMSIS/Include/cmsis_gcc.h ****   \return               PSP Register value
 261:ThirdParty/CMSIS/Include/cmsis_gcc.h ****  */
 262:ThirdParty/CMSIS/Include/cmsis_gcc.h **** __STATIC_FORCEINLINE uint32_t __TZ_get_PSP_NS(void)
 263:ThirdParty/CMSIS/Include/cmsis_gcc.h **** {
 264:ThirdParty/CMSIS/Include/cmsis_gcc.h ****   uint32_t result;
 265:ThirdParty/CMSIS/Include/cmsis_gcc.h **** 
ARM GAS  /tmp/ccxBL0ey.s 			page 13


 266:ThirdParty/CMSIS/Include/cmsis_gcc.h ****   __ASM volatile ("MRS %0, psp_ns"  : "=r" (result) );
 267:ThirdParty/CMSIS/Include/cmsis_gcc.h ****   return(result);
 268:ThirdParty/CMSIS/Include/cmsis_gcc.h **** }
 269:ThirdParty/CMSIS/Include/cmsis_gcc.h **** #endif
 270:ThirdParty/CMSIS/Include/cmsis_gcc.h **** 
 271:ThirdParty/CMSIS/Include/cmsis_gcc.h **** 
 272:ThirdParty/CMSIS/Include/cmsis_gcc.h **** /**
 273:ThirdParty/CMSIS/Include/cmsis_gcc.h ****   \brief   Set Process Stack Pointer
 274:ThirdParty/CMSIS/Include/cmsis_gcc.h ****   \details Assigns the given value to the Process Stack Pointer (PSP).
 275:ThirdParty/CMSIS/Include/cmsis_gcc.h ****   \param [in]    topOfProcStack  Process Stack Pointer value to set
 276:ThirdParty/CMSIS/Include/cmsis_gcc.h ****  */
 277:ThirdParty/CMSIS/Include/cmsis_gcc.h **** __STATIC_FORCEINLINE void __set_PSP(uint32_t topOfProcStack)
 278:ThirdParty/CMSIS/Include/cmsis_gcc.h **** {
 279:ThirdParty/CMSIS/Include/cmsis_gcc.h ****   __ASM volatile ("MSR psp, %0" : : "r" (topOfProcStack) : );
 280:ThirdParty/CMSIS/Include/cmsis_gcc.h **** }
 281:ThirdParty/CMSIS/Include/cmsis_gcc.h **** 
 282:ThirdParty/CMSIS/Include/cmsis_gcc.h **** 
 283:ThirdParty/CMSIS/Include/cmsis_gcc.h **** #if (defined (__ARM_FEATURE_CMSE ) && (__ARM_FEATURE_CMSE == 3))
 284:ThirdParty/CMSIS/Include/cmsis_gcc.h **** /**
 285:ThirdParty/CMSIS/Include/cmsis_gcc.h ****   \brief   Set Process Stack Pointer (non-secure)
 286:ThirdParty/CMSIS/Include/cmsis_gcc.h ****   \details Assigns the given value to the non-secure Process Stack Pointer (PSP) when in secure sta
 287:ThirdParty/CMSIS/Include/cmsis_gcc.h ****   \param [in]    topOfProcStack  Process Stack Pointer value to set
 288:ThirdParty/CMSIS/Include/cmsis_gcc.h ****  */
 289:ThirdParty/CMSIS/Include/cmsis_gcc.h **** __STATIC_FORCEINLINE void __TZ_set_PSP_NS(uint32_t topOfProcStack)
 290:ThirdParty/CMSIS/Include/cmsis_gcc.h **** {
 291:ThirdParty/CMSIS/Include/cmsis_gcc.h ****   __ASM volatile ("MSR psp_ns, %0" : : "r" (topOfProcStack) : );
 292:ThirdParty/CMSIS/Include/cmsis_gcc.h **** }
 293:ThirdParty/CMSIS/Include/cmsis_gcc.h **** #endif
 294:ThirdParty/CMSIS/Include/cmsis_gcc.h **** 
 295:ThirdParty/CMSIS/Include/cmsis_gcc.h **** 
 296:ThirdParty/CMSIS/Include/cmsis_gcc.h **** /**
 297:ThirdParty/CMSIS/Include/cmsis_gcc.h ****   \brief   Get Main Stack Pointer
 298:ThirdParty/CMSIS/Include/cmsis_gcc.h ****   \details Returns the current value of the Main Stack Pointer (MSP).
 299:ThirdParty/CMSIS/Include/cmsis_gcc.h ****   \return               MSP Register value
 300:ThirdParty/CMSIS/Include/cmsis_gcc.h ****  */
 301:ThirdParty/CMSIS/Include/cmsis_gcc.h **** __STATIC_FORCEINLINE uint32_t __get_MSP(void)
 302:ThirdParty/CMSIS/Include/cmsis_gcc.h **** {
 303:ThirdParty/CMSIS/Include/cmsis_gcc.h ****   uint32_t result;
 304:ThirdParty/CMSIS/Include/cmsis_gcc.h **** 
 305:ThirdParty/CMSIS/Include/cmsis_gcc.h ****   __ASM volatile ("MRS %0, msp" : "=r" (result) );
 306:ThirdParty/CMSIS/Include/cmsis_gcc.h ****   return(result);
 307:ThirdParty/CMSIS/Include/cmsis_gcc.h **** }
 308:ThirdParty/CMSIS/Include/cmsis_gcc.h **** 
 309:ThirdParty/CMSIS/Include/cmsis_gcc.h **** 
 310:ThirdParty/CMSIS/Include/cmsis_gcc.h **** #if (defined (__ARM_FEATURE_CMSE ) && (__ARM_FEATURE_CMSE == 3))
 311:ThirdParty/CMSIS/Include/cmsis_gcc.h **** /**
 312:ThirdParty/CMSIS/Include/cmsis_gcc.h ****   \brief   Get Main Stack Pointer (non-secure)
 313:ThirdParty/CMSIS/Include/cmsis_gcc.h ****   \details Returns the current value of the non-secure Main Stack Pointer (MSP) when in secure stat
 314:ThirdParty/CMSIS/Include/cmsis_gcc.h ****   \return               MSP Register value
 315:ThirdParty/CMSIS/Include/cmsis_gcc.h ****  */
 316:ThirdParty/CMSIS/Include/cmsis_gcc.h **** __STATIC_FORCEINLINE uint32_t __TZ_get_MSP_NS(void)
 317:ThirdParty/CMSIS/Include/cmsis_gcc.h **** {
 318:ThirdParty/CMSIS/Include/cmsis_gcc.h ****   uint32_t result;
 319:ThirdParty/CMSIS/Include/cmsis_gcc.h **** 
 320:ThirdParty/CMSIS/Include/cmsis_gcc.h ****   __ASM volatile ("MRS %0, msp_ns" : "=r" (result) );
 321:ThirdParty/CMSIS/Include/cmsis_gcc.h ****   return(result);
 322:ThirdParty/CMSIS/Include/cmsis_gcc.h **** }
ARM GAS  /tmp/ccxBL0ey.s 			page 14


 323:ThirdParty/CMSIS/Include/cmsis_gcc.h **** #endif
 324:ThirdParty/CMSIS/Include/cmsis_gcc.h **** 
 325:ThirdParty/CMSIS/Include/cmsis_gcc.h **** 
 326:ThirdParty/CMSIS/Include/cmsis_gcc.h **** /**
 327:ThirdParty/CMSIS/Include/cmsis_gcc.h ****   \brief   Set Main Stack Pointer
 328:ThirdParty/CMSIS/Include/cmsis_gcc.h ****   \details Assigns the given value to the Main Stack Pointer (MSP).
 329:ThirdParty/CMSIS/Include/cmsis_gcc.h ****   \param [in]    topOfMainStack  Main Stack Pointer value to set
 330:ThirdParty/CMSIS/Include/cmsis_gcc.h ****  */
 331:ThirdParty/CMSIS/Include/cmsis_gcc.h **** __STATIC_FORCEINLINE void __set_MSP(uint32_t topOfMainStack)
 332:ThirdParty/CMSIS/Include/cmsis_gcc.h **** {
 333:ThirdParty/CMSIS/Include/cmsis_gcc.h ****   __ASM volatile ("MSR msp, %0" : : "r" (topOfMainStack) : );
 334:ThirdParty/CMSIS/Include/cmsis_gcc.h **** }
 335:ThirdParty/CMSIS/Include/cmsis_gcc.h **** 
 336:ThirdParty/CMSIS/Include/cmsis_gcc.h **** 
 337:ThirdParty/CMSIS/Include/cmsis_gcc.h **** #if (defined (__ARM_FEATURE_CMSE ) && (__ARM_FEATURE_CMSE == 3))
 338:ThirdParty/CMSIS/Include/cmsis_gcc.h **** /**
 339:ThirdParty/CMSIS/Include/cmsis_gcc.h ****   \brief   Set Main Stack Pointer (non-secure)
 340:ThirdParty/CMSIS/Include/cmsis_gcc.h ****   \details Assigns the given value to the non-secure Main Stack Pointer (MSP) when in secure state.
 341:ThirdParty/CMSIS/Include/cmsis_gcc.h ****   \param [in]    topOfMainStack  Main Stack Pointer value to set
 342:ThirdParty/CMSIS/Include/cmsis_gcc.h ****  */
 343:ThirdParty/CMSIS/Include/cmsis_gcc.h **** __STATIC_FORCEINLINE void __TZ_set_MSP_NS(uint32_t topOfMainStack)
 344:ThirdParty/CMSIS/Include/cmsis_gcc.h **** {
 345:ThirdParty/CMSIS/Include/cmsis_gcc.h ****   __ASM volatile ("MSR msp_ns, %0" : : "r" (topOfMainStack) : );
 346:ThirdParty/CMSIS/Include/cmsis_gcc.h **** }
 347:ThirdParty/CMSIS/Include/cmsis_gcc.h **** #endif
 348:ThirdParty/CMSIS/Include/cmsis_gcc.h **** 
 349:ThirdParty/CMSIS/Include/cmsis_gcc.h **** 
 350:ThirdParty/CMSIS/Include/cmsis_gcc.h **** #if (defined (__ARM_FEATURE_CMSE ) && (__ARM_FEATURE_CMSE == 3))
 351:ThirdParty/CMSIS/Include/cmsis_gcc.h **** /**
 352:ThirdParty/CMSIS/Include/cmsis_gcc.h ****   \brief   Get Stack Pointer (non-secure)
 353:ThirdParty/CMSIS/Include/cmsis_gcc.h ****   \details Returns the current value of the non-secure Stack Pointer (SP) when in secure state.
 354:ThirdParty/CMSIS/Include/cmsis_gcc.h ****   \return               SP Register value
 355:ThirdParty/CMSIS/Include/cmsis_gcc.h ****  */
 356:ThirdParty/CMSIS/Include/cmsis_gcc.h **** __STATIC_FORCEINLINE uint32_t __TZ_get_SP_NS(void)
 357:ThirdParty/CMSIS/Include/cmsis_gcc.h **** {
 358:ThirdParty/CMSIS/Include/cmsis_gcc.h ****   uint32_t result;
 359:ThirdParty/CMSIS/Include/cmsis_gcc.h **** 
 360:ThirdParty/CMSIS/Include/cmsis_gcc.h ****   __ASM volatile ("MRS %0, sp_ns" : "=r" (result) );
 361:ThirdParty/CMSIS/Include/cmsis_gcc.h ****   return(result);
 362:ThirdParty/CMSIS/Include/cmsis_gcc.h **** }
 363:ThirdParty/CMSIS/Include/cmsis_gcc.h **** 
 364:ThirdParty/CMSIS/Include/cmsis_gcc.h **** 
 365:ThirdParty/CMSIS/Include/cmsis_gcc.h **** /**
 366:ThirdParty/CMSIS/Include/cmsis_gcc.h ****   \brief   Set Stack Pointer (non-secure)
 367:ThirdParty/CMSIS/Include/cmsis_gcc.h ****   \details Assigns the given value to the non-secure Stack Pointer (SP) when in secure state.
 368:ThirdParty/CMSIS/Include/cmsis_gcc.h ****   \param [in]    topOfStack  Stack Pointer value to set
 369:ThirdParty/CMSIS/Include/cmsis_gcc.h ****  */
 370:ThirdParty/CMSIS/Include/cmsis_gcc.h **** __STATIC_FORCEINLINE void __TZ_set_SP_NS(uint32_t topOfStack)
 371:ThirdParty/CMSIS/Include/cmsis_gcc.h **** {
 372:ThirdParty/CMSIS/Include/cmsis_gcc.h ****   __ASM volatile ("MSR sp_ns, %0" : : "r" (topOfStack) : );
 373:ThirdParty/CMSIS/Include/cmsis_gcc.h **** }
 374:ThirdParty/CMSIS/Include/cmsis_gcc.h **** #endif
 375:ThirdParty/CMSIS/Include/cmsis_gcc.h **** 
 376:ThirdParty/CMSIS/Include/cmsis_gcc.h **** 
 377:ThirdParty/CMSIS/Include/cmsis_gcc.h **** /**
 378:ThirdParty/CMSIS/Include/cmsis_gcc.h ****   \brief   Get Priority Mask
 379:ThirdParty/CMSIS/Include/cmsis_gcc.h ****   \details Returns the current state of the priority mask bit from the Priority Mask Register.
ARM GAS  /tmp/ccxBL0ey.s 			page 15


 380:ThirdParty/CMSIS/Include/cmsis_gcc.h ****   \return               Priority Mask value
 381:ThirdParty/CMSIS/Include/cmsis_gcc.h ****  */
 382:ThirdParty/CMSIS/Include/cmsis_gcc.h **** __STATIC_FORCEINLINE uint32_t __get_PRIMASK(void)
 110              		.loc 4 382 31 view .LVU15
 111              	.LBB106:
 383:ThirdParty/CMSIS/Include/cmsis_gcc.h **** {
 384:ThirdParty/CMSIS/Include/cmsis_gcc.h ****   uint32_t result;
 112              		.loc 4 384 3 view .LVU16
 385:ThirdParty/CMSIS/Include/cmsis_gcc.h **** 
 386:ThirdParty/CMSIS/Include/cmsis_gcc.h ****   __ASM volatile ("MRS %0, primask" : "=r" (result) :: "memory");
 113              		.loc 4 386 3 view .LVU17
 114              		.syntax unified
 115              	@ 386 "ThirdParty/CMSIS/Include/cmsis_gcc.h" 1
 116 0002 EFF31080 		MRS r0, primask
 117              	@ 0 "" 2
 118              	.LVL6:
 387:ThirdParty/CMSIS/Include/cmsis_gcc.h ****   return(result);
 119              		.loc 4 387 3 view .LVU18
 120              		.loc 4 387 3 is_stmt 0 view .LVU19
 121              		.thumb
 122              		.syntax unified
 123              	.LBE106:
 124              	.LBE105:
  33:./Drivers/STM32/stm32_system.h ****     return primask;
 125              		.loc 3 33 5 is_stmt 1 view .LVU20
 126              	.LBB107:
 127              	.LBI107:
 140:ThirdParty/CMSIS/Include/cmsis_gcc.h **** {
 128              		.loc 4 140 27 view .LVU21
 129              	.LBB108:
 142:ThirdParty/CMSIS/Include/cmsis_gcc.h **** }
 130              		.loc 4 142 3 view .LVU22
 131              		.syntax unified
 132              	@ 142 "ThirdParty/CMSIS/Include/cmsis_gcc.h" 1
 133 0006 72B6     		cpsid i
 134              	@ 0 "" 2
 135              		.thumb
 136              		.syntax unified
 137              	.LBE108:
 138              	.LBE107:
  34:./Drivers/STM32/stm32_system.h **** }
 139              		.loc 3 34 5 view .LVU23
 140              	.LBE104:
 141              	.LBE103:
 142              		.loc 3 56 58 is_stmt 0 view .LVU24
 143 0008 0090     		str	r0, [sp]
 144 000a 0023     		movs	r3, #0
 145 000c 8DF80430 		strb	r3, [sp, #4]
 146              	.LVL7:
 147              		.loc 3 56 58 view .LVU25
 148              	.LBE102:
 149              	.LBE101:
 150              	.LBE100:
 151              	.LBE99:
  55:./Drivers/STM32/stm32_system.h ****     CriticalSectionContext() : mask_(cpu_enter_critical()) {}
 152              		.loc 3 55 23 is_stmt 1 view .LVU26
 153              	.LBB121:
ARM GAS  /tmp/ccxBL0ey.s 			page 16


 154              	.LBB109:
  82:MotorControl/low_level.cpp ****         for (size_t i = 0; i < AXIS_COUNT; ++i) {
 155              		.loc 2 82 9 view .LVU27
 156              		.loc 2 82 9 is_stmt 0 view .LVU28
 157 0010 0AE0     		b	.L8
 158              	.LVL8:
 159              	.L10:
 160              	.LBB110:
  83:MotorControl/low_level.cpp ****             axes[i].motor_.I_bus_ = 0.0f;
 161              		.loc 2 83 13 is_stmt 1 view .LVU29
 162              	.LBB111:
 163              	.LBI111:
 164              		.file 5 "/opt/gcc-arm-none-eabi/arm-none-eabi/include/c++/10.3.1/array"
   1:/opt/gcc-arm-none-eabi/arm-none-eabi/include/c++/10.3.1/array **** // <array> -*- C++ -*-
   2:/opt/gcc-arm-none-eabi/arm-none-eabi/include/c++/10.3.1/array **** 
   3:/opt/gcc-arm-none-eabi/arm-none-eabi/include/c++/10.3.1/array **** // Copyright (C) 2007-2020 Free Software Foundation, Inc.
   4:/opt/gcc-arm-none-eabi/arm-none-eabi/include/c++/10.3.1/array **** //
   5:/opt/gcc-arm-none-eabi/arm-none-eabi/include/c++/10.3.1/array **** // This file is part of the GNU ISO C++ Library.  This library is free
   6:/opt/gcc-arm-none-eabi/arm-none-eabi/include/c++/10.3.1/array **** // software; you can redistribute it and/or modify it under the
   7:/opt/gcc-arm-none-eabi/arm-none-eabi/include/c++/10.3.1/array **** // terms of the GNU General Public License as published by the
   8:/opt/gcc-arm-none-eabi/arm-none-eabi/include/c++/10.3.1/array **** // Free Software Foundation; either version 3, or (at your option)
   9:/opt/gcc-arm-none-eabi/arm-none-eabi/include/c++/10.3.1/array **** // any later version.
  10:/opt/gcc-arm-none-eabi/arm-none-eabi/include/c++/10.3.1/array **** 
  11:/opt/gcc-arm-none-eabi/arm-none-eabi/include/c++/10.3.1/array **** // This library is distributed in the hope that it will be useful,
  12:/opt/gcc-arm-none-eabi/arm-none-eabi/include/c++/10.3.1/array **** // but WITHOUT ANY WARRANTY; without even the implied warranty of
  13:/opt/gcc-arm-none-eabi/arm-none-eabi/include/c++/10.3.1/array **** // MERCHANTABILITY or FITNESS FOR A PARTICULAR PURPOSE.  See the
  14:/opt/gcc-arm-none-eabi/arm-none-eabi/include/c++/10.3.1/array **** // GNU General Public License for more details.
  15:/opt/gcc-arm-none-eabi/arm-none-eabi/include/c++/10.3.1/array **** 
  16:/opt/gcc-arm-none-eabi/arm-none-eabi/include/c++/10.3.1/array **** // Under Section 7 of GPL version 3, you are granted additional
  17:/opt/gcc-arm-none-eabi/arm-none-eabi/include/c++/10.3.1/array **** // permissions described in the GCC Runtime Library Exception, version
  18:/opt/gcc-arm-none-eabi/arm-none-eabi/include/c++/10.3.1/array **** // 3.1, as published by the Free Software Foundation.
  19:/opt/gcc-arm-none-eabi/arm-none-eabi/include/c++/10.3.1/array **** 
  20:/opt/gcc-arm-none-eabi/arm-none-eabi/include/c++/10.3.1/array **** // You should have received a copy of the GNU General Public License and
  21:/opt/gcc-arm-none-eabi/arm-none-eabi/include/c++/10.3.1/array **** // a copy of the GCC Runtime Library Exception along with this program;
  22:/opt/gcc-arm-none-eabi/arm-none-eabi/include/c++/10.3.1/array **** // see the files COPYING3 and COPYING.RUNTIME respectively.  If not, see
  23:/opt/gcc-arm-none-eabi/arm-none-eabi/include/c++/10.3.1/array **** // <http://www.gnu.org/licenses/>.
  24:/opt/gcc-arm-none-eabi/arm-none-eabi/include/c++/10.3.1/array **** 
  25:/opt/gcc-arm-none-eabi/arm-none-eabi/include/c++/10.3.1/array **** /** @file include/array
  26:/opt/gcc-arm-none-eabi/arm-none-eabi/include/c++/10.3.1/array ****  *  This is a Standard C++ Library header.
  27:/opt/gcc-arm-none-eabi/arm-none-eabi/include/c++/10.3.1/array ****  */
  28:/opt/gcc-arm-none-eabi/arm-none-eabi/include/c++/10.3.1/array **** 
  29:/opt/gcc-arm-none-eabi/arm-none-eabi/include/c++/10.3.1/array **** #ifndef _GLIBCXX_ARRAY
  30:/opt/gcc-arm-none-eabi/arm-none-eabi/include/c++/10.3.1/array **** #define _GLIBCXX_ARRAY 1
  31:/opt/gcc-arm-none-eabi/arm-none-eabi/include/c++/10.3.1/array **** 
  32:/opt/gcc-arm-none-eabi/arm-none-eabi/include/c++/10.3.1/array **** #pragma GCC system_header
  33:/opt/gcc-arm-none-eabi/arm-none-eabi/include/c++/10.3.1/array **** 
  34:/opt/gcc-arm-none-eabi/arm-none-eabi/include/c++/10.3.1/array **** #if __cplusplus < 201103L
  35:/opt/gcc-arm-none-eabi/arm-none-eabi/include/c++/10.3.1/array **** # include <bits/c++0x_warning.h>
  36:/opt/gcc-arm-none-eabi/arm-none-eabi/include/c++/10.3.1/array **** #else
  37:/opt/gcc-arm-none-eabi/arm-none-eabi/include/c++/10.3.1/array **** 
  38:/opt/gcc-arm-none-eabi/arm-none-eabi/include/c++/10.3.1/array **** #include <utility>
  39:/opt/gcc-arm-none-eabi/arm-none-eabi/include/c++/10.3.1/array **** #include <bits/functexcept.h>
  40:/opt/gcc-arm-none-eabi/arm-none-eabi/include/c++/10.3.1/array **** #include <bits/stl_algobase.h>
  41:/opt/gcc-arm-none-eabi/arm-none-eabi/include/c++/10.3.1/array **** #include <bits/range_access.h>
  42:/opt/gcc-arm-none-eabi/arm-none-eabi/include/c++/10.3.1/array **** 
  43:/opt/gcc-arm-none-eabi/arm-none-eabi/include/c++/10.3.1/array **** namespace std _GLIBCXX_VISIBILITY(default)
  44:/opt/gcc-arm-none-eabi/arm-none-eabi/include/c++/10.3.1/array **** {
ARM GAS  /tmp/ccxBL0ey.s 			page 17


  45:/opt/gcc-arm-none-eabi/arm-none-eabi/include/c++/10.3.1/array **** _GLIBCXX_BEGIN_NAMESPACE_CONTAINER
  46:/opt/gcc-arm-none-eabi/arm-none-eabi/include/c++/10.3.1/array **** 
  47:/opt/gcc-arm-none-eabi/arm-none-eabi/include/c++/10.3.1/array ****   template<typename _Tp, std::size_t _Nm>
  48:/opt/gcc-arm-none-eabi/arm-none-eabi/include/c++/10.3.1/array ****     struct __array_traits
  49:/opt/gcc-arm-none-eabi/arm-none-eabi/include/c++/10.3.1/array ****     {
  50:/opt/gcc-arm-none-eabi/arm-none-eabi/include/c++/10.3.1/array ****       typedef _Tp _Type[_Nm];
  51:/opt/gcc-arm-none-eabi/arm-none-eabi/include/c++/10.3.1/array ****       typedef __is_swappable<_Tp> _Is_swappable;
  52:/opt/gcc-arm-none-eabi/arm-none-eabi/include/c++/10.3.1/array ****       typedef __is_nothrow_swappable<_Tp> _Is_nothrow_swappable;
  53:/opt/gcc-arm-none-eabi/arm-none-eabi/include/c++/10.3.1/array **** 
  54:/opt/gcc-arm-none-eabi/arm-none-eabi/include/c++/10.3.1/array ****       static constexpr _Tp&
  55:/opt/gcc-arm-none-eabi/arm-none-eabi/include/c++/10.3.1/array ****       _S_ref(const _Type& __t, std::size_t __n) noexcept
  56:/opt/gcc-arm-none-eabi/arm-none-eabi/include/c++/10.3.1/array ****       { return const_cast<_Tp&>(__t[__n]); }
  57:/opt/gcc-arm-none-eabi/arm-none-eabi/include/c++/10.3.1/array **** 
  58:/opt/gcc-arm-none-eabi/arm-none-eabi/include/c++/10.3.1/array ****       static constexpr _Tp*
  59:/opt/gcc-arm-none-eabi/arm-none-eabi/include/c++/10.3.1/array ****       _S_ptr(const _Type& __t) noexcept
  60:/opt/gcc-arm-none-eabi/arm-none-eabi/include/c++/10.3.1/array ****       { return const_cast<_Tp*>(__t); }
  61:/opt/gcc-arm-none-eabi/arm-none-eabi/include/c++/10.3.1/array ****     };
  62:/opt/gcc-arm-none-eabi/arm-none-eabi/include/c++/10.3.1/array **** 
  63:/opt/gcc-arm-none-eabi/arm-none-eabi/include/c++/10.3.1/array ****  template<typename _Tp>
  64:/opt/gcc-arm-none-eabi/arm-none-eabi/include/c++/10.3.1/array ****    struct __array_traits<_Tp, 0>
  65:/opt/gcc-arm-none-eabi/arm-none-eabi/include/c++/10.3.1/array ****    {
  66:/opt/gcc-arm-none-eabi/arm-none-eabi/include/c++/10.3.1/array ****      struct _Type { };
  67:/opt/gcc-arm-none-eabi/arm-none-eabi/include/c++/10.3.1/array ****      typedef true_type _Is_swappable;
  68:/opt/gcc-arm-none-eabi/arm-none-eabi/include/c++/10.3.1/array ****      typedef true_type _Is_nothrow_swappable;
  69:/opt/gcc-arm-none-eabi/arm-none-eabi/include/c++/10.3.1/array **** 
  70:/opt/gcc-arm-none-eabi/arm-none-eabi/include/c++/10.3.1/array ****      static constexpr _Tp&
  71:/opt/gcc-arm-none-eabi/arm-none-eabi/include/c++/10.3.1/array ****      _S_ref(const _Type&, std::size_t) noexcept
  72:/opt/gcc-arm-none-eabi/arm-none-eabi/include/c++/10.3.1/array ****      { return *static_cast<_Tp*>(nullptr); }
  73:/opt/gcc-arm-none-eabi/arm-none-eabi/include/c++/10.3.1/array **** 
  74:/opt/gcc-arm-none-eabi/arm-none-eabi/include/c++/10.3.1/array ****      static constexpr _Tp*
  75:/opt/gcc-arm-none-eabi/arm-none-eabi/include/c++/10.3.1/array ****      _S_ptr(const _Type&) noexcept
  76:/opt/gcc-arm-none-eabi/arm-none-eabi/include/c++/10.3.1/array ****      { return nullptr; }
  77:/opt/gcc-arm-none-eabi/arm-none-eabi/include/c++/10.3.1/array ****    };
  78:/opt/gcc-arm-none-eabi/arm-none-eabi/include/c++/10.3.1/array **** 
  79:/opt/gcc-arm-none-eabi/arm-none-eabi/include/c++/10.3.1/array ****   /**
  80:/opt/gcc-arm-none-eabi/arm-none-eabi/include/c++/10.3.1/array ****    *  @brief A standard container for storing a fixed size sequence of elements.
  81:/opt/gcc-arm-none-eabi/arm-none-eabi/include/c++/10.3.1/array ****    *
  82:/opt/gcc-arm-none-eabi/arm-none-eabi/include/c++/10.3.1/array ****    *  @ingroup sequences
  83:/opt/gcc-arm-none-eabi/arm-none-eabi/include/c++/10.3.1/array ****    *
  84:/opt/gcc-arm-none-eabi/arm-none-eabi/include/c++/10.3.1/array ****    *  Meets the requirements of a <a href="tables.html#65">container</a>, a
  85:/opt/gcc-arm-none-eabi/arm-none-eabi/include/c++/10.3.1/array ****    *  <a href="tables.html#66">reversible container</a>, and a
  86:/opt/gcc-arm-none-eabi/arm-none-eabi/include/c++/10.3.1/array ****    *  <a href="tables.html#67">sequence</a>.
  87:/opt/gcc-arm-none-eabi/arm-none-eabi/include/c++/10.3.1/array ****    *
  88:/opt/gcc-arm-none-eabi/arm-none-eabi/include/c++/10.3.1/array ****    *  Sets support random access iterators.
  89:/opt/gcc-arm-none-eabi/arm-none-eabi/include/c++/10.3.1/array ****    *
  90:/opt/gcc-arm-none-eabi/arm-none-eabi/include/c++/10.3.1/array ****    *  @tparam  Tp  Type of element. Required to be a complete type.
  91:/opt/gcc-arm-none-eabi/arm-none-eabi/include/c++/10.3.1/array ****    *  @tparam  Nm  Number of elements.
  92:/opt/gcc-arm-none-eabi/arm-none-eabi/include/c++/10.3.1/array ****   */
  93:/opt/gcc-arm-none-eabi/arm-none-eabi/include/c++/10.3.1/array ****   template<typename _Tp, std::size_t _Nm>
  94:/opt/gcc-arm-none-eabi/arm-none-eabi/include/c++/10.3.1/array ****     struct array
  95:/opt/gcc-arm-none-eabi/arm-none-eabi/include/c++/10.3.1/array ****     {
  96:/opt/gcc-arm-none-eabi/arm-none-eabi/include/c++/10.3.1/array ****       typedef _Tp 	    			      value_type;
  97:/opt/gcc-arm-none-eabi/arm-none-eabi/include/c++/10.3.1/array ****       typedef value_type*			      pointer;
  98:/opt/gcc-arm-none-eabi/arm-none-eabi/include/c++/10.3.1/array ****       typedef const value_type*                       const_pointer;
  99:/opt/gcc-arm-none-eabi/arm-none-eabi/include/c++/10.3.1/array ****       typedef value_type&                   	      reference;
 100:/opt/gcc-arm-none-eabi/arm-none-eabi/include/c++/10.3.1/array ****       typedef const value_type&             	      const_reference;
 101:/opt/gcc-arm-none-eabi/arm-none-eabi/include/c++/10.3.1/array ****       typedef value_type*          		      iterator;
ARM GAS  /tmp/ccxBL0ey.s 			page 18


 102:/opt/gcc-arm-none-eabi/arm-none-eabi/include/c++/10.3.1/array ****       typedef const value_type*			      const_iterator;
 103:/opt/gcc-arm-none-eabi/arm-none-eabi/include/c++/10.3.1/array ****       typedef std::size_t                    	      size_type;
 104:/opt/gcc-arm-none-eabi/arm-none-eabi/include/c++/10.3.1/array ****       typedef std::ptrdiff_t                   	      difference_type;
 105:/opt/gcc-arm-none-eabi/arm-none-eabi/include/c++/10.3.1/array ****       typedef std::reverse_iterator<iterator>	      reverse_iterator;
 106:/opt/gcc-arm-none-eabi/arm-none-eabi/include/c++/10.3.1/array ****       typedef std::reverse_iterator<const_iterator>   const_reverse_iterator;
 107:/opt/gcc-arm-none-eabi/arm-none-eabi/include/c++/10.3.1/array **** 
 108:/opt/gcc-arm-none-eabi/arm-none-eabi/include/c++/10.3.1/array ****       // Support for zero-sized arrays mandatory.
 109:/opt/gcc-arm-none-eabi/arm-none-eabi/include/c++/10.3.1/array ****       typedef _GLIBCXX_STD_C::__array_traits<_Tp, _Nm> _AT_Type;
 110:/opt/gcc-arm-none-eabi/arm-none-eabi/include/c++/10.3.1/array ****       typename _AT_Type::_Type                         _M_elems;
 111:/opt/gcc-arm-none-eabi/arm-none-eabi/include/c++/10.3.1/array **** 
 112:/opt/gcc-arm-none-eabi/arm-none-eabi/include/c++/10.3.1/array ****       // No explicit construct/copy/destroy for aggregate type.
 113:/opt/gcc-arm-none-eabi/arm-none-eabi/include/c++/10.3.1/array **** 
 114:/opt/gcc-arm-none-eabi/arm-none-eabi/include/c++/10.3.1/array ****       // DR 776.
 115:/opt/gcc-arm-none-eabi/arm-none-eabi/include/c++/10.3.1/array ****       _GLIBCXX20_CONSTEXPR void
 116:/opt/gcc-arm-none-eabi/arm-none-eabi/include/c++/10.3.1/array ****       fill(const value_type& __u)
 117:/opt/gcc-arm-none-eabi/arm-none-eabi/include/c++/10.3.1/array ****       { std::fill_n(begin(), size(), __u); }
 118:/opt/gcc-arm-none-eabi/arm-none-eabi/include/c++/10.3.1/array **** 
 119:/opt/gcc-arm-none-eabi/arm-none-eabi/include/c++/10.3.1/array ****       _GLIBCXX20_CONSTEXPR void
 120:/opt/gcc-arm-none-eabi/arm-none-eabi/include/c++/10.3.1/array ****       swap(array& __other)
 121:/opt/gcc-arm-none-eabi/arm-none-eabi/include/c++/10.3.1/array ****       noexcept(_AT_Type::_Is_nothrow_swappable::value)
 122:/opt/gcc-arm-none-eabi/arm-none-eabi/include/c++/10.3.1/array ****       { std::swap_ranges(begin(), end(), __other.begin()); }
 123:/opt/gcc-arm-none-eabi/arm-none-eabi/include/c++/10.3.1/array **** 
 124:/opt/gcc-arm-none-eabi/arm-none-eabi/include/c++/10.3.1/array ****       // Iterators.
 125:/opt/gcc-arm-none-eabi/arm-none-eabi/include/c++/10.3.1/array ****       _GLIBCXX17_CONSTEXPR iterator
 126:/opt/gcc-arm-none-eabi/arm-none-eabi/include/c++/10.3.1/array ****       begin() noexcept
 127:/opt/gcc-arm-none-eabi/arm-none-eabi/include/c++/10.3.1/array ****       { return iterator(data()); }
 128:/opt/gcc-arm-none-eabi/arm-none-eabi/include/c++/10.3.1/array **** 
 129:/opt/gcc-arm-none-eabi/arm-none-eabi/include/c++/10.3.1/array ****       _GLIBCXX17_CONSTEXPR const_iterator
 130:/opt/gcc-arm-none-eabi/arm-none-eabi/include/c++/10.3.1/array ****       begin() const noexcept
 131:/opt/gcc-arm-none-eabi/arm-none-eabi/include/c++/10.3.1/array ****       { return const_iterator(data()); }
 132:/opt/gcc-arm-none-eabi/arm-none-eabi/include/c++/10.3.1/array **** 
 133:/opt/gcc-arm-none-eabi/arm-none-eabi/include/c++/10.3.1/array ****       _GLIBCXX17_CONSTEXPR iterator
 134:/opt/gcc-arm-none-eabi/arm-none-eabi/include/c++/10.3.1/array ****       end() noexcept
 135:/opt/gcc-arm-none-eabi/arm-none-eabi/include/c++/10.3.1/array ****       { return iterator(data() + _Nm); }
 136:/opt/gcc-arm-none-eabi/arm-none-eabi/include/c++/10.3.1/array **** 
 137:/opt/gcc-arm-none-eabi/arm-none-eabi/include/c++/10.3.1/array ****       _GLIBCXX17_CONSTEXPR const_iterator
 138:/opt/gcc-arm-none-eabi/arm-none-eabi/include/c++/10.3.1/array ****       end() const noexcept
 139:/opt/gcc-arm-none-eabi/arm-none-eabi/include/c++/10.3.1/array ****       { return const_iterator(data() + _Nm); }
 140:/opt/gcc-arm-none-eabi/arm-none-eabi/include/c++/10.3.1/array **** 
 141:/opt/gcc-arm-none-eabi/arm-none-eabi/include/c++/10.3.1/array ****       _GLIBCXX17_CONSTEXPR reverse_iterator
 142:/opt/gcc-arm-none-eabi/arm-none-eabi/include/c++/10.3.1/array ****       rbegin() noexcept
 143:/opt/gcc-arm-none-eabi/arm-none-eabi/include/c++/10.3.1/array ****       { return reverse_iterator(end()); }
 144:/opt/gcc-arm-none-eabi/arm-none-eabi/include/c++/10.3.1/array **** 
 145:/opt/gcc-arm-none-eabi/arm-none-eabi/include/c++/10.3.1/array ****       _GLIBCXX17_CONSTEXPR const_reverse_iterator
 146:/opt/gcc-arm-none-eabi/arm-none-eabi/include/c++/10.3.1/array ****       rbegin() const noexcept
 147:/opt/gcc-arm-none-eabi/arm-none-eabi/include/c++/10.3.1/array ****       { return const_reverse_iterator(end()); }
 148:/opt/gcc-arm-none-eabi/arm-none-eabi/include/c++/10.3.1/array **** 
 149:/opt/gcc-arm-none-eabi/arm-none-eabi/include/c++/10.3.1/array ****       _GLIBCXX17_CONSTEXPR reverse_iterator
 150:/opt/gcc-arm-none-eabi/arm-none-eabi/include/c++/10.3.1/array ****       rend() noexcept
 151:/opt/gcc-arm-none-eabi/arm-none-eabi/include/c++/10.3.1/array ****       { return reverse_iterator(begin()); }
 152:/opt/gcc-arm-none-eabi/arm-none-eabi/include/c++/10.3.1/array **** 
 153:/opt/gcc-arm-none-eabi/arm-none-eabi/include/c++/10.3.1/array ****       _GLIBCXX17_CONSTEXPR const_reverse_iterator
 154:/opt/gcc-arm-none-eabi/arm-none-eabi/include/c++/10.3.1/array ****       rend() const noexcept
 155:/opt/gcc-arm-none-eabi/arm-none-eabi/include/c++/10.3.1/array ****       { return const_reverse_iterator(begin()); }
 156:/opt/gcc-arm-none-eabi/arm-none-eabi/include/c++/10.3.1/array **** 
 157:/opt/gcc-arm-none-eabi/arm-none-eabi/include/c++/10.3.1/array ****       _GLIBCXX17_CONSTEXPR const_iterator
 158:/opt/gcc-arm-none-eabi/arm-none-eabi/include/c++/10.3.1/array ****       cbegin() const noexcept
ARM GAS  /tmp/ccxBL0ey.s 			page 19


 159:/opt/gcc-arm-none-eabi/arm-none-eabi/include/c++/10.3.1/array ****       { return const_iterator(data()); }
 160:/opt/gcc-arm-none-eabi/arm-none-eabi/include/c++/10.3.1/array **** 
 161:/opt/gcc-arm-none-eabi/arm-none-eabi/include/c++/10.3.1/array ****       _GLIBCXX17_CONSTEXPR const_iterator
 162:/opt/gcc-arm-none-eabi/arm-none-eabi/include/c++/10.3.1/array ****       cend() const noexcept
 163:/opt/gcc-arm-none-eabi/arm-none-eabi/include/c++/10.3.1/array ****       { return const_iterator(data() + _Nm); }
 164:/opt/gcc-arm-none-eabi/arm-none-eabi/include/c++/10.3.1/array **** 
 165:/opt/gcc-arm-none-eabi/arm-none-eabi/include/c++/10.3.1/array ****       _GLIBCXX17_CONSTEXPR const_reverse_iterator
 166:/opt/gcc-arm-none-eabi/arm-none-eabi/include/c++/10.3.1/array ****       crbegin() const noexcept
 167:/opt/gcc-arm-none-eabi/arm-none-eabi/include/c++/10.3.1/array ****       { return const_reverse_iterator(end()); }
 168:/opt/gcc-arm-none-eabi/arm-none-eabi/include/c++/10.3.1/array **** 
 169:/opt/gcc-arm-none-eabi/arm-none-eabi/include/c++/10.3.1/array ****       _GLIBCXX17_CONSTEXPR const_reverse_iterator
 170:/opt/gcc-arm-none-eabi/arm-none-eabi/include/c++/10.3.1/array ****       crend() const noexcept
 171:/opt/gcc-arm-none-eabi/arm-none-eabi/include/c++/10.3.1/array ****       { return const_reverse_iterator(begin()); }
 172:/opt/gcc-arm-none-eabi/arm-none-eabi/include/c++/10.3.1/array **** 
 173:/opt/gcc-arm-none-eabi/arm-none-eabi/include/c++/10.3.1/array ****       // Capacity.
 174:/opt/gcc-arm-none-eabi/arm-none-eabi/include/c++/10.3.1/array ****       constexpr size_type
 175:/opt/gcc-arm-none-eabi/arm-none-eabi/include/c++/10.3.1/array ****       size() const noexcept { return _Nm; }
 176:/opt/gcc-arm-none-eabi/arm-none-eabi/include/c++/10.3.1/array **** 
 177:/opt/gcc-arm-none-eabi/arm-none-eabi/include/c++/10.3.1/array ****       constexpr size_type
 178:/opt/gcc-arm-none-eabi/arm-none-eabi/include/c++/10.3.1/array ****       max_size() const noexcept { return _Nm; }
 179:/opt/gcc-arm-none-eabi/arm-none-eabi/include/c++/10.3.1/array **** 
 180:/opt/gcc-arm-none-eabi/arm-none-eabi/include/c++/10.3.1/array ****       _GLIBCXX_NODISCARD constexpr bool
 181:/opt/gcc-arm-none-eabi/arm-none-eabi/include/c++/10.3.1/array ****       empty() const noexcept { return size() == 0; }
 182:/opt/gcc-arm-none-eabi/arm-none-eabi/include/c++/10.3.1/array **** 
 183:/opt/gcc-arm-none-eabi/arm-none-eabi/include/c++/10.3.1/array ****       // Element access.
 184:/opt/gcc-arm-none-eabi/arm-none-eabi/include/c++/10.3.1/array ****       _GLIBCXX17_CONSTEXPR reference
 185:/opt/gcc-arm-none-eabi/arm-none-eabi/include/c++/10.3.1/array ****       operator[](size_type __n) noexcept
 165              		.loc 5 185 7 view .LVU30
 166              	.LBB112:
 167              	.LBI112:
  55:/opt/gcc-arm-none-eabi/arm-none-eabi/include/c++/10.3.1/array ****       { return const_cast<_Tp&>(__t[__n]); }
 168              		.loc 5 55 7 view .LVU31
  55:/opt/gcc-arm-none-eabi/arm-none-eabi/include/c++/10.3.1/array ****       { return const_cast<_Tp&>(__t[__n]); }
 169              		.loc 5 55 7 is_stmt 0 view .LVU32
 170              	.LBE112:
 171              	.LBE111:
 172              		.loc 2 83 21 view .LVU33
 173 0012 0D4A     		ldr	r2, .L11
 174 0014 4FF42C71 		mov	r1, #688
 175 0018 01FB0322 		mla	r2, r1, r3, r2
 176 001c D2F85821 		ldr	r2, [r2, #344]
 177              		.loc 2 83 35 view .LVU34
 178 0020 0021     		movs	r1, #0
 179 0022 C2F8C010 		str	r1, [r2, #192]	@ float
  82:MotorControl/low_level.cpp ****             axes[i].motor_.I_bus_ = 0.0f;
 180              		.loc 2 82 9 is_stmt 1 view .LVU35
 181 0026 0133     		adds	r3, r3, #1
 182              	.LVL9:
 183              	.L8:
  82:MotorControl/low_level.cpp ****             axes[i].motor_.I_bus_ = 0.0f;
 184              		.loc 2 82 30 discriminator 3 view .LVU36
 185 0028 012B     		cmp	r3, #1
 186 002a F2D9     		bls	.L10
 187              	.LBE110:
  84:MotorControl/low_level.cpp ****         }
  85:MotorControl/low_level.cpp ****         brake_resistor_armed = true;
 188              		.loc 2 85 9 view .LVU37
ARM GAS  /tmp/ccxBL0ey.s 			page 20


 189              		.loc 2 85 30 is_stmt 0 view .LVU38
 190 002c 074B     		ldr	r3, .L11+4
 191              	.LVL10:
 192              		.loc 2 85 30 view .LVU39
 193 002e 0122     		movs	r2, #1
 194 0030 1A70     		strb	r2, [r3]
  86:MotorControl/low_level.cpp **** #if HW_VERSION_MAJOR == 3
  87:MotorControl/low_level.cpp ****         htim2.Instance->CCR3 = 0;
 195              		.loc 2 87 9 is_stmt 1 view .LVU40
 196              		.loc 2 87 15 is_stmt 0 view .LVU41
 197 0032 074B     		ldr	r3, .L11+8
 198 0034 1B68     		ldr	r3, [r3]
 199              		.loc 2 87 30 view .LVU42
 200 0036 0022     		movs	r2, #0
 201 0038 DA63     		str	r2, [r3, #60]
  88:MotorControl/low_level.cpp ****         htim2.Instance->CCR4 = TIM_APB1_PERIOD_CLOCKS + 1;
 202              		.loc 2 88 9 is_stmt 1 view .LVU43
 203              		.loc 2 88 30 is_stmt 0 view .LVU44
 204 003a 41F20102 		movw	r2, #4097
 205 003e 1A64     		str	r2, [r3, #64]
 206              	.LVL11:
 207              		.loc 2 88 30 view .LVU45
 208              	.LBE109:
 209              	.LBB113:
 210              	.LBI113:
  57:./Drivers/STM32/stm32_system.h ****     ~CriticalSectionContext() { cpu_exit_critical(mask_); }
 211              		.loc 3 57 5 is_stmt 1 view .LVU46
 212              	.LBB114:
 213              		.loc 3 57 33 view .LVU47
 214              	.LBB115:
 215              	.LBI115:
  37:./Drivers/STM32/stm32_system.h ****     __set_PRIMASK(priority_mask);
 216              		.loc 3 37 20 view .LVU48
 217              	.LBE115:
 218              	.LBE114:
 219              	.LBE113:
 220              	.LBE121:
  38:./Drivers/STM32/stm32_system.h **** }
 221              		.loc 3 38 5 view .LVU49
 222              	.LBB122:
 223              	.LBB120:
 224              	.LBB119:
 225              	.LBB118:
 226              	.LBB116:
 227              	.LBI116:
 388:ThirdParty/CMSIS/Include/cmsis_gcc.h **** }
 389:ThirdParty/CMSIS/Include/cmsis_gcc.h **** 
 390:ThirdParty/CMSIS/Include/cmsis_gcc.h **** 
 391:ThirdParty/CMSIS/Include/cmsis_gcc.h **** #if (defined (__ARM_FEATURE_CMSE ) && (__ARM_FEATURE_CMSE == 3))
 392:ThirdParty/CMSIS/Include/cmsis_gcc.h **** /**
 393:ThirdParty/CMSIS/Include/cmsis_gcc.h ****   \brief   Get Priority Mask (non-secure)
 394:ThirdParty/CMSIS/Include/cmsis_gcc.h ****   \details Returns the current state of the non-secure priority mask bit from the Priority Mask Reg
 395:ThirdParty/CMSIS/Include/cmsis_gcc.h ****   \return               Priority Mask value
 396:ThirdParty/CMSIS/Include/cmsis_gcc.h ****  */
 397:ThirdParty/CMSIS/Include/cmsis_gcc.h **** __STATIC_FORCEINLINE uint32_t __TZ_get_PRIMASK_NS(void)
 398:ThirdParty/CMSIS/Include/cmsis_gcc.h **** {
 399:ThirdParty/CMSIS/Include/cmsis_gcc.h ****   uint32_t result;
ARM GAS  /tmp/ccxBL0ey.s 			page 21


 400:ThirdParty/CMSIS/Include/cmsis_gcc.h **** 
 401:ThirdParty/CMSIS/Include/cmsis_gcc.h ****   __ASM volatile ("MRS %0, primask_ns" : "=r" (result) :: "memory");
 402:ThirdParty/CMSIS/Include/cmsis_gcc.h ****   return(result);
 403:ThirdParty/CMSIS/Include/cmsis_gcc.h **** }
 404:ThirdParty/CMSIS/Include/cmsis_gcc.h **** #endif
 405:ThirdParty/CMSIS/Include/cmsis_gcc.h **** 
 406:ThirdParty/CMSIS/Include/cmsis_gcc.h **** 
 407:ThirdParty/CMSIS/Include/cmsis_gcc.h **** /**
 408:ThirdParty/CMSIS/Include/cmsis_gcc.h ****   \brief   Set Priority Mask
 409:ThirdParty/CMSIS/Include/cmsis_gcc.h ****   \details Assigns the given value to the Priority Mask Register.
 410:ThirdParty/CMSIS/Include/cmsis_gcc.h ****   \param [in]    priMask  Priority Mask
 411:ThirdParty/CMSIS/Include/cmsis_gcc.h ****  */
 412:ThirdParty/CMSIS/Include/cmsis_gcc.h **** __STATIC_FORCEINLINE void __set_PRIMASK(uint32_t priMask)
 228              		.loc 4 412 27 view .LVU50
 229              	.LBB117:
 413:ThirdParty/CMSIS/Include/cmsis_gcc.h **** {
 414:ThirdParty/CMSIS/Include/cmsis_gcc.h ****   __ASM volatile ("MSR primask, %0" : : "r" (priMask) : "memory");
 230              		.loc 4 414 3 view .LVU51
 231              		.syntax unified
 232              	@ 414 "ThirdParty/CMSIS/Include/cmsis_gcc.h" 1
 233 0040 80F31088 		MSR primask, r0
 234              	@ 0 "" 2
 235              	.LVL12:
 236              		.loc 4 414 3 is_stmt 0 view .LVU52
 237              		.thumb
 238              		.syntax unified
 239              	.LBE117:
 240              	.LBE116:
 241              	.LBE118:
 242              	.LBE119:
 243              	.LBE120:
 244              	.LBE122:
  89:MotorControl/low_level.cpp **** #endif
  90:MotorControl/low_level.cpp ****     }
  91:MotorControl/low_level.cpp **** }
 245              		.loc 2 91 1 view .LVU53
 246 0044 02B0     		add	sp, sp, #8
 247              	.LCFI1:
 248              		.cfi_def_cfa_offset 0
 249              	.LVL13:
 250              		.loc 2 91 1 view .LVU54
 251              		@ sp needed
 252 0046 7047     		bx	lr
 253              	.L12:
 254              		.align	2
 255              	.L11:
 256 0048 00000000 		.word	axes
 257 004c 00000000 		.word	.LANCHOR0
 258 0050 00000000 		.word	htim2
 259              		.cfi_endproc
 260              	.LFE5158:
 261              		.cantunwind
 262              		.fnend
 264              		.section	.text.safety_critical_disarm_brake_resistor,"ax",%progbits
 265              		.align	1
 266              		.global	safety_critical_disarm_brake_resistor
 267              		.syntax unified
ARM GAS  /tmp/ccxBL0ey.s 			page 22


 268              		.thumb
 269              		.thumb_func
 271              	safety_critical_disarm_brake_resistor:
 272              		.fnstart
 273              	.LFB5159:
  92:MotorControl/low_level.cpp **** 
  93:MotorControl/low_level.cpp **** // @brief Disarms the brake resistor and by extension
  94:MotorControl/low_level.cpp **** // all motor PWM outputs.
  95:MotorControl/low_level.cpp **** // After calling this, the brake resistor can only be armed again
  96:MotorControl/low_level.cpp **** // by calling safety_critical_arm_brake_resistor().
  97:MotorControl/low_level.cpp **** void safety_critical_disarm_brake_resistor() {
 274              		.loc 2 97 46 is_stmt 1 view -0
 275              		.cfi_startproc
 276              		@ args = 0, pretend = 0, frame = 8
 277              		@ frame_needed = 0, uses_anonymous_args = 0
 278 0000 10B5     		push	{r4, lr}
 279              		.save {r4, lr}
 280              	.LCFI2:
 281              		.cfi_def_cfa_offset 8
 282              		.cfi_offset 4, -8
 283              		.cfi_offset 14, -4
 284              		.pad #8
 285 0002 82B0     		sub	sp, sp, #8
 286              	.LCFI3:
 287              		.cfi_def_cfa_offset 16
  98:MotorControl/low_level.cpp ****     bool brake_resistor_was_armed = brake_resistor_armed;
 288              		.loc 2 98 5 view .LVU56
 289              		.loc 2 98 10 is_stmt 0 view .LVU57
 290 0004 1049     		ldr	r1, .L18
 291 0006 0878     		ldrb	r0, [r1]	@ zero_extendqisi2
 292              	.LVL14:
  99:MotorControl/low_level.cpp **** 
 100:MotorControl/low_level.cpp ****     CRITICAL_SECTION() {
 293              		.loc 2 100 5 is_stmt 1 view .LVU58
 294              	.LBB123:
 295              	.LBB124:
 296              	.LBI124:
  56:./Drivers/STM32/stm32_system.h ****     ~CriticalSectionContext() { cpu_exit_critical(mask_); }
 297              		.loc 3 56 5 view .LVU59
 298              	.LBB125:
 299              	.LBB126:
 300              	.LBB127:
 301              	.LBI127:
  31:./Drivers/STM32/stm32_system.h ****     uint32_t primask = __get_PRIMASK();
 302              		.loc 3 31 24 view .LVU60
 303              	.LBB128:
  32:./Drivers/STM32/stm32_system.h ****     __disable_irq();
 304              		.loc 3 32 5 view .LVU61
 305              	.LBB129:
 306              	.LBI129:
 382:ThirdParty/CMSIS/Include/cmsis_gcc.h **** {
 307              		.loc 4 382 31 view .LVU62
 308              	.LBB130:
 384:ThirdParty/CMSIS/Include/cmsis_gcc.h **** 
 309              		.loc 4 384 3 view .LVU63
 386:ThirdParty/CMSIS/Include/cmsis_gcc.h ****   return(result);
 310              		.loc 4 386 3 view .LVU64
ARM GAS  /tmp/ccxBL0ey.s 			page 23


 311              		.syntax unified
 312              	@ 386 "ThirdParty/CMSIS/Include/cmsis_gcc.h" 1
 313 0008 EFF31082 		MRS r2, primask
 314              	@ 0 "" 2
 315              	.LVL15:
 387:ThirdParty/CMSIS/Include/cmsis_gcc.h **** }
 316              		.loc 4 387 3 view .LVU65
 387:ThirdParty/CMSIS/Include/cmsis_gcc.h **** }
 317              		.loc 4 387 3 is_stmt 0 view .LVU66
 318              		.thumb
 319              		.syntax unified
 320              	.LBE130:
 321              	.LBE129:
  33:./Drivers/STM32/stm32_system.h ****     return primask;
 322              		.loc 3 33 5 is_stmt 1 view .LVU67
 323              	.LBB131:
 324              	.LBI131:
 140:ThirdParty/CMSIS/Include/cmsis_gcc.h **** {
 325              		.loc 4 140 27 view .LVU68
 326              	.LBB132:
 142:ThirdParty/CMSIS/Include/cmsis_gcc.h **** }
 327              		.loc 4 142 3 view .LVU69
 328              		.syntax unified
 329              	@ 142 "ThirdParty/CMSIS/Include/cmsis_gcc.h" 1
 330 000c 72B6     		cpsid i
 331              	@ 0 "" 2
 332              		.thumb
 333              		.syntax unified
 334              	.LBE132:
 335              	.LBE131:
  34:./Drivers/STM32/stm32_system.h **** }
 336              		.loc 3 34 5 view .LVU70
 337              	.LBE128:
 338              	.LBE127:
  56:./Drivers/STM32/stm32_system.h ****     ~CriticalSectionContext() { cpu_exit_critical(mask_); }
 339              		.loc 3 56 58 is_stmt 0 view .LVU71
 340 000e 0092     		str	r2, [sp]
 341 0010 0023     		movs	r3, #0
 342 0012 8DF80430 		strb	r3, [sp, #4]
 343              	.LVL16:
  56:./Drivers/STM32/stm32_system.h ****     ~CriticalSectionContext() { cpu_exit_critical(mask_); }
 344              		.loc 3 56 58 view .LVU72
 345              	.LBE126:
 346              	.LBE125:
 347              	.LBE124:
 348              	.LBE123:
  55:./Drivers/STM32/stm32_system.h ****     CriticalSectionContext() : mask_(cpu_enter_critical()) {}
 349              		.loc 3 55 23 is_stmt 1 view .LVU73
 350              	.LBB141:
 101:MotorControl/low_level.cpp ****         brake_resistor_armed = false;
 351              		.loc 2 101 9 view .LVU74
 352              		.loc 2 101 30 is_stmt 0 view .LVU75
 353 0016 0B70     		strb	r3, [r1]
 102:MotorControl/low_level.cpp **** #if HW_VERSION_MAJOR == 3
 103:MotorControl/low_level.cpp ****         htim2.Instance->CCR3 = 0;
 354              		.loc 2 103 9 is_stmt 1 view .LVU76
 355              		.loc 2 103 15 is_stmt 0 view .LVU77
ARM GAS  /tmp/ccxBL0ey.s 			page 24


 356 0018 0C49     		ldr	r1, .L18+4
 357 001a 0968     		ldr	r1, [r1]
 358              		.loc 2 103 30 view .LVU78
 359 001c CB63     		str	r3, [r1, #60]
 104:MotorControl/low_level.cpp ****         htim2.Instance->CCR4 = TIM_APB1_PERIOD_CLOCKS + 1;
 360              		.loc 2 104 9 is_stmt 1 view .LVU79
 361              		.loc 2 104 30 is_stmt 0 view .LVU80
 362 001e 41F20103 		movw	r3, #4097
 363 0022 0B64     		str	r3, [r1, #64]
 364              	.LVL17:
 365              	.LBB133:
 366              	.LBI133:
 367              		.loc 3 57 5 is_stmt 1 view .LVU81
 368              	.LBB134:
 369              		.loc 3 57 33 view .LVU82
 370              	.LBB135:
 371              	.LBI135:
  37:./Drivers/STM32/stm32_system.h ****     __set_PRIMASK(priority_mask);
 372              		.loc 3 37 20 view .LVU83
 373              	.LBE135:
 374              	.LBE134:
 375              	.LBE133:
 376              	.LBE141:
  38:./Drivers/STM32/stm32_system.h **** }
 377              		.loc 3 38 5 view .LVU84
 378              	.LBB142:
 379              	.LBB140:
 380              	.LBB139:
 381              	.LBB138:
 382              	.LBB136:
 383              	.LBI136:
 412:ThirdParty/CMSIS/Include/cmsis_gcc.h **** {
 384              		.loc 4 412 27 view .LVU85
 385              	.LBB137:
 386              		.loc 4 414 3 view .LVU86
 387              		.syntax unified
 388              	@ 414 "ThirdParty/CMSIS/Include/cmsis_gcc.h" 1
 389 0024 82F31088 		MSR primask, r2
 390              	@ 0 "" 2
 391              	.LVL18:
 392              		.loc 4 414 3 is_stmt 0 view .LVU87
 393              		.thumb
 394              		.syntax unified
 395              	.LBE137:
 396              	.LBE136:
 397              	.LBE138:
 398              	.LBE139:
 399              	.LBE140:
 400              	.LBE142:
 105:MotorControl/low_level.cpp **** #endif
 106:MotorControl/low_level.cpp ****     }
 107:MotorControl/low_level.cpp **** 
 108:MotorControl/low_level.cpp ****     // Check necessary to prevent infinite recursion
 109:MotorControl/low_level.cpp ****     if (brake_resistor_was_armed) {
 401              		.loc 2 109 5 is_stmt 1 view .LVU88
 402              	.LBB143:
 403 0028 58B1     		cbz	r0, .L13
ARM GAS  /tmp/ccxBL0ey.s 			page 25


 404              	.LBB144:
 110:MotorControl/low_level.cpp ****         for (auto& axis: axes) {
 405              		.loc 2 110 26 is_stmt 0 view .LVU89
 406 002a 094C     		ldr	r4, .L18+8
 407 002c 06E0     		b	.L15
 408              	.LVL19:
 409              	.L17:
 111:MotorControl/low_level.cpp ****             axis.motor_.disarm();
 410              		.loc 2 111 13 is_stmt 1 discriminator 2 view .LVU90
 411              		.loc 2 111 31 is_stmt 0 discriminator 2 view .LVU91
 412 002e 0021     		movs	r1, #0
 413 0030 D4F85801 		ldr	r0, [r4, #344]
 414 0034 FFF7FEFF 		bl	_ZN5Motor6disarmEPb
 415              	.LVL20:
 110:MotorControl/low_level.cpp ****         for (auto& axis: axes) {
 416              		.loc 2 110 9 is_stmt 1 discriminator 2 view .LVU92
 417 0038 04F52C74 		add	r4, r4, #688
 418              	.LVL21:
 419              	.L15:
 110:MotorControl/low_level.cpp ****         for (auto& axis: axes) {
 420              		.loc 2 110 26 discriminator 3 view .LVU93
 421 003c 054B     		ldr	r3, .L18+12
 422 003e 9C42     		cmp	r4, r3
 423 0040 F5D1     		bne	.L17
 424              	.LVL22:
 425              	.L13:
 110:MotorControl/low_level.cpp ****         for (auto& axis: axes) {
 426              		.loc 2 110 26 is_stmt 0 discriminator 3 view .LVU94
 427              	.LBE144:
 428              	.LBE143:
 112:MotorControl/low_level.cpp ****         }
 113:MotorControl/low_level.cpp ****     }
 114:MotorControl/low_level.cpp **** }
 429              		.loc 2 114 1 view .LVU95
 430 0042 02B0     		add	sp, sp, #8
 431              	.LCFI4:
 432              		.cfi_def_cfa_offset 8
 433              	.LVL23:
 434              		.loc 2 114 1 view .LVU96
 435              		@ sp needed
 436 0044 10BD     		pop	{r4, pc}
 437              	.LVL24:
 438              	.L19:
 439              		.loc 2 114 1 view .LVU97
 440 0046 00BF     		.align	2
 441              	.L18:
 442 0048 00000000 		.word	.LANCHOR0
 443 004c 00000000 		.word	htim2
 444 0050 00000000 		.word	axes
 445 0054 60050000 		.word	axes+1376
 446              		.cfi_endproc
 447              	.LFE5159:
 448              		.fnend
 450              		.section	.text.safety_critical_apply_brake_resistor_timings,"ax",%progbits
 451              		.align	1
 452              		.global	safety_critical_apply_brake_resistor_timings
 453              		.syntax unified
ARM GAS  /tmp/ccxBL0ey.s 			page 26


 454              		.thumb
 455              		.thumb_func
 457              	safety_critical_apply_brake_resistor_timings:
 458              		.fnstart
 459              	.LVL25:
 460              	.LFB5164:
 115:MotorControl/low_level.cpp **** 
 116:MotorControl/low_level.cpp **** // @brief Updates the brake resistor PWM timings unless
 117:MotorControl/low_level.cpp **** // the brake resistor is disarmed.
 118:MotorControl/low_level.cpp **** void safety_critical_apply_brake_resistor_timings(uint32_t low_off, uint32_t high_on) {
 461              		.loc 2 118 87 is_stmt 1 view -0
 462              		.cfi_startproc
 463              		@ args = 0, pretend = 0, frame = 8
 464              		@ frame_needed = 0, uses_anonymous_args = 0
 465              		.loc 2 118 87 is_stmt 0 view .LVU99
 466 0000 30B5     		push	{r4, r5, lr}
 467              		.save {r4, r5, lr}
 468              	.LCFI5:
 469              		.cfi_def_cfa_offset 12
 470              		.cfi_offset 4, -12
 471              		.cfi_offset 5, -8
 472              		.cfi_offset 14, -4
 473              		.pad #12
 474 0002 83B0     		sub	sp, sp, #12
 475              	.LCFI6:
 476              		.cfi_def_cfa_offset 24
 477 0004 0546     		mov	r5, r0
 478 0006 0C46     		mov	r4, r1
 119:MotorControl/low_level.cpp ****     if (high_on - low_off < TIM_APB1_DEADTIME_CLOCKS) {
 479              		.loc 2 119 5 is_stmt 1 view .LVU100
 480              		.loc 2 119 17 is_stmt 0 view .LVU101
 481 0008 0B1A     		subs	r3, r1, r0
 482              		.loc 2 119 5 view .LVU102
 483 000a 272B     		cmp	r3, #39
 484 000c 16D9     		bls	.L24
 485              	.LVL26:
 486              	.L21:
 120:MotorControl/low_level.cpp ****         odrv.disarm_with_error(ODrive::ERROR_BRAKE_DEADTIME_VIOLATION);
 121:MotorControl/low_level.cpp ****     }
 122:MotorControl/low_level.cpp **** 
 123:MotorControl/low_level.cpp ****     CRITICAL_SECTION() {
 487              		.loc 2 123 5 is_stmt 1 view .LVU103
 488              	.LBB145:
 489              	.LBB146:
 490              	.LBI146:
  56:./Drivers/STM32/stm32_system.h ****     ~CriticalSectionContext() { cpu_exit_critical(mask_); }
 491              		.loc 3 56 5 view .LVU104
 492              	.LBB147:
 493              	.LBB148:
 494              	.LBB149:
 495              	.LBI149:
  31:./Drivers/STM32/stm32_system.h ****     uint32_t primask = __get_PRIMASK();
 496              		.loc 3 31 24 view .LVU105
 497              	.LBB150:
  32:./Drivers/STM32/stm32_system.h ****     __disable_irq();
 498              		.loc 3 32 5 view .LVU106
 499              	.LBB151:
ARM GAS  /tmp/ccxBL0ey.s 			page 27


 500              	.LBI151:
 382:ThirdParty/CMSIS/Include/cmsis_gcc.h **** {
 501              		.loc 4 382 31 view .LVU107
 502              	.LBB152:
 384:ThirdParty/CMSIS/Include/cmsis_gcc.h **** 
 503              		.loc 4 384 3 view .LVU108
 386:ThirdParty/CMSIS/Include/cmsis_gcc.h ****   return(result);
 504              		.loc 4 386 3 view .LVU109
 505              		.syntax unified
 506              	@ 386 "ThirdParty/CMSIS/Include/cmsis_gcc.h" 1
 507 000e EFF31083 		MRS r3, primask
 508              	@ 0 "" 2
 509              	.LVL27:
 387:ThirdParty/CMSIS/Include/cmsis_gcc.h **** }
 510              		.loc 4 387 3 view .LVU110
 387:ThirdParty/CMSIS/Include/cmsis_gcc.h **** }
 511              		.loc 4 387 3 is_stmt 0 view .LVU111
 512              		.thumb
 513              		.syntax unified
 514              	.LBE152:
 515              	.LBE151:
  33:./Drivers/STM32/stm32_system.h ****     return primask;
 516              		.loc 3 33 5 is_stmt 1 view .LVU112
 517              	.LBB153:
 518              	.LBI153:
 140:ThirdParty/CMSIS/Include/cmsis_gcc.h **** {
 519              		.loc 4 140 27 view .LVU113
 520              	.LBB154:
 142:ThirdParty/CMSIS/Include/cmsis_gcc.h **** }
 521              		.loc 4 142 3 view .LVU114
 522              		.syntax unified
 523              	@ 142 "ThirdParty/CMSIS/Include/cmsis_gcc.h" 1
 524 0012 72B6     		cpsid i
 525              	@ 0 "" 2
 526              		.thumb
 527              		.syntax unified
 528              	.LBE154:
 529              	.LBE153:
  34:./Drivers/STM32/stm32_system.h **** }
 530              		.loc 3 34 5 view .LVU115
 531              	.LBE150:
 532              	.LBE149:
  56:./Drivers/STM32/stm32_system.h ****     ~CriticalSectionContext() { cpu_exit_critical(mask_); }
 533              		.loc 3 56 58 is_stmt 0 view .LVU116
 534 0014 0093     		str	r3, [sp]
 535 0016 0022     		movs	r2, #0
 536 0018 8DF80420 		strb	r2, [sp, #4]
 537              	.LVL28:
  56:./Drivers/STM32/stm32_system.h ****     ~CriticalSectionContext() { cpu_exit_critical(mask_); }
 538              		.loc 3 56 58 view .LVU117
 539              	.LBE148:
 540              	.LBE147:
 541              	.LBE146:
 542              	.LBE145:
  55:./Drivers/STM32/stm32_system.h ****     CriticalSectionContext() : mask_(cpu_enter_critical()) {}
 543              		.loc 3 55 23 is_stmt 1 view .LVU118
 544              	.LBB163:
ARM GAS  /tmp/ccxBL0ey.s 			page 28


 124:MotorControl/low_level.cpp ****         if (brake_resistor_armed) {
 545              		.loc 2 124 9 view .LVU119
 546 001c 0A4A     		ldr	r2, .L25
 547 001e 1278     		ldrb	r2, [r2]	@ zero_extendqisi2
 548 0020 42B1     		cbz	r2, .L22
 125:MotorControl/low_level.cpp **** #if HW_VERSION_MAJOR == 3
 126:MotorControl/low_level.cpp ****             // Safe update of low and high side timings
 127:MotorControl/low_level.cpp ****             // To avoid race condition, first reset timings to safe state
 128:MotorControl/low_level.cpp ****             // ch3 is low side, ch4 is high side
 129:MotorControl/low_level.cpp ****             htim2.Instance->CCR3 = 0;
 549              		.loc 2 129 13 view .LVU120
 550              		.loc 2 129 19 is_stmt 0 view .LVU121
 551 0022 0A4A     		ldr	r2, .L25+4
 552 0024 1268     		ldr	r2, [r2]
 553              		.loc 2 129 34 view .LVU122
 554 0026 0021     		movs	r1, #0
 555 0028 D163     		str	r1, [r2, #60]
 130:MotorControl/low_level.cpp ****             htim2.Instance->CCR4 = TIM_APB1_PERIOD_CLOCKS + 1;
 556              		.loc 2 130 13 is_stmt 1 view .LVU123
 557              		.loc 2 130 34 is_stmt 0 view .LVU124
 558 002a 41F20101 		movw	r1, #4097
 559 002e 1164     		str	r1, [r2, #64]
 131:MotorControl/low_level.cpp ****             htim2.Instance->CCR3 = low_off;
 560              		.loc 2 131 13 is_stmt 1 view .LVU125
 561              		.loc 2 131 34 is_stmt 0 view .LVU126
 562 0030 D563     		str	r5, [r2, #60]
 132:MotorControl/low_level.cpp ****             htim2.Instance->CCR4 = high_on;
 563              		.loc 2 132 13 is_stmt 1 view .LVU127
 564              		.loc 2 132 34 is_stmt 0 view .LVU128
 565 0032 1464     		str	r4, [r2, #64]
 566              	.L22:
 567              	.LVL29:
 568              	.LBB155:
 569              	.LBI155:
 570              		.loc 3 57 5 is_stmt 1 discriminator 1 view .LVU129
 571              	.LBB156:
 572              		.loc 3 57 33 discriminator 1 view .LVU130
 573              	.LBB157:
 574              	.LBI157:
  37:./Drivers/STM32/stm32_system.h ****     __set_PRIMASK(priority_mask);
 575              		.loc 3 37 20 discriminator 1 view .LVU131
 576              	.LBE157:
 577              	.LBE156:
 578              	.LBE155:
 579              	.LBE163:
  38:./Drivers/STM32/stm32_system.h **** }
 580              		.loc 3 38 5 discriminator 1 view .LVU132
 581              	.LBB164:
 582              	.LBB162:
 583              	.LBB161:
 584              	.LBB160:
 585              	.LBB158:
 586              	.LBI158:
 412:ThirdParty/CMSIS/Include/cmsis_gcc.h **** {
 587              		.loc 4 412 27 discriminator 1 view .LVU133
 588              	.LBB159:
 589              		.loc 4 414 3 discriminator 1 view .LVU134
ARM GAS  /tmp/ccxBL0ey.s 			page 29


 590              		.syntax unified
 591              	@ 414 "ThirdParty/CMSIS/Include/cmsis_gcc.h" 1
 592 0034 83F31088 		MSR primask, r3
 593              	@ 0 "" 2
 594              	.LVL30:
 595              		.loc 4 414 3 is_stmt 0 discriminator 1 view .LVU135
 596              		.thumb
 597              		.syntax unified
 598              	.LBE159:
 599              	.LBE158:
 600              	.LBE160:
 601              	.LBE161:
 602              	.LBE162:
 603              	.LBE164:
 133:MotorControl/low_level.cpp **** #endif
 134:MotorControl/low_level.cpp ****         }
 135:MotorControl/low_level.cpp ****     }
 136:MotorControl/low_level.cpp **** }
 604              		.loc 2 136 1 discriminator 1 view .LVU136
 605 0038 03B0     		add	sp, sp, #12
 606              	.LCFI7:
 607              		.cfi_remember_state
 608              		.cfi_def_cfa_offset 12
 609              	.LVL31:
 610              		.loc 2 136 1 discriminator 1 view .LVU137
 611              		@ sp needed
 612 003a 30BD     		pop	{r4, r5, pc}
 613              	.LVL32:
 614              	.L24:
 615              	.LCFI8:
 616              		.cfi_restore_state
 120:MotorControl/low_level.cpp ****     }
 617              		.loc 2 120 9 is_stmt 1 view .LVU138
 120:MotorControl/low_level.cpp ****     }
 618              		.loc 2 120 31 is_stmt 0 view .LVU139
 619 003c 2021     		movs	r1, #32
 620              	.LVL33:
 120:MotorControl/low_level.cpp ****     }
 621              		.loc 2 120 31 view .LVU140
 622 003e 0448     		ldr	r0, .L25+8
 623              	.LVL34:
 120:MotorControl/low_level.cpp ****     }
 624              		.loc 2 120 31 view .LVU141
 625 0040 FFF7FEFF 		bl	_ZN6ODrive17disarm_with_errorEN10ODriveIntf5ErrorE
 626              	.LVL35:
 627 0044 E3E7     		b	.L21
 628              	.L26:
 629 0046 00BF     		.align	2
 630              	.L25:
 631 0048 00000000 		.word	.LANCHOR0
 632 004c 00000000 		.word	htim2
 633 0050 00000000 		.word	odrv
 634              		.cfi_endproc
 635              	.LFE5164:
 636              		.fnend
 638              		.section	.text.start_adc_pwm,"ax",%progbits
 639              		.align	1
ARM GAS  /tmp/ccxBL0ey.s 			page 30


 640              		.global	start_adc_pwm
 641              		.syntax unified
 642              		.thumb
 643              		.thumb_func
 645              	start_adc_pwm:
 646              		.fnstart
 647              	.LFB5165:
 137:MotorControl/low_level.cpp **** 
 138:MotorControl/low_level.cpp **** /* Function implementations --------------------------------------------------*/
 139:MotorControl/low_level.cpp **** 
 140:MotorControl/low_level.cpp **** void start_adc_pwm() {
 648              		.loc 2 140 22 is_stmt 1 view -0
 649              		.cfi_startproc
 650              		@ args = 0, pretend = 0, frame = 0
 651              		@ frame_needed = 0, uses_anonymous_args = 0
 652 0000 10B5     		push	{r4, lr}
 653              		.save {r4, lr}
 654              	.LCFI9:
 655              		.cfi_def_cfa_offset 8
 656              		.cfi_offset 4, -8
 657              		.cfi_offset 14, -4
 141:MotorControl/low_level.cpp ****     // Disarm motors
 142:MotorControl/low_level.cpp ****     for (auto& axis: axes) {
 658              		.loc 2 142 5 view .LVU143
 659              	.LVL36:
 660              	.LBB165:
 661              		.loc 2 142 22 is_stmt 0 view .LVU144
 662 0002 384C     		ldr	r4, .L37
 663 0004 06E0     		b	.L29
 664              	.LVL37:
 665              	.L34:
 143:MotorControl/low_level.cpp ****         axis.motor_.disarm();
 666              		.loc 2 143 9 is_stmt 1 discriminator 2 view .LVU145
 667              		.loc 2 143 27 is_stmt 0 discriminator 2 view .LVU146
 668 0006 0021     		movs	r1, #0
 669 0008 D4F85801 		ldr	r0, [r4, #344]
 670 000c FFF7FEFF 		bl	_ZN5Motor6disarmEPb
 671              	.LVL38:
 142:MotorControl/low_level.cpp ****         axis.motor_.disarm();
 672              		.loc 2 142 5 is_stmt 1 discriminator 2 view .LVU147
 673 0010 04F52C74 		add	r4, r4, #688
 674              	.LVL39:
 675              	.L29:
 142:MotorControl/low_level.cpp ****         axis.motor_.disarm();
 676              		.loc 2 142 22 discriminator 3 view .LVU148
 677 0014 344B     		ldr	r3, .L37+4
 678              	.LVL40:
 142:MotorControl/low_level.cpp ****         axis.motor_.disarm();
 679              		.loc 2 142 22 is_stmt 0 discriminator 3 view .LVU149
 680 0016 9C42     		cmp	r4, r3
 681 0018 F5D1     		bne	.L34
 682              	.LBE165:
 683              	.LBB166:
 144:MotorControl/low_level.cpp ****     }
 145:MotorControl/low_level.cpp **** 
 146:MotorControl/low_level.cpp ****     for (Motor& motor: motors) {
 684              		.loc 2 146 24 view .LVU150
ARM GAS  /tmp/ccxBL0ey.s 			page 31


 685 001a 344B     		ldr	r3, .L37+8
 686              	.LVL41:
 687              		.loc 2 146 24 view .LVU151
 688 001c 30E0     		b	.L28
 689              	.LVL42:
 690              	.L35:
 691              	.LBB167:
 147:MotorControl/low_level.cpp ****         // Init PWM
 148:MotorControl/low_level.cpp ****         int half_load = TIM_1_8_PERIOD_CLOCKS / 2;
 692              		.loc 2 148 9 is_stmt 1 discriminator 2 view .LVU152
 149:MotorControl/low_level.cpp ****         motor.timer_->Instance->CCR1 = half_load;
 693              		.loc 2 149 9 discriminator 2 view .LVU153
 694              		.loc 2 149 15 is_stmt 0 discriminator 2 view .LVU154
 695 001e 1A68     		ldr	r2, [r3]
 696              		.loc 2 149 23 discriminator 2 view .LVU155
 697 0020 1168     		ldr	r1, [r2]
 698              		.loc 2 149 38 discriminator 2 view .LVU156
 699 0022 40F2D662 		movw	r2, #1750
 700 0026 4A63     		str	r2, [r1, #52]
 150:MotorControl/low_level.cpp ****         motor.timer_->Instance->CCR2 = half_load;
 701              		.loc 2 150 9 is_stmt 1 discriminator 2 view .LVU157
 702              		.loc 2 150 15 is_stmt 0 discriminator 2 view .LVU158
 703 0028 1968     		ldr	r1, [r3]
 704              		.loc 2 150 23 discriminator 2 view .LVU159
 705 002a 0968     		ldr	r1, [r1]
 706              		.loc 2 150 38 discriminator 2 view .LVU160
 707 002c 8A63     		str	r2, [r1, #56]
 151:MotorControl/low_level.cpp ****         motor.timer_->Instance->CCR3 = half_load;
 708              		.loc 2 151 9 is_stmt 1 discriminator 2 view .LVU161
 709              		.loc 2 151 15 is_stmt 0 discriminator 2 view .LVU162
 710 002e 1968     		ldr	r1, [r3]
 711              		.loc 2 151 23 discriminator 2 view .LVU163
 712 0030 0968     		ldr	r1, [r1]
 713              		.loc 2 151 38 discriminator 2 view .LVU164
 714 0032 CA63     		str	r2, [r1, #60]
 152:MotorControl/low_level.cpp **** 
 153:MotorControl/low_level.cpp ****         // Enable PWM outputs (they are still masked by MOE though)
 154:MotorControl/low_level.cpp ****         motor.timer_->Instance->CCER |= (TIM_CCx_ENABLE << TIM_CHANNEL_1);
 715              		.loc 2 154 9 is_stmt 1 discriminator 2 view .LVU165
 716              		.loc 2 154 15 is_stmt 0 discriminator 2 view .LVU166
 717 0034 1A68     		ldr	r2, [r3]
 718              		.loc 2 154 23 discriminator 2 view .LVU167
 719 0036 1168     		ldr	r1, [r2]
 720              		.loc 2 154 38 discriminator 2 view .LVU168
 721 0038 0A6A     		ldr	r2, [r1, #32]
 722 003a 42F00102 		orr	r2, r2, #1
 723 003e 0A62     		str	r2, [r1, #32]
 155:MotorControl/low_level.cpp ****         motor.timer_->Instance->CCER |= (TIM_CCxN_ENABLE << TIM_CHANNEL_1);
 724              		.loc 2 155 9 is_stmt 1 discriminator 2 view .LVU169
 725              		.loc 2 155 15 is_stmt 0 discriminator 2 view .LVU170
 726 0040 1A68     		ldr	r2, [r3]
 727              		.loc 2 155 23 discriminator 2 view .LVU171
 728 0042 1168     		ldr	r1, [r2]
 729              		.loc 2 155 38 discriminator 2 view .LVU172
 730 0044 0A6A     		ldr	r2, [r1, #32]
 731 0046 42F00402 		orr	r2, r2, #4
 732 004a 0A62     		str	r2, [r1, #32]
ARM GAS  /tmp/ccxBL0ey.s 			page 32


 156:MotorControl/low_level.cpp ****         motor.timer_->Instance->CCER |= (TIM_CCx_ENABLE << TIM_CHANNEL_2);
 733              		.loc 2 156 9 is_stmt 1 discriminator 2 view .LVU173
 734              		.loc 2 156 15 is_stmt 0 discriminator 2 view .LVU174
 735 004c 1A68     		ldr	r2, [r3]
 736              		.loc 2 156 23 discriminator 2 view .LVU175
 737 004e 1168     		ldr	r1, [r2]
 738              		.loc 2 156 38 discriminator 2 view .LVU176
 739 0050 0A6A     		ldr	r2, [r1, #32]
 740 0052 42F01002 		orr	r2, r2, #16
 741 0056 0A62     		str	r2, [r1, #32]
 157:MotorControl/low_level.cpp ****         motor.timer_->Instance->CCER |= (TIM_CCxN_ENABLE << TIM_CHANNEL_2);
 742              		.loc 2 157 9 is_stmt 1 discriminator 2 view .LVU177
 743              		.loc 2 157 15 is_stmt 0 discriminator 2 view .LVU178
 744 0058 1A68     		ldr	r2, [r3]
 745              		.loc 2 157 23 discriminator 2 view .LVU179
 746 005a 1168     		ldr	r1, [r2]
 747              		.loc 2 157 38 discriminator 2 view .LVU180
 748 005c 0A6A     		ldr	r2, [r1, #32]
 749 005e 42F04002 		orr	r2, r2, #64
 750 0062 0A62     		str	r2, [r1, #32]
 158:MotorControl/low_level.cpp ****         motor.timer_->Instance->CCER |= (TIM_CCx_ENABLE << TIM_CHANNEL_3);
 751              		.loc 2 158 9 is_stmt 1 discriminator 2 view .LVU181
 752              		.loc 2 158 15 is_stmt 0 discriminator 2 view .LVU182
 753 0064 1A68     		ldr	r2, [r3]
 754              		.loc 2 158 23 discriminator 2 view .LVU183
 755 0066 1168     		ldr	r1, [r2]
 756              		.loc 2 158 38 discriminator 2 view .LVU184
 757 0068 0A6A     		ldr	r2, [r1, #32]
 758 006a 42F48072 		orr	r2, r2, #256
 759 006e 0A62     		str	r2, [r1, #32]
 159:MotorControl/low_level.cpp ****         motor.timer_->Instance->CCER |= (TIM_CCxN_ENABLE << TIM_CHANNEL_3);
 760              		.loc 2 159 9 is_stmt 1 discriminator 2 view .LVU185
 761              		.loc 2 159 15 is_stmt 0 discriminator 2 view .LVU186
 762 0070 1A68     		ldr	r2, [r3]
 763              		.loc 2 159 23 discriminator 2 view .LVU187
 764 0072 1168     		ldr	r1, [r2]
 765              		.loc 2 159 38 discriminator 2 view .LVU188
 766 0074 0A6A     		ldr	r2, [r1, #32]
 767 0076 42F48062 		orr	r2, r2, #1024
 768 007a 0A62     		str	r2, [r1, #32]
 769              	.LBE167:
 146:MotorControl/low_level.cpp ****         // Init PWM
 770              		.loc 2 146 5 is_stmt 1 discriminator 2 view .LVU189
 771 007c 03F5D873 		add	r3, r3, #432
 772              	.LVL43:
 773              	.L28:
 146:MotorControl/low_level.cpp ****         // Init PWM
 774              		.loc 2 146 24 discriminator 3 view .LVU190
 775 0080 1B4A     		ldr	r2, .L37+12
 776 0082 9342     		cmp	r3, r2
 777 0084 CBD1     		bne	.L35
 778              	.LBE166:
 160:MotorControl/low_level.cpp ****     }
 161:MotorControl/low_level.cpp **** 
 162:MotorControl/low_level.cpp ****     // Enable ADC and interrupts
 163:MotorControl/low_level.cpp ****     __HAL_ADC_ENABLE(&hadc1);
 779              		.loc 2 163 5 view .LVU191
ARM GAS  /tmp/ccxBL0ey.s 			page 33


 780 0086 1B4B     		ldr	r3, .L37+16
 781              	.LVL44:
 782              		.loc 2 163 5 is_stmt 0 view .LVU192
 783 0088 1A68     		ldr	r2, [r3]
 784 008a 9368     		ldr	r3, [r2, #8]
 785 008c 43F00103 		orr	r3, r3, #1
 786 0090 9360     		str	r3, [r2, #8]
 164:MotorControl/low_level.cpp ****     __HAL_ADC_ENABLE(&hadc2);
 787              		.loc 2 164 5 is_stmt 1 view .LVU193
 788 0092 194B     		ldr	r3, .L37+20
 789 0094 1A68     		ldr	r2, [r3]
 790 0096 9368     		ldr	r3, [r2, #8]
 791 0098 43F00103 		orr	r3, r3, #1
 792 009c 9360     		str	r3, [r2, #8]
 165:MotorControl/low_level.cpp ****     __HAL_ADC_ENABLE(&hadc3);
 793              		.loc 2 165 5 view .LVU194
 794 009e 174B     		ldr	r3, .L37+24
 795 00a0 1A68     		ldr	r2, [r3]
 796 00a2 9368     		ldr	r3, [r2, #8]
 797 00a4 43F00103 		orr	r3, r3, #1
 798 00a8 9360     		str	r3, [r2, #8]
 166:MotorControl/low_level.cpp ****     // Warp field stabilize.
 167:MotorControl/low_level.cpp ****     osDelay(2);
 799              		.loc 2 167 5 view .LVU195
 800              		.loc 2 167 12 is_stmt 0 view .LVU196
 801 00aa 0220     		movs	r0, #2
 802 00ac FFF7FEFF 		bl	osDelay
 803              	.LVL45:
 168:MotorControl/low_level.cpp **** 
 169:MotorControl/low_level.cpp **** 
 170:MotorControl/low_level.cpp ****     start_timers();
 804              		.loc 2 170 5 is_stmt 1 view .LVU197
 805              		.loc 2 170 17 is_stmt 0 view .LVU198
 806 00b0 FFF7FEFF 		bl	_Z12start_timersv
 807              	.LVL46:
 171:MotorControl/low_level.cpp **** 
 172:MotorControl/low_level.cpp **** 
 173:MotorControl/low_level.cpp ****     // Start brake resistor PWM in floating output configuration
 174:MotorControl/low_level.cpp **** #if HW_VERSION_MAJOR == 3
 175:MotorControl/low_level.cpp ****     htim2.Instance->CCR3 = 0;
 808              		.loc 2 175 5 is_stmt 1 view .LVU199
 809              		.loc 2 175 11 is_stmt 0 view .LVU200
 810 00b4 124C     		ldr	r4, .L37+28
 811              	.LVL47:
 812              		.loc 2 175 11 view .LVU201
 813 00b6 2368     		ldr	r3, [r4]
 814              		.loc 2 175 26 view .LVU202
 815 00b8 0022     		movs	r2, #0
 816 00ba DA63     		str	r2, [r3, #60]
 176:MotorControl/low_level.cpp ****     htim2.Instance->CCR4 = TIM_APB1_PERIOD_CLOCKS + 1;
 817              		.loc 2 176 5 is_stmt 1 view .LVU203
 818              		.loc 2 176 26 is_stmt 0 view .LVU204
 819 00bc 41F20102 		movw	r2, #4097
 820 00c0 1A64     		str	r2, [r3, #64]
 177:MotorControl/low_level.cpp ****     HAL_TIM_PWM_Start(&htim2, TIM_CHANNEL_3);
 821              		.loc 2 177 5 is_stmt 1 view .LVU205
 822              		.loc 2 177 22 is_stmt 0 view .LVU206
ARM GAS  /tmp/ccxBL0ey.s 			page 34


 823 00c2 0821     		movs	r1, #8
 824 00c4 2046     		mov	r0, r4
 825 00c6 FFF7FEFF 		bl	HAL_TIM_PWM_Start
 826              	.LVL48:
 178:MotorControl/low_level.cpp ****     HAL_TIM_PWM_Start(&htim2, TIM_CHANNEL_4);
 827              		.loc 2 178 5 is_stmt 1 view .LVU207
 828              		.loc 2 178 22 is_stmt 0 view .LVU208
 829 00ca 0C21     		movs	r1, #12
 830 00cc 2046     		mov	r0, r4
 831 00ce FFF7FEFF 		bl	HAL_TIM_PWM_Start
 832              	.LVL49:
 179:MotorControl/low_level.cpp **** #endif
 180:MotorControl/low_level.cpp **** 
 181:MotorControl/low_level.cpp ****     if (odrv.config_.enable_brake_resistor) {
 833              		.loc 2 181 5 is_stmt 1 view .LVU209
 834              		.loc 2 181 22 is_stmt 0 view .LVU210
 835 00d2 0C4B     		ldr	r3, .L37+32
 836 00d4 93F8A831 		ldrb	r3, [r3, #424]	@ zero_extendqisi2
 837              		.loc 2 181 5 view .LVU211
 838 00d8 03B9     		cbnz	r3, .L36
 839              	.L27:
 182:MotorControl/low_level.cpp ****         safety_critical_arm_brake_resistor();
 183:MotorControl/low_level.cpp ****     }
 184:MotorControl/low_level.cpp **** }
 840              		.loc 2 184 1 view .LVU212
 841 00da 10BD     		pop	{r4, pc}
 842              	.L36:
 182:MotorControl/low_level.cpp ****         safety_critical_arm_brake_resistor();
 843              		.loc 2 182 9 is_stmt 1 view .LVU213
 182:MotorControl/low_level.cpp ****         safety_critical_arm_brake_resistor();
 844              		.loc 2 182 43 is_stmt 0 view .LVU214
 845 00dc FFF7FEFF 		bl	safety_critical_arm_brake_resistor
 846              	.LVL50:
 847              		.loc 2 184 1 view .LVU215
 848 00e0 FBE7     		b	.L27
 849              	.L38:
 850 00e2 00BF     		.align	2
 851              	.L37:
 852 00e4 00000000 		.word	axes
 853 00e8 60050000 		.word	axes+1376
 854 00ec 00000000 		.word	motors
 855 00f0 60030000 		.word	motors+864
 856 00f4 00000000 		.word	hadc1
 857 00f8 00000000 		.word	hadc2
 858 00fc 00000000 		.word	hadc3
 859 0100 00000000 		.word	htim2
 860 0104 00400000 		.word	odrv+16384
 861              		.cfi_endproc
 862              	.LFE5165:
 863              		.fnend
 865              		.section	.text.start_general_purpose_adc,"ax",%progbits
 866              		.align	1
 867              		.global	start_general_purpose_adc
 868              		.syntax unified
 869              		.thumb
 870              		.thumb_func
 872              	start_general_purpose_adc:
ARM GAS  /tmp/ccxBL0ey.s 			page 35


 873              		.fnstart
 874              	.LFB5166:
 185:MotorControl/low_level.cpp **** 
 186:MotorControl/low_level.cpp **** // @brief ADC1 measurements are written to this buffer by DMA
 187:MotorControl/low_level.cpp **** uint16_t adc_measurements_[ADC_CHANNEL_COUNT] = { 0 };
 188:MotorControl/low_level.cpp **** 
 189:MotorControl/low_level.cpp **** // @brief Starts the general purpose ADC on the ADC1 peripheral.
 190:MotorControl/low_level.cpp **** // The measured ADC voltages can be read with get_adc_voltage().
 191:MotorControl/low_level.cpp **** //
 192:MotorControl/low_level.cpp **** // ADC1 is set up to continuously sample all channels 0 to 15 in a
 193:MotorControl/low_level.cpp **** // round-robin fashion.
 194:MotorControl/low_level.cpp **** // DMA is used to copy the measured 12-bit values to adc_measurements_.
 195:MotorControl/low_level.cpp **** //
 196:MotorControl/low_level.cpp **** // The injected (high priority) channel of ADC1 is used to sample vbus_voltage.
 197:MotorControl/low_level.cpp **** // This conversion is triggered by TIM1 at the frequency of the motor control loop.
 198:MotorControl/low_level.cpp **** void start_general_purpose_adc() {
 875              		.loc 2 198 34 is_stmt 1 view -0
 876              		.cfi_startproc
 877              		@ args = 0, pretend = 0, frame = 16
 878              		@ frame_needed = 0, uses_anonymous_args = 0
 879 0000 10B5     		push	{r4, lr}
 880              		.save {r4, lr}
 881              	.LCFI10:
 882              		.cfi_def_cfa_offset 8
 883              		.cfi_offset 4, -8
 884              		.cfi_offset 14, -4
 885              		.pad #16
 886 0002 84B0     		sub	sp, sp, #16
 887              	.LCFI11:
 888              		.cfi_def_cfa_offset 24
 199:MotorControl/low_level.cpp ****     ADC_ChannelConfTypeDef sConfig;
 889              		.loc 2 199 5 view .LVU217
 200:MotorControl/low_level.cpp **** 
 201:MotorControl/low_level.cpp ****     // Configure the global features of the ADC (Clock, Resolution, Data Alignment and number of co
 202:MotorControl/low_level.cpp ****     hadc1.Instance = ADC1;
 890              		.loc 2 202 5 view .LVU218
 891              		.loc 2 202 20 is_stmt 0 view .LVU219
 892 0004 1A48     		ldr	r0, .L47
 893 0006 1B4B     		ldr	r3, .L47+4
 894 0008 0360     		str	r3, [r0]
 203:MotorControl/low_level.cpp ****     hadc1.Init.ClockPrescaler = ADC_CLOCK_SYNC_PCLK_DIV4;
 895              		.loc 2 203 5 is_stmt 1 view .LVU220
 896              		.loc 2 203 31 is_stmt 0 view .LVU221
 897 000a 4FF48033 		mov	r3, #65536
 898 000e 4360     		str	r3, [r0, #4]
 204:MotorControl/low_level.cpp ****     hadc1.Init.Resolution = ADC_RESOLUTION_12B;
 899              		.loc 2 204 5 is_stmt 1 view .LVU222
 900              		.loc 2 204 27 is_stmt 0 view .LVU223
 901 0010 0022     		movs	r2, #0
 902 0012 8260     		str	r2, [r0, #8]
 205:MotorControl/low_level.cpp ****     hadc1.Init.ScanConvMode = ENABLE;
 903              		.loc 2 205 5 is_stmt 1 view .LVU224
 904              		.loc 2 205 29 is_stmt 0 view .LVU225
 905 0014 0123     		movs	r3, #1
 906 0016 0361     		str	r3, [r0, #16]
 206:MotorControl/low_level.cpp ****     hadc1.Init.ContinuousConvMode = ENABLE;
 907              		.loc 2 206 5 is_stmt 1 view .LVU226
ARM GAS  /tmp/ccxBL0ey.s 			page 36


 908              		.loc 2 206 35 is_stmt 0 view .LVU227
 909 0018 8361     		str	r3, [r0, #24]
 207:MotorControl/low_level.cpp ****     hadc1.Init.DiscontinuousConvMode = DISABLE;
 910              		.loc 2 207 5 is_stmt 1 view .LVU228
 911              		.loc 2 207 38 is_stmt 0 view .LVU229
 912 001a 0262     		str	r2, [r0, #32]
 208:MotorControl/low_level.cpp ****     hadc1.Init.ExternalTrigConvEdge = ADC_EXTERNALTRIGCONVEDGE_NONE;
 913              		.loc 2 208 5 is_stmt 1 view .LVU230
 914              		.loc 2 208 37 is_stmt 0 view .LVU231
 915 001c C262     		str	r2, [r0, #44]
 209:MotorControl/low_level.cpp ****     hadc1.Init.ExternalTrigConv = ADC_SOFTWARE_START;
 916              		.loc 2 209 5 is_stmt 1 view .LVU232
 917              		.loc 2 209 33 is_stmt 0 view .LVU233
 918 001e 1649     		ldr	r1, .L47+8
 919 0020 8162     		str	r1, [r0, #40]
 210:MotorControl/low_level.cpp ****     hadc1.Init.DataAlign = ADC_DATAALIGN_RIGHT;
 920              		.loc 2 210 5 is_stmt 1 view .LVU234
 921              		.loc 2 210 26 is_stmt 0 view .LVU235
 922 0022 C260     		str	r2, [r0, #12]
 211:MotorControl/low_level.cpp ****     hadc1.Init.NbrOfConversion = ADC_CHANNEL_COUNT;
 923              		.loc 2 211 5 is_stmt 1 view .LVU236
 924              		.loc 2 211 32 is_stmt 0 view .LVU237
 925 0024 1022     		movs	r2, #16
 926 0026 C261     		str	r2, [r0, #28]
 212:MotorControl/low_level.cpp ****     hadc1.Init.DMAContinuousRequests = ENABLE;
 927              		.loc 2 212 5 is_stmt 1 view .LVU238
 928              		.loc 2 212 38 is_stmt 0 view .LVU239
 929 0028 0363     		str	r3, [r0, #48]
 213:MotorControl/low_level.cpp ****     hadc1.Init.EOCSelection = ADC_EOC_SINGLE_CONV;
 930              		.loc 2 213 5 is_stmt 1 view .LVU240
 931              		.loc 2 213 29 is_stmt 0 view .LVU241
 932 002a 4361     		str	r3, [r0, #20]
 214:MotorControl/low_level.cpp ****     if (HAL_ADC_Init(&hadc1) != HAL_OK) {
 933              		.loc 2 214 5 is_stmt 1 view .LVU242
 934              		.loc 2 214 21 is_stmt 0 view .LVU243
 935 002c FFF7FEFF 		bl	HAL_ADC_Init
 936              	.LVL51:
 937              		.loc 2 214 5 view .LVU244
 938 0030 90B9     		cbnz	r0, .L46
 215:MotorControl/low_level.cpp ****         odrv.misconfigured_ = true; // TODO: this is a bit of an abuse of this flag
 216:MotorControl/low_level.cpp ****         return;
 217:MotorControl/low_level.cpp ****     }
 218:MotorControl/low_level.cpp **** 
 219:MotorControl/low_level.cpp ****     // Set up sampling sequence (channel 0 ... channel 15)
 220:MotorControl/low_level.cpp ****     sConfig.SamplingTime = ADC_SAMPLETIME_15CYCLES;//! 15  ADC 
 939              		.loc 2 220 5 is_stmt 1 view .LVU245
 940              		.loc 2 220 26 is_stmt 0 view .LVU246
 941 0032 0123     		movs	r3, #1
 942 0034 0293     		str	r3, [sp, #8]
 221:MotorControl/low_level.cpp ****     for (uint32_t channel = 0; channel < ADC_CHANNEL_COUNT; ++channel) {
 943              		.loc 2 221 5 is_stmt 1 view .LVU247
 944              	.LVL52:
 945              	.LBB168:
 946              		.loc 2 221 19 is_stmt 0 view .LVU248
 947 0036 0024     		movs	r4, #0
 948              	.LVL53:
 949              	.L43:
ARM GAS  /tmp/ccxBL0ey.s 			page 37


 950              		.loc 2 221 40 is_stmt 1 discriminator 1 view .LVU249
 951 0038 0F2C     		cmp	r4, #15
 952 003a 12D8     		bhi	.L42
 222:MotorControl/low_level.cpp ****         sConfig.Channel = channel << ADC_CR1_AWDCH_Pos;
 953              		.loc 2 222 9 view .LVU250
 954              		.loc 2 222 25 is_stmt 0 view .LVU251
 955 003c 0094     		str	r4, [sp]
 223:MotorControl/low_level.cpp ****         sConfig.Rank = channel + 1; // rank numbering starts at 1
 956              		.loc 2 223 9 is_stmt 1 view .LVU252
 957              		.loc 2 223 32 is_stmt 0 view .LVU253
 958 003e 0134     		adds	r4, r4, #1
 959              	.LVL54:
 960              		.loc 2 223 22 view .LVU254
 961 0040 0194     		str	r4, [sp, #4]
 224:MotorControl/low_level.cpp ****         if (HAL_ADC_ConfigChannel(&hadc1, &sConfig) != HAL_OK) {
 962              		.loc 2 224 9 is_stmt 1 view .LVU255
 963              		.loc 2 224 34 is_stmt 0 view .LVU256
 964 0042 6946     		mov	r1, sp
 965 0044 0A48     		ldr	r0, .L47
 966 0046 FFF7FEFF 		bl	HAL_ADC_ConfigChannel
 967              	.LVL55:
 968              		.loc 2 224 9 view .LVU257
 969 004a 0028     		cmp	r0, #0
 970 004c F4D0     		beq	.L43
 225:MotorControl/low_level.cpp ****             odrv.misconfigured_ = true; // TODO: this is a bit of an abuse of this flag
 971              		.loc 2 225 13 is_stmt 1 view .LVU258
 972              		.loc 2 225 33 is_stmt 0 view .LVU259
 973 004e 0B4B     		ldr	r3, .L47+12
 974 0050 0122     		movs	r2, #1
 975 0052 83F8CC22 		strb	r2, [r3, #716]
 226:MotorControl/low_level.cpp ****             return;
 976              		.loc 2 226 13 is_stmt 1 view .LVU260
 977 0056 09E0     		b	.L39
 978              	.LVL56:
 979              	.L46:
 980              		.loc 2 226 13 is_stmt 0 view .LVU261
 981              	.LBE168:
 215:MotorControl/low_level.cpp ****         return;
 982              		.loc 2 215 9 is_stmt 1 view .LVU262
 215:MotorControl/low_level.cpp ****         return;
 983              		.loc 2 215 29 is_stmt 0 view .LVU263
 984 0058 084B     		ldr	r3, .L47+12
 985 005a 0122     		movs	r2, #1
 986 005c 83F8CC22 		strb	r2, [r3, #716]
 216:MotorControl/low_level.cpp ****     }
 987              		.loc 2 216 9 is_stmt 1 view .LVU264
 988 0060 04E0     		b	.L39
 989              	.LVL57:
 990              	.L42:
 227:MotorControl/low_level.cpp ****         }
 228:MotorControl/low_level.cpp ****     }
 229:MotorControl/low_level.cpp ****     //!reinterpret_cast<uint32_t*>  adc_measurements_ 
 230:MotorControl/low_level.cpp ****     HAL_ADC_Start_DMA(&hadc1, reinterpret_cast<uint32_t*>(adc_measurements_), ADC_CHANNEL_COUNT);
 991              		.loc 2 230 5 view .LVU265
 992              		.loc 2 230 22 is_stmt 0 view .LVU266
 993 0062 1022     		movs	r2, #16
 994 0064 0649     		ldr	r1, .L47+16
ARM GAS  /tmp/ccxBL0ey.s 			page 38


 995 0066 0248     		ldr	r0, .L47
 996 0068 FFF7FEFF 		bl	HAL_ADC_Start_DMA
 997              	.LVL58:
 998              	.L39:
 231:MotorControl/low_level.cpp **** }
 999              		.loc 2 231 1 view .LVU267
 1000 006c 04B0     		add	sp, sp, #16
 1001              	.LCFI12:
 1002              		.cfi_def_cfa_offset 8
 1003              		@ sp needed
 1004 006e 10BD     		pop	{r4, pc}
 1005              	.L48:
 1006              		.align	2
 1007              	.L47:
 1008 0070 00000000 		.word	hadc1
 1009 0074 00200140 		.word	1073815552
 1010 0078 0100000F 		.word	251658241
 1011 007c 00400000 		.word	odrv+16384
 1012 0080 00000000 		.word	.LANCHOR1
 1013              		.cfi_endproc
 1014              	.LFE5166:
 1015              		.fnend
 1017              		.section	.text.channel_from_gpio,"ax",%progbits
 1018              		.align	1
 1019              		.global	channel_from_gpio
 1020              		.syntax unified
 1021              		.thumb
 1022              		.thumb_func
 1024              	channel_from_gpio:
 1025              		.fnstart
 1026              	.LFB5169:
 232:MotorControl/low_level.cpp **** 
 233:MotorControl/low_level.cpp **** // @brief Returns the ADC voltage associated with the specified pin.
 234:MotorControl/low_level.cpp **** // This only works if the GPIO was not used for anything else since bootup, otherwise
 235:MotorControl/low_level.cpp **** // it must be put to analog mode first.
 236:MotorControl/low_level.cpp **** // Returns -1.0f if the pin has no associated ADC1 channel.
 237:MotorControl/low_level.cpp **** //
 238:MotorControl/low_level.cpp **** // On ODrive 3.3 and 3.4 the following pins can be used with this function:
 239:MotorControl/low_level.cpp **** //  GPIO_1, GPIO_2, GPIO_3, GPIO_4 and some pins that are connected to
 240:MotorControl/low_level.cpp **** //  on-board sensors (M0_TEMP, M1_TEMP, AUX_TEMP)
 241:MotorControl/low_level.cpp **** //
 242:MotorControl/low_level.cpp **** // The ADC values are sampled in background at ~30kHz without
 243:MotorControl/low_level.cpp **** // any CPU involvement.
 244:MotorControl/low_level.cpp **** //
 245:MotorControl/low_level.cpp **** // Details: each of the 16 conversion takes (15+26) ADC clock
 246:MotorControl/low_level.cpp **** // cycles and the ADC, so the update rate of the entire sequence is:
 247:MotorControl/low_level.cpp **** //  21000kHz / (15+26) / 16 = 32kHz
 248:MotorControl/low_level.cpp **** // The true frequency is slightly lower because of the injected vbus
 249:MotorControl/low_level.cpp **** // measurements
 250:MotorControl/low_level.cpp **** float get_adc_voltage(Stm32Gpio gpio) {
 251:MotorControl/low_level.cpp ****     return get_adc_relative_voltage(gpio) * adc_ref_voltage;
 252:MotorControl/low_level.cpp **** }
 253:MotorControl/low_level.cpp **** 
 254:MotorControl/low_level.cpp **** float get_adc_relative_voltage(Stm32Gpio gpio) {
 255:MotorControl/low_level.cpp ****     const uint16_t channel = channel_from_gpio(gpio);
 256:MotorControl/low_level.cpp ****     return get_adc_relative_voltage_ch(channel);
 257:MotorControl/low_level.cpp **** }
ARM GAS  /tmp/ccxBL0ey.s 			page 39


 258:MotorControl/low_level.cpp **** 
 259:MotorControl/low_level.cpp **** // @brief Given a GPIO_port and pin return the associated adc_channel.
 260:MotorControl/low_level.cpp **** // returns UINT16_MAX if there is no adc_channel;
 261:MotorControl/low_level.cpp **** uint16_t channel_from_gpio(Stm32Gpio gpio) {
 1027              		.loc 2 261 44 is_stmt 1 view -0
 1028              		.cfi_startproc
 1029              		@ args = 0, pretend = 0, frame = 8
 1030              		@ frame_needed = 0, uses_anonymous_args = 0
 1031              		@ link register save eliminated.
 1032 0000 82B0     		sub	sp, sp, #8
 1033              	.LCFI13:
 1034              		.cfi_def_cfa_offset 8
 1035 0002 02AB     		add	r3, sp, #8
 1036 0004 03E90300 		stmdb	r3, {r0, r1}
 262:MotorControl/low_level.cpp ****     uint32_t channel = UINT32_MAX;
 1037              		.loc 2 262 5 view .LVU269
 1038              	.LVL59:
 263:MotorControl/low_level.cpp ****     if (gpio.port_ == GPIOA) {
 1039              		.loc 2 263 5 view .LVU270
 1040 0008 2E4A     		ldr	r2, .L74
 1041 000a 9042     		cmp	r0, r2
 1042 000c 0AD0     		beq	.L71
 264:MotorControl/low_level.cpp ****         if (gpio.pin_mask_ == GPIO_PIN_0)
 265:MotorControl/low_level.cpp ****             channel = 0;
 266:MotorControl/low_level.cpp ****         else if (gpio.pin_mask_ == GPIO_PIN_1)
 267:MotorControl/low_level.cpp ****             channel = 1;
 268:MotorControl/low_level.cpp ****         else if (gpio.pin_mask_ == GPIO_PIN_2)
 269:MotorControl/low_level.cpp ****             channel = 2;
 270:MotorControl/low_level.cpp ****         else if (gpio.pin_mask_ == GPIO_PIN_3)
 271:MotorControl/low_level.cpp ****             channel = 3;
 272:MotorControl/low_level.cpp ****         else if (gpio.pin_mask_ == GPIO_PIN_4)
 273:MotorControl/low_level.cpp ****             channel = 4;
 274:MotorControl/low_level.cpp ****         else if (gpio.pin_mask_ == GPIO_PIN_5)
 275:MotorControl/low_level.cpp ****             channel = 5;
 276:MotorControl/low_level.cpp ****         else if (gpio.pin_mask_ == GPIO_PIN_6)
 277:MotorControl/low_level.cpp ****             channel = 6;
 278:MotorControl/low_level.cpp ****         else if (gpio.pin_mask_ == GPIO_PIN_7)
 279:MotorControl/low_level.cpp ****             channel = 7;
 280:MotorControl/low_level.cpp ****     } else if (gpio.port_ == GPIOB) {
 1043              		.loc 2 280 12 view .LVU271
 1044 000e 2E4A     		ldr	r2, .L74+4
 1045 0010 9042     		cmp	r0, r2
 1046 0012 1CD0     		beq	.L72
 281:MotorControl/low_level.cpp ****         if (gpio.pin_mask_ == GPIO_PIN_0)
 282:MotorControl/low_level.cpp ****             channel = 8;
 283:MotorControl/low_level.cpp ****         else if (gpio.pin_mask_ == GPIO_PIN_1)
 284:MotorControl/low_level.cpp ****             channel = 9;
 285:MotorControl/low_level.cpp ****     } else if (gpio.port_ == GPIOC) {
 1047              		.loc 2 285 12 view .LVU272
 1048 0014 2D4A     		ldr	r2, .L74+8
 1049 0016 9042     		cmp	r0, r2
 1050 0018 22D0     		beq	.L73
 262:MotorControl/low_level.cpp ****     if (gpio.port_ == GPIOA) {
 1051              		.loc 2 262 14 is_stmt 0 view .LVU273
 1052 001a 4FF0FF30 		mov	r0, #-1
 1053              	.L51:
 1054              	.LVL60:
ARM GAS  /tmp/ccxBL0ey.s 			page 40


 286:MotorControl/low_level.cpp ****         if (gpio.pin_mask_ == GPIO_PIN_0)
 287:MotorControl/low_level.cpp ****             channel = 10;
 288:MotorControl/low_level.cpp ****         else if (gpio.pin_mask_ == GPIO_PIN_1)
 289:MotorControl/low_level.cpp ****             channel = 11;
 290:MotorControl/low_level.cpp ****         else if (gpio.pin_mask_ == GPIO_PIN_2)
 291:MotorControl/low_level.cpp ****             channel = 12;
 292:MotorControl/low_level.cpp ****         else if (gpio.pin_mask_ == GPIO_PIN_3)
 293:MotorControl/low_level.cpp ****             channel = 13;
 294:MotorControl/low_level.cpp ****         else if (gpio.pin_mask_ == GPIO_PIN_4)
 295:MotorControl/low_level.cpp ****             channel = 14;
 296:MotorControl/low_level.cpp ****         else if (gpio.pin_mask_ == GPIO_PIN_5)
 297:MotorControl/low_level.cpp ****             channel = 15;
 298:MotorControl/low_level.cpp ****     }
 299:MotorControl/low_level.cpp ****     return channel;
 1055              		.loc 2 299 5 is_stmt 1 view .LVU274
 300:MotorControl/low_level.cpp **** }
 1056              		.loc 2 300 1 is_stmt 0 view .LVU275
 1057 001e 80B2     		uxth	r0, r0
 1058              	.LVL61:
 1059              		.loc 2 300 1 view .LVU276
 1060 0020 02B0     		add	sp, sp, #8
 1061              	.LCFI14:
 1062              		.cfi_remember_state
 1063              		.cfi_def_cfa_offset 0
 1064              		@ sp needed
 1065 0022 7047     		bx	lr
 1066              	.LVL62:
 1067              	.L71:
 1068              	.LCFI15:
 1069              		.cfi_restore_state
 264:MotorControl/low_level.cpp ****             channel = 0;
 1070              		.loc 2 264 9 is_stmt 1 view .LVU277
 264:MotorControl/low_level.cpp ****             channel = 0;
 1071              		.loc 2 264 18 is_stmt 0 view .LVU278
 1072 0024 BDF80430 		ldrh	r3, [sp, #4]
 264:MotorControl/low_level.cpp ****             channel = 0;
 1073              		.loc 2 264 9 view .LVU279
 1074 0028 012B     		cmp	r3, #1
 1075 002a 2AD0     		beq	.L53
 266:MotorControl/low_level.cpp ****             channel = 1;
 1076              		.loc 2 266 14 is_stmt 1 view .LVU280
 1077 002c 022B     		cmp	r3, #2
 1078 002e 2AD0     		beq	.L54
 268:MotorControl/low_level.cpp ****             channel = 2;
 1079              		.loc 2 268 14 view .LVU281
 1080 0030 042B     		cmp	r3, #4
 1081 0032 2AD0     		beq	.L55
 270:MotorControl/low_level.cpp ****             channel = 3;
 1082              		.loc 2 270 14 view .LVU282
 1083 0034 082B     		cmp	r3, #8
 1084 0036 2AD0     		beq	.L56
 272:MotorControl/low_level.cpp ****             channel = 4;
 1085              		.loc 2 272 14 view .LVU283
 1086 0038 102B     		cmp	r3, #16
 1087 003a 2AD0     		beq	.L57
 274:MotorControl/low_level.cpp ****             channel = 5;
 1088              		.loc 2 274 14 view .LVU284
ARM GAS  /tmp/ccxBL0ey.s 			page 41


 1089 003c 202B     		cmp	r3, #32
 1090 003e 2AD0     		beq	.L58
 276:MotorControl/low_level.cpp ****             channel = 6;
 1091              		.loc 2 276 14 view .LVU285
 1092 0040 402B     		cmp	r3, #64
 1093 0042 2AD0     		beq	.L59
 278:MotorControl/low_level.cpp ****             channel = 7;
 1094              		.loc 2 278 14 view .LVU286
 1095 0044 802B     		cmp	r3, #128
 1096 0046 2AD0     		beq	.L60
 262:MotorControl/low_level.cpp ****     if (gpio.port_ == GPIOA) {
 1097              		.loc 2 262 14 is_stmt 0 view .LVU287
 1098 0048 4FF0FF30 		mov	r0, #-1
 1099 004c E7E7     		b	.L51
 1100              	.L72:
 281:MotorControl/low_level.cpp ****             channel = 8;
 1101              		.loc 2 281 9 is_stmt 1 view .LVU288
 281:MotorControl/low_level.cpp ****             channel = 8;
 1102              		.loc 2 281 18 is_stmt 0 view .LVU289
 1103 004e BDF80430 		ldrh	r3, [sp, #4]
 281:MotorControl/low_level.cpp ****             channel = 8;
 1104              		.loc 2 281 9 view .LVU290
 1105 0052 012B     		cmp	r3, #1
 1106 0054 25D0     		beq	.L61
 283:MotorControl/low_level.cpp ****             channel = 9;
 1107              		.loc 2 283 14 is_stmt 1 view .LVU291
 1108 0056 022B     		cmp	r3, #2
 1109 0058 25D0     		beq	.L62
 262:MotorControl/low_level.cpp ****     if (gpio.port_ == GPIOA) {
 1110              		.loc 2 262 14 is_stmt 0 view .LVU292
 1111 005a 4FF0FF30 		mov	r0, #-1
 1112 005e DEE7     		b	.L51
 1113              	.L73:
 286:MotorControl/low_level.cpp ****             channel = 10;
 1114              		.loc 2 286 9 is_stmt 1 view .LVU293
 286:MotorControl/low_level.cpp ****             channel = 10;
 1115              		.loc 2 286 18 is_stmt 0 view .LVU294
 1116 0060 BDF80430 		ldrh	r3, [sp, #4]
 286:MotorControl/low_level.cpp ****             channel = 10;
 1117              		.loc 2 286 9 view .LVU295
 1118 0064 012B     		cmp	r3, #1
 1119 0066 20D0     		beq	.L64
 288:MotorControl/low_level.cpp ****             channel = 11;
 1120              		.loc 2 288 14 is_stmt 1 view .LVU296
 1121 0068 022B     		cmp	r3, #2
 1122 006a 20D0     		beq	.L65
 290:MotorControl/low_level.cpp ****             channel = 12;
 1123              		.loc 2 290 14 view .LVU297
 1124 006c 042B     		cmp	r3, #4
 1125 006e 20D0     		beq	.L66
 292:MotorControl/low_level.cpp ****             channel = 13;
 1126              		.loc 2 292 14 view .LVU298
 1127 0070 082B     		cmp	r3, #8
 1128 0072 20D0     		beq	.L67
 294:MotorControl/low_level.cpp ****             channel = 14;
 1129              		.loc 2 294 14 view .LVU299
 1130 0074 102B     		cmp	r3, #16
ARM GAS  /tmp/ccxBL0ey.s 			page 42


 1131 0076 20D0     		beq	.L68
 296:MotorControl/low_level.cpp ****             channel = 15;
 1132              		.loc 2 296 14 view .LVU300
 1133 0078 202B     		cmp	r3, #32
 1134 007a 20D0     		beq	.L69
 262:MotorControl/low_level.cpp ****     if (gpio.port_ == GPIOA) {
 1135              		.loc 2 262 14 is_stmt 0 view .LVU301
 1136 007c 4FF0FF30 		mov	r0, #-1
 1137 0080 CDE7     		b	.L51
 1138              	.L53:
 265:MotorControl/low_level.cpp ****         else if (gpio.pin_mask_ == GPIO_PIN_1)
 1139              		.loc 2 265 21 view .LVU302
 1140 0082 0020     		movs	r0, #0
 1141 0084 CBE7     		b	.L51
 1142              	.L54:
 267:MotorControl/low_level.cpp ****         else if (gpio.pin_mask_ == GPIO_PIN_2)
 1143              		.loc 2 267 21 view .LVU303
 1144 0086 0120     		movs	r0, #1
 1145 0088 C9E7     		b	.L51
 1146              	.L55:
 269:MotorControl/low_level.cpp ****         else if (gpio.pin_mask_ == GPIO_PIN_3)
 1147              		.loc 2 269 21 view .LVU304
 1148 008a 0220     		movs	r0, #2
 1149 008c C7E7     		b	.L51
 1150              	.L56:
 271:MotorControl/low_level.cpp ****         else if (gpio.pin_mask_ == GPIO_PIN_4)
 1151              		.loc 2 271 21 view .LVU305
 1152 008e 0320     		movs	r0, #3
 1153 0090 C5E7     		b	.L51
 1154              	.L57:
 273:MotorControl/low_level.cpp ****         else if (gpio.pin_mask_ == GPIO_PIN_5)
 1155              		.loc 2 273 21 view .LVU306
 1156 0092 0420     		movs	r0, #4
 1157 0094 C3E7     		b	.L51
 1158              	.L58:
 275:MotorControl/low_level.cpp ****         else if (gpio.pin_mask_ == GPIO_PIN_6)
 1159              		.loc 2 275 21 view .LVU307
 1160 0096 0520     		movs	r0, #5
 1161 0098 C1E7     		b	.L51
 1162              	.L59:
 277:MotorControl/low_level.cpp ****         else if (gpio.pin_mask_ == GPIO_PIN_7)
 1163              		.loc 2 277 21 view .LVU308
 1164 009a 0620     		movs	r0, #6
 1165 009c BFE7     		b	.L51
 1166              	.L60:
 279:MotorControl/low_level.cpp ****     } else if (gpio.port_ == GPIOB) {
 1167              		.loc 2 279 21 view .LVU309
 1168 009e 0720     		movs	r0, #7
 1169 00a0 BDE7     		b	.L51
 1170              	.L61:
 282:MotorControl/low_level.cpp ****         else if (gpio.pin_mask_ == GPIO_PIN_1)
 1171              		.loc 2 282 21 view .LVU310
 1172 00a2 0820     		movs	r0, #8
 1173 00a4 BBE7     		b	.L51
 1174              	.L62:
 284:MotorControl/low_level.cpp ****     } else if (gpio.port_ == GPIOC) {
 1175              		.loc 2 284 21 view .LVU311
ARM GAS  /tmp/ccxBL0ey.s 			page 43


 1176 00a6 0920     		movs	r0, #9
 1177 00a8 B9E7     		b	.L51
 1178              	.L64:
 287:MotorControl/low_level.cpp ****         else if (gpio.pin_mask_ == GPIO_PIN_1)
 1179              		.loc 2 287 21 view .LVU312
 1180 00aa 0A20     		movs	r0, #10
 1181 00ac B7E7     		b	.L51
 1182              	.L65:
 289:MotorControl/low_level.cpp ****         else if (gpio.pin_mask_ == GPIO_PIN_2)
 1183              		.loc 2 289 21 view .LVU313
 1184 00ae 0B20     		movs	r0, #11
 1185 00b0 B5E7     		b	.L51
 1186              	.L66:
 291:MotorControl/low_level.cpp ****         else if (gpio.pin_mask_ == GPIO_PIN_3)
 1187              		.loc 2 291 21 view .LVU314
 1188 00b2 0C20     		movs	r0, #12
 1189 00b4 B3E7     		b	.L51
 1190              	.L67:
 293:MotorControl/low_level.cpp ****         else if (gpio.pin_mask_ == GPIO_PIN_4)
 1191              		.loc 2 293 21 view .LVU315
 1192 00b6 0D20     		movs	r0, #13
 1193 00b8 B1E7     		b	.L51
 1194              	.L68:
 295:MotorControl/low_level.cpp ****         else if (gpio.pin_mask_ == GPIO_PIN_5)
 1195              		.loc 2 295 21 view .LVU316
 1196 00ba 0E20     		movs	r0, #14
 1197 00bc AFE7     		b	.L51
 1198              	.L69:
 297:MotorControl/low_level.cpp ****     }
 1199              		.loc 2 297 21 view .LVU317
 1200 00be 0F20     		movs	r0, #15
 1201 00c0 ADE7     		b	.L51
 1202              	.L75:
 1203 00c2 00BF     		.align	2
 1204              	.L74:
 1205 00c4 00000240 		.word	1073872896
 1206 00c8 00040240 		.word	1073873920
 1207 00cc 00080240 		.word	1073874944
 1208              		.cfi_endproc
 1209              	.LFE5169:
 1210              		.cantunwind
 1211              		.fnend
 1213              		.section	.text.get_adc_relative_voltage_ch,"ax",%progbits
 1214              		.align	1
 1215              		.global	get_adc_relative_voltage_ch
 1216              		.syntax unified
 1217              		.thumb
 1218              		.thumb_func
 1220              	get_adc_relative_voltage_ch:
 1221              		.fnstart
 1222              	.LVL63:
 1223              	.LFB5170:
 301:MotorControl/low_level.cpp **** 
 302:MotorControl/low_level.cpp **** // @brief Given an adc channel return the voltage as a ratio of adc_ref_voltage
 303:MotorControl/low_level.cpp **** // returns -1.0f if the channel is not valid.
 304:MotorControl/low_level.cpp **** float get_adc_relative_voltage_ch(uint16_t channel) {
 1224              		.loc 2 304 53 is_stmt 1 view -0
ARM GAS  /tmp/ccxBL0ey.s 			page 44


 1225              		.cfi_startproc
 1226              		@ args = 0, pretend = 0, frame = 0
 1227              		@ frame_needed = 0, uses_anonymous_args = 0
 1228              		@ link register save eliminated.
 305:MotorControl/low_level.cpp ****     if (channel < ADC_CHANNEL_COUNT)
 1229              		.loc 2 305 5 view .LVU319
 1230 0000 0F28     		cmp	r0, #15
 1231 0002 0BD8     		bhi	.L78
 306:MotorControl/low_level.cpp ****         return (float)adc_measurements_[channel] / adc_full_scale;
 1232              		.loc 2 306 9 view .LVU320
 1233              		.loc 2 306 48 is_stmt 0 view .LVU321
 1234 0004 074B     		ldr	r3, .L79
 1235 0006 33F81030 		ldrh	r3, [r3, r0, lsl #1]
 1236 000a 00EE103A 		vmov	s0, r3	@ int
 1237              		.loc 2 306 16 view .LVU322
 1238 000e B8EE400A 		vcvt.f32.u32	s0, s0
 1239              		.loc 2 306 52 view .LVU323
 1240 0012 DFED057A 		vldr.32	s15, .L79+4
 1241 0016 20EE270A 		vmul.f32	s0, s0, s15
 1242 001a 7047     		bx	lr
 1243              	.L78:
 307:MotorControl/low_level.cpp ****     else
 308:MotorControl/low_level.cpp ****         return -1.0f;
 1244              		.loc 2 308 17 view .LVU324
 1245 001c BFEE000A 		vmov.f32	s0, #-1.0e+0
 309:MotorControl/low_level.cpp **** }
 1246              		.loc 2 309 1 view .LVU325
 1247 0020 7047     		bx	lr
 1248              	.L80:
 1249 0022 00BF     		.align	2
 1250              	.L79:
 1251 0024 00000000 		.word	.LANCHOR1
 1252 0028 00008039 		.word	964689920
 1253              		.cfi_endproc
 1254              	.LFE5170:
 1255              		.cantunwind
 1256              		.fnend
 1258              		.section	.text.get_adc_relative_voltage,"ax",%progbits
 1259              		.align	1
 1260              		.global	get_adc_relative_voltage
 1261              		.syntax unified
 1262              		.thumb
 1263              		.thumb_func
 1265              	get_adc_relative_voltage:
 1266              		.fnstart
 1267              	.LFB5168:
 254:MotorControl/low_level.cpp ****     const uint16_t channel = channel_from_gpio(gpio);
 1268              		.loc 2 254 48 is_stmt 1 view -0
 1269              		.cfi_startproc
 1270              		@ args = 0, pretend = 0, frame = 8
 1271              		@ frame_needed = 0, uses_anonymous_args = 0
 1272 0000 00B5     		push	{lr}
 1273              	.LCFI16:
 1274              		.cfi_def_cfa_offset 4
 1275              		.cfi_offset 14, -4
 1276 0002 83B0     		sub	sp, sp, #12
 1277              	.LCFI17:
ARM GAS  /tmp/ccxBL0ey.s 			page 45


 1278              		.cfi_def_cfa_offset 16
 1279 0004 6B46     		mov	r3, sp
 1280 0006 83E80300 		stm	r3, {r0, r1}
 255:MotorControl/low_level.cpp ****     return get_adc_relative_voltage_ch(channel);
 1281              		.loc 2 255 5 view .LVU327
 255:MotorControl/low_level.cpp ****     return get_adc_relative_voltage_ch(channel);
 1282              		.loc 2 255 47 is_stmt 0 view .LVU328
 1283 000a 93E80300 		ldm	r3, {r0, r1}
 1284 000e FFF7FEFF 		bl	channel_from_gpio
 1285              	.LVL64:
 256:MotorControl/low_level.cpp **** }
 1286              		.loc 2 256 5 is_stmt 1 view .LVU329
 256:MotorControl/low_level.cpp **** }
 1287              		.loc 2 256 39 is_stmt 0 view .LVU330
 1288 0012 FFF7FEFF 		bl	get_adc_relative_voltage_ch
 1289              	.LVL65:
 257:MotorControl/low_level.cpp **** 
 1290              		.loc 2 257 1 view .LVU331
 1291 0016 03B0     		add	sp, sp, #12
 1292              	.LCFI18:
 1293              		.cfi_def_cfa_offset 4
 1294              		@ sp needed
 1295 0018 5DF804FB 		ldr	pc, [sp], #4
 1296              		.cfi_endproc
 1297              	.LFE5168:
 1298              		.cantunwind
 1299              		.fnend
 1301              		.section	.text.get_adc_voltage,"ax",%progbits
 1302              		.align	1
 1303              		.global	get_adc_voltage
 1304              		.syntax unified
 1305              		.thumb
 1306              		.thumb_func
 1308              	get_adc_voltage:
 1309              		.fnstart
 1310              	.LFB5167:
 250:MotorControl/low_level.cpp ****     return get_adc_relative_voltage(gpio) * adc_ref_voltage;
 1311              		.loc 2 250 39 is_stmt 1 view -0
 1312              		.cfi_startproc
 1313              		@ args = 0, pretend = 0, frame = 8
 1314              		@ frame_needed = 0, uses_anonymous_args = 0
 1315 0000 00B5     		push	{lr}
 1316              	.LCFI19:
 1317              		.cfi_def_cfa_offset 4
 1318              		.cfi_offset 14, -4
 1319 0002 83B0     		sub	sp, sp, #12
 1320              	.LCFI20:
 1321              		.cfi_def_cfa_offset 16
 1322 0004 6B46     		mov	r3, sp
 1323 0006 83E80300 		stm	r3, {r0, r1}
 251:MotorControl/low_level.cpp **** }
 1324              		.loc 2 251 5 view .LVU333
 251:MotorControl/low_level.cpp **** }
 1325              		.loc 2 251 36 is_stmt 0 view .LVU334
 1326 000a 93E80300 		ldm	r3, {r0, r1}
 1327 000e FFF7FEFF 		bl	get_adc_relative_voltage
 1328              	.LVL66:
ARM GAS  /tmp/ccxBL0ey.s 			page 46


 252:MotorControl/low_level.cpp **** 
 1329              		.loc 2 252 1 view .LVU335
 1330 0012 DFED037A 		vldr.32	s15, .L85
 1331 0016 20EE270A 		vmul.f32	s0, s0, s15
 1332 001a 03B0     		add	sp, sp, #12
 1333              	.LCFI21:
 1334              		.cfi_def_cfa_offset 4
 1335              		@ sp needed
 1336 001c 5DF804FB 		ldr	pc, [sp], #4
 1337              	.L86:
 1338              		.align	2
 1339              	.L85:
 1340 0020 33335340 		.word	1079194419
 1341              		.cfi_endproc
 1342              	.LFE5167:
 1343              		.cantunwind
 1344              		.fnend
 1346              		.section	.text._ZL22update_analog_endpointPK12PWMMapping_ti,"ax",%progbits
 1347              		.align	1
 1348              		.syntax unified
 1349              		.thumb
 1350              		.thumb_func
 1352              	_ZL22update_analog_endpointPK12PWMMapping_ti:
 1353              		.fnstart
 1354              	.LVL67:
 1355              	.LFB5173:
 310:MotorControl/low_level.cpp **** 
 311:MotorControl/low_level.cpp **** //--------------------------------
 312:MotorControl/low_level.cpp **** // IRQ Callbacks
 313:MotorControl/low_level.cpp **** //--------------------------------
 314:MotorControl/low_level.cpp **** 
 315:MotorControl/low_level.cpp **** void vbus_sense_adc_cb(uint32_t adc_value) {
 316:MotorControl/low_level.cpp ****     //!1UL << 12UL  4096 12  ADC 
 317:MotorControl/low_level.cpp ****     //!#define VBUS_S_DIVIDER_RATIO 19.0f
 318:MotorControl/low_level.cpp ****     //!voltage_scale  ADC 1 
 319:MotorControl/low_level.cpp ****     constexpr float voltage_scale = adc_ref_voltage * VBUS_S_DIVIDER_RATIO / adc_full_scale;
 320:MotorControl/low_level.cpp ****     vbus_voltage = adc_value * voltage_scale;
 321:MotorControl/low_level.cpp **** }
 322:MotorControl/low_level.cpp **** 
 323:MotorControl/low_level.cpp **** // @brief Sums up the Ibus contribution of each motor and updates the
 324:MotorControl/low_level.cpp **** // brake resistor PWM accordingly.
 325:MotorControl/low_level.cpp **** void update_brake_current() {
 326:MotorControl/low_level.cpp ****     float Ibus_sum = 0.0f;
 327:MotorControl/low_level.cpp ****     for (size_t i = 0; i < AXIS_COUNT; ++i) {
 328:MotorControl/low_level.cpp ****         if (axes[i].motor_.is_armed_) {
 329:MotorControl/low_level.cpp ****             Ibus_sum += axes[i].motor_.I_bus_;
 330:MotorControl/low_level.cpp ****         }
 331:MotorControl/low_level.cpp ****     }
 332:MotorControl/low_level.cpp **** 
 333:MotorControl/low_level.cpp ****     float brake_duty = 0.0f;
 334:MotorControl/low_level.cpp ****     float brake_current = 0.0f;
 335:MotorControl/low_level.cpp ****     if (odrv.config_.enable_brake_resistor) {
 336:MotorControl/low_level.cpp ****         if (!(odrv.config_.brake_resistance > 0.0f)) {
 337:MotorControl/low_level.cpp ****             odrv.disarm_with_error(ODrive::ERROR_INVALID_BRAKE_RESISTANCE);
 338:MotorControl/low_level.cpp ****             return;
 339:MotorControl/low_level.cpp ****         }
 340:MotorControl/low_level.cpp ****     
ARM GAS  /tmp/ccxBL0ey.s 			page 47


 341:MotorControl/low_level.cpp ****         // Don't start braking until -Ibus > regen_current_allowed
 342:MotorControl/low_level.cpp ****         brake_current = -Ibus_sum - odrv.config_.max_regen_current;
 343:MotorControl/low_level.cpp ****         brake_duty = brake_current * odrv.config_.brake_resistance / vbus_voltage;
 344:MotorControl/low_level.cpp ****         
 345:MotorControl/low_level.cpp ****         if (odrv.config_.enable_dc_bus_overvoltage_ramp && (odrv.config_.brake_resistance > 0.0f) &
 346:MotorControl/low_level.cpp ****             brake_duty += std::max((vbus_voltage - odrv.config_.dc_bus_overvoltage_ramp_start) / (o
 347:MotorControl/low_level.cpp ****         }
 348:MotorControl/low_level.cpp **** 
 349:MotorControl/low_level.cpp ****         if (is_nan(brake_duty)) {
 350:MotorControl/low_level.cpp ****             // Shuts off all motors AND brake resistor, sets error code on all motors.
 351:MotorControl/low_level.cpp ****             odrv.disarm_with_error(ODrive::ERROR_BRAKE_DUTY_CYCLE_NAN);
 352:MotorControl/low_level.cpp ****             return;
 353:MotorControl/low_level.cpp ****         }
 354:MotorControl/low_level.cpp **** 
 355:MotorControl/low_level.cpp ****         if (brake_duty >= 0.95f) {
 356:MotorControl/low_level.cpp ****             brake_resistor_saturated = true;
 357:MotorControl/low_level.cpp ****         }
 358:MotorControl/low_level.cpp **** 
 359:MotorControl/low_level.cpp ****         // Duty limit at 95% to allow bootstrap caps to charge
 360:MotorControl/low_level.cpp ****         brake_duty = std::clamp(brake_duty, 0.0f, 0.95f);
 361:MotorControl/low_level.cpp **** 
 362:MotorControl/low_level.cpp ****         // This cannot result in NaN (safe for race conditions) because we check
 363:MotorControl/low_level.cpp ****         // brake_resistance != 0 further up.
 364:MotorControl/low_level.cpp ****         brake_current = brake_duty * vbus_voltage / odrv.config_.brake_resistance;
 365:MotorControl/low_level.cpp ****         Ibus_sum += brake_duty * vbus_voltage / odrv.config_.brake_resistance;
 366:MotorControl/low_level.cpp ****     } else {
 367:MotorControl/low_level.cpp ****         brake_duty = 0;
 368:MotorControl/low_level.cpp ****     }
 369:MotorControl/low_level.cpp **** 
 370:MotorControl/low_level.cpp ****     brake_resistor_current = brake_current;
 371:MotorControl/low_level.cpp ****     ibus_ += odrv.ibus_report_filter_k_ * (Ibus_sum - ibus_);
 372:MotorControl/low_level.cpp **** 
 373:MotorControl/low_level.cpp ****     if (Ibus_sum > odrv.config_.dc_max_positive_current) {
 374:MotorControl/low_level.cpp ****         odrv.disarm_with_error(ODrive::ERROR_DC_BUS_OVER_CURRENT);
 375:MotorControl/low_level.cpp ****         return;
 376:MotorControl/low_level.cpp ****     }
 377:MotorControl/low_level.cpp ****     if (Ibus_sum < odrv.config_.dc_max_negative_current) {
 378:MotorControl/low_level.cpp ****         odrv.disarm_with_error(ODrive::ERROR_DC_BUS_OVER_REGEN_CURRENT);
 379:MotorControl/low_level.cpp ****         return;
 380:MotorControl/low_level.cpp ****     }
 381:MotorControl/low_level.cpp ****     
 382:MotorControl/low_level.cpp ****     int high_on = (int)(TIM_APB1_PERIOD_CLOCKS * (1.0f - brake_duty));
 383:MotorControl/low_level.cpp ****     int low_off = high_on - TIM_APB1_DEADTIME_CLOCKS;
 384:MotorControl/low_level.cpp ****     if (low_off < 0) low_off = 0;
 385:MotorControl/low_level.cpp ****     safety_critical_apply_brake_resistor_timings(low_off, high_on);
 386:MotorControl/low_level.cpp **** }
 387:MotorControl/low_level.cpp **** 
 388:MotorControl/low_level.cpp **** 
 389:MotorControl/low_level.cpp **** /* Analog speed control input */
 390:MotorControl/low_level.cpp **** 
 391:MotorControl/low_level.cpp **** static void update_analog_endpoint(const struct PWMMapping_t *map, int gpio)
 392:MotorControl/low_level.cpp **** {
 1356              		.loc 2 392 1 is_stmt 1 view -0
 1357              		.cfi_startproc
 1358              		@ args = 0, pretend = 0, frame = 8
 1359              		@ frame_needed = 0, uses_anonymous_args = 0
 1360              		.loc 2 392 1 is_stmt 0 view .LVU337
ARM GAS  /tmp/ccxBL0ey.s 			page 48


 1361 0000 30B5     		push	{r4, r5, lr}
 1362              		.save {r4, r5, lr}
 1363              	.LCFI22:
 1364              		.cfi_def_cfa_offset 12
 1365              		.cfi_offset 4, -12
 1366              		.cfi_offset 5, -8
 1367              		.cfi_offset 14, -4
 1368              		.pad #12
 1369 0002 83B0     		sub	sp, sp, #12
 1370              	.LCFI23:
 1371              		.cfi_def_cfa_offset 24
 1372 0004 0446     		mov	r4, r0
 393:MotorControl/low_level.cpp ****     float fraction = get_adc_voltage(get_gpio(gpio)) / 3.3f;
 1373              		.loc 2 393 5 is_stmt 1 view .LVU338
 1374              		.loc 2 393 37 is_stmt 0 view .LVU339
 1375 0006 6D46     		mov	r5, sp
 1376 0008 2846     		mov	r0, r5
 1377              	.LVL68:
 1378              		.loc 2 393 37 view .LVU340
 1379 000a FFF7FEFF 		bl	_ZL8get_gpioj
 1380              	.LVL69:
 1381              		.loc 2 393 37 view .LVU341
 1382 000e 95E80300 		ldm	r5, {r0, r1}
 1383 0012 FFF7FEFF 		bl	get_adc_voltage
 1384              	.LVL70:
 1385              		.loc 2 393 56 view .LVU342
 1386 0016 DFED097A 		vldr.32	s15, .L89
 1387 001a 80EE277A 		vdiv.f32	s14, s0, s15
 1388              	.LVL71:
 394:MotorControl/low_level.cpp ****     float value = map->min + (fraction * (map->max - map->min));
 1389              		.loc 2 394 5 is_stmt 1 view .LVU343
 1390              		.loc 2 394 24 is_stmt 0 view .LVU344
 1391 001e 94ED010A 		vldr.32	s0, [r4, #4]
 1392              		.loc 2 394 48 view .LVU345
 1393 0022 D4ED027A 		vldr.32	s15, [r4, #8]
 1394              		.loc 2 394 52 view .LVU346
 1395 0026 77EEC07A 		vsub.f32	s15, s15, s0
 1396              		.loc 2 394 40 view .LVU347
 1397 002a 67EE877A 		vmul.f32	s15, s15, s14
 1398              	.LVL72:
 395:MotorControl/low_level.cpp ****     fibre::set_endpoint_from_float(map->endpoint, value);
 1399              		.loc 2 395 5 is_stmt 1 view .LVU348
 1400              		.loc 2 395 35 is_stmt 0 view .LVU349
 1401 002e 30EE270A 		vadd.f32	s0, s0, s15
 1402              	.LVL73:
 1403              		.loc 2 395 35 view .LVU350
 1404 0032 2068     		ldr	r0, [r4]
 1405 0034 FFF7FEFF 		bl	_ZN5fibre23set_endpoint_from_floatE14endpoint_ref_tf
 1406              	.LVL74:
 396:MotorControl/low_level.cpp **** }
 1407              		.loc 2 396 1 view .LVU351
 1408 0038 03B0     		add	sp, sp, #12
 1409              	.LCFI24:
 1410              		.cfi_def_cfa_offset 12
 1411              		@ sp needed
 1412 003a 30BD     		pop	{r4, r5, pc}
 1413              	.LVL75:
ARM GAS  /tmp/ccxBL0ey.s 			page 49


 1414              	.L90:
 1415              		.loc 2 396 1 view .LVU352
 1416              		.align	2
 1417              	.L89:
 1418 003c 33335340 		.word	1079194419
 1419              		.cfi_endproc
 1420              	.LFE5173:
 1421              		.fnend
 1423              		.section	.text._ZL21analog_polling_threadPv,"ax",%progbits
 1424              		.align	1
 1425              		.syntax unified
 1426              		.thumb
 1427              		.thumb_func
 1429              	_ZL21analog_polling_threadPv:
 1430              		.fnstart
 1431              	.LFB5174:
 397:MotorControl/low_level.cpp **** 
 398:MotorControl/low_level.cpp **** static void analog_polling_thread(void *)
 399:MotorControl/low_level.cpp **** {
 1432              		.loc 2 399 1 is_stmt 1 view -0
 1433              		.cfi_startproc
 1434              		@ args = 0, pretend = 0, frame = 0
 1435              		@ frame_needed = 0, uses_anonymous_args = 0
 1436 0000 38B5     		push	{r3, r4, r5, lr}
 1437              		.save {r3, r4, r5, lr}
 1438              	.LCFI25:
 1439              		.cfi_def_cfa_offset 16
 1440              		.cfi_offset 3, -16
 1441              		.cfi_offset 4, -12
 1442              		.cfi_offset 5, -8
 1443              		.cfi_offset 14, -4
 1444 0002 18E0     		b	.L95
 1445              	.LVL76:
 1446              	.L93:
 1447              	.LBB169:
 1448              	.LBB170:
 400:MotorControl/low_level.cpp ****     while (true) {
 401:MotorControl/low_level.cpp ****         for (int i = 0; i < GPIO_COUNT; i++) {
 1449              		.loc 2 401 9 discriminator 2 view .LVU354
 1450 0004 0134     		adds	r4, r4, #1
 1451              	.LVL77:
 1452              	.L94:
 1453              		.loc 2 401 27 discriminator 1 view .LVU355
 1454 0006 102C     		cmp	r4, #16
 1455 0008 12DC     		bgt	.L92
 1456              	.LBB171:
 402:MotorControl/low_level.cpp ****             struct PWMMapping_t *map = &odrv.config_.analog_mappings[i];
 1457              		.loc 2 402 13 view .LVU356
 1458              		.loc 2 402 34 is_stmt 0 view .LVU357
 1459 000a 04EB4403 		add	r3, r4, r4, lsl #1
 1460 000e 44F2F812 		movw	r2, #16888
 1461 0012 02EB8303 		add	r3, r2, r3, lsl #2
 1462 0016 094A     		ldr	r2, .L97
 1463 0018 1344     		add	r3, r3, r2
 1464 001a 1D1D     		adds	r5, r3, #4
 1465              	.LVL78:
 403:MotorControl/low_level.cpp **** 
ARM GAS  /tmp/ccxBL0ey.s 			page 50


 404:MotorControl/low_level.cpp ****             if (fibre::is_endpoint_ref_valid(map->endpoint))
 1466              		.loc 2 404 13 is_stmt 1 view .LVU358
 1467              		.loc 2 404 45 is_stmt 0 view .LVU359
 1468 001c 5868     		ldr	r0, [r3, #4]
 1469 001e FFF7FEFF 		bl	_ZN5fibre21is_endpoint_ref_validE14endpoint_ref_t
 1470              	.LVL79:
 1471              		.loc 2 404 13 view .LVU360
 1472 0022 0028     		cmp	r0, #0
 1473 0024 EED0     		beq	.L93
 405:MotorControl/low_level.cpp ****                 update_analog_endpoint(map, i);
 1474              		.loc 2 405 17 is_stmt 1 view .LVU361
 1475              		.loc 2 405 39 is_stmt 0 view .LVU362
 1476 0026 2146     		mov	r1, r4
 1477 0028 2846     		mov	r0, r5
 1478 002a FFF7FEFF 		bl	_ZL22update_analog_endpointPK12PWMMapping_ti
 1479              	.LVL80:
 1480 002e E9E7     		b	.L93
 1481              	.LVL81:
 1482              	.L92:
 1483              		.loc 2 405 39 view .LVU363
 1484              	.LBE171:
 1485              	.LBE170:
 406:MotorControl/low_level.cpp ****         }
 407:MotorControl/low_level.cpp ****         osDelay(10);
 1486              		.loc 2 407 9 is_stmt 1 view .LVU364
 1487              		.loc 2 407 16 is_stmt 0 view .LVU365
 1488 0030 0A20     		movs	r0, #10
 1489 0032 FFF7FEFF 		bl	osDelay
 1490              	.LVL82:
 1491              	.LBE169:
 400:MotorControl/low_level.cpp ****         for (int i = 0; i < GPIO_COUNT; i++) {
 1492              		.loc 2 400 5 is_stmt 1 view .LVU366
 1493              	.L95:
 400:MotorControl/low_level.cpp ****         for (int i = 0; i < GPIO_COUNT; i++) {
 1494              		.loc 2 400 5 view .LVU367
 1495              	.LBB173:
 401:MotorControl/low_level.cpp ****             struct PWMMapping_t *map = &odrv.config_.analog_mappings[i];
 1496              		.loc 2 401 9 view .LVU368
 1497              	.LBB172:
 401:MotorControl/low_level.cpp ****             struct PWMMapping_t *map = &odrv.config_.analog_mappings[i];
 1498              		.loc 2 401 18 is_stmt 0 view .LVU369
 1499 0036 0024     		movs	r4, #0
 1500 0038 E5E7     		b	.L94
 1501              	.L98:
 1502 003a 00BF     		.align	2
 1503              	.L97:
 1504 003c 00000000 		.word	odrv
 1505              	.LBE172:
 1506              	.LBE173:
 1507              		.cfi_endproc
 1508              	.LFE5174:
 1509              		.fnend
 1511              		.section	.text.vbus_sense_adc_cb,"ax",%progbits
 1512              		.align	1
 1513              		.global	vbus_sense_adc_cb
 1514              		.syntax unified
 1515              		.thumb
ARM GAS  /tmp/ccxBL0ey.s 			page 51


 1516              		.thumb_func
 1518              	vbus_sense_adc_cb:
 1519              		.fnstart
 1520              	.LVL83:
 1521              	.LFB5171:
 315:MotorControl/low_level.cpp ****     //!1UL << 12UL  4096 12  ADC 
 1522              		.loc 2 315 44 is_stmt 1 view -0
 1523              		.cfi_startproc
 1524              		@ args = 0, pretend = 0, frame = 0
 1525              		@ frame_needed = 0, uses_anonymous_args = 0
 1526              		@ link register save eliminated.
 315:MotorControl/low_level.cpp ****     //!1UL << 12UL  4096 12  ADC 
 1527              		.loc 2 315 44 is_stmt 0 view .LVU371
 1528 0000 07EE900A 		vmov	s15, r0	@ int
 319:MotorControl/low_level.cpp ****     vbus_voltage = adc_value * voltage_scale;
 1529              		.loc 2 319 5 is_stmt 1 view .LVU372
 1530              	.LVL84:
 320:MotorControl/low_level.cpp **** }
 1531              		.loc 2 320 5 view .LVU373
 320:MotorControl/low_level.cpp **** }
 1532              		.loc 2 320 30 is_stmt 0 view .LVU374
 1533 0004 F8EE677A 		vcvt.f32.u32	s15, s15
 1534 0008 9FED037A 		vldr.32	s14, .L100
 1535 000c 67EE877A 		vmul.f32	s15, s15, s14
 320:MotorControl/low_level.cpp **** }
 1536              		.loc 2 320 18 view .LVU375
 1537 0010 024B     		ldr	r3, .L100+4
 1538 0012 C3ED007A 		vstr.32	s15, [r3]
 321:MotorControl/low_level.cpp **** 
 1539              		.loc 2 321 1 view .LVU376
 1540 0016 7047     		bx	lr
 1541              	.L101:
 1542              		.align	2
 1543              	.L100:
 1544 0018 CDCC7A3C 		.word	1014680781
 1545 001c 00000000 		.word	.LANCHOR2
 1546              		.cfi_endproc
 1547              	.LFE5171:
 1548              		.cantunwind
 1549              		.fnend
 1551              		.section	.text.update_brake_current,"ax",%progbits
 1552              		.align	1
 1553              		.global	update_brake_current
 1554              		.syntax unified
 1555              		.thumb
 1556              		.thumb_func
 1558              	update_brake_current:
 1559              		.fnstart
 1560              	.LFB5172:
 325:MotorControl/low_level.cpp ****     float Ibus_sum = 0.0f;
 1561              		.loc 2 325 29 is_stmt 1 view -0
 1562              		.cfi_startproc
 1563              		@ args = 0, pretend = 0, frame = 24
 1564              		@ frame_needed = 0, uses_anonymous_args = 0
 1565 0000 00B5     		push	{lr}
 1566              		.save {lr}
 1567              	.LCFI26:
ARM GAS  /tmp/ccxBL0ey.s 			page 52


 1568              		.cfi_def_cfa_offset 4
 1569              		.cfi_offset 14, -4
 1570              		.pad #28
 1571 0002 87B0     		sub	sp, sp, #28
 1572              	.LCFI27:
 1573              		.cfi_def_cfa_offset 32
 326:MotorControl/low_level.cpp ****     for (size_t i = 0; i < AXIS_COUNT; ++i) {
 1574              		.loc 2 326 5 view .LVU378
 1575              	.LVL85:
 327:MotorControl/low_level.cpp ****         if (axes[i].motor_.is_armed_) {
 1576              		.loc 2 327 5 view .LVU379
 1577              	.LBB174:
 327:MotorControl/low_level.cpp ****         if (axes[i].motor_.is_armed_) {
 1578              		.loc 2 327 17 is_stmt 0 view .LVU380
 1579 0004 0023     		movs	r3, #0
 1580              	.LBE174:
 326:MotorControl/low_level.cpp ****     for (size_t i = 0; i < AXIS_COUNT; ++i) {
 1581              		.loc 2 326 11 view .LVU381
 1582 0006 DFED707A 		vldr.32	s15, .L144
 1583 000a 00E0     		b	.L105
 1584              	.LVL86:
 1585              	.L104:
 1586              	.LBB177:
 327:MotorControl/low_level.cpp ****         if (axes[i].motor_.is_armed_) {
 1587              		.loc 2 327 5 is_stmt 1 discriminator 2 view .LVU382
 1588 000c 0133     		adds	r3, r3, #1
 1589              	.LVL87:
 1590              	.L105:
 327:MotorControl/low_level.cpp ****         if (axes[i].motor_.is_armed_) {
 1591              		.loc 2 327 26 discriminator 1 view .LVU383
 1592 000e 012B     		cmp	r3, #1
 1593 0010 0FD8     		bhi	.L103
 328:MotorControl/low_level.cpp ****             Ibus_sum += axes[i].motor_.I_bus_;
 1594              		.loc 2 328 9 view .LVU384
 1595              	.LVL88:
 1596              	.LBB175:
 1597              	.LBI175:
 1598              		.loc 5 185 7 view .LVU385
 1599              	.LBB176:
 1600              	.LBI176:
  55:/opt/gcc-arm-none-eabi/arm-none-eabi/include/c++/10.3.1/array ****       { return const_cast<_Tp&>(__t[__n]); }
 1601              		.loc 5 55 7 view .LVU386
  55:/opt/gcc-arm-none-eabi/arm-none-eabi/include/c++/10.3.1/array ****       { return const_cast<_Tp&>(__t[__n]); }
 1602              		.loc 5 55 7 is_stmt 0 view .LVU387
 1603              	.LBE176:
 1604              	.LBE175:
 328:MotorControl/low_level.cpp ****             Ibus_sum += axes[i].motor_.I_bus_;
 1605              		.loc 2 328 21 view .LVU388
 1606 0012 6E4A     		ldr	r2, .L144+4
 1607 0014 4FF42C71 		mov	r1, #688
 1608 0018 01FB0322 		mla	r2, r1, r3, r2
 1609 001c D2F85821 		ldr	r2, [r2, #344]
 328:MotorControl/low_level.cpp ****             Ibus_sum += axes[i].motor_.I_bus_;
 1610              		.loc 2 328 28 view .LVU389
 1611 0020 92F89C10 		ldrb	r1, [r2, #156]	@ zero_extendqisi2
 328:MotorControl/low_level.cpp ****             Ibus_sum += axes[i].motor_.I_bus_;
 1612              		.loc 2 328 9 view .LVU390
ARM GAS  /tmp/ccxBL0ey.s 			page 53


 1613 0024 0029     		cmp	r1, #0
 1614 0026 F1D0     		beq	.L104
 329:MotorControl/low_level.cpp ****         }
 1615              		.loc 2 329 13 is_stmt 1 view .LVU391
 329:MotorControl/low_level.cpp ****         }
 1616              		.loc 2 329 40 is_stmt 0 view .LVU392
 1617 0028 92ED307A 		vldr.32	s14, [r2, #192]
 329:MotorControl/low_level.cpp ****         }
 1618              		.loc 2 329 22 view .LVU393
 1619 002c 77EE877A 		vadd.f32	s15, s15, s14
 1620              	.LVL89:
 329:MotorControl/low_level.cpp ****         }
 1621              		.loc 2 329 22 view .LVU394
 1622 0030 ECE7     		b	.L104
 1623              	.L103:
 329:MotorControl/low_level.cpp ****         }
 1624              		.loc 2 329 22 view .LVU395
 1625              	.LBE177:
 333:MotorControl/low_level.cpp ****     float brake_current = 0.0f;
 1626              		.loc 2 333 5 is_stmt 1 view .LVU396
 333:MotorControl/low_level.cpp ****     float brake_current = 0.0f;
 1627              		.loc 2 333 11 is_stmt 0 view .LVU397
 1628 0032 0023     		movs	r3, #0
 1629              	.LVL90:
 333:MotorControl/low_level.cpp ****     float brake_current = 0.0f;
 1630              		.loc 2 333 11 view .LVU398
 1631 0034 0193     		str	r3, [sp, #4]	@ float
 334:MotorControl/low_level.cpp ****     if (odrv.config_.enable_brake_resistor) {
 1632              		.loc 2 334 5 is_stmt 1 view .LVU399
 1633              	.LVL91:
 335:MotorControl/low_level.cpp ****         if (!(odrv.config_.brake_resistance > 0.0f)) {
 1634              		.loc 2 335 5 view .LVU400
 335:MotorControl/low_level.cpp ****         if (!(odrv.config_.brake_resistance > 0.0f)) {
 1635              		.loc 2 335 22 is_stmt 0 view .LVU401
 1636 0036 664B     		ldr	r3, .L144+8
 1637 0038 93F8A831 		ldrb	r3, [r3, #424]	@ zero_extendqisi2
 335:MotorControl/low_level.cpp ****         if (!(odrv.config_.brake_resistance > 0.0f)) {
 1638              		.loc 2 335 5 view .LVU402
 1639 003c 002B     		cmp	r3, #0
 1640 003e 7DD0     		beq	.L124
 336:MotorControl/low_level.cpp ****             odrv.disarm_with_error(ODrive::ERROR_INVALID_BRAKE_RESISTANCE);
 1641              		.loc 2 336 9 is_stmt 1 view .LVU403
 336:MotorControl/low_level.cpp ****             odrv.disarm_with_error(ODrive::ERROR_INVALID_BRAKE_RESISTANCE);
 1642              		.loc 2 336 28 is_stmt 0 view .LVU404
 1643 0040 634B     		ldr	r3, .L144+8
 1644 0042 93ED696A 		vldr.32	s12, [r3, #420]
 336:MotorControl/low_level.cpp ****             odrv.disarm_with_error(ODrive::ERROR_INVALID_BRAKE_RESISTANCE);
 1645              		.loc 2 336 9 view .LVU405
 1646 0046 B5EEC06A 		vcmpe.f32	s12, #0
 1647 004a F1EE10FA 		vmrs	APSR_nzcv, FPSCR
 1648 004e 5ADD     		ble	.L139
 342:MotorControl/low_level.cpp ****         brake_duty = brake_current * odrv.config_.brake_resistance / vbus_voltage;
 1649              		.loc 2 342 9 is_stmt 1 view .LVU406
 342:MotorControl/low_level.cpp ****         brake_duty = brake_current * odrv.config_.brake_resistance / vbus_voltage;
 1650              		.loc 2 342 25 is_stmt 0 view .LVU407
 1651 0050 B1EE677A 		vneg.f32	s14, s15
 342:MotorControl/low_level.cpp ****         brake_duty = brake_current * odrv.config_.brake_resistance / vbus_voltage;
ARM GAS  /tmp/ccxBL0ey.s 			page 54


 1652              		.loc 2 342 50 view .LVU408
 1653 0054 5E4B     		ldr	r3, .L144+8
 1654 0056 D3ED686A 		vldr.32	s13, [r3, #416]
 342:MotorControl/low_level.cpp ****         brake_duty = brake_current * odrv.config_.brake_resistance / vbus_voltage;
 1655              		.loc 2 342 23 view .LVU409
 1656 005a 37EE667A 		vsub.f32	s14, s14, s13
 1657              	.LVL92:
 343:MotorControl/low_level.cpp ****         
 1658              		.loc 2 343 9 is_stmt 1 view .LVU410
 343:MotorControl/low_level.cpp ****         
 1659              		.loc 2 343 36 is_stmt 0 view .LVU411
 1660 005e 26EE077A 		vmul.f32	s14, s12, s14
 1661              	.LVL93:
 343:MotorControl/low_level.cpp ****         
 1662              		.loc 2 343 68 view .LVU412
 1663 0062 5C4A     		ldr	r2, .L144+12
 1664 0064 D2ED006A 		vldr.32	s13, [r2]
 1665              	.LVL94:
 343:MotorControl/low_level.cpp ****         
 1666              		.loc 2 343 68 view .LVU413
 1667 0068 C7EE265A 		vdiv.f32	s11, s14, s13
 343:MotorControl/low_level.cpp ****         
 1668              		.loc 2 343 20 view .LVU414
 1669 006c CDED015A 		vstr.32	s11, [sp, #4]
 345:MotorControl/low_level.cpp ****             brake_duty += std::max((vbus_voltage - odrv.config_.dc_bus_overvoltage_ramp_start) / (o
 1670              		.loc 2 345 9 is_stmt 1 view .LVU415
 345:MotorControl/low_level.cpp ****             brake_duty += std::max((vbus_voltage - odrv.config_.dc_bus_overvoltage_ramp_start) / (o
 1671              		.loc 2 345 26 is_stmt 0 view .LVU416
 1672 0070 93F8B431 		ldrb	r3, [r3, #436]	@ zero_extendqisi2
 1673              	.LVL95:
 345:MotorControl/low_level.cpp ****             brake_duty += std::max((vbus_voltage - odrv.config_.dc_bus_overvoltage_ramp_start) / (o
 1674              		.loc 2 345 9 view .LVU417
 1675 0074 23B3     		cbz	r3, .L109
 345:MotorControl/low_level.cpp ****             brake_duty += std::max((vbus_voltage - odrv.config_.dc_bus_overvoltage_ramp_start) / (o
 1676              		.loc 2 345 57 discriminator 1 view .LVU418
 1677 0076 B5EEC06A 		vcmpe.f32	s12, #0
 1678 007a F1EE10FA 		vmrs	APSR_nzcv, FPSCR
 1679 007e 1FDD     		ble	.L109
 345:MotorControl/low_level.cpp ****             brake_duty += std::max((vbus_voltage - odrv.config_.dc_bus_overvoltage_ramp_start) / (o
 1680              		.loc 2 345 116 discriminator 2 view .LVU419
 1681 0080 534B     		ldr	r3, .L144+8
 1682              	.LVL96:
 345:MotorControl/low_level.cpp ****             brake_duty += std::max((vbus_voltage - odrv.config_.dc_bus_overvoltage_ramp_start) / (o
 1683              		.loc 2 345 116 discriminator 2 view .LVU420
 1684 0082 93ED6E5A 		vldr.32	s10, [r3, #440]
 345:MotorControl/low_level.cpp ****             brake_duty += std::max((vbus_voltage - odrv.config_.dc_bus_overvoltage_ramp_start) / (o
 1685              		.loc 2 345 161 discriminator 2 view .LVU421
 1686 0086 93ED6F7A 		vldr.32	s14, [r3, #444]
 345:MotorControl/low_level.cpp ****             brake_duty += std::max((vbus_voltage - odrv.config_.dc_bus_overvoltage_ramp_start) / (o
 1687              		.loc 2 345 99 discriminator 2 view .LVU422
 1688 008a B4EEC75A 		vcmpe.f32	s10, s14
 1689 008e F1EE10FA 		vmrs	APSR_nzcv, FPSCR
 1690 0092 15D5     		bpl	.L109
 346:MotorControl/low_level.cpp ****         }
 1691              		.loc 2 346 13 is_stmt 1 view .LVU423
 346:MotorControl/low_level.cpp ****         }
 1692              		.loc 2 346 50 is_stmt 0 view .LVU424
ARM GAS  /tmp/ccxBL0ey.s 			page 55


 1693 0094 76EEC54A 		vsub.f32	s9, s13, s10
 346:MotorControl/low_level.cpp ****         }
 1694              		.loc 2 346 140 view .LVU425
 1695 0098 37EE457A 		vsub.f32	s14, s14, s10
 346:MotorControl/low_level.cpp ****         }
 1696              		.loc 2 346 96 view .LVU426
 1697 009c 84EE875A 		vdiv.f32	s10, s9, s14
 1698 00a0 8DED025A 		vstr.32	s10, [sp, #8]
 346:MotorControl/low_level.cpp ****         }
 1699              		.loc 2 346 187 view .LVU427
 1700 00a4 0023     		movs	r3, #0
 1701              	.LVL97:
 346:MotorControl/low_level.cpp ****         }
 1702              		.loc 2 346 187 view .LVU428
 1703 00a6 0393     		str	r3, [sp, #12]	@ float
 1704              	.LVL98:
 1705              	.LBB178:
 1706              	.LBI178:
 1707              		.file 6 "/opt/gcc-arm-none-eabi/arm-none-eabi/include/c++/10.3.1/bits/stl_algobase.h"
   1:/opt/gcc-arm-none-eabi/arm-none-eabi/include/c++/10.3.1/bits/stl_algobase.h **** // Core algorithmic facilities -*- C++ -*-
   2:/opt/gcc-arm-none-eabi/arm-none-eabi/include/c++/10.3.1/bits/stl_algobase.h **** 
   3:/opt/gcc-arm-none-eabi/arm-none-eabi/include/c++/10.3.1/bits/stl_algobase.h **** // Copyright (C) 2001-2020 Free Software Foundation, Inc.
   4:/opt/gcc-arm-none-eabi/arm-none-eabi/include/c++/10.3.1/bits/stl_algobase.h **** //
   5:/opt/gcc-arm-none-eabi/arm-none-eabi/include/c++/10.3.1/bits/stl_algobase.h **** // This file is part of the GNU ISO C++ Library.  This library is free
   6:/opt/gcc-arm-none-eabi/arm-none-eabi/include/c++/10.3.1/bits/stl_algobase.h **** // software; you can redistribute it and/or modify it under the
   7:/opt/gcc-arm-none-eabi/arm-none-eabi/include/c++/10.3.1/bits/stl_algobase.h **** // terms of the GNU General Public License as published by the
   8:/opt/gcc-arm-none-eabi/arm-none-eabi/include/c++/10.3.1/bits/stl_algobase.h **** // Free Software Foundation; either version 3, or (at your option)
   9:/opt/gcc-arm-none-eabi/arm-none-eabi/include/c++/10.3.1/bits/stl_algobase.h **** // any later version.
  10:/opt/gcc-arm-none-eabi/arm-none-eabi/include/c++/10.3.1/bits/stl_algobase.h **** 
  11:/opt/gcc-arm-none-eabi/arm-none-eabi/include/c++/10.3.1/bits/stl_algobase.h **** // This library is distributed in the hope that it will be useful,
  12:/opt/gcc-arm-none-eabi/arm-none-eabi/include/c++/10.3.1/bits/stl_algobase.h **** // but WITHOUT ANY WARRANTY; without even the implied warranty of
  13:/opt/gcc-arm-none-eabi/arm-none-eabi/include/c++/10.3.1/bits/stl_algobase.h **** // MERCHANTABILITY or FITNESS FOR A PARTICULAR PURPOSE.  See the
  14:/opt/gcc-arm-none-eabi/arm-none-eabi/include/c++/10.3.1/bits/stl_algobase.h **** // GNU General Public License for more details.
  15:/opt/gcc-arm-none-eabi/arm-none-eabi/include/c++/10.3.1/bits/stl_algobase.h **** 
  16:/opt/gcc-arm-none-eabi/arm-none-eabi/include/c++/10.3.1/bits/stl_algobase.h **** // Under Section 7 of GPL version 3, you are granted additional
  17:/opt/gcc-arm-none-eabi/arm-none-eabi/include/c++/10.3.1/bits/stl_algobase.h **** // permissions described in the GCC Runtime Library Exception, version
  18:/opt/gcc-arm-none-eabi/arm-none-eabi/include/c++/10.3.1/bits/stl_algobase.h **** // 3.1, as published by the Free Software Foundation.
  19:/opt/gcc-arm-none-eabi/arm-none-eabi/include/c++/10.3.1/bits/stl_algobase.h **** 
  20:/opt/gcc-arm-none-eabi/arm-none-eabi/include/c++/10.3.1/bits/stl_algobase.h **** // You should have received a copy of the GNU General Public License and
  21:/opt/gcc-arm-none-eabi/arm-none-eabi/include/c++/10.3.1/bits/stl_algobase.h **** // a copy of the GCC Runtime Library Exception along with this program;
  22:/opt/gcc-arm-none-eabi/arm-none-eabi/include/c++/10.3.1/bits/stl_algobase.h **** // see the files COPYING3 and COPYING.RUNTIME respectively.  If not, see
  23:/opt/gcc-arm-none-eabi/arm-none-eabi/include/c++/10.3.1/bits/stl_algobase.h **** // <http://www.gnu.org/licenses/>.
  24:/opt/gcc-arm-none-eabi/arm-none-eabi/include/c++/10.3.1/bits/stl_algobase.h **** 
  25:/opt/gcc-arm-none-eabi/arm-none-eabi/include/c++/10.3.1/bits/stl_algobase.h **** /*
  26:/opt/gcc-arm-none-eabi/arm-none-eabi/include/c++/10.3.1/bits/stl_algobase.h ****  *
  27:/opt/gcc-arm-none-eabi/arm-none-eabi/include/c++/10.3.1/bits/stl_algobase.h ****  * Copyright (c) 1994
  28:/opt/gcc-arm-none-eabi/arm-none-eabi/include/c++/10.3.1/bits/stl_algobase.h ****  * Hewlett-Packard Company
  29:/opt/gcc-arm-none-eabi/arm-none-eabi/include/c++/10.3.1/bits/stl_algobase.h ****  *
  30:/opt/gcc-arm-none-eabi/arm-none-eabi/include/c++/10.3.1/bits/stl_algobase.h ****  * Permission to use, copy, modify, distribute and sell this software
  31:/opt/gcc-arm-none-eabi/arm-none-eabi/include/c++/10.3.1/bits/stl_algobase.h ****  * and its documentation for any purpose is hereby granted without fee,
  32:/opt/gcc-arm-none-eabi/arm-none-eabi/include/c++/10.3.1/bits/stl_algobase.h ****  * provided that the above copyright notice appear in all copies and
  33:/opt/gcc-arm-none-eabi/arm-none-eabi/include/c++/10.3.1/bits/stl_algobase.h ****  * that both that copyright notice and this permission notice appear
  34:/opt/gcc-arm-none-eabi/arm-none-eabi/include/c++/10.3.1/bits/stl_algobase.h ****  * in supporting documentation.  Hewlett-Packard Company makes no
  35:/opt/gcc-arm-none-eabi/arm-none-eabi/include/c++/10.3.1/bits/stl_algobase.h ****  * representations about the suitability of this software for any
  36:/opt/gcc-arm-none-eabi/arm-none-eabi/include/c++/10.3.1/bits/stl_algobase.h ****  * purpose.  It is provided "as is" without express or implied warranty.
  37:/opt/gcc-arm-none-eabi/arm-none-eabi/include/c++/10.3.1/bits/stl_algobase.h ****  *
  38:/opt/gcc-arm-none-eabi/arm-none-eabi/include/c++/10.3.1/bits/stl_algobase.h ****  *
ARM GAS  /tmp/ccxBL0ey.s 			page 56


  39:/opt/gcc-arm-none-eabi/arm-none-eabi/include/c++/10.3.1/bits/stl_algobase.h ****  * Copyright (c) 1996-1998
  40:/opt/gcc-arm-none-eabi/arm-none-eabi/include/c++/10.3.1/bits/stl_algobase.h ****  * Silicon Graphics Computer Systems, Inc.
  41:/opt/gcc-arm-none-eabi/arm-none-eabi/include/c++/10.3.1/bits/stl_algobase.h ****  *
  42:/opt/gcc-arm-none-eabi/arm-none-eabi/include/c++/10.3.1/bits/stl_algobase.h ****  * Permission to use, copy, modify, distribute and sell this software
  43:/opt/gcc-arm-none-eabi/arm-none-eabi/include/c++/10.3.1/bits/stl_algobase.h ****  * and its documentation for any purpose is hereby granted without fee,
  44:/opt/gcc-arm-none-eabi/arm-none-eabi/include/c++/10.3.1/bits/stl_algobase.h ****  * provided that the above copyright notice appear in all copies and
  45:/opt/gcc-arm-none-eabi/arm-none-eabi/include/c++/10.3.1/bits/stl_algobase.h ****  * that both that copyright notice and this permission notice appear
  46:/opt/gcc-arm-none-eabi/arm-none-eabi/include/c++/10.3.1/bits/stl_algobase.h ****  * in supporting documentation.  Silicon Graphics makes no
  47:/opt/gcc-arm-none-eabi/arm-none-eabi/include/c++/10.3.1/bits/stl_algobase.h ****  * representations about the suitability of this software for any
  48:/opt/gcc-arm-none-eabi/arm-none-eabi/include/c++/10.3.1/bits/stl_algobase.h ****  * purpose.  It is provided "as is" without express or implied warranty.
  49:/opt/gcc-arm-none-eabi/arm-none-eabi/include/c++/10.3.1/bits/stl_algobase.h ****  */
  50:/opt/gcc-arm-none-eabi/arm-none-eabi/include/c++/10.3.1/bits/stl_algobase.h **** 
  51:/opt/gcc-arm-none-eabi/arm-none-eabi/include/c++/10.3.1/bits/stl_algobase.h **** /** @file bits/stl_algobase.h
  52:/opt/gcc-arm-none-eabi/arm-none-eabi/include/c++/10.3.1/bits/stl_algobase.h ****  *  This is an internal header file, included by other library headers.
  53:/opt/gcc-arm-none-eabi/arm-none-eabi/include/c++/10.3.1/bits/stl_algobase.h ****  *  Do not attempt to use it directly. @headername{algorithm}
  54:/opt/gcc-arm-none-eabi/arm-none-eabi/include/c++/10.3.1/bits/stl_algobase.h ****  */
  55:/opt/gcc-arm-none-eabi/arm-none-eabi/include/c++/10.3.1/bits/stl_algobase.h **** 
  56:/opt/gcc-arm-none-eabi/arm-none-eabi/include/c++/10.3.1/bits/stl_algobase.h **** #ifndef _STL_ALGOBASE_H
  57:/opt/gcc-arm-none-eabi/arm-none-eabi/include/c++/10.3.1/bits/stl_algobase.h **** #define _STL_ALGOBASE_H 1
  58:/opt/gcc-arm-none-eabi/arm-none-eabi/include/c++/10.3.1/bits/stl_algobase.h **** 
  59:/opt/gcc-arm-none-eabi/arm-none-eabi/include/c++/10.3.1/bits/stl_algobase.h **** #include <bits/c++config.h>
  60:/opt/gcc-arm-none-eabi/arm-none-eabi/include/c++/10.3.1/bits/stl_algobase.h **** #include <bits/functexcept.h>
  61:/opt/gcc-arm-none-eabi/arm-none-eabi/include/c++/10.3.1/bits/stl_algobase.h **** #include <bits/cpp_type_traits.h>
  62:/opt/gcc-arm-none-eabi/arm-none-eabi/include/c++/10.3.1/bits/stl_algobase.h **** #include <ext/type_traits.h>
  63:/opt/gcc-arm-none-eabi/arm-none-eabi/include/c++/10.3.1/bits/stl_algobase.h **** #include <ext/numeric_traits.h>
  64:/opt/gcc-arm-none-eabi/arm-none-eabi/include/c++/10.3.1/bits/stl_algobase.h **** #include <bits/stl_pair.h>
  65:/opt/gcc-arm-none-eabi/arm-none-eabi/include/c++/10.3.1/bits/stl_algobase.h **** #include <bits/stl_iterator_base_types.h>
  66:/opt/gcc-arm-none-eabi/arm-none-eabi/include/c++/10.3.1/bits/stl_algobase.h **** #include <bits/stl_iterator_base_funcs.h>
  67:/opt/gcc-arm-none-eabi/arm-none-eabi/include/c++/10.3.1/bits/stl_algobase.h **** #include <bits/stl_iterator.h>
  68:/opt/gcc-arm-none-eabi/arm-none-eabi/include/c++/10.3.1/bits/stl_algobase.h **** #include <bits/concept_check.h>
  69:/opt/gcc-arm-none-eabi/arm-none-eabi/include/c++/10.3.1/bits/stl_algobase.h **** #include <debug/debug.h>
  70:/opt/gcc-arm-none-eabi/arm-none-eabi/include/c++/10.3.1/bits/stl_algobase.h **** #include <bits/move.h> // For std::swap
  71:/opt/gcc-arm-none-eabi/arm-none-eabi/include/c++/10.3.1/bits/stl_algobase.h **** #include <bits/predefined_ops.h>
  72:/opt/gcc-arm-none-eabi/arm-none-eabi/include/c++/10.3.1/bits/stl_algobase.h **** #if __cplusplus >= 201103L
  73:/opt/gcc-arm-none-eabi/arm-none-eabi/include/c++/10.3.1/bits/stl_algobase.h **** # include <type_traits>
  74:/opt/gcc-arm-none-eabi/arm-none-eabi/include/c++/10.3.1/bits/stl_algobase.h **** #endif
  75:/opt/gcc-arm-none-eabi/arm-none-eabi/include/c++/10.3.1/bits/stl_algobase.h **** #if __cplusplus > 201703L
  76:/opt/gcc-arm-none-eabi/arm-none-eabi/include/c++/10.3.1/bits/stl_algobase.h **** # include <compare>
  77:/opt/gcc-arm-none-eabi/arm-none-eabi/include/c++/10.3.1/bits/stl_algobase.h **** #endif
  78:/opt/gcc-arm-none-eabi/arm-none-eabi/include/c++/10.3.1/bits/stl_algobase.h **** 
  79:/opt/gcc-arm-none-eabi/arm-none-eabi/include/c++/10.3.1/bits/stl_algobase.h **** namespace std _GLIBCXX_VISIBILITY(default)
  80:/opt/gcc-arm-none-eabi/arm-none-eabi/include/c++/10.3.1/bits/stl_algobase.h **** {
  81:/opt/gcc-arm-none-eabi/arm-none-eabi/include/c++/10.3.1/bits/stl_algobase.h **** _GLIBCXX_BEGIN_NAMESPACE_VERSION
  82:/opt/gcc-arm-none-eabi/arm-none-eabi/include/c++/10.3.1/bits/stl_algobase.h **** 
  83:/opt/gcc-arm-none-eabi/arm-none-eabi/include/c++/10.3.1/bits/stl_algobase.h ****   /*
  84:/opt/gcc-arm-none-eabi/arm-none-eabi/include/c++/10.3.1/bits/stl_algobase.h ****    * A constexpr wrapper for __builtin_memcmp.
  85:/opt/gcc-arm-none-eabi/arm-none-eabi/include/c++/10.3.1/bits/stl_algobase.h ****    * @param __num The number of elements of type _Tp (not bytes).
  86:/opt/gcc-arm-none-eabi/arm-none-eabi/include/c++/10.3.1/bits/stl_algobase.h ****    */
  87:/opt/gcc-arm-none-eabi/arm-none-eabi/include/c++/10.3.1/bits/stl_algobase.h ****   template<typename _Tp, typename _Up>
  88:/opt/gcc-arm-none-eabi/arm-none-eabi/include/c++/10.3.1/bits/stl_algobase.h ****     _GLIBCXX14_CONSTEXPR
  89:/opt/gcc-arm-none-eabi/arm-none-eabi/include/c++/10.3.1/bits/stl_algobase.h ****     inline int
  90:/opt/gcc-arm-none-eabi/arm-none-eabi/include/c++/10.3.1/bits/stl_algobase.h ****     __memcmp(const _Tp* __first1, const _Up* __first2, size_t __num)
  91:/opt/gcc-arm-none-eabi/arm-none-eabi/include/c++/10.3.1/bits/stl_algobase.h ****     {
  92:/opt/gcc-arm-none-eabi/arm-none-eabi/include/c++/10.3.1/bits/stl_algobase.h **** #if __cplusplus >= 201103L
  93:/opt/gcc-arm-none-eabi/arm-none-eabi/include/c++/10.3.1/bits/stl_algobase.h ****       static_assert(sizeof(_Tp) == sizeof(_Up), "can be compared with memcmp");
  94:/opt/gcc-arm-none-eabi/arm-none-eabi/include/c++/10.3.1/bits/stl_algobase.h **** #endif
  95:/opt/gcc-arm-none-eabi/arm-none-eabi/include/c++/10.3.1/bits/stl_algobase.h **** #ifdef __cpp_lib_is_constant_evaluated
ARM GAS  /tmp/ccxBL0ey.s 			page 57


  96:/opt/gcc-arm-none-eabi/arm-none-eabi/include/c++/10.3.1/bits/stl_algobase.h ****       if (std::is_constant_evaluated())
  97:/opt/gcc-arm-none-eabi/arm-none-eabi/include/c++/10.3.1/bits/stl_algobase.h **** 	{
  98:/opt/gcc-arm-none-eabi/arm-none-eabi/include/c++/10.3.1/bits/stl_algobase.h **** 	  for(; __num > 0; ++__first1, ++__first2, --__num)
  99:/opt/gcc-arm-none-eabi/arm-none-eabi/include/c++/10.3.1/bits/stl_algobase.h **** 	    if (*__first1 != *__first2)
 100:/opt/gcc-arm-none-eabi/arm-none-eabi/include/c++/10.3.1/bits/stl_algobase.h **** 	      return *__first1 < *__first2 ? -1 : 1;
 101:/opt/gcc-arm-none-eabi/arm-none-eabi/include/c++/10.3.1/bits/stl_algobase.h **** 	  return 0;
 102:/opt/gcc-arm-none-eabi/arm-none-eabi/include/c++/10.3.1/bits/stl_algobase.h **** 	}
 103:/opt/gcc-arm-none-eabi/arm-none-eabi/include/c++/10.3.1/bits/stl_algobase.h ****       else
 104:/opt/gcc-arm-none-eabi/arm-none-eabi/include/c++/10.3.1/bits/stl_algobase.h **** #endif
 105:/opt/gcc-arm-none-eabi/arm-none-eabi/include/c++/10.3.1/bits/stl_algobase.h **** 	return __builtin_memcmp(__first1, __first2, sizeof(_Tp) * __num);
 106:/opt/gcc-arm-none-eabi/arm-none-eabi/include/c++/10.3.1/bits/stl_algobase.h ****     }
 107:/opt/gcc-arm-none-eabi/arm-none-eabi/include/c++/10.3.1/bits/stl_algobase.h **** 
 108:/opt/gcc-arm-none-eabi/arm-none-eabi/include/c++/10.3.1/bits/stl_algobase.h **** #if __cplusplus < 201103L
 109:/opt/gcc-arm-none-eabi/arm-none-eabi/include/c++/10.3.1/bits/stl_algobase.h ****   // See http://gcc.gnu.org/ml/libstdc++/2004-08/msg00167.html: in a
 110:/opt/gcc-arm-none-eabi/arm-none-eabi/include/c++/10.3.1/bits/stl_algobase.h ****   // nutshell, we are partially implementing the resolution of DR 187,
 111:/opt/gcc-arm-none-eabi/arm-none-eabi/include/c++/10.3.1/bits/stl_algobase.h ****   // when it's safe, i.e., the value_types are equal.
 112:/opt/gcc-arm-none-eabi/arm-none-eabi/include/c++/10.3.1/bits/stl_algobase.h ****   template<bool _BoolType>
 113:/opt/gcc-arm-none-eabi/arm-none-eabi/include/c++/10.3.1/bits/stl_algobase.h ****     struct __iter_swap
 114:/opt/gcc-arm-none-eabi/arm-none-eabi/include/c++/10.3.1/bits/stl_algobase.h ****     {
 115:/opt/gcc-arm-none-eabi/arm-none-eabi/include/c++/10.3.1/bits/stl_algobase.h ****       template<typename _ForwardIterator1, typename _ForwardIterator2>
 116:/opt/gcc-arm-none-eabi/arm-none-eabi/include/c++/10.3.1/bits/stl_algobase.h **** 	static void
 117:/opt/gcc-arm-none-eabi/arm-none-eabi/include/c++/10.3.1/bits/stl_algobase.h **** 	iter_swap(_ForwardIterator1 __a, _ForwardIterator2 __b)
 118:/opt/gcc-arm-none-eabi/arm-none-eabi/include/c++/10.3.1/bits/stl_algobase.h **** 	{
 119:/opt/gcc-arm-none-eabi/arm-none-eabi/include/c++/10.3.1/bits/stl_algobase.h **** 	  typedef typename iterator_traits<_ForwardIterator1>::value_type
 120:/opt/gcc-arm-none-eabi/arm-none-eabi/include/c++/10.3.1/bits/stl_algobase.h **** 	    _ValueType1;
 121:/opt/gcc-arm-none-eabi/arm-none-eabi/include/c++/10.3.1/bits/stl_algobase.h **** 	  _ValueType1 __tmp = *__a;
 122:/opt/gcc-arm-none-eabi/arm-none-eabi/include/c++/10.3.1/bits/stl_algobase.h **** 	  *__a = *__b;
 123:/opt/gcc-arm-none-eabi/arm-none-eabi/include/c++/10.3.1/bits/stl_algobase.h **** 	  *__b = __tmp;
 124:/opt/gcc-arm-none-eabi/arm-none-eabi/include/c++/10.3.1/bits/stl_algobase.h **** 	}
 125:/opt/gcc-arm-none-eabi/arm-none-eabi/include/c++/10.3.1/bits/stl_algobase.h ****     };
 126:/opt/gcc-arm-none-eabi/arm-none-eabi/include/c++/10.3.1/bits/stl_algobase.h **** 
 127:/opt/gcc-arm-none-eabi/arm-none-eabi/include/c++/10.3.1/bits/stl_algobase.h ****   template<>
 128:/opt/gcc-arm-none-eabi/arm-none-eabi/include/c++/10.3.1/bits/stl_algobase.h ****     struct __iter_swap<true>
 129:/opt/gcc-arm-none-eabi/arm-none-eabi/include/c++/10.3.1/bits/stl_algobase.h ****     {
 130:/opt/gcc-arm-none-eabi/arm-none-eabi/include/c++/10.3.1/bits/stl_algobase.h ****       template<typename _ForwardIterator1, typename _ForwardIterator2>
 131:/opt/gcc-arm-none-eabi/arm-none-eabi/include/c++/10.3.1/bits/stl_algobase.h **** 	static void
 132:/opt/gcc-arm-none-eabi/arm-none-eabi/include/c++/10.3.1/bits/stl_algobase.h **** 	iter_swap(_ForwardIterator1 __a, _ForwardIterator2 __b)
 133:/opt/gcc-arm-none-eabi/arm-none-eabi/include/c++/10.3.1/bits/stl_algobase.h **** 	{
 134:/opt/gcc-arm-none-eabi/arm-none-eabi/include/c++/10.3.1/bits/stl_algobase.h **** 	  swap(*__a, *__b);
 135:/opt/gcc-arm-none-eabi/arm-none-eabi/include/c++/10.3.1/bits/stl_algobase.h **** 	}
 136:/opt/gcc-arm-none-eabi/arm-none-eabi/include/c++/10.3.1/bits/stl_algobase.h ****     };
 137:/opt/gcc-arm-none-eabi/arm-none-eabi/include/c++/10.3.1/bits/stl_algobase.h **** #endif // C++03
 138:/opt/gcc-arm-none-eabi/arm-none-eabi/include/c++/10.3.1/bits/stl_algobase.h **** 
 139:/opt/gcc-arm-none-eabi/arm-none-eabi/include/c++/10.3.1/bits/stl_algobase.h ****   /**
 140:/opt/gcc-arm-none-eabi/arm-none-eabi/include/c++/10.3.1/bits/stl_algobase.h ****    *  @brief Swaps the contents of two iterators.
 141:/opt/gcc-arm-none-eabi/arm-none-eabi/include/c++/10.3.1/bits/stl_algobase.h ****    *  @ingroup mutating_algorithms
 142:/opt/gcc-arm-none-eabi/arm-none-eabi/include/c++/10.3.1/bits/stl_algobase.h ****    *  @param  __a  An iterator.
 143:/opt/gcc-arm-none-eabi/arm-none-eabi/include/c++/10.3.1/bits/stl_algobase.h ****    *  @param  __b  Another iterator.
 144:/opt/gcc-arm-none-eabi/arm-none-eabi/include/c++/10.3.1/bits/stl_algobase.h ****    *  @return   Nothing.
 145:/opt/gcc-arm-none-eabi/arm-none-eabi/include/c++/10.3.1/bits/stl_algobase.h ****    *
 146:/opt/gcc-arm-none-eabi/arm-none-eabi/include/c++/10.3.1/bits/stl_algobase.h ****    *  This function swaps the values pointed to by two iterators, not the
 147:/opt/gcc-arm-none-eabi/arm-none-eabi/include/c++/10.3.1/bits/stl_algobase.h ****    *  iterators themselves.
 148:/opt/gcc-arm-none-eabi/arm-none-eabi/include/c++/10.3.1/bits/stl_algobase.h ****   */
 149:/opt/gcc-arm-none-eabi/arm-none-eabi/include/c++/10.3.1/bits/stl_algobase.h ****   template<typename _ForwardIterator1, typename _ForwardIterator2>
 150:/opt/gcc-arm-none-eabi/arm-none-eabi/include/c++/10.3.1/bits/stl_algobase.h ****     _GLIBCXX20_CONSTEXPR
 151:/opt/gcc-arm-none-eabi/arm-none-eabi/include/c++/10.3.1/bits/stl_algobase.h ****     inline void
 152:/opt/gcc-arm-none-eabi/arm-none-eabi/include/c++/10.3.1/bits/stl_algobase.h ****     iter_swap(_ForwardIterator1 __a, _ForwardIterator2 __b)
ARM GAS  /tmp/ccxBL0ey.s 			page 58


 153:/opt/gcc-arm-none-eabi/arm-none-eabi/include/c++/10.3.1/bits/stl_algobase.h ****     {
 154:/opt/gcc-arm-none-eabi/arm-none-eabi/include/c++/10.3.1/bits/stl_algobase.h ****       // concept requirements
 155:/opt/gcc-arm-none-eabi/arm-none-eabi/include/c++/10.3.1/bits/stl_algobase.h ****       __glibcxx_function_requires(_Mutable_ForwardIteratorConcept<
 156:/opt/gcc-arm-none-eabi/arm-none-eabi/include/c++/10.3.1/bits/stl_algobase.h **** 				  _ForwardIterator1>)
 157:/opt/gcc-arm-none-eabi/arm-none-eabi/include/c++/10.3.1/bits/stl_algobase.h ****       __glibcxx_function_requires(_Mutable_ForwardIteratorConcept<
 158:/opt/gcc-arm-none-eabi/arm-none-eabi/include/c++/10.3.1/bits/stl_algobase.h **** 				  _ForwardIterator2>)
 159:/opt/gcc-arm-none-eabi/arm-none-eabi/include/c++/10.3.1/bits/stl_algobase.h **** 
 160:/opt/gcc-arm-none-eabi/arm-none-eabi/include/c++/10.3.1/bits/stl_algobase.h **** #if __cplusplus < 201103L
 161:/opt/gcc-arm-none-eabi/arm-none-eabi/include/c++/10.3.1/bits/stl_algobase.h ****       typedef typename iterator_traits<_ForwardIterator1>::value_type
 162:/opt/gcc-arm-none-eabi/arm-none-eabi/include/c++/10.3.1/bits/stl_algobase.h **** 	_ValueType1;
 163:/opt/gcc-arm-none-eabi/arm-none-eabi/include/c++/10.3.1/bits/stl_algobase.h ****       typedef typename iterator_traits<_ForwardIterator2>::value_type
 164:/opt/gcc-arm-none-eabi/arm-none-eabi/include/c++/10.3.1/bits/stl_algobase.h **** 	_ValueType2;
 165:/opt/gcc-arm-none-eabi/arm-none-eabi/include/c++/10.3.1/bits/stl_algobase.h **** 
 166:/opt/gcc-arm-none-eabi/arm-none-eabi/include/c++/10.3.1/bits/stl_algobase.h ****       __glibcxx_function_requires(_ConvertibleConcept<_ValueType1,
 167:/opt/gcc-arm-none-eabi/arm-none-eabi/include/c++/10.3.1/bits/stl_algobase.h **** 				  _ValueType2>)
 168:/opt/gcc-arm-none-eabi/arm-none-eabi/include/c++/10.3.1/bits/stl_algobase.h ****       __glibcxx_function_requires(_ConvertibleConcept<_ValueType2,
 169:/opt/gcc-arm-none-eabi/arm-none-eabi/include/c++/10.3.1/bits/stl_algobase.h **** 				  _ValueType1>)
 170:/opt/gcc-arm-none-eabi/arm-none-eabi/include/c++/10.3.1/bits/stl_algobase.h **** 
 171:/opt/gcc-arm-none-eabi/arm-none-eabi/include/c++/10.3.1/bits/stl_algobase.h ****       typedef typename iterator_traits<_ForwardIterator1>::reference
 172:/opt/gcc-arm-none-eabi/arm-none-eabi/include/c++/10.3.1/bits/stl_algobase.h **** 	_ReferenceType1;
 173:/opt/gcc-arm-none-eabi/arm-none-eabi/include/c++/10.3.1/bits/stl_algobase.h ****       typedef typename iterator_traits<_ForwardIterator2>::reference
 174:/opt/gcc-arm-none-eabi/arm-none-eabi/include/c++/10.3.1/bits/stl_algobase.h **** 	_ReferenceType2;
 175:/opt/gcc-arm-none-eabi/arm-none-eabi/include/c++/10.3.1/bits/stl_algobase.h ****       std::__iter_swap<__are_same<_ValueType1, _ValueType2>::__value
 176:/opt/gcc-arm-none-eabi/arm-none-eabi/include/c++/10.3.1/bits/stl_algobase.h **** 	&& __are_same<_ValueType1&, _ReferenceType1>::__value
 177:/opt/gcc-arm-none-eabi/arm-none-eabi/include/c++/10.3.1/bits/stl_algobase.h **** 	&& __are_same<_ValueType2&, _ReferenceType2>::__value>::
 178:/opt/gcc-arm-none-eabi/arm-none-eabi/include/c++/10.3.1/bits/stl_algobase.h **** 	iter_swap(__a, __b);
 179:/opt/gcc-arm-none-eabi/arm-none-eabi/include/c++/10.3.1/bits/stl_algobase.h **** #else
 180:/opt/gcc-arm-none-eabi/arm-none-eabi/include/c++/10.3.1/bits/stl_algobase.h ****       // _GLIBCXX_RESOLVE_LIB_DEFECTS
 181:/opt/gcc-arm-none-eabi/arm-none-eabi/include/c++/10.3.1/bits/stl_algobase.h ****       // 187. iter_swap underspecified
 182:/opt/gcc-arm-none-eabi/arm-none-eabi/include/c++/10.3.1/bits/stl_algobase.h ****       swap(*__a, *__b);
 183:/opt/gcc-arm-none-eabi/arm-none-eabi/include/c++/10.3.1/bits/stl_algobase.h **** #endif
 184:/opt/gcc-arm-none-eabi/arm-none-eabi/include/c++/10.3.1/bits/stl_algobase.h ****     }
 185:/opt/gcc-arm-none-eabi/arm-none-eabi/include/c++/10.3.1/bits/stl_algobase.h **** 
 186:/opt/gcc-arm-none-eabi/arm-none-eabi/include/c++/10.3.1/bits/stl_algobase.h ****   /**
 187:/opt/gcc-arm-none-eabi/arm-none-eabi/include/c++/10.3.1/bits/stl_algobase.h ****    *  @brief Swap the elements of two sequences.
 188:/opt/gcc-arm-none-eabi/arm-none-eabi/include/c++/10.3.1/bits/stl_algobase.h ****    *  @ingroup mutating_algorithms
 189:/opt/gcc-arm-none-eabi/arm-none-eabi/include/c++/10.3.1/bits/stl_algobase.h ****    *  @param  __first1  A forward iterator.
 190:/opt/gcc-arm-none-eabi/arm-none-eabi/include/c++/10.3.1/bits/stl_algobase.h ****    *  @param  __last1   A forward iterator.
 191:/opt/gcc-arm-none-eabi/arm-none-eabi/include/c++/10.3.1/bits/stl_algobase.h ****    *  @param  __first2  A forward iterator.
 192:/opt/gcc-arm-none-eabi/arm-none-eabi/include/c++/10.3.1/bits/stl_algobase.h ****    *  @return   An iterator equal to @p first2+(last1-first1).
 193:/opt/gcc-arm-none-eabi/arm-none-eabi/include/c++/10.3.1/bits/stl_algobase.h ****    *
 194:/opt/gcc-arm-none-eabi/arm-none-eabi/include/c++/10.3.1/bits/stl_algobase.h ****    *  Swaps each element in the range @p [first1,last1) with the
 195:/opt/gcc-arm-none-eabi/arm-none-eabi/include/c++/10.3.1/bits/stl_algobase.h ****    *  corresponding element in the range @p [first2,(last1-first1)).
 196:/opt/gcc-arm-none-eabi/arm-none-eabi/include/c++/10.3.1/bits/stl_algobase.h ****    *  The ranges must not overlap.
 197:/opt/gcc-arm-none-eabi/arm-none-eabi/include/c++/10.3.1/bits/stl_algobase.h ****   */
 198:/opt/gcc-arm-none-eabi/arm-none-eabi/include/c++/10.3.1/bits/stl_algobase.h ****   template<typename _ForwardIterator1, typename _ForwardIterator2>
 199:/opt/gcc-arm-none-eabi/arm-none-eabi/include/c++/10.3.1/bits/stl_algobase.h ****     _GLIBCXX20_CONSTEXPR
 200:/opt/gcc-arm-none-eabi/arm-none-eabi/include/c++/10.3.1/bits/stl_algobase.h ****     _ForwardIterator2
 201:/opt/gcc-arm-none-eabi/arm-none-eabi/include/c++/10.3.1/bits/stl_algobase.h ****     swap_ranges(_ForwardIterator1 __first1, _ForwardIterator1 __last1,
 202:/opt/gcc-arm-none-eabi/arm-none-eabi/include/c++/10.3.1/bits/stl_algobase.h **** 		_ForwardIterator2 __first2)
 203:/opt/gcc-arm-none-eabi/arm-none-eabi/include/c++/10.3.1/bits/stl_algobase.h ****     {
 204:/opt/gcc-arm-none-eabi/arm-none-eabi/include/c++/10.3.1/bits/stl_algobase.h ****       // concept requirements
 205:/opt/gcc-arm-none-eabi/arm-none-eabi/include/c++/10.3.1/bits/stl_algobase.h ****       __glibcxx_function_requires(_Mutable_ForwardIteratorConcept<
 206:/opt/gcc-arm-none-eabi/arm-none-eabi/include/c++/10.3.1/bits/stl_algobase.h **** 				  _ForwardIterator1>)
 207:/opt/gcc-arm-none-eabi/arm-none-eabi/include/c++/10.3.1/bits/stl_algobase.h ****       __glibcxx_function_requires(_Mutable_ForwardIteratorConcept<
 208:/opt/gcc-arm-none-eabi/arm-none-eabi/include/c++/10.3.1/bits/stl_algobase.h **** 				  _ForwardIterator2>)
 209:/opt/gcc-arm-none-eabi/arm-none-eabi/include/c++/10.3.1/bits/stl_algobase.h ****       __glibcxx_requires_valid_range(__first1, __last1);
ARM GAS  /tmp/ccxBL0ey.s 			page 59


 210:/opt/gcc-arm-none-eabi/arm-none-eabi/include/c++/10.3.1/bits/stl_algobase.h **** 
 211:/opt/gcc-arm-none-eabi/arm-none-eabi/include/c++/10.3.1/bits/stl_algobase.h ****       for (; __first1 != __last1; ++__first1, (void)++__first2)
 212:/opt/gcc-arm-none-eabi/arm-none-eabi/include/c++/10.3.1/bits/stl_algobase.h **** 	std::iter_swap(__first1, __first2);
 213:/opt/gcc-arm-none-eabi/arm-none-eabi/include/c++/10.3.1/bits/stl_algobase.h ****       return __first2;
 214:/opt/gcc-arm-none-eabi/arm-none-eabi/include/c++/10.3.1/bits/stl_algobase.h ****     }
 215:/opt/gcc-arm-none-eabi/arm-none-eabi/include/c++/10.3.1/bits/stl_algobase.h **** 
 216:/opt/gcc-arm-none-eabi/arm-none-eabi/include/c++/10.3.1/bits/stl_algobase.h ****   /**
 217:/opt/gcc-arm-none-eabi/arm-none-eabi/include/c++/10.3.1/bits/stl_algobase.h ****    *  @brief This does what you think it does.
 218:/opt/gcc-arm-none-eabi/arm-none-eabi/include/c++/10.3.1/bits/stl_algobase.h ****    *  @ingroup sorting_algorithms
 219:/opt/gcc-arm-none-eabi/arm-none-eabi/include/c++/10.3.1/bits/stl_algobase.h ****    *  @param  __a  A thing of arbitrary type.
 220:/opt/gcc-arm-none-eabi/arm-none-eabi/include/c++/10.3.1/bits/stl_algobase.h ****    *  @param  __b  Another thing of arbitrary type.
 221:/opt/gcc-arm-none-eabi/arm-none-eabi/include/c++/10.3.1/bits/stl_algobase.h ****    *  @return   The lesser of the parameters.
 222:/opt/gcc-arm-none-eabi/arm-none-eabi/include/c++/10.3.1/bits/stl_algobase.h ****    *
 223:/opt/gcc-arm-none-eabi/arm-none-eabi/include/c++/10.3.1/bits/stl_algobase.h ****    *  This is the simple classic generic implementation.  It will work on
 224:/opt/gcc-arm-none-eabi/arm-none-eabi/include/c++/10.3.1/bits/stl_algobase.h ****    *  temporary expressions, since they are only evaluated once, unlike a
 225:/opt/gcc-arm-none-eabi/arm-none-eabi/include/c++/10.3.1/bits/stl_algobase.h ****    *  preprocessor macro.
 226:/opt/gcc-arm-none-eabi/arm-none-eabi/include/c++/10.3.1/bits/stl_algobase.h ****   */
 227:/opt/gcc-arm-none-eabi/arm-none-eabi/include/c++/10.3.1/bits/stl_algobase.h ****   template<typename _Tp>
 228:/opt/gcc-arm-none-eabi/arm-none-eabi/include/c++/10.3.1/bits/stl_algobase.h ****     _GLIBCXX14_CONSTEXPR
 229:/opt/gcc-arm-none-eabi/arm-none-eabi/include/c++/10.3.1/bits/stl_algobase.h ****     inline const _Tp&
 230:/opt/gcc-arm-none-eabi/arm-none-eabi/include/c++/10.3.1/bits/stl_algobase.h ****     min(const _Tp& __a, const _Tp& __b)
 231:/opt/gcc-arm-none-eabi/arm-none-eabi/include/c++/10.3.1/bits/stl_algobase.h ****     {
 232:/opt/gcc-arm-none-eabi/arm-none-eabi/include/c++/10.3.1/bits/stl_algobase.h ****       // concept requirements
 233:/opt/gcc-arm-none-eabi/arm-none-eabi/include/c++/10.3.1/bits/stl_algobase.h ****       __glibcxx_function_requires(_LessThanComparableConcept<_Tp>)
 234:/opt/gcc-arm-none-eabi/arm-none-eabi/include/c++/10.3.1/bits/stl_algobase.h ****       //return __b < __a ? __b : __a;
 235:/opt/gcc-arm-none-eabi/arm-none-eabi/include/c++/10.3.1/bits/stl_algobase.h ****       if (__b < __a)
 236:/opt/gcc-arm-none-eabi/arm-none-eabi/include/c++/10.3.1/bits/stl_algobase.h **** 	return __b;
 237:/opt/gcc-arm-none-eabi/arm-none-eabi/include/c++/10.3.1/bits/stl_algobase.h ****       return __a;
 238:/opt/gcc-arm-none-eabi/arm-none-eabi/include/c++/10.3.1/bits/stl_algobase.h ****     }
 239:/opt/gcc-arm-none-eabi/arm-none-eabi/include/c++/10.3.1/bits/stl_algobase.h **** 
 240:/opt/gcc-arm-none-eabi/arm-none-eabi/include/c++/10.3.1/bits/stl_algobase.h ****   /**
 241:/opt/gcc-arm-none-eabi/arm-none-eabi/include/c++/10.3.1/bits/stl_algobase.h ****    *  @brief This does what you think it does.
 242:/opt/gcc-arm-none-eabi/arm-none-eabi/include/c++/10.3.1/bits/stl_algobase.h ****    *  @ingroup sorting_algorithms
 243:/opt/gcc-arm-none-eabi/arm-none-eabi/include/c++/10.3.1/bits/stl_algobase.h ****    *  @param  __a  A thing of arbitrary type.
 244:/opt/gcc-arm-none-eabi/arm-none-eabi/include/c++/10.3.1/bits/stl_algobase.h ****    *  @param  __b  Another thing of arbitrary type.
 245:/opt/gcc-arm-none-eabi/arm-none-eabi/include/c++/10.3.1/bits/stl_algobase.h ****    *  @return   The greater of the parameters.
 246:/opt/gcc-arm-none-eabi/arm-none-eabi/include/c++/10.3.1/bits/stl_algobase.h ****    *
 247:/opt/gcc-arm-none-eabi/arm-none-eabi/include/c++/10.3.1/bits/stl_algobase.h ****    *  This is the simple classic generic implementation.  It will work on
 248:/opt/gcc-arm-none-eabi/arm-none-eabi/include/c++/10.3.1/bits/stl_algobase.h ****    *  temporary expressions, since they are only evaluated once, unlike a
 249:/opt/gcc-arm-none-eabi/arm-none-eabi/include/c++/10.3.1/bits/stl_algobase.h ****    *  preprocessor macro.
 250:/opt/gcc-arm-none-eabi/arm-none-eabi/include/c++/10.3.1/bits/stl_algobase.h ****   */
 251:/opt/gcc-arm-none-eabi/arm-none-eabi/include/c++/10.3.1/bits/stl_algobase.h ****   template<typename _Tp>
 252:/opt/gcc-arm-none-eabi/arm-none-eabi/include/c++/10.3.1/bits/stl_algobase.h ****     _GLIBCXX14_CONSTEXPR
 253:/opt/gcc-arm-none-eabi/arm-none-eabi/include/c++/10.3.1/bits/stl_algobase.h ****     inline const _Tp&
 254:/opt/gcc-arm-none-eabi/arm-none-eabi/include/c++/10.3.1/bits/stl_algobase.h ****     max(const _Tp& __a, const _Tp& __b)
 1708              		.loc 6 254 5 is_stmt 1 view .LVU429
 1709              	.LBB179:
 255:/opt/gcc-arm-none-eabi/arm-none-eabi/include/c++/10.3.1/bits/stl_algobase.h ****     {
 256:/opt/gcc-arm-none-eabi/arm-none-eabi/include/c++/10.3.1/bits/stl_algobase.h ****       // concept requirements
 257:/opt/gcc-arm-none-eabi/arm-none-eabi/include/c++/10.3.1/bits/stl_algobase.h ****       __glibcxx_function_requires(_LessThanComparableConcept<_Tp>)
 258:/opt/gcc-arm-none-eabi/arm-none-eabi/include/c++/10.3.1/bits/stl_algobase.h ****       //return  __a < __b ? __b : __a;
 259:/opt/gcc-arm-none-eabi/arm-none-eabi/include/c++/10.3.1/bits/stl_algobase.h ****       if (__a < __b)
 1710              		.loc 6 259 7 is_stmt 0 view .LVU430
 1711 00a8 B5EEC05A 		vcmpe.f32	s10, #0
 1712 00ac F1EE10FA 		vmrs	APSR_nzcv, FPSCR
 1713 00b0 2FD4     		bmi	.L125
 260:/opt/gcc-arm-none-eabi/arm-none-eabi/include/c++/10.3.1/bits/stl_algobase.h **** 	return __b;
ARM GAS  /tmp/ccxBL0ey.s 			page 60


 261:/opt/gcc-arm-none-eabi/arm-none-eabi/include/c++/10.3.1/bits/stl_algobase.h ****       return __a;
 1714              		.loc 6 261 14 view .LVU431
 1715 00b2 02AB     		add	r3, sp, #8
 1716              	.LVL99:
 1717              	.L112:
 1718              		.loc 6 261 14 view .LVU432
 1719              	.LBE179:
 1720              	.LBE178:
 346:MotorControl/low_level.cpp ****         }
 1721              		.loc 2 346 35 view .LVU433
 1722 00b4 93ED007A 		vldr.32	s14, [r3]
 346:MotorControl/low_level.cpp ****         }
 1723              		.loc 2 346 24 view .LVU434
 1724 00b8 75EE875A 		vadd.f32	s11, s11, s14
 1725 00bc CDED015A 		vstr.32	s11, [sp, #4]
 1726              	.L109:
 349:MotorControl/low_level.cpp ****             // Shuts off all motors AND brake resistor, sets error code on all motors.
 1727              		.loc 2 349 9 is_stmt 1 view .LVU435
 349:MotorControl/low_level.cpp ****             // Shuts off all motors AND brake resistor, sets error code on all motors.
 1728              		.loc 2 349 19 is_stmt 0 view .LVU436
 1729 00c0 9DED017A 		vldr.32	s14, [sp, #4]
 1730              	.LVL100:
 1731              		.file 7 "./MotorControl/utils.hpp"
   1:./MotorControl/utils.hpp **** #pragma once
   2:./MotorControl/utils.hpp **** 
   3:./MotorControl/utils.hpp **** #include <stdint.h>
   4:./MotorControl/utils.hpp **** #include <limits>
   5:./MotorControl/utils.hpp **** #include <algorithm>
   6:./MotorControl/utils.hpp **** #include <array>
   7:./MotorControl/utils.hpp **** #include <tuple>
   8:./MotorControl/utils.hpp **** #include <cmath>
   9:./MotorControl/utils.hpp **** 
  10:./MotorControl/utils.hpp **** /**
  11:./MotorControl/utils.hpp ****  * @brief Flash size register address
  12:./MotorControl/utils.hpp ****  */
  13:./MotorControl/utils.hpp **** #define ID_FLASH_ADDRESS (0x1FFF7A22)
  14:./MotorControl/utils.hpp **** 
  15:./MotorControl/utils.hpp **** /**
  16:./MotorControl/utils.hpp ****  * @brief Device ID register address
  17:./MotorControl/utils.hpp ****  */
  18:./MotorControl/utils.hpp **** #define ID_DBGMCU_IDCODE (0xE0042000)
  19:./MotorControl/utils.hpp **** 
  20:./MotorControl/utils.hpp **** /**
  21:./MotorControl/utils.hpp ****  * "Returns" the device signature
  22:./MotorControl/utils.hpp ****  *
  23:./MotorControl/utils.hpp ****  * Possible returns:
  24:./MotorControl/utils.hpp ****  *    - 0x0413: STM32F405xx/07xx and STM32F415xx/17xx)
  25:./MotorControl/utils.hpp ****  *    - 0x0419: STM32F42xxx and STM32F43xxx
  26:./MotorControl/utils.hpp ****  *    - 0x0423: STM32F401xB/C
  27:./MotorControl/utils.hpp ****  *    - 0x0433: STM32F401xD/E
  28:./MotorControl/utils.hpp ****  *    - 0x0431: STM32F411xC/E
  29:./MotorControl/utils.hpp ****  *
  30:./MotorControl/utils.hpp ****  * Returned data is in 16-bit mode, but only bits 11:0 are valid, bits 15:12 are always 0.
  31:./MotorControl/utils.hpp ****  * Defined as macro
  32:./MotorControl/utils.hpp ****  */
  33:./MotorControl/utils.hpp **** #define STM_ID_GetSignature() ((*(uint16_t *)(ID_DBGMCU_IDCODE)) & 0x0FFF)
  34:./MotorControl/utils.hpp **** 
ARM GAS  /tmp/ccxBL0ey.s 			page 61


  35:./MotorControl/utils.hpp **** /**
  36:./MotorControl/utils.hpp ****  * "Returns" the device revision
  37:./MotorControl/utils.hpp ****  *
  38:./MotorControl/utils.hpp ****  * Revisions possible:
  39:./MotorControl/utils.hpp ****  *    - 0x1000: Revision A
  40:./MotorControl/utils.hpp ****  *    - 0x1001: Revision Z
  41:./MotorControl/utils.hpp ****  *    - 0x1003: Revision Y
  42:./MotorControl/utils.hpp ****  *    - 0x1007: Revision 1
  43:./MotorControl/utils.hpp ****  *    - 0x2001: Revision 3
  44:./MotorControl/utils.hpp ****  *
  45:./MotorControl/utils.hpp ****  * Returned data is in 16-bit mode.
  46:./MotorControl/utils.hpp ****  */
  47:./MotorControl/utils.hpp **** #define STM_ID_GetRevision() (*(uint16_t *)(ID_DBGMCU_IDCODE + 2))
  48:./MotorControl/utils.hpp **** 
  49:./MotorControl/utils.hpp **** /**
  50:./MotorControl/utils.hpp **** * "Returns" the Flash size
  51:./MotorControl/utils.hpp **** *
  52:./MotorControl/utils.hpp **** * Returned data is in 16-bit mode, returned value is flash size in kB (kilo bytes).
  53:./MotorControl/utils.hpp **** */
  54:./MotorControl/utils.hpp **** #define STM_ID_GetFlashSize() (*(uint16_t *)(ID_FLASH_ADDRESS))
  55:./MotorControl/utils.hpp **** 
  56:./MotorControl/utils.hpp **** #ifdef M_PI
  57:./MotorControl/utils.hpp **** #undef M_PI
  58:./MotorControl/utils.hpp **** #endif
  59:./MotorControl/utils.hpp **** 
  60:./MotorControl/utils.hpp **** // Math Constants
  61:./MotorControl/utils.hpp **** constexpr float M_PI = 3.14159265358979323846f;
  62:./MotorControl/utils.hpp **** constexpr float one_by_sqrt3 = 0.57735026919f;
  63:./MotorControl/utils.hpp **** constexpr float two_by_sqrt3 = 1.15470053838f;
  64:./MotorControl/utils.hpp **** constexpr float sqrt3_by_2 = 0.86602540378f;
  65:./MotorControl/utils.hpp **** 
  66:./MotorControl/utils.hpp **** // Function prototypes for implementations in utils.cpp
  67:./MotorControl/utils.hpp **** std::tuple<float, float, float, bool> SVM(float alpha, float beta);
  68:./MotorControl/utils.hpp **** float fast_atan2(float y, float x);
  69:./MotorControl/utils.hpp **** uint32_t deadline_to_timeout(uint32_t deadline_ms);
  70:./MotorControl/utils.hpp **** uint32_t timeout_to_deadline(uint32_t timeout_ms);
  71:./MotorControl/utils.hpp **** int is_in_the_future(uint32_t time_ms);
  72:./MotorControl/utils.hpp **** uint32_t micros(void);
  73:./MotorControl/utils.hpp **** void delay_us(uint32_t us);
  74:./MotorControl/utils.hpp **** 
  75:./MotorControl/utils.hpp **** extern "C" {
  76:./MotorControl/utils.hpp **** float our_arm_sin_f32(float x);
  77:./MotorControl/utils.hpp **** float our_arm_cos_f32(float x);
  78:./MotorControl/utils.hpp **** }
  79:./MotorControl/utils.hpp **** 
  80:./MotorControl/utils.hpp **** // ----------------
  81:./MotorControl/utils.hpp **** // Inline functions
  82:./MotorControl/utils.hpp **** 
  83:./MotorControl/utils.hpp **** template<typename T>
  84:./MotorControl/utils.hpp **** constexpr T SQ(const T& x){
  85:./MotorControl/utils.hpp ****     return x * x;
  86:./MotorControl/utils.hpp **** }
  87:./MotorControl/utils.hpp **** 
  88:./MotorControl/utils.hpp **** /**
  89:./MotorControl/utils.hpp ****  * @brief Small helper to make array with known size
  90:./MotorControl/utils.hpp ****  * in contrast to initializer lists the number of arguments
  91:./MotorControl/utils.hpp ****  * has to match exactly. Whereas initializer lists allow
ARM GAS  /tmp/ccxBL0ey.s 			page 62


  92:./MotorControl/utils.hpp ****  * less arguments.
  93:./MotorControl/utils.hpp ****  */
  94:./MotorControl/utils.hpp **** template <class T, class... Tail>
  95:./MotorControl/utils.hpp **** std::array<T, 1 + sizeof...(Tail)> make_array(T head, Tail... tail) {
  96:./MotorControl/utils.hpp ****     return std::array<T, 1 + sizeof...(Tail)>({head, tail...});
  97:./MotorControl/utils.hpp **** }
  98:./MotorControl/utils.hpp **** 
  99:./MotorControl/utils.hpp **** // To allow use of -ffast-math we need to have a special check for nan
 100:./MotorControl/utils.hpp **** // that bypasses the "ignore nan" flag
 101:./MotorControl/utils.hpp **** __attribute__((optimize("-fno-finite-math-only")))
 102:./MotorControl/utils.hpp **** inline bool is_nan(float x) {
 103:./MotorControl/utils.hpp ****     return __builtin_isnan(x);
 1732              		.loc 7 103 5 is_stmt 1 view .LVU437
 349:MotorControl/low_level.cpp ****             // Shuts off all motors AND brake resistor, sets error code on all motors.
 1733              		.loc 2 349 9 is_stmt 0 view .LVU438
 1734 00c4 B4EE477A 		vcmp.f32	s14, s14
 1735 00c8 F1EE10FA 		vmrs	APSR_nzcv, FPSCR
 1736 00cc 23D6     		bvs	.L140
 355:MotorControl/low_level.cpp ****             brake_resistor_saturated = true;
 1737              		.loc 2 355 9 is_stmt 1 view .LVU439
 1738 00ce DFED425A 		vldr.32	s11, .L144+16
 1739 00d2 B4EEE57A 		vcmpe.f32	s14, s11
 1740 00d6 F1EE10FA 		vmrs	APSR_nzcv, FPSCR
 1741 00da 02DB     		blt	.L114
 356:MotorControl/low_level.cpp ****         }
 1742              		.loc 2 356 13 view .LVU440
 356:MotorControl/low_level.cpp ****         }
 1743              		.loc 2 356 38 is_stmt 0 view .LVU441
 1744 00dc 3F4B     		ldr	r3, .L144+20
 1745 00de 0122     		movs	r2, #1
 1746 00e0 1A70     		strb	r2, [r3]
 1747              	.L114:
 360:MotorControl/low_level.cpp **** 
 1748              		.loc 2 360 9 is_stmt 1 view .LVU442
 360:MotorControl/low_level.cpp **** 
 1749              		.loc 2 360 45 is_stmt 0 view .LVU443
 1750 00e2 0023     		movs	r3, #0
 1751 00e4 0493     		str	r3, [sp, #16]	@ float
 360:MotorControl/low_level.cpp **** 
 1752              		.loc 2 360 51 view .LVU444
 1753 00e6 3E4B     		ldr	r3, .L144+24
 1754 00e8 0593     		str	r3, [sp, #20]	@ float
 1755              	.LVL101:
 1756              	.LBB181:
 1757              	.LBI181:
 1758              		.file 8 "/opt/gcc-arm-none-eabi/arm-none-eabi/include/c++/10.3.1/bits/stl_algo.h"
   1:/opt/gcc-arm-none-eabi/arm-none-eabi/include/c++/10.3.1/bits/stl_algo.h **** // Algorithm implementation -*- C++ -*-
   2:/opt/gcc-arm-none-eabi/arm-none-eabi/include/c++/10.3.1/bits/stl_algo.h **** 
   3:/opt/gcc-arm-none-eabi/arm-none-eabi/include/c++/10.3.1/bits/stl_algo.h **** // Copyright (C) 2001-2020 Free Software Foundation, Inc.
   4:/opt/gcc-arm-none-eabi/arm-none-eabi/include/c++/10.3.1/bits/stl_algo.h **** //
   5:/opt/gcc-arm-none-eabi/arm-none-eabi/include/c++/10.3.1/bits/stl_algo.h **** // This file is part of the GNU ISO C++ Library.  This library is free
   6:/opt/gcc-arm-none-eabi/arm-none-eabi/include/c++/10.3.1/bits/stl_algo.h **** // software; you can redistribute it and/or modify it under the
   7:/opt/gcc-arm-none-eabi/arm-none-eabi/include/c++/10.3.1/bits/stl_algo.h **** // terms of the GNU General Public License as published by the
   8:/opt/gcc-arm-none-eabi/arm-none-eabi/include/c++/10.3.1/bits/stl_algo.h **** // Free Software Foundation; either version 3, or (at your option)
   9:/opt/gcc-arm-none-eabi/arm-none-eabi/include/c++/10.3.1/bits/stl_algo.h **** // any later version.
  10:/opt/gcc-arm-none-eabi/arm-none-eabi/include/c++/10.3.1/bits/stl_algo.h **** 
  11:/opt/gcc-arm-none-eabi/arm-none-eabi/include/c++/10.3.1/bits/stl_algo.h **** // This library is distributed in the hope that it will be useful,
ARM GAS  /tmp/ccxBL0ey.s 			page 63


  12:/opt/gcc-arm-none-eabi/arm-none-eabi/include/c++/10.3.1/bits/stl_algo.h **** // but WITHOUT ANY WARRANTY; without even the implied warranty of
  13:/opt/gcc-arm-none-eabi/arm-none-eabi/include/c++/10.3.1/bits/stl_algo.h **** // MERCHANTABILITY or FITNESS FOR A PARTICULAR PURPOSE.  See the
  14:/opt/gcc-arm-none-eabi/arm-none-eabi/include/c++/10.3.1/bits/stl_algo.h **** // GNU General Public License for more details.
  15:/opt/gcc-arm-none-eabi/arm-none-eabi/include/c++/10.3.1/bits/stl_algo.h **** 
  16:/opt/gcc-arm-none-eabi/arm-none-eabi/include/c++/10.3.1/bits/stl_algo.h **** // Under Section 7 of GPL version 3, you are granted additional
  17:/opt/gcc-arm-none-eabi/arm-none-eabi/include/c++/10.3.1/bits/stl_algo.h **** // permissions described in the GCC Runtime Library Exception, version
  18:/opt/gcc-arm-none-eabi/arm-none-eabi/include/c++/10.3.1/bits/stl_algo.h **** // 3.1, as published by the Free Software Foundation.
  19:/opt/gcc-arm-none-eabi/arm-none-eabi/include/c++/10.3.1/bits/stl_algo.h **** 
  20:/opt/gcc-arm-none-eabi/arm-none-eabi/include/c++/10.3.1/bits/stl_algo.h **** // You should have received a copy of the GNU General Public License and
  21:/opt/gcc-arm-none-eabi/arm-none-eabi/include/c++/10.3.1/bits/stl_algo.h **** // a copy of the GCC Runtime Library Exception along with this program;
  22:/opt/gcc-arm-none-eabi/arm-none-eabi/include/c++/10.3.1/bits/stl_algo.h **** // see the files COPYING3 and COPYING.RUNTIME respectively.  If not, see
  23:/opt/gcc-arm-none-eabi/arm-none-eabi/include/c++/10.3.1/bits/stl_algo.h **** // <http://www.gnu.org/licenses/>.
  24:/opt/gcc-arm-none-eabi/arm-none-eabi/include/c++/10.3.1/bits/stl_algo.h **** 
  25:/opt/gcc-arm-none-eabi/arm-none-eabi/include/c++/10.3.1/bits/stl_algo.h **** /*
  26:/opt/gcc-arm-none-eabi/arm-none-eabi/include/c++/10.3.1/bits/stl_algo.h ****  *
  27:/opt/gcc-arm-none-eabi/arm-none-eabi/include/c++/10.3.1/bits/stl_algo.h ****  * Copyright (c) 1994
  28:/opt/gcc-arm-none-eabi/arm-none-eabi/include/c++/10.3.1/bits/stl_algo.h ****  * Hewlett-Packard Company
  29:/opt/gcc-arm-none-eabi/arm-none-eabi/include/c++/10.3.1/bits/stl_algo.h ****  *
  30:/opt/gcc-arm-none-eabi/arm-none-eabi/include/c++/10.3.1/bits/stl_algo.h ****  * Permission to use, copy, modify, distribute and sell this software
  31:/opt/gcc-arm-none-eabi/arm-none-eabi/include/c++/10.3.1/bits/stl_algo.h ****  * and its documentation for any purpose is hereby granted without fee,
  32:/opt/gcc-arm-none-eabi/arm-none-eabi/include/c++/10.3.1/bits/stl_algo.h ****  * provided that the above copyright notice appear in all copies and
  33:/opt/gcc-arm-none-eabi/arm-none-eabi/include/c++/10.3.1/bits/stl_algo.h ****  * that both that copyright notice and this permission notice appear
  34:/opt/gcc-arm-none-eabi/arm-none-eabi/include/c++/10.3.1/bits/stl_algo.h ****  * in supporting documentation.  Hewlett-Packard Company makes no
  35:/opt/gcc-arm-none-eabi/arm-none-eabi/include/c++/10.3.1/bits/stl_algo.h ****  * representations about the suitability of this software for any
  36:/opt/gcc-arm-none-eabi/arm-none-eabi/include/c++/10.3.1/bits/stl_algo.h ****  * purpose.  It is provided "as is" without express or implied warranty.
  37:/opt/gcc-arm-none-eabi/arm-none-eabi/include/c++/10.3.1/bits/stl_algo.h ****  *
  38:/opt/gcc-arm-none-eabi/arm-none-eabi/include/c++/10.3.1/bits/stl_algo.h ****  *
  39:/opt/gcc-arm-none-eabi/arm-none-eabi/include/c++/10.3.1/bits/stl_algo.h ****  * Copyright (c) 1996
  40:/opt/gcc-arm-none-eabi/arm-none-eabi/include/c++/10.3.1/bits/stl_algo.h ****  * Silicon Graphics Computer Systems, Inc.
  41:/opt/gcc-arm-none-eabi/arm-none-eabi/include/c++/10.3.1/bits/stl_algo.h ****  *
  42:/opt/gcc-arm-none-eabi/arm-none-eabi/include/c++/10.3.1/bits/stl_algo.h ****  * Permission to use, copy, modify, distribute and sell this software
  43:/opt/gcc-arm-none-eabi/arm-none-eabi/include/c++/10.3.1/bits/stl_algo.h ****  * and its documentation for any purpose is hereby granted without fee,
  44:/opt/gcc-arm-none-eabi/arm-none-eabi/include/c++/10.3.1/bits/stl_algo.h ****  * provided that the above copyright notice appear in all copies and
  45:/opt/gcc-arm-none-eabi/arm-none-eabi/include/c++/10.3.1/bits/stl_algo.h ****  * that both that copyright notice and this permission notice appear
  46:/opt/gcc-arm-none-eabi/arm-none-eabi/include/c++/10.3.1/bits/stl_algo.h ****  * in supporting documentation.  Silicon Graphics makes no
  47:/opt/gcc-arm-none-eabi/arm-none-eabi/include/c++/10.3.1/bits/stl_algo.h ****  * representations about the suitability of this software for any
  48:/opt/gcc-arm-none-eabi/arm-none-eabi/include/c++/10.3.1/bits/stl_algo.h ****  * purpose.  It is provided "as is" without express or implied warranty.
  49:/opt/gcc-arm-none-eabi/arm-none-eabi/include/c++/10.3.1/bits/stl_algo.h ****  */
  50:/opt/gcc-arm-none-eabi/arm-none-eabi/include/c++/10.3.1/bits/stl_algo.h **** 
  51:/opt/gcc-arm-none-eabi/arm-none-eabi/include/c++/10.3.1/bits/stl_algo.h **** /** @file bits/stl_algo.h
  52:/opt/gcc-arm-none-eabi/arm-none-eabi/include/c++/10.3.1/bits/stl_algo.h ****  *  This is an internal header file, included by other library headers.
  53:/opt/gcc-arm-none-eabi/arm-none-eabi/include/c++/10.3.1/bits/stl_algo.h ****  *  Do not attempt to use it directly. @headername{algorithm}
  54:/opt/gcc-arm-none-eabi/arm-none-eabi/include/c++/10.3.1/bits/stl_algo.h ****  */
  55:/opt/gcc-arm-none-eabi/arm-none-eabi/include/c++/10.3.1/bits/stl_algo.h **** 
  56:/opt/gcc-arm-none-eabi/arm-none-eabi/include/c++/10.3.1/bits/stl_algo.h **** #ifndef _STL_ALGO_H
  57:/opt/gcc-arm-none-eabi/arm-none-eabi/include/c++/10.3.1/bits/stl_algo.h **** #define _STL_ALGO_H 1
  58:/opt/gcc-arm-none-eabi/arm-none-eabi/include/c++/10.3.1/bits/stl_algo.h **** 
  59:/opt/gcc-arm-none-eabi/arm-none-eabi/include/c++/10.3.1/bits/stl_algo.h **** #include <cstdlib>	     // for rand
  60:/opt/gcc-arm-none-eabi/arm-none-eabi/include/c++/10.3.1/bits/stl_algo.h **** #include <bits/algorithmfwd.h>
  61:/opt/gcc-arm-none-eabi/arm-none-eabi/include/c++/10.3.1/bits/stl_algo.h **** #include <bits/stl_heap.h>
  62:/opt/gcc-arm-none-eabi/arm-none-eabi/include/c++/10.3.1/bits/stl_algo.h **** #include <bits/stl_tempbuf.h>  // for _Temporary_buffer
  63:/opt/gcc-arm-none-eabi/arm-none-eabi/include/c++/10.3.1/bits/stl_algo.h **** #include <bits/predefined_ops.h>
  64:/opt/gcc-arm-none-eabi/arm-none-eabi/include/c++/10.3.1/bits/stl_algo.h **** 
  65:/opt/gcc-arm-none-eabi/arm-none-eabi/include/c++/10.3.1/bits/stl_algo.h **** #if __cplusplus >= 201103L
  66:/opt/gcc-arm-none-eabi/arm-none-eabi/include/c++/10.3.1/bits/stl_algo.h **** #include <bits/uniform_int_dist.h>
  67:/opt/gcc-arm-none-eabi/arm-none-eabi/include/c++/10.3.1/bits/stl_algo.h **** #endif
  68:/opt/gcc-arm-none-eabi/arm-none-eabi/include/c++/10.3.1/bits/stl_algo.h **** 
ARM GAS  /tmp/ccxBL0ey.s 			page 64


  69:/opt/gcc-arm-none-eabi/arm-none-eabi/include/c++/10.3.1/bits/stl_algo.h **** // See concept_check.h for the __glibcxx_*_requires macros.
  70:/opt/gcc-arm-none-eabi/arm-none-eabi/include/c++/10.3.1/bits/stl_algo.h **** 
  71:/opt/gcc-arm-none-eabi/arm-none-eabi/include/c++/10.3.1/bits/stl_algo.h **** namespace std _GLIBCXX_VISIBILITY(default)
  72:/opt/gcc-arm-none-eabi/arm-none-eabi/include/c++/10.3.1/bits/stl_algo.h **** {
  73:/opt/gcc-arm-none-eabi/arm-none-eabi/include/c++/10.3.1/bits/stl_algo.h **** _GLIBCXX_BEGIN_NAMESPACE_VERSION
  74:/opt/gcc-arm-none-eabi/arm-none-eabi/include/c++/10.3.1/bits/stl_algo.h **** 
  75:/opt/gcc-arm-none-eabi/arm-none-eabi/include/c++/10.3.1/bits/stl_algo.h ****   /// Swaps the median value of *__a, *__b and *__c under __comp to *__result
  76:/opt/gcc-arm-none-eabi/arm-none-eabi/include/c++/10.3.1/bits/stl_algo.h ****   template<typename _Iterator, typename _Compare>
  77:/opt/gcc-arm-none-eabi/arm-none-eabi/include/c++/10.3.1/bits/stl_algo.h ****     _GLIBCXX20_CONSTEXPR
  78:/opt/gcc-arm-none-eabi/arm-none-eabi/include/c++/10.3.1/bits/stl_algo.h ****     void
  79:/opt/gcc-arm-none-eabi/arm-none-eabi/include/c++/10.3.1/bits/stl_algo.h ****     __move_median_to_first(_Iterator __result,_Iterator __a, _Iterator __b,
  80:/opt/gcc-arm-none-eabi/arm-none-eabi/include/c++/10.3.1/bits/stl_algo.h **** 			   _Iterator __c, _Compare __comp)
  81:/opt/gcc-arm-none-eabi/arm-none-eabi/include/c++/10.3.1/bits/stl_algo.h ****     {
  82:/opt/gcc-arm-none-eabi/arm-none-eabi/include/c++/10.3.1/bits/stl_algo.h ****       if (__comp(__a, __b))
  83:/opt/gcc-arm-none-eabi/arm-none-eabi/include/c++/10.3.1/bits/stl_algo.h **** 	{
  84:/opt/gcc-arm-none-eabi/arm-none-eabi/include/c++/10.3.1/bits/stl_algo.h **** 	  if (__comp(__b, __c))
  85:/opt/gcc-arm-none-eabi/arm-none-eabi/include/c++/10.3.1/bits/stl_algo.h **** 	    std::iter_swap(__result, __b);
  86:/opt/gcc-arm-none-eabi/arm-none-eabi/include/c++/10.3.1/bits/stl_algo.h **** 	  else if (__comp(__a, __c))
  87:/opt/gcc-arm-none-eabi/arm-none-eabi/include/c++/10.3.1/bits/stl_algo.h **** 	    std::iter_swap(__result, __c);
  88:/opt/gcc-arm-none-eabi/arm-none-eabi/include/c++/10.3.1/bits/stl_algo.h **** 	  else
  89:/opt/gcc-arm-none-eabi/arm-none-eabi/include/c++/10.3.1/bits/stl_algo.h **** 	    std::iter_swap(__result, __a);
  90:/opt/gcc-arm-none-eabi/arm-none-eabi/include/c++/10.3.1/bits/stl_algo.h **** 	}
  91:/opt/gcc-arm-none-eabi/arm-none-eabi/include/c++/10.3.1/bits/stl_algo.h ****       else if (__comp(__a, __c))
  92:/opt/gcc-arm-none-eabi/arm-none-eabi/include/c++/10.3.1/bits/stl_algo.h **** 	std::iter_swap(__result, __a);
  93:/opt/gcc-arm-none-eabi/arm-none-eabi/include/c++/10.3.1/bits/stl_algo.h ****       else if (__comp(__b, __c))
  94:/opt/gcc-arm-none-eabi/arm-none-eabi/include/c++/10.3.1/bits/stl_algo.h **** 	std::iter_swap(__result, __c);
  95:/opt/gcc-arm-none-eabi/arm-none-eabi/include/c++/10.3.1/bits/stl_algo.h ****       else
  96:/opt/gcc-arm-none-eabi/arm-none-eabi/include/c++/10.3.1/bits/stl_algo.h **** 	std::iter_swap(__result, __b);
  97:/opt/gcc-arm-none-eabi/arm-none-eabi/include/c++/10.3.1/bits/stl_algo.h ****     }
  98:/opt/gcc-arm-none-eabi/arm-none-eabi/include/c++/10.3.1/bits/stl_algo.h **** 
  99:/opt/gcc-arm-none-eabi/arm-none-eabi/include/c++/10.3.1/bits/stl_algo.h ****   /// Provided for stable_partition to use.
 100:/opt/gcc-arm-none-eabi/arm-none-eabi/include/c++/10.3.1/bits/stl_algo.h ****   template<typename _InputIterator, typename _Predicate>
 101:/opt/gcc-arm-none-eabi/arm-none-eabi/include/c++/10.3.1/bits/stl_algo.h ****     _GLIBCXX20_CONSTEXPR
 102:/opt/gcc-arm-none-eabi/arm-none-eabi/include/c++/10.3.1/bits/stl_algo.h ****     inline _InputIterator
 103:/opt/gcc-arm-none-eabi/arm-none-eabi/include/c++/10.3.1/bits/stl_algo.h ****     __find_if_not(_InputIterator __first, _InputIterator __last,
 104:/opt/gcc-arm-none-eabi/arm-none-eabi/include/c++/10.3.1/bits/stl_algo.h **** 		  _Predicate __pred)
 105:/opt/gcc-arm-none-eabi/arm-none-eabi/include/c++/10.3.1/bits/stl_algo.h ****     {
 106:/opt/gcc-arm-none-eabi/arm-none-eabi/include/c++/10.3.1/bits/stl_algo.h ****       return std::__find_if(__first, __last,
 107:/opt/gcc-arm-none-eabi/arm-none-eabi/include/c++/10.3.1/bits/stl_algo.h **** 			    __gnu_cxx::__ops::__negate(__pred),
 108:/opt/gcc-arm-none-eabi/arm-none-eabi/include/c++/10.3.1/bits/stl_algo.h **** 			    std::__iterator_category(__first));
 109:/opt/gcc-arm-none-eabi/arm-none-eabi/include/c++/10.3.1/bits/stl_algo.h ****     }
 110:/opt/gcc-arm-none-eabi/arm-none-eabi/include/c++/10.3.1/bits/stl_algo.h **** 
 111:/opt/gcc-arm-none-eabi/arm-none-eabi/include/c++/10.3.1/bits/stl_algo.h ****   /// Like find_if_not(), but uses and updates a count of the
 112:/opt/gcc-arm-none-eabi/arm-none-eabi/include/c++/10.3.1/bits/stl_algo.h ****   /// remaining range length instead of comparing against an end
 113:/opt/gcc-arm-none-eabi/arm-none-eabi/include/c++/10.3.1/bits/stl_algo.h ****   /// iterator.
 114:/opt/gcc-arm-none-eabi/arm-none-eabi/include/c++/10.3.1/bits/stl_algo.h ****   template<typename _InputIterator, typename _Predicate, typename _Distance>
 115:/opt/gcc-arm-none-eabi/arm-none-eabi/include/c++/10.3.1/bits/stl_algo.h ****     _GLIBCXX20_CONSTEXPR
 116:/opt/gcc-arm-none-eabi/arm-none-eabi/include/c++/10.3.1/bits/stl_algo.h ****     _InputIterator
 117:/opt/gcc-arm-none-eabi/arm-none-eabi/include/c++/10.3.1/bits/stl_algo.h ****     __find_if_not_n(_InputIterator __first, _Distance& __len, _Predicate __pred)
 118:/opt/gcc-arm-none-eabi/arm-none-eabi/include/c++/10.3.1/bits/stl_algo.h ****     {
 119:/opt/gcc-arm-none-eabi/arm-none-eabi/include/c++/10.3.1/bits/stl_algo.h ****       for (; __len; --__len,  (void) ++__first)
 120:/opt/gcc-arm-none-eabi/arm-none-eabi/include/c++/10.3.1/bits/stl_algo.h **** 	if (!__pred(__first))
 121:/opt/gcc-arm-none-eabi/arm-none-eabi/include/c++/10.3.1/bits/stl_algo.h **** 	  break;
 122:/opt/gcc-arm-none-eabi/arm-none-eabi/include/c++/10.3.1/bits/stl_algo.h ****       return __first;
 123:/opt/gcc-arm-none-eabi/arm-none-eabi/include/c++/10.3.1/bits/stl_algo.h ****     }
 124:/opt/gcc-arm-none-eabi/arm-none-eabi/include/c++/10.3.1/bits/stl_algo.h **** 
 125:/opt/gcc-arm-none-eabi/arm-none-eabi/include/c++/10.3.1/bits/stl_algo.h ****   // set_difference
ARM GAS  /tmp/ccxBL0ey.s 			page 65


 126:/opt/gcc-arm-none-eabi/arm-none-eabi/include/c++/10.3.1/bits/stl_algo.h ****   // set_intersection
 127:/opt/gcc-arm-none-eabi/arm-none-eabi/include/c++/10.3.1/bits/stl_algo.h ****   // set_symmetric_difference
 128:/opt/gcc-arm-none-eabi/arm-none-eabi/include/c++/10.3.1/bits/stl_algo.h ****   // set_union
 129:/opt/gcc-arm-none-eabi/arm-none-eabi/include/c++/10.3.1/bits/stl_algo.h ****   // for_each
 130:/opt/gcc-arm-none-eabi/arm-none-eabi/include/c++/10.3.1/bits/stl_algo.h ****   // find
 131:/opt/gcc-arm-none-eabi/arm-none-eabi/include/c++/10.3.1/bits/stl_algo.h ****   // find_if
 132:/opt/gcc-arm-none-eabi/arm-none-eabi/include/c++/10.3.1/bits/stl_algo.h ****   // find_first_of
 133:/opt/gcc-arm-none-eabi/arm-none-eabi/include/c++/10.3.1/bits/stl_algo.h ****   // adjacent_find
 134:/opt/gcc-arm-none-eabi/arm-none-eabi/include/c++/10.3.1/bits/stl_algo.h ****   // count
 135:/opt/gcc-arm-none-eabi/arm-none-eabi/include/c++/10.3.1/bits/stl_algo.h ****   // count_if
 136:/opt/gcc-arm-none-eabi/arm-none-eabi/include/c++/10.3.1/bits/stl_algo.h ****   // search
 137:/opt/gcc-arm-none-eabi/arm-none-eabi/include/c++/10.3.1/bits/stl_algo.h **** 
 138:/opt/gcc-arm-none-eabi/arm-none-eabi/include/c++/10.3.1/bits/stl_algo.h ****   template<typename _ForwardIterator1, typename _ForwardIterator2,
 139:/opt/gcc-arm-none-eabi/arm-none-eabi/include/c++/10.3.1/bits/stl_algo.h **** 	   typename _BinaryPredicate>
 140:/opt/gcc-arm-none-eabi/arm-none-eabi/include/c++/10.3.1/bits/stl_algo.h ****     _GLIBCXX20_CONSTEXPR
 141:/opt/gcc-arm-none-eabi/arm-none-eabi/include/c++/10.3.1/bits/stl_algo.h ****     _ForwardIterator1
 142:/opt/gcc-arm-none-eabi/arm-none-eabi/include/c++/10.3.1/bits/stl_algo.h ****     __search(_ForwardIterator1 __first1, _ForwardIterator1 __last1,
 143:/opt/gcc-arm-none-eabi/arm-none-eabi/include/c++/10.3.1/bits/stl_algo.h **** 	     _ForwardIterator2 __first2, _ForwardIterator2 __last2,
 144:/opt/gcc-arm-none-eabi/arm-none-eabi/include/c++/10.3.1/bits/stl_algo.h **** 	     _BinaryPredicate  __predicate)
 145:/opt/gcc-arm-none-eabi/arm-none-eabi/include/c++/10.3.1/bits/stl_algo.h ****     {
 146:/opt/gcc-arm-none-eabi/arm-none-eabi/include/c++/10.3.1/bits/stl_algo.h ****       // Test for empty ranges
 147:/opt/gcc-arm-none-eabi/arm-none-eabi/include/c++/10.3.1/bits/stl_algo.h ****       if (__first1 == __last1 || __first2 == __last2)
 148:/opt/gcc-arm-none-eabi/arm-none-eabi/include/c++/10.3.1/bits/stl_algo.h **** 	return __first1;
 149:/opt/gcc-arm-none-eabi/arm-none-eabi/include/c++/10.3.1/bits/stl_algo.h **** 
 150:/opt/gcc-arm-none-eabi/arm-none-eabi/include/c++/10.3.1/bits/stl_algo.h ****       // Test for a pattern of length 1.
 151:/opt/gcc-arm-none-eabi/arm-none-eabi/include/c++/10.3.1/bits/stl_algo.h ****       _ForwardIterator2 __p1(__first2);
 152:/opt/gcc-arm-none-eabi/arm-none-eabi/include/c++/10.3.1/bits/stl_algo.h ****       if (++__p1 == __last2)
 153:/opt/gcc-arm-none-eabi/arm-none-eabi/include/c++/10.3.1/bits/stl_algo.h **** 	return std::__find_if(__first1, __last1,
 154:/opt/gcc-arm-none-eabi/arm-none-eabi/include/c++/10.3.1/bits/stl_algo.h **** 		__gnu_cxx::__ops::__iter_comp_iter(__predicate, __first2));
 155:/opt/gcc-arm-none-eabi/arm-none-eabi/include/c++/10.3.1/bits/stl_algo.h **** 
 156:/opt/gcc-arm-none-eabi/arm-none-eabi/include/c++/10.3.1/bits/stl_algo.h ****       // General case.
 157:/opt/gcc-arm-none-eabi/arm-none-eabi/include/c++/10.3.1/bits/stl_algo.h ****       _ForwardIterator1 __current = __first1;
 158:/opt/gcc-arm-none-eabi/arm-none-eabi/include/c++/10.3.1/bits/stl_algo.h **** 
 159:/opt/gcc-arm-none-eabi/arm-none-eabi/include/c++/10.3.1/bits/stl_algo.h ****       for (;;)
 160:/opt/gcc-arm-none-eabi/arm-none-eabi/include/c++/10.3.1/bits/stl_algo.h **** 	{
 161:/opt/gcc-arm-none-eabi/arm-none-eabi/include/c++/10.3.1/bits/stl_algo.h **** 	  __first1 =
 162:/opt/gcc-arm-none-eabi/arm-none-eabi/include/c++/10.3.1/bits/stl_algo.h **** 	    std::__find_if(__first1, __last1,
 163:/opt/gcc-arm-none-eabi/arm-none-eabi/include/c++/10.3.1/bits/stl_algo.h **** 		__gnu_cxx::__ops::__iter_comp_iter(__predicate, __first2));
 164:/opt/gcc-arm-none-eabi/arm-none-eabi/include/c++/10.3.1/bits/stl_algo.h **** 
 165:/opt/gcc-arm-none-eabi/arm-none-eabi/include/c++/10.3.1/bits/stl_algo.h **** 	  if (__first1 == __last1)
 166:/opt/gcc-arm-none-eabi/arm-none-eabi/include/c++/10.3.1/bits/stl_algo.h **** 	    return __last1;
 167:/opt/gcc-arm-none-eabi/arm-none-eabi/include/c++/10.3.1/bits/stl_algo.h **** 
 168:/opt/gcc-arm-none-eabi/arm-none-eabi/include/c++/10.3.1/bits/stl_algo.h **** 	  _ForwardIterator2 __p = __p1;
 169:/opt/gcc-arm-none-eabi/arm-none-eabi/include/c++/10.3.1/bits/stl_algo.h **** 	  __current = __first1;
 170:/opt/gcc-arm-none-eabi/arm-none-eabi/include/c++/10.3.1/bits/stl_algo.h **** 	  if (++__current == __last1)
 171:/opt/gcc-arm-none-eabi/arm-none-eabi/include/c++/10.3.1/bits/stl_algo.h **** 	    return __last1;
 172:/opt/gcc-arm-none-eabi/arm-none-eabi/include/c++/10.3.1/bits/stl_algo.h **** 
 173:/opt/gcc-arm-none-eabi/arm-none-eabi/include/c++/10.3.1/bits/stl_algo.h **** 	  while (__predicate(__current, __p))
 174:/opt/gcc-arm-none-eabi/arm-none-eabi/include/c++/10.3.1/bits/stl_algo.h **** 	    {
 175:/opt/gcc-arm-none-eabi/arm-none-eabi/include/c++/10.3.1/bits/stl_algo.h **** 	      if (++__p == __last2)
 176:/opt/gcc-arm-none-eabi/arm-none-eabi/include/c++/10.3.1/bits/stl_algo.h **** 		return __first1;
 177:/opt/gcc-arm-none-eabi/arm-none-eabi/include/c++/10.3.1/bits/stl_algo.h **** 	      if (++__current == __last1)
 178:/opt/gcc-arm-none-eabi/arm-none-eabi/include/c++/10.3.1/bits/stl_algo.h **** 		return __last1;
 179:/opt/gcc-arm-none-eabi/arm-none-eabi/include/c++/10.3.1/bits/stl_algo.h **** 	    }
 180:/opt/gcc-arm-none-eabi/arm-none-eabi/include/c++/10.3.1/bits/stl_algo.h **** 	  ++__first1;
 181:/opt/gcc-arm-none-eabi/arm-none-eabi/include/c++/10.3.1/bits/stl_algo.h **** 	}
 182:/opt/gcc-arm-none-eabi/arm-none-eabi/include/c++/10.3.1/bits/stl_algo.h ****       return __first1;
ARM GAS  /tmp/ccxBL0ey.s 			page 66


 183:/opt/gcc-arm-none-eabi/arm-none-eabi/include/c++/10.3.1/bits/stl_algo.h ****     }
 184:/opt/gcc-arm-none-eabi/arm-none-eabi/include/c++/10.3.1/bits/stl_algo.h **** 
 185:/opt/gcc-arm-none-eabi/arm-none-eabi/include/c++/10.3.1/bits/stl_algo.h ****   // search_n
 186:/opt/gcc-arm-none-eabi/arm-none-eabi/include/c++/10.3.1/bits/stl_algo.h **** 
 187:/opt/gcc-arm-none-eabi/arm-none-eabi/include/c++/10.3.1/bits/stl_algo.h ****   /**
 188:/opt/gcc-arm-none-eabi/arm-none-eabi/include/c++/10.3.1/bits/stl_algo.h ****    *  This is an helper function for search_n overloaded for forward iterators.
 189:/opt/gcc-arm-none-eabi/arm-none-eabi/include/c++/10.3.1/bits/stl_algo.h ****   */
 190:/opt/gcc-arm-none-eabi/arm-none-eabi/include/c++/10.3.1/bits/stl_algo.h ****   template<typename _ForwardIterator, typename _Integer,
 191:/opt/gcc-arm-none-eabi/arm-none-eabi/include/c++/10.3.1/bits/stl_algo.h **** 	   typename _UnaryPredicate>
 192:/opt/gcc-arm-none-eabi/arm-none-eabi/include/c++/10.3.1/bits/stl_algo.h ****     _GLIBCXX20_CONSTEXPR
 193:/opt/gcc-arm-none-eabi/arm-none-eabi/include/c++/10.3.1/bits/stl_algo.h ****     _ForwardIterator
 194:/opt/gcc-arm-none-eabi/arm-none-eabi/include/c++/10.3.1/bits/stl_algo.h ****     __search_n_aux(_ForwardIterator __first, _ForwardIterator __last,
 195:/opt/gcc-arm-none-eabi/arm-none-eabi/include/c++/10.3.1/bits/stl_algo.h **** 		   _Integer __count, _UnaryPredicate __unary_pred,
 196:/opt/gcc-arm-none-eabi/arm-none-eabi/include/c++/10.3.1/bits/stl_algo.h **** 		   std::forward_iterator_tag)
 197:/opt/gcc-arm-none-eabi/arm-none-eabi/include/c++/10.3.1/bits/stl_algo.h ****     {
 198:/opt/gcc-arm-none-eabi/arm-none-eabi/include/c++/10.3.1/bits/stl_algo.h ****       __first = std::__find_if(__first, __last, __unary_pred);
 199:/opt/gcc-arm-none-eabi/arm-none-eabi/include/c++/10.3.1/bits/stl_algo.h ****       while (__first != __last)
 200:/opt/gcc-arm-none-eabi/arm-none-eabi/include/c++/10.3.1/bits/stl_algo.h **** 	{
 201:/opt/gcc-arm-none-eabi/arm-none-eabi/include/c++/10.3.1/bits/stl_algo.h **** 	  typename iterator_traits<_ForwardIterator>::difference_type
 202:/opt/gcc-arm-none-eabi/arm-none-eabi/include/c++/10.3.1/bits/stl_algo.h **** 	    __n = __count;
 203:/opt/gcc-arm-none-eabi/arm-none-eabi/include/c++/10.3.1/bits/stl_algo.h **** 	  _ForwardIterator __i = __first;
 204:/opt/gcc-arm-none-eabi/arm-none-eabi/include/c++/10.3.1/bits/stl_algo.h **** 	  ++__i;
 205:/opt/gcc-arm-none-eabi/arm-none-eabi/include/c++/10.3.1/bits/stl_algo.h **** 	  while (__i != __last && __n != 1 && __unary_pred(__i))
 206:/opt/gcc-arm-none-eabi/arm-none-eabi/include/c++/10.3.1/bits/stl_algo.h **** 	    {
 207:/opt/gcc-arm-none-eabi/arm-none-eabi/include/c++/10.3.1/bits/stl_algo.h **** 	      ++__i;
 208:/opt/gcc-arm-none-eabi/arm-none-eabi/include/c++/10.3.1/bits/stl_algo.h **** 	      --__n;
 209:/opt/gcc-arm-none-eabi/arm-none-eabi/include/c++/10.3.1/bits/stl_algo.h **** 	    }
 210:/opt/gcc-arm-none-eabi/arm-none-eabi/include/c++/10.3.1/bits/stl_algo.h **** 	  if (__n == 1)
 211:/opt/gcc-arm-none-eabi/arm-none-eabi/include/c++/10.3.1/bits/stl_algo.h **** 	    return __first;
 212:/opt/gcc-arm-none-eabi/arm-none-eabi/include/c++/10.3.1/bits/stl_algo.h **** 	  if (__i == __last)
 213:/opt/gcc-arm-none-eabi/arm-none-eabi/include/c++/10.3.1/bits/stl_algo.h **** 	    return __last;
 214:/opt/gcc-arm-none-eabi/arm-none-eabi/include/c++/10.3.1/bits/stl_algo.h **** 	  __first = std::__find_if(++__i, __last, __unary_pred);
 215:/opt/gcc-arm-none-eabi/arm-none-eabi/include/c++/10.3.1/bits/stl_algo.h **** 	}
 216:/opt/gcc-arm-none-eabi/arm-none-eabi/include/c++/10.3.1/bits/stl_algo.h ****       return __last;
 217:/opt/gcc-arm-none-eabi/arm-none-eabi/include/c++/10.3.1/bits/stl_algo.h ****     }
 218:/opt/gcc-arm-none-eabi/arm-none-eabi/include/c++/10.3.1/bits/stl_algo.h **** 
 219:/opt/gcc-arm-none-eabi/arm-none-eabi/include/c++/10.3.1/bits/stl_algo.h ****   /**
 220:/opt/gcc-arm-none-eabi/arm-none-eabi/include/c++/10.3.1/bits/stl_algo.h ****    *  This is an helper function for search_n overloaded for random access
 221:/opt/gcc-arm-none-eabi/arm-none-eabi/include/c++/10.3.1/bits/stl_algo.h ****    *  iterators.
 222:/opt/gcc-arm-none-eabi/arm-none-eabi/include/c++/10.3.1/bits/stl_algo.h ****   */
 223:/opt/gcc-arm-none-eabi/arm-none-eabi/include/c++/10.3.1/bits/stl_algo.h ****   template<typename _RandomAccessIter, typename _Integer,
 224:/opt/gcc-arm-none-eabi/arm-none-eabi/include/c++/10.3.1/bits/stl_algo.h **** 	   typename _UnaryPredicate>
 225:/opt/gcc-arm-none-eabi/arm-none-eabi/include/c++/10.3.1/bits/stl_algo.h ****     _GLIBCXX20_CONSTEXPR
 226:/opt/gcc-arm-none-eabi/arm-none-eabi/include/c++/10.3.1/bits/stl_algo.h ****     _RandomAccessIter
 227:/opt/gcc-arm-none-eabi/arm-none-eabi/include/c++/10.3.1/bits/stl_algo.h ****     __search_n_aux(_RandomAccessIter __first, _RandomAccessIter __last,
 228:/opt/gcc-arm-none-eabi/arm-none-eabi/include/c++/10.3.1/bits/stl_algo.h **** 		   _Integer __count, _UnaryPredicate __unary_pred,
 229:/opt/gcc-arm-none-eabi/arm-none-eabi/include/c++/10.3.1/bits/stl_algo.h **** 		   std::random_access_iterator_tag)
 230:/opt/gcc-arm-none-eabi/arm-none-eabi/include/c++/10.3.1/bits/stl_algo.h ****     {
 231:/opt/gcc-arm-none-eabi/arm-none-eabi/include/c++/10.3.1/bits/stl_algo.h ****       typedef typename std::iterator_traits<_RandomAccessIter>::difference_type
 232:/opt/gcc-arm-none-eabi/arm-none-eabi/include/c++/10.3.1/bits/stl_algo.h **** 	_DistanceType;
 233:/opt/gcc-arm-none-eabi/arm-none-eabi/include/c++/10.3.1/bits/stl_algo.h **** 
 234:/opt/gcc-arm-none-eabi/arm-none-eabi/include/c++/10.3.1/bits/stl_algo.h ****       _DistanceType __tailSize = __last - __first;
 235:/opt/gcc-arm-none-eabi/arm-none-eabi/include/c++/10.3.1/bits/stl_algo.h ****       _DistanceType __remainder = __count;
 236:/opt/gcc-arm-none-eabi/arm-none-eabi/include/c++/10.3.1/bits/stl_algo.h **** 
 237:/opt/gcc-arm-none-eabi/arm-none-eabi/include/c++/10.3.1/bits/stl_algo.h ****       while (__remainder <= __tailSize) // the main loop...
 238:/opt/gcc-arm-none-eabi/arm-none-eabi/include/c++/10.3.1/bits/stl_algo.h **** 	{
 239:/opt/gcc-arm-none-eabi/arm-none-eabi/include/c++/10.3.1/bits/stl_algo.h **** 	  __first += __remainder;
ARM GAS  /tmp/ccxBL0ey.s 			page 67


 240:/opt/gcc-arm-none-eabi/arm-none-eabi/include/c++/10.3.1/bits/stl_algo.h **** 	  __tailSize -= __remainder;
 241:/opt/gcc-arm-none-eabi/arm-none-eabi/include/c++/10.3.1/bits/stl_algo.h **** 	  // __first here is always pointing to one past the last element of
 242:/opt/gcc-arm-none-eabi/arm-none-eabi/include/c++/10.3.1/bits/stl_algo.h **** 	  // next possible match.
 243:/opt/gcc-arm-none-eabi/arm-none-eabi/include/c++/10.3.1/bits/stl_algo.h **** 	  _RandomAccessIter __backTrack = __first; 
 244:/opt/gcc-arm-none-eabi/arm-none-eabi/include/c++/10.3.1/bits/stl_algo.h **** 	  while (__unary_pred(--__backTrack))
 245:/opt/gcc-arm-none-eabi/arm-none-eabi/include/c++/10.3.1/bits/stl_algo.h **** 	    {
 246:/opt/gcc-arm-none-eabi/arm-none-eabi/include/c++/10.3.1/bits/stl_algo.h **** 	      if (--__remainder == 0)
 247:/opt/gcc-arm-none-eabi/arm-none-eabi/include/c++/10.3.1/bits/stl_algo.h **** 		return (__first - __count); // Success
 248:/opt/gcc-arm-none-eabi/arm-none-eabi/include/c++/10.3.1/bits/stl_algo.h **** 	    }
 249:/opt/gcc-arm-none-eabi/arm-none-eabi/include/c++/10.3.1/bits/stl_algo.h **** 	  __remainder = __count + 1 - (__first - __backTrack);
 250:/opt/gcc-arm-none-eabi/arm-none-eabi/include/c++/10.3.1/bits/stl_algo.h **** 	}
 251:/opt/gcc-arm-none-eabi/arm-none-eabi/include/c++/10.3.1/bits/stl_algo.h ****       return __last; // Failure
 252:/opt/gcc-arm-none-eabi/arm-none-eabi/include/c++/10.3.1/bits/stl_algo.h ****     }
 253:/opt/gcc-arm-none-eabi/arm-none-eabi/include/c++/10.3.1/bits/stl_algo.h **** 
 254:/opt/gcc-arm-none-eabi/arm-none-eabi/include/c++/10.3.1/bits/stl_algo.h ****   template<typename _ForwardIterator, typename _Integer,
 255:/opt/gcc-arm-none-eabi/arm-none-eabi/include/c++/10.3.1/bits/stl_algo.h **** 	   typename _UnaryPredicate>
 256:/opt/gcc-arm-none-eabi/arm-none-eabi/include/c++/10.3.1/bits/stl_algo.h ****     _GLIBCXX20_CONSTEXPR
 257:/opt/gcc-arm-none-eabi/arm-none-eabi/include/c++/10.3.1/bits/stl_algo.h ****     _ForwardIterator
 258:/opt/gcc-arm-none-eabi/arm-none-eabi/include/c++/10.3.1/bits/stl_algo.h ****     __search_n(_ForwardIterator __first, _ForwardIterator __last,
 259:/opt/gcc-arm-none-eabi/arm-none-eabi/include/c++/10.3.1/bits/stl_algo.h **** 	       _Integer __count,
 260:/opt/gcc-arm-none-eabi/arm-none-eabi/include/c++/10.3.1/bits/stl_algo.h **** 	       _UnaryPredicate __unary_pred)
 261:/opt/gcc-arm-none-eabi/arm-none-eabi/include/c++/10.3.1/bits/stl_algo.h ****     {
 262:/opt/gcc-arm-none-eabi/arm-none-eabi/include/c++/10.3.1/bits/stl_algo.h ****       if (__count <= 0)
 263:/opt/gcc-arm-none-eabi/arm-none-eabi/include/c++/10.3.1/bits/stl_algo.h **** 	return __first;
 264:/opt/gcc-arm-none-eabi/arm-none-eabi/include/c++/10.3.1/bits/stl_algo.h **** 
 265:/opt/gcc-arm-none-eabi/arm-none-eabi/include/c++/10.3.1/bits/stl_algo.h ****       if (__count == 1)
 266:/opt/gcc-arm-none-eabi/arm-none-eabi/include/c++/10.3.1/bits/stl_algo.h **** 	return std::__find_if(__first, __last, __unary_pred);
 267:/opt/gcc-arm-none-eabi/arm-none-eabi/include/c++/10.3.1/bits/stl_algo.h **** 
 268:/opt/gcc-arm-none-eabi/arm-none-eabi/include/c++/10.3.1/bits/stl_algo.h ****       return std::__search_n_aux(__first, __last, __count, __unary_pred,
 269:/opt/gcc-arm-none-eabi/arm-none-eabi/include/c++/10.3.1/bits/stl_algo.h **** 				 std::__iterator_category(__first));
 270:/opt/gcc-arm-none-eabi/arm-none-eabi/include/c++/10.3.1/bits/stl_algo.h ****     }
 271:/opt/gcc-arm-none-eabi/arm-none-eabi/include/c++/10.3.1/bits/stl_algo.h **** 
 272:/opt/gcc-arm-none-eabi/arm-none-eabi/include/c++/10.3.1/bits/stl_algo.h ****   // find_end for forward iterators.
 273:/opt/gcc-arm-none-eabi/arm-none-eabi/include/c++/10.3.1/bits/stl_algo.h ****   template<typename _ForwardIterator1, typename _ForwardIterator2,
 274:/opt/gcc-arm-none-eabi/arm-none-eabi/include/c++/10.3.1/bits/stl_algo.h **** 	   typename _BinaryPredicate>
 275:/opt/gcc-arm-none-eabi/arm-none-eabi/include/c++/10.3.1/bits/stl_algo.h ****     _GLIBCXX20_CONSTEXPR
 276:/opt/gcc-arm-none-eabi/arm-none-eabi/include/c++/10.3.1/bits/stl_algo.h ****     _ForwardIterator1
 277:/opt/gcc-arm-none-eabi/arm-none-eabi/include/c++/10.3.1/bits/stl_algo.h ****     __find_end(_ForwardIterator1 __first1, _ForwardIterator1 __last1,
 278:/opt/gcc-arm-none-eabi/arm-none-eabi/include/c++/10.3.1/bits/stl_algo.h **** 	       _ForwardIterator2 __first2, _ForwardIterator2 __last2,
 279:/opt/gcc-arm-none-eabi/arm-none-eabi/include/c++/10.3.1/bits/stl_algo.h **** 	       forward_iterator_tag, forward_iterator_tag,
 280:/opt/gcc-arm-none-eabi/arm-none-eabi/include/c++/10.3.1/bits/stl_algo.h **** 	       _BinaryPredicate __comp)
 281:/opt/gcc-arm-none-eabi/arm-none-eabi/include/c++/10.3.1/bits/stl_algo.h ****     {
 282:/opt/gcc-arm-none-eabi/arm-none-eabi/include/c++/10.3.1/bits/stl_algo.h ****       if (__first2 == __last2)
 283:/opt/gcc-arm-none-eabi/arm-none-eabi/include/c++/10.3.1/bits/stl_algo.h **** 	return __last1;
 284:/opt/gcc-arm-none-eabi/arm-none-eabi/include/c++/10.3.1/bits/stl_algo.h **** 
 285:/opt/gcc-arm-none-eabi/arm-none-eabi/include/c++/10.3.1/bits/stl_algo.h ****       _ForwardIterator1 __result = __last1;
 286:/opt/gcc-arm-none-eabi/arm-none-eabi/include/c++/10.3.1/bits/stl_algo.h ****       while (1)
 287:/opt/gcc-arm-none-eabi/arm-none-eabi/include/c++/10.3.1/bits/stl_algo.h **** 	{
 288:/opt/gcc-arm-none-eabi/arm-none-eabi/include/c++/10.3.1/bits/stl_algo.h **** 	  _ForwardIterator1 __new_result
 289:/opt/gcc-arm-none-eabi/arm-none-eabi/include/c++/10.3.1/bits/stl_algo.h **** 	    = std::__search(__first1, __last1, __first2, __last2, __comp);
 290:/opt/gcc-arm-none-eabi/arm-none-eabi/include/c++/10.3.1/bits/stl_algo.h **** 	  if (__new_result == __last1)
 291:/opt/gcc-arm-none-eabi/arm-none-eabi/include/c++/10.3.1/bits/stl_algo.h **** 	    return __result;
 292:/opt/gcc-arm-none-eabi/arm-none-eabi/include/c++/10.3.1/bits/stl_algo.h **** 	  else
 293:/opt/gcc-arm-none-eabi/arm-none-eabi/include/c++/10.3.1/bits/stl_algo.h **** 	    {
 294:/opt/gcc-arm-none-eabi/arm-none-eabi/include/c++/10.3.1/bits/stl_algo.h **** 	      __result = __new_result;
 295:/opt/gcc-arm-none-eabi/arm-none-eabi/include/c++/10.3.1/bits/stl_algo.h **** 	      __first1 = __new_result;
 296:/opt/gcc-arm-none-eabi/arm-none-eabi/include/c++/10.3.1/bits/stl_algo.h **** 	      ++__first1;
ARM GAS  /tmp/ccxBL0ey.s 			page 68


 297:/opt/gcc-arm-none-eabi/arm-none-eabi/include/c++/10.3.1/bits/stl_algo.h **** 	    }
 298:/opt/gcc-arm-none-eabi/arm-none-eabi/include/c++/10.3.1/bits/stl_algo.h **** 	}
 299:/opt/gcc-arm-none-eabi/arm-none-eabi/include/c++/10.3.1/bits/stl_algo.h ****     }
 300:/opt/gcc-arm-none-eabi/arm-none-eabi/include/c++/10.3.1/bits/stl_algo.h **** 
 301:/opt/gcc-arm-none-eabi/arm-none-eabi/include/c++/10.3.1/bits/stl_algo.h ****   // find_end for bidirectional iterators (much faster).
 302:/opt/gcc-arm-none-eabi/arm-none-eabi/include/c++/10.3.1/bits/stl_algo.h ****   template<typename _BidirectionalIterator1, typename _BidirectionalIterator2,
 303:/opt/gcc-arm-none-eabi/arm-none-eabi/include/c++/10.3.1/bits/stl_algo.h **** 	   typename _BinaryPredicate>
 304:/opt/gcc-arm-none-eabi/arm-none-eabi/include/c++/10.3.1/bits/stl_algo.h ****     _GLIBCXX20_CONSTEXPR
 305:/opt/gcc-arm-none-eabi/arm-none-eabi/include/c++/10.3.1/bits/stl_algo.h ****     _BidirectionalIterator1
 306:/opt/gcc-arm-none-eabi/arm-none-eabi/include/c++/10.3.1/bits/stl_algo.h ****     __find_end(_BidirectionalIterator1 __first1,
 307:/opt/gcc-arm-none-eabi/arm-none-eabi/include/c++/10.3.1/bits/stl_algo.h **** 	       _BidirectionalIterator1 __last1,
 308:/opt/gcc-arm-none-eabi/arm-none-eabi/include/c++/10.3.1/bits/stl_algo.h **** 	       _BidirectionalIterator2 __first2,
 309:/opt/gcc-arm-none-eabi/arm-none-eabi/include/c++/10.3.1/bits/stl_algo.h **** 	       _BidirectionalIterator2 __last2,
 310:/opt/gcc-arm-none-eabi/arm-none-eabi/include/c++/10.3.1/bits/stl_algo.h **** 	       bidirectional_iterator_tag, bidirectional_iterator_tag,
 311:/opt/gcc-arm-none-eabi/arm-none-eabi/include/c++/10.3.1/bits/stl_algo.h **** 	       _BinaryPredicate __comp)
 312:/opt/gcc-arm-none-eabi/arm-none-eabi/include/c++/10.3.1/bits/stl_algo.h ****     {
 313:/opt/gcc-arm-none-eabi/arm-none-eabi/include/c++/10.3.1/bits/stl_algo.h ****       // concept requirements
 314:/opt/gcc-arm-none-eabi/arm-none-eabi/include/c++/10.3.1/bits/stl_algo.h ****       __glibcxx_function_requires(_BidirectionalIteratorConcept<
 315:/opt/gcc-arm-none-eabi/arm-none-eabi/include/c++/10.3.1/bits/stl_algo.h **** 				  _BidirectionalIterator1>)
 316:/opt/gcc-arm-none-eabi/arm-none-eabi/include/c++/10.3.1/bits/stl_algo.h ****       __glibcxx_function_requires(_BidirectionalIteratorConcept<
 317:/opt/gcc-arm-none-eabi/arm-none-eabi/include/c++/10.3.1/bits/stl_algo.h **** 				  _BidirectionalIterator2>)
 318:/opt/gcc-arm-none-eabi/arm-none-eabi/include/c++/10.3.1/bits/stl_algo.h **** 
 319:/opt/gcc-arm-none-eabi/arm-none-eabi/include/c++/10.3.1/bits/stl_algo.h ****       typedef reverse_iterator<_BidirectionalIterator1> _RevIterator1;
 320:/opt/gcc-arm-none-eabi/arm-none-eabi/include/c++/10.3.1/bits/stl_algo.h ****       typedef reverse_iterator<_BidirectionalIterator2> _RevIterator2;
 321:/opt/gcc-arm-none-eabi/arm-none-eabi/include/c++/10.3.1/bits/stl_algo.h **** 
 322:/opt/gcc-arm-none-eabi/arm-none-eabi/include/c++/10.3.1/bits/stl_algo.h ****       _RevIterator1 __rlast1(__first1);
 323:/opt/gcc-arm-none-eabi/arm-none-eabi/include/c++/10.3.1/bits/stl_algo.h ****       _RevIterator2 __rlast2(__first2);
 324:/opt/gcc-arm-none-eabi/arm-none-eabi/include/c++/10.3.1/bits/stl_algo.h ****       _RevIterator1 __rresult = std::__search(_RevIterator1(__last1), __rlast1,
 325:/opt/gcc-arm-none-eabi/arm-none-eabi/include/c++/10.3.1/bits/stl_algo.h **** 					      _RevIterator2(__last2), __rlast2,
 326:/opt/gcc-arm-none-eabi/arm-none-eabi/include/c++/10.3.1/bits/stl_algo.h **** 					      __comp);
 327:/opt/gcc-arm-none-eabi/arm-none-eabi/include/c++/10.3.1/bits/stl_algo.h **** 
 328:/opt/gcc-arm-none-eabi/arm-none-eabi/include/c++/10.3.1/bits/stl_algo.h ****       if (__rresult == __rlast1)
 329:/opt/gcc-arm-none-eabi/arm-none-eabi/include/c++/10.3.1/bits/stl_algo.h **** 	return __last1;
 330:/opt/gcc-arm-none-eabi/arm-none-eabi/include/c++/10.3.1/bits/stl_algo.h ****       else
 331:/opt/gcc-arm-none-eabi/arm-none-eabi/include/c++/10.3.1/bits/stl_algo.h **** 	{
 332:/opt/gcc-arm-none-eabi/arm-none-eabi/include/c++/10.3.1/bits/stl_algo.h **** 	  _BidirectionalIterator1 __result = __rresult.base();
 333:/opt/gcc-arm-none-eabi/arm-none-eabi/include/c++/10.3.1/bits/stl_algo.h **** 	  std::advance(__result, -std::distance(__first2, __last2));
 334:/opt/gcc-arm-none-eabi/arm-none-eabi/include/c++/10.3.1/bits/stl_algo.h **** 	  return __result;
 335:/opt/gcc-arm-none-eabi/arm-none-eabi/include/c++/10.3.1/bits/stl_algo.h **** 	}
 336:/opt/gcc-arm-none-eabi/arm-none-eabi/include/c++/10.3.1/bits/stl_algo.h ****     }
 337:/opt/gcc-arm-none-eabi/arm-none-eabi/include/c++/10.3.1/bits/stl_algo.h **** 
 338:/opt/gcc-arm-none-eabi/arm-none-eabi/include/c++/10.3.1/bits/stl_algo.h ****   /**
 339:/opt/gcc-arm-none-eabi/arm-none-eabi/include/c++/10.3.1/bits/stl_algo.h ****    *  @brief  Find last matching subsequence in a sequence.
 340:/opt/gcc-arm-none-eabi/arm-none-eabi/include/c++/10.3.1/bits/stl_algo.h ****    *  @ingroup non_mutating_algorithms
 341:/opt/gcc-arm-none-eabi/arm-none-eabi/include/c++/10.3.1/bits/stl_algo.h ****    *  @param  __first1  Start of range to search.
 342:/opt/gcc-arm-none-eabi/arm-none-eabi/include/c++/10.3.1/bits/stl_algo.h ****    *  @param  __last1   End of range to search.
 343:/opt/gcc-arm-none-eabi/arm-none-eabi/include/c++/10.3.1/bits/stl_algo.h ****    *  @param  __first2  Start of sequence to match.
 344:/opt/gcc-arm-none-eabi/arm-none-eabi/include/c++/10.3.1/bits/stl_algo.h ****    *  @param  __last2   End of sequence to match.
 345:/opt/gcc-arm-none-eabi/arm-none-eabi/include/c++/10.3.1/bits/stl_algo.h ****    *  @return   The last iterator @c i in the range
 346:/opt/gcc-arm-none-eabi/arm-none-eabi/include/c++/10.3.1/bits/stl_algo.h ****    *  @p [__first1,__last1-(__last2-__first2)) such that @c *(i+N) ==
 347:/opt/gcc-arm-none-eabi/arm-none-eabi/include/c++/10.3.1/bits/stl_algo.h ****    *  @p *(__first2+N) for each @c N in the range @p
 348:/opt/gcc-arm-none-eabi/arm-none-eabi/include/c++/10.3.1/bits/stl_algo.h ****    *  [0,__last2-__first2), or @p __last1 if no such iterator exists.
 349:/opt/gcc-arm-none-eabi/arm-none-eabi/include/c++/10.3.1/bits/stl_algo.h ****    *
 350:/opt/gcc-arm-none-eabi/arm-none-eabi/include/c++/10.3.1/bits/stl_algo.h ****    *  Searches the range @p [__first1,__last1) for a sub-sequence that
 351:/opt/gcc-arm-none-eabi/arm-none-eabi/include/c++/10.3.1/bits/stl_algo.h ****    *  compares equal value-by-value with the sequence given by @p
 352:/opt/gcc-arm-none-eabi/arm-none-eabi/include/c++/10.3.1/bits/stl_algo.h ****    *  [__first2,__last2) and returns an iterator to the __first
 353:/opt/gcc-arm-none-eabi/arm-none-eabi/include/c++/10.3.1/bits/stl_algo.h ****    *  element of the sub-sequence, or @p __last1 if the sub-sequence
ARM GAS  /tmp/ccxBL0ey.s 			page 69


 354:/opt/gcc-arm-none-eabi/arm-none-eabi/include/c++/10.3.1/bits/stl_algo.h ****    *  is not found.  The sub-sequence will be the last such
 355:/opt/gcc-arm-none-eabi/arm-none-eabi/include/c++/10.3.1/bits/stl_algo.h ****    *  subsequence contained in [__first1,__last1).
 356:/opt/gcc-arm-none-eabi/arm-none-eabi/include/c++/10.3.1/bits/stl_algo.h ****    *
 357:/opt/gcc-arm-none-eabi/arm-none-eabi/include/c++/10.3.1/bits/stl_algo.h ****    *  Because the sub-sequence must lie completely within the range @p
 358:/opt/gcc-arm-none-eabi/arm-none-eabi/include/c++/10.3.1/bits/stl_algo.h ****    *  [__first1,__last1) it must start at a position less than @p
 359:/opt/gcc-arm-none-eabi/arm-none-eabi/include/c++/10.3.1/bits/stl_algo.h ****    *  __last1-(__last2-__first2) where @p __last2-__first2 is the
 360:/opt/gcc-arm-none-eabi/arm-none-eabi/include/c++/10.3.1/bits/stl_algo.h ****    *  length of the sub-sequence.  This means that the returned
 361:/opt/gcc-arm-none-eabi/arm-none-eabi/include/c++/10.3.1/bits/stl_algo.h ****    *  iterator @c i will be in the range @p
 362:/opt/gcc-arm-none-eabi/arm-none-eabi/include/c++/10.3.1/bits/stl_algo.h ****    *  [__first1,__last1-(__last2-__first2))
 363:/opt/gcc-arm-none-eabi/arm-none-eabi/include/c++/10.3.1/bits/stl_algo.h ****   */
 364:/opt/gcc-arm-none-eabi/arm-none-eabi/include/c++/10.3.1/bits/stl_algo.h ****   template<typename _ForwardIterator1, typename _ForwardIterator2>
 365:/opt/gcc-arm-none-eabi/arm-none-eabi/include/c++/10.3.1/bits/stl_algo.h ****     _GLIBCXX20_CONSTEXPR
 366:/opt/gcc-arm-none-eabi/arm-none-eabi/include/c++/10.3.1/bits/stl_algo.h ****     inline _ForwardIterator1
 367:/opt/gcc-arm-none-eabi/arm-none-eabi/include/c++/10.3.1/bits/stl_algo.h ****     find_end(_ForwardIterator1 __first1, _ForwardIterator1 __last1,
 368:/opt/gcc-arm-none-eabi/arm-none-eabi/include/c++/10.3.1/bits/stl_algo.h **** 	     _ForwardIterator2 __first2, _ForwardIterator2 __last2)
 369:/opt/gcc-arm-none-eabi/arm-none-eabi/include/c++/10.3.1/bits/stl_algo.h ****     {
 370:/opt/gcc-arm-none-eabi/arm-none-eabi/include/c++/10.3.1/bits/stl_algo.h ****       // concept requirements
 371:/opt/gcc-arm-none-eabi/arm-none-eabi/include/c++/10.3.1/bits/stl_algo.h ****       __glibcxx_function_requires(_ForwardIteratorConcept<_ForwardIterator1>)
 372:/opt/gcc-arm-none-eabi/arm-none-eabi/include/c++/10.3.1/bits/stl_algo.h ****       __glibcxx_function_requires(_ForwardIteratorConcept<_ForwardIterator2>)
 373:/opt/gcc-arm-none-eabi/arm-none-eabi/include/c++/10.3.1/bits/stl_algo.h ****       __glibcxx_function_requires(_EqualOpConcept<
 374:/opt/gcc-arm-none-eabi/arm-none-eabi/include/c++/10.3.1/bits/stl_algo.h **** 	    typename iterator_traits<_ForwardIterator1>::value_type,
 375:/opt/gcc-arm-none-eabi/arm-none-eabi/include/c++/10.3.1/bits/stl_algo.h **** 	    typename iterator_traits<_ForwardIterator2>::value_type>)
 376:/opt/gcc-arm-none-eabi/arm-none-eabi/include/c++/10.3.1/bits/stl_algo.h ****       __glibcxx_requires_valid_range(__first1, __last1);
 377:/opt/gcc-arm-none-eabi/arm-none-eabi/include/c++/10.3.1/bits/stl_algo.h ****       __glibcxx_requires_valid_range(__first2, __last2);
 378:/opt/gcc-arm-none-eabi/arm-none-eabi/include/c++/10.3.1/bits/stl_algo.h **** 
 379:/opt/gcc-arm-none-eabi/arm-none-eabi/include/c++/10.3.1/bits/stl_algo.h ****       return std::__find_end(__first1, __last1, __first2, __last2,
 380:/opt/gcc-arm-none-eabi/arm-none-eabi/include/c++/10.3.1/bits/stl_algo.h **** 			     std::__iterator_category(__first1),
 381:/opt/gcc-arm-none-eabi/arm-none-eabi/include/c++/10.3.1/bits/stl_algo.h **** 			     std::__iterator_category(__first2),
 382:/opt/gcc-arm-none-eabi/arm-none-eabi/include/c++/10.3.1/bits/stl_algo.h **** 			     __gnu_cxx::__ops::__iter_equal_to_iter());
 383:/opt/gcc-arm-none-eabi/arm-none-eabi/include/c++/10.3.1/bits/stl_algo.h ****     }
 384:/opt/gcc-arm-none-eabi/arm-none-eabi/include/c++/10.3.1/bits/stl_algo.h **** 
 385:/opt/gcc-arm-none-eabi/arm-none-eabi/include/c++/10.3.1/bits/stl_algo.h ****   /**
 386:/opt/gcc-arm-none-eabi/arm-none-eabi/include/c++/10.3.1/bits/stl_algo.h ****    *  @brief  Find last matching subsequence in a sequence using a predicate.
 387:/opt/gcc-arm-none-eabi/arm-none-eabi/include/c++/10.3.1/bits/stl_algo.h ****    *  @ingroup non_mutating_algorithms
 388:/opt/gcc-arm-none-eabi/arm-none-eabi/include/c++/10.3.1/bits/stl_algo.h ****    *  @param  __first1  Start of range to search.
 389:/opt/gcc-arm-none-eabi/arm-none-eabi/include/c++/10.3.1/bits/stl_algo.h ****    *  @param  __last1   End of range to search.
 390:/opt/gcc-arm-none-eabi/arm-none-eabi/include/c++/10.3.1/bits/stl_algo.h ****    *  @param  __first2  Start of sequence to match.
 391:/opt/gcc-arm-none-eabi/arm-none-eabi/include/c++/10.3.1/bits/stl_algo.h ****    *  @param  __last2   End of sequence to match.
 392:/opt/gcc-arm-none-eabi/arm-none-eabi/include/c++/10.3.1/bits/stl_algo.h ****    *  @param  __comp    The predicate to use.
 393:/opt/gcc-arm-none-eabi/arm-none-eabi/include/c++/10.3.1/bits/stl_algo.h ****    *  @return The last iterator @c i in the range @p
 394:/opt/gcc-arm-none-eabi/arm-none-eabi/include/c++/10.3.1/bits/stl_algo.h ****    *  [__first1,__last1-(__last2-__first2)) such that @c
 395:/opt/gcc-arm-none-eabi/arm-none-eabi/include/c++/10.3.1/bits/stl_algo.h ****    *  predicate(*(i+N), @p (__first2+N)) is true for each @c N in the
 396:/opt/gcc-arm-none-eabi/arm-none-eabi/include/c++/10.3.1/bits/stl_algo.h ****    *  range @p [0,__last2-__first2), or @p __last1 if no such iterator
 397:/opt/gcc-arm-none-eabi/arm-none-eabi/include/c++/10.3.1/bits/stl_algo.h ****    *  exists.
 398:/opt/gcc-arm-none-eabi/arm-none-eabi/include/c++/10.3.1/bits/stl_algo.h ****    *
 399:/opt/gcc-arm-none-eabi/arm-none-eabi/include/c++/10.3.1/bits/stl_algo.h ****    *  Searches the range @p [__first1,__last1) for a sub-sequence that
 400:/opt/gcc-arm-none-eabi/arm-none-eabi/include/c++/10.3.1/bits/stl_algo.h ****    *  compares equal value-by-value with the sequence given by @p
 401:/opt/gcc-arm-none-eabi/arm-none-eabi/include/c++/10.3.1/bits/stl_algo.h ****    *  [__first2,__last2) using comp as a predicate and returns an
 402:/opt/gcc-arm-none-eabi/arm-none-eabi/include/c++/10.3.1/bits/stl_algo.h ****    *  iterator to the first element of the sub-sequence, or @p __last1
 403:/opt/gcc-arm-none-eabi/arm-none-eabi/include/c++/10.3.1/bits/stl_algo.h ****    *  if the sub-sequence is not found.  The sub-sequence will be the
 404:/opt/gcc-arm-none-eabi/arm-none-eabi/include/c++/10.3.1/bits/stl_algo.h ****    *  last such subsequence contained in [__first,__last1).
 405:/opt/gcc-arm-none-eabi/arm-none-eabi/include/c++/10.3.1/bits/stl_algo.h ****    *
 406:/opt/gcc-arm-none-eabi/arm-none-eabi/include/c++/10.3.1/bits/stl_algo.h ****    *  Because the sub-sequence must lie completely within the range @p
 407:/opt/gcc-arm-none-eabi/arm-none-eabi/include/c++/10.3.1/bits/stl_algo.h ****    *  [__first1,__last1) it must start at a position less than @p
 408:/opt/gcc-arm-none-eabi/arm-none-eabi/include/c++/10.3.1/bits/stl_algo.h ****    *  __last1-(__last2-__first2) where @p __last2-__first2 is the
 409:/opt/gcc-arm-none-eabi/arm-none-eabi/include/c++/10.3.1/bits/stl_algo.h ****    *  length of the sub-sequence.  This means that the returned
 410:/opt/gcc-arm-none-eabi/arm-none-eabi/include/c++/10.3.1/bits/stl_algo.h ****    *  iterator @c i will be in the range @p
ARM GAS  /tmp/ccxBL0ey.s 			page 70


 411:/opt/gcc-arm-none-eabi/arm-none-eabi/include/c++/10.3.1/bits/stl_algo.h ****    *  [__first1,__last1-(__last2-__first2))
 412:/opt/gcc-arm-none-eabi/arm-none-eabi/include/c++/10.3.1/bits/stl_algo.h ****   */
 413:/opt/gcc-arm-none-eabi/arm-none-eabi/include/c++/10.3.1/bits/stl_algo.h ****   template<typename _ForwardIterator1, typename _ForwardIterator2,
 414:/opt/gcc-arm-none-eabi/arm-none-eabi/include/c++/10.3.1/bits/stl_algo.h **** 	   typename _BinaryPredicate>
 415:/opt/gcc-arm-none-eabi/arm-none-eabi/include/c++/10.3.1/bits/stl_algo.h ****     _GLIBCXX20_CONSTEXPR
 416:/opt/gcc-arm-none-eabi/arm-none-eabi/include/c++/10.3.1/bits/stl_algo.h ****     inline _ForwardIterator1
 417:/opt/gcc-arm-none-eabi/arm-none-eabi/include/c++/10.3.1/bits/stl_algo.h ****     find_end(_ForwardIterator1 __first1, _ForwardIterator1 __last1,
 418:/opt/gcc-arm-none-eabi/arm-none-eabi/include/c++/10.3.1/bits/stl_algo.h **** 	     _ForwardIterator2 __first2, _ForwardIterator2 __last2,
 419:/opt/gcc-arm-none-eabi/arm-none-eabi/include/c++/10.3.1/bits/stl_algo.h **** 	     _BinaryPredicate __comp)
 420:/opt/gcc-arm-none-eabi/arm-none-eabi/include/c++/10.3.1/bits/stl_algo.h ****     {
 421:/opt/gcc-arm-none-eabi/arm-none-eabi/include/c++/10.3.1/bits/stl_algo.h ****       // concept requirements
 422:/opt/gcc-arm-none-eabi/arm-none-eabi/include/c++/10.3.1/bits/stl_algo.h ****       __glibcxx_function_requires(_ForwardIteratorConcept<_ForwardIterator1>)
 423:/opt/gcc-arm-none-eabi/arm-none-eabi/include/c++/10.3.1/bits/stl_algo.h ****       __glibcxx_function_requires(_ForwardIteratorConcept<_ForwardIterator2>)
 424:/opt/gcc-arm-none-eabi/arm-none-eabi/include/c++/10.3.1/bits/stl_algo.h ****       __glibcxx_function_requires(_BinaryPredicateConcept<_BinaryPredicate,
 425:/opt/gcc-arm-none-eabi/arm-none-eabi/include/c++/10.3.1/bits/stl_algo.h **** 	    typename iterator_traits<_ForwardIterator1>::value_type,
 426:/opt/gcc-arm-none-eabi/arm-none-eabi/include/c++/10.3.1/bits/stl_algo.h **** 	    typename iterator_traits<_ForwardIterator2>::value_type>)
 427:/opt/gcc-arm-none-eabi/arm-none-eabi/include/c++/10.3.1/bits/stl_algo.h ****       __glibcxx_requires_valid_range(__first1, __last1);
 428:/opt/gcc-arm-none-eabi/arm-none-eabi/include/c++/10.3.1/bits/stl_algo.h ****       __glibcxx_requires_valid_range(__first2, __last2);
 429:/opt/gcc-arm-none-eabi/arm-none-eabi/include/c++/10.3.1/bits/stl_algo.h **** 
 430:/opt/gcc-arm-none-eabi/arm-none-eabi/include/c++/10.3.1/bits/stl_algo.h ****       return std::__find_end(__first1, __last1, __first2, __last2,
 431:/opt/gcc-arm-none-eabi/arm-none-eabi/include/c++/10.3.1/bits/stl_algo.h **** 			     std::__iterator_category(__first1),
 432:/opt/gcc-arm-none-eabi/arm-none-eabi/include/c++/10.3.1/bits/stl_algo.h **** 			     std::__iterator_category(__first2),
 433:/opt/gcc-arm-none-eabi/arm-none-eabi/include/c++/10.3.1/bits/stl_algo.h **** 			     __gnu_cxx::__ops::__iter_comp_iter(__comp));
 434:/opt/gcc-arm-none-eabi/arm-none-eabi/include/c++/10.3.1/bits/stl_algo.h ****     }
 435:/opt/gcc-arm-none-eabi/arm-none-eabi/include/c++/10.3.1/bits/stl_algo.h **** 
 436:/opt/gcc-arm-none-eabi/arm-none-eabi/include/c++/10.3.1/bits/stl_algo.h **** #if __cplusplus >= 201103L
 437:/opt/gcc-arm-none-eabi/arm-none-eabi/include/c++/10.3.1/bits/stl_algo.h ****   /**
 438:/opt/gcc-arm-none-eabi/arm-none-eabi/include/c++/10.3.1/bits/stl_algo.h ****    *  @brief  Checks that a predicate is true for all the elements
 439:/opt/gcc-arm-none-eabi/arm-none-eabi/include/c++/10.3.1/bits/stl_algo.h ****    *          of a sequence.
 440:/opt/gcc-arm-none-eabi/arm-none-eabi/include/c++/10.3.1/bits/stl_algo.h ****    *  @ingroup non_mutating_algorithms
 441:/opt/gcc-arm-none-eabi/arm-none-eabi/include/c++/10.3.1/bits/stl_algo.h ****    *  @param  __first   An input iterator.
 442:/opt/gcc-arm-none-eabi/arm-none-eabi/include/c++/10.3.1/bits/stl_algo.h ****    *  @param  __last    An input iterator.
 443:/opt/gcc-arm-none-eabi/arm-none-eabi/include/c++/10.3.1/bits/stl_algo.h ****    *  @param  __pred    A predicate.
 444:/opt/gcc-arm-none-eabi/arm-none-eabi/include/c++/10.3.1/bits/stl_algo.h ****    *  @return  True if the check is true, false otherwise.
 445:/opt/gcc-arm-none-eabi/arm-none-eabi/include/c++/10.3.1/bits/stl_algo.h ****    *
 446:/opt/gcc-arm-none-eabi/arm-none-eabi/include/c++/10.3.1/bits/stl_algo.h ****    *  Returns true if @p __pred is true for each element in the range
 447:/opt/gcc-arm-none-eabi/arm-none-eabi/include/c++/10.3.1/bits/stl_algo.h ****    *  @p [__first,__last), and false otherwise.
 448:/opt/gcc-arm-none-eabi/arm-none-eabi/include/c++/10.3.1/bits/stl_algo.h ****   */
 449:/opt/gcc-arm-none-eabi/arm-none-eabi/include/c++/10.3.1/bits/stl_algo.h ****   template<typename _InputIterator, typename _Predicate>
 450:/opt/gcc-arm-none-eabi/arm-none-eabi/include/c++/10.3.1/bits/stl_algo.h ****     _GLIBCXX20_CONSTEXPR
 451:/opt/gcc-arm-none-eabi/arm-none-eabi/include/c++/10.3.1/bits/stl_algo.h ****     inline bool
 452:/opt/gcc-arm-none-eabi/arm-none-eabi/include/c++/10.3.1/bits/stl_algo.h ****     all_of(_InputIterator __first, _InputIterator __last, _Predicate __pred)
 453:/opt/gcc-arm-none-eabi/arm-none-eabi/include/c++/10.3.1/bits/stl_algo.h ****     { return __last == std::find_if_not(__first, __last, __pred); }
 454:/opt/gcc-arm-none-eabi/arm-none-eabi/include/c++/10.3.1/bits/stl_algo.h **** 
 455:/opt/gcc-arm-none-eabi/arm-none-eabi/include/c++/10.3.1/bits/stl_algo.h ****   /**
 456:/opt/gcc-arm-none-eabi/arm-none-eabi/include/c++/10.3.1/bits/stl_algo.h ****    *  @brief  Checks that a predicate is false for all the elements
 457:/opt/gcc-arm-none-eabi/arm-none-eabi/include/c++/10.3.1/bits/stl_algo.h ****    *          of a sequence.
 458:/opt/gcc-arm-none-eabi/arm-none-eabi/include/c++/10.3.1/bits/stl_algo.h ****    *  @ingroup non_mutating_algorithms
 459:/opt/gcc-arm-none-eabi/arm-none-eabi/include/c++/10.3.1/bits/stl_algo.h ****    *  @param  __first   An input iterator.
 460:/opt/gcc-arm-none-eabi/arm-none-eabi/include/c++/10.3.1/bits/stl_algo.h ****    *  @param  __last    An input iterator.
 461:/opt/gcc-arm-none-eabi/arm-none-eabi/include/c++/10.3.1/bits/stl_algo.h ****    *  @param  __pred    A predicate.
 462:/opt/gcc-arm-none-eabi/arm-none-eabi/include/c++/10.3.1/bits/stl_algo.h ****    *  @return  True if the check is true, false otherwise.
 463:/opt/gcc-arm-none-eabi/arm-none-eabi/include/c++/10.3.1/bits/stl_algo.h ****    *
 464:/opt/gcc-arm-none-eabi/arm-none-eabi/include/c++/10.3.1/bits/stl_algo.h ****    *  Returns true if @p __pred is false for each element in the range
 465:/opt/gcc-arm-none-eabi/arm-none-eabi/include/c++/10.3.1/bits/stl_algo.h ****    *  @p [__first,__last), and false otherwise.
 466:/opt/gcc-arm-none-eabi/arm-none-eabi/include/c++/10.3.1/bits/stl_algo.h ****   */
 467:/opt/gcc-arm-none-eabi/arm-none-eabi/include/c++/10.3.1/bits/stl_algo.h ****   template<typename _InputIterator, typename _Predicate>
ARM GAS  /tmp/ccxBL0ey.s 			page 71


 468:/opt/gcc-arm-none-eabi/arm-none-eabi/include/c++/10.3.1/bits/stl_algo.h ****     _GLIBCXX20_CONSTEXPR
 469:/opt/gcc-arm-none-eabi/arm-none-eabi/include/c++/10.3.1/bits/stl_algo.h ****     inline bool
 470:/opt/gcc-arm-none-eabi/arm-none-eabi/include/c++/10.3.1/bits/stl_algo.h ****     none_of(_InputIterator __first, _InputIterator __last, _Predicate __pred)
 471:/opt/gcc-arm-none-eabi/arm-none-eabi/include/c++/10.3.1/bits/stl_algo.h ****     { return __last == _GLIBCXX_STD_A::find_if(__first, __last, __pred); }
 472:/opt/gcc-arm-none-eabi/arm-none-eabi/include/c++/10.3.1/bits/stl_algo.h **** 
 473:/opt/gcc-arm-none-eabi/arm-none-eabi/include/c++/10.3.1/bits/stl_algo.h ****   /**
 474:/opt/gcc-arm-none-eabi/arm-none-eabi/include/c++/10.3.1/bits/stl_algo.h ****    *  @brief  Checks that a predicate is true for at least one element
 475:/opt/gcc-arm-none-eabi/arm-none-eabi/include/c++/10.3.1/bits/stl_algo.h ****    *          of a sequence.
 476:/opt/gcc-arm-none-eabi/arm-none-eabi/include/c++/10.3.1/bits/stl_algo.h ****    *  @ingroup non_mutating_algorithms
 477:/opt/gcc-arm-none-eabi/arm-none-eabi/include/c++/10.3.1/bits/stl_algo.h ****    *  @param  __first   An input iterator.
 478:/opt/gcc-arm-none-eabi/arm-none-eabi/include/c++/10.3.1/bits/stl_algo.h ****    *  @param  __last    An input iterator.
 479:/opt/gcc-arm-none-eabi/arm-none-eabi/include/c++/10.3.1/bits/stl_algo.h ****    *  @param  __pred    A predicate.
 480:/opt/gcc-arm-none-eabi/arm-none-eabi/include/c++/10.3.1/bits/stl_algo.h ****    *  @return  True if the check is true, false otherwise.
 481:/opt/gcc-arm-none-eabi/arm-none-eabi/include/c++/10.3.1/bits/stl_algo.h ****    *
 482:/opt/gcc-arm-none-eabi/arm-none-eabi/include/c++/10.3.1/bits/stl_algo.h ****    *  Returns true if an element exists in the range @p
 483:/opt/gcc-arm-none-eabi/arm-none-eabi/include/c++/10.3.1/bits/stl_algo.h ****    *  [__first,__last) such that @p __pred is true, and false
 484:/opt/gcc-arm-none-eabi/arm-none-eabi/include/c++/10.3.1/bits/stl_algo.h ****    *  otherwise.
 485:/opt/gcc-arm-none-eabi/arm-none-eabi/include/c++/10.3.1/bits/stl_algo.h ****   */
 486:/opt/gcc-arm-none-eabi/arm-none-eabi/include/c++/10.3.1/bits/stl_algo.h ****   template<typename _InputIterator, typename _Predicate>
 487:/opt/gcc-arm-none-eabi/arm-none-eabi/include/c++/10.3.1/bits/stl_algo.h ****     _GLIBCXX20_CONSTEXPR
 488:/opt/gcc-arm-none-eabi/arm-none-eabi/include/c++/10.3.1/bits/stl_algo.h ****     inline bool
 489:/opt/gcc-arm-none-eabi/arm-none-eabi/include/c++/10.3.1/bits/stl_algo.h ****     any_of(_InputIterator __first, _InputIterator __last, _Predicate __pred)
 490:/opt/gcc-arm-none-eabi/arm-none-eabi/include/c++/10.3.1/bits/stl_algo.h ****     { return !std::none_of(__first, __last, __pred); }
 491:/opt/gcc-arm-none-eabi/arm-none-eabi/include/c++/10.3.1/bits/stl_algo.h **** 
 492:/opt/gcc-arm-none-eabi/arm-none-eabi/include/c++/10.3.1/bits/stl_algo.h ****   /**
 493:/opt/gcc-arm-none-eabi/arm-none-eabi/include/c++/10.3.1/bits/stl_algo.h ****    *  @brief  Find the first element in a sequence for which a
 494:/opt/gcc-arm-none-eabi/arm-none-eabi/include/c++/10.3.1/bits/stl_algo.h ****    *          predicate is false.
 495:/opt/gcc-arm-none-eabi/arm-none-eabi/include/c++/10.3.1/bits/stl_algo.h ****    *  @ingroup non_mutating_algorithms
 496:/opt/gcc-arm-none-eabi/arm-none-eabi/include/c++/10.3.1/bits/stl_algo.h ****    *  @param  __first  An input iterator.
 497:/opt/gcc-arm-none-eabi/arm-none-eabi/include/c++/10.3.1/bits/stl_algo.h ****    *  @param  __last   An input iterator.
 498:/opt/gcc-arm-none-eabi/arm-none-eabi/include/c++/10.3.1/bits/stl_algo.h ****    *  @param  __pred   A predicate.
 499:/opt/gcc-arm-none-eabi/arm-none-eabi/include/c++/10.3.1/bits/stl_algo.h ****    *  @return   The first iterator @c i in the range @p [__first,__last)
 500:/opt/gcc-arm-none-eabi/arm-none-eabi/include/c++/10.3.1/bits/stl_algo.h ****    *  such that @p __pred(*i) is false, or @p __last if no such iterator exists.
 501:/opt/gcc-arm-none-eabi/arm-none-eabi/include/c++/10.3.1/bits/stl_algo.h ****   */
 502:/opt/gcc-arm-none-eabi/arm-none-eabi/include/c++/10.3.1/bits/stl_algo.h ****   template<typename _InputIterator, typename _Predicate>
 503:/opt/gcc-arm-none-eabi/arm-none-eabi/include/c++/10.3.1/bits/stl_algo.h ****     _GLIBCXX20_CONSTEXPR
 504:/opt/gcc-arm-none-eabi/arm-none-eabi/include/c++/10.3.1/bits/stl_algo.h ****     inline _InputIterator
 505:/opt/gcc-arm-none-eabi/arm-none-eabi/include/c++/10.3.1/bits/stl_algo.h ****     find_if_not(_InputIterator __first, _InputIterator __last,
 506:/opt/gcc-arm-none-eabi/arm-none-eabi/include/c++/10.3.1/bits/stl_algo.h **** 		_Predicate __pred)
 507:/opt/gcc-arm-none-eabi/arm-none-eabi/include/c++/10.3.1/bits/stl_algo.h ****     {
 508:/opt/gcc-arm-none-eabi/arm-none-eabi/include/c++/10.3.1/bits/stl_algo.h ****       // concept requirements
 509:/opt/gcc-arm-none-eabi/arm-none-eabi/include/c++/10.3.1/bits/stl_algo.h ****       __glibcxx_function_requires(_InputIteratorConcept<_InputIterator>)
 510:/opt/gcc-arm-none-eabi/arm-none-eabi/include/c++/10.3.1/bits/stl_algo.h ****       __glibcxx_function_requires(_UnaryPredicateConcept<_Predicate,
 511:/opt/gcc-arm-none-eabi/arm-none-eabi/include/c++/10.3.1/bits/stl_algo.h **** 	      typename iterator_traits<_InputIterator>::value_type>)
 512:/opt/gcc-arm-none-eabi/arm-none-eabi/include/c++/10.3.1/bits/stl_algo.h ****       __glibcxx_requires_valid_range(__first, __last);
 513:/opt/gcc-arm-none-eabi/arm-none-eabi/include/c++/10.3.1/bits/stl_algo.h ****       return std::__find_if_not(__first, __last,
 514:/opt/gcc-arm-none-eabi/arm-none-eabi/include/c++/10.3.1/bits/stl_algo.h **** 				__gnu_cxx::__ops::__pred_iter(__pred));
 515:/opt/gcc-arm-none-eabi/arm-none-eabi/include/c++/10.3.1/bits/stl_algo.h ****     }
 516:/opt/gcc-arm-none-eabi/arm-none-eabi/include/c++/10.3.1/bits/stl_algo.h **** 
 517:/opt/gcc-arm-none-eabi/arm-none-eabi/include/c++/10.3.1/bits/stl_algo.h ****   /**
 518:/opt/gcc-arm-none-eabi/arm-none-eabi/include/c++/10.3.1/bits/stl_algo.h ****    *  @brief  Checks whether the sequence is partitioned.
 519:/opt/gcc-arm-none-eabi/arm-none-eabi/include/c++/10.3.1/bits/stl_algo.h ****    *  @ingroup mutating_algorithms
 520:/opt/gcc-arm-none-eabi/arm-none-eabi/include/c++/10.3.1/bits/stl_algo.h ****    *  @param  __first  An input iterator.
 521:/opt/gcc-arm-none-eabi/arm-none-eabi/include/c++/10.3.1/bits/stl_algo.h ****    *  @param  __last   An input iterator.
 522:/opt/gcc-arm-none-eabi/arm-none-eabi/include/c++/10.3.1/bits/stl_algo.h ****    *  @param  __pred   A predicate.
 523:/opt/gcc-arm-none-eabi/arm-none-eabi/include/c++/10.3.1/bits/stl_algo.h ****    *  @return  True if the range @p [__first,__last) is partioned by @p __pred,
 524:/opt/gcc-arm-none-eabi/arm-none-eabi/include/c++/10.3.1/bits/stl_algo.h ****    *  i.e. if all elements that satisfy @p __pred appear before those that
ARM GAS  /tmp/ccxBL0ey.s 			page 72


 525:/opt/gcc-arm-none-eabi/arm-none-eabi/include/c++/10.3.1/bits/stl_algo.h ****    *  do not.
 526:/opt/gcc-arm-none-eabi/arm-none-eabi/include/c++/10.3.1/bits/stl_algo.h ****   */
 527:/opt/gcc-arm-none-eabi/arm-none-eabi/include/c++/10.3.1/bits/stl_algo.h ****   template<typename _InputIterator, typename _Predicate>
 528:/opt/gcc-arm-none-eabi/arm-none-eabi/include/c++/10.3.1/bits/stl_algo.h ****     _GLIBCXX20_CONSTEXPR
 529:/opt/gcc-arm-none-eabi/arm-none-eabi/include/c++/10.3.1/bits/stl_algo.h ****     inline bool
 530:/opt/gcc-arm-none-eabi/arm-none-eabi/include/c++/10.3.1/bits/stl_algo.h ****     is_partitioned(_InputIterator __first, _InputIterator __last,
 531:/opt/gcc-arm-none-eabi/arm-none-eabi/include/c++/10.3.1/bits/stl_algo.h **** 		   _Predicate __pred)
 532:/opt/gcc-arm-none-eabi/arm-none-eabi/include/c++/10.3.1/bits/stl_algo.h ****     {
 533:/opt/gcc-arm-none-eabi/arm-none-eabi/include/c++/10.3.1/bits/stl_algo.h ****       __first = std::find_if_not(__first, __last, __pred);
 534:/opt/gcc-arm-none-eabi/arm-none-eabi/include/c++/10.3.1/bits/stl_algo.h ****       if (__first == __last)
 535:/opt/gcc-arm-none-eabi/arm-none-eabi/include/c++/10.3.1/bits/stl_algo.h **** 	return true;
 536:/opt/gcc-arm-none-eabi/arm-none-eabi/include/c++/10.3.1/bits/stl_algo.h ****       ++__first;
 537:/opt/gcc-arm-none-eabi/arm-none-eabi/include/c++/10.3.1/bits/stl_algo.h ****       return std::none_of(__first, __last, __pred);
 538:/opt/gcc-arm-none-eabi/arm-none-eabi/include/c++/10.3.1/bits/stl_algo.h ****     }
 539:/opt/gcc-arm-none-eabi/arm-none-eabi/include/c++/10.3.1/bits/stl_algo.h **** 
 540:/opt/gcc-arm-none-eabi/arm-none-eabi/include/c++/10.3.1/bits/stl_algo.h ****   /**
 541:/opt/gcc-arm-none-eabi/arm-none-eabi/include/c++/10.3.1/bits/stl_algo.h ****    *  @brief  Find the partition point of a partitioned range.
 542:/opt/gcc-arm-none-eabi/arm-none-eabi/include/c++/10.3.1/bits/stl_algo.h ****    *  @ingroup mutating_algorithms
 543:/opt/gcc-arm-none-eabi/arm-none-eabi/include/c++/10.3.1/bits/stl_algo.h ****    *  @param  __first   An iterator.
 544:/opt/gcc-arm-none-eabi/arm-none-eabi/include/c++/10.3.1/bits/stl_algo.h ****    *  @param  __last    Another iterator.
 545:/opt/gcc-arm-none-eabi/arm-none-eabi/include/c++/10.3.1/bits/stl_algo.h ****    *  @param  __pred    A predicate.
 546:/opt/gcc-arm-none-eabi/arm-none-eabi/include/c++/10.3.1/bits/stl_algo.h ****    *  @return  An iterator @p mid such that @p all_of(__first, mid, __pred)
 547:/opt/gcc-arm-none-eabi/arm-none-eabi/include/c++/10.3.1/bits/stl_algo.h ****    *           and @p none_of(mid, __last, __pred) are both true.
 548:/opt/gcc-arm-none-eabi/arm-none-eabi/include/c++/10.3.1/bits/stl_algo.h ****   */
 549:/opt/gcc-arm-none-eabi/arm-none-eabi/include/c++/10.3.1/bits/stl_algo.h ****   template<typename _ForwardIterator, typename _Predicate>
 550:/opt/gcc-arm-none-eabi/arm-none-eabi/include/c++/10.3.1/bits/stl_algo.h ****     _GLIBCXX20_CONSTEXPR
 551:/opt/gcc-arm-none-eabi/arm-none-eabi/include/c++/10.3.1/bits/stl_algo.h ****     _ForwardIterator
 552:/opt/gcc-arm-none-eabi/arm-none-eabi/include/c++/10.3.1/bits/stl_algo.h ****     partition_point(_ForwardIterator __first, _ForwardIterator __last,
 553:/opt/gcc-arm-none-eabi/arm-none-eabi/include/c++/10.3.1/bits/stl_algo.h **** 		    _Predicate __pred)
 554:/opt/gcc-arm-none-eabi/arm-none-eabi/include/c++/10.3.1/bits/stl_algo.h ****     {
 555:/opt/gcc-arm-none-eabi/arm-none-eabi/include/c++/10.3.1/bits/stl_algo.h ****       // concept requirements
 556:/opt/gcc-arm-none-eabi/arm-none-eabi/include/c++/10.3.1/bits/stl_algo.h ****       __glibcxx_function_requires(_ForwardIteratorConcept<_ForwardIterator>)
 557:/opt/gcc-arm-none-eabi/arm-none-eabi/include/c++/10.3.1/bits/stl_algo.h ****       __glibcxx_function_requires(_UnaryPredicateConcept<_Predicate,
 558:/opt/gcc-arm-none-eabi/arm-none-eabi/include/c++/10.3.1/bits/stl_algo.h **** 	      typename iterator_traits<_ForwardIterator>::value_type>)
 559:/opt/gcc-arm-none-eabi/arm-none-eabi/include/c++/10.3.1/bits/stl_algo.h **** 
 560:/opt/gcc-arm-none-eabi/arm-none-eabi/include/c++/10.3.1/bits/stl_algo.h ****       // A specific debug-mode test will be necessary...
 561:/opt/gcc-arm-none-eabi/arm-none-eabi/include/c++/10.3.1/bits/stl_algo.h ****       __glibcxx_requires_valid_range(__first, __last);
 562:/opt/gcc-arm-none-eabi/arm-none-eabi/include/c++/10.3.1/bits/stl_algo.h **** 
 563:/opt/gcc-arm-none-eabi/arm-none-eabi/include/c++/10.3.1/bits/stl_algo.h ****       typedef typename iterator_traits<_ForwardIterator>::difference_type
 564:/opt/gcc-arm-none-eabi/arm-none-eabi/include/c++/10.3.1/bits/stl_algo.h **** 	_DistanceType;
 565:/opt/gcc-arm-none-eabi/arm-none-eabi/include/c++/10.3.1/bits/stl_algo.h **** 
 566:/opt/gcc-arm-none-eabi/arm-none-eabi/include/c++/10.3.1/bits/stl_algo.h ****       _DistanceType __len = std::distance(__first, __last);
 567:/opt/gcc-arm-none-eabi/arm-none-eabi/include/c++/10.3.1/bits/stl_algo.h **** 
 568:/opt/gcc-arm-none-eabi/arm-none-eabi/include/c++/10.3.1/bits/stl_algo.h ****       while (__len > 0)
 569:/opt/gcc-arm-none-eabi/arm-none-eabi/include/c++/10.3.1/bits/stl_algo.h **** 	{
 570:/opt/gcc-arm-none-eabi/arm-none-eabi/include/c++/10.3.1/bits/stl_algo.h **** 	  _DistanceType __half = __len >> 1;
 571:/opt/gcc-arm-none-eabi/arm-none-eabi/include/c++/10.3.1/bits/stl_algo.h **** 	  _ForwardIterator __middle = __first;
 572:/opt/gcc-arm-none-eabi/arm-none-eabi/include/c++/10.3.1/bits/stl_algo.h **** 	  std::advance(__middle, __half);
 573:/opt/gcc-arm-none-eabi/arm-none-eabi/include/c++/10.3.1/bits/stl_algo.h **** 	  if (__pred(*__middle))
 574:/opt/gcc-arm-none-eabi/arm-none-eabi/include/c++/10.3.1/bits/stl_algo.h **** 	    {
 575:/opt/gcc-arm-none-eabi/arm-none-eabi/include/c++/10.3.1/bits/stl_algo.h **** 	      __first = __middle;
 576:/opt/gcc-arm-none-eabi/arm-none-eabi/include/c++/10.3.1/bits/stl_algo.h **** 	      ++__first;
 577:/opt/gcc-arm-none-eabi/arm-none-eabi/include/c++/10.3.1/bits/stl_algo.h **** 	      __len = __len - __half - 1;
 578:/opt/gcc-arm-none-eabi/arm-none-eabi/include/c++/10.3.1/bits/stl_algo.h **** 	    }
 579:/opt/gcc-arm-none-eabi/arm-none-eabi/include/c++/10.3.1/bits/stl_algo.h **** 	  else
 580:/opt/gcc-arm-none-eabi/arm-none-eabi/include/c++/10.3.1/bits/stl_algo.h **** 	    __len = __half;
 581:/opt/gcc-arm-none-eabi/arm-none-eabi/include/c++/10.3.1/bits/stl_algo.h **** 	}
ARM GAS  /tmp/ccxBL0ey.s 			page 73


 582:/opt/gcc-arm-none-eabi/arm-none-eabi/include/c++/10.3.1/bits/stl_algo.h ****       return __first;
 583:/opt/gcc-arm-none-eabi/arm-none-eabi/include/c++/10.3.1/bits/stl_algo.h ****     }
 584:/opt/gcc-arm-none-eabi/arm-none-eabi/include/c++/10.3.1/bits/stl_algo.h **** #endif
 585:/opt/gcc-arm-none-eabi/arm-none-eabi/include/c++/10.3.1/bits/stl_algo.h **** 
 586:/opt/gcc-arm-none-eabi/arm-none-eabi/include/c++/10.3.1/bits/stl_algo.h ****   template<typename _InputIterator, typename _OutputIterator,
 587:/opt/gcc-arm-none-eabi/arm-none-eabi/include/c++/10.3.1/bits/stl_algo.h **** 	   typename _Predicate>
 588:/opt/gcc-arm-none-eabi/arm-none-eabi/include/c++/10.3.1/bits/stl_algo.h ****     _GLIBCXX20_CONSTEXPR
 589:/opt/gcc-arm-none-eabi/arm-none-eabi/include/c++/10.3.1/bits/stl_algo.h ****     _OutputIterator
 590:/opt/gcc-arm-none-eabi/arm-none-eabi/include/c++/10.3.1/bits/stl_algo.h ****     __remove_copy_if(_InputIterator __first, _InputIterator __last,
 591:/opt/gcc-arm-none-eabi/arm-none-eabi/include/c++/10.3.1/bits/stl_algo.h **** 		     _OutputIterator __result, _Predicate __pred)
 592:/opt/gcc-arm-none-eabi/arm-none-eabi/include/c++/10.3.1/bits/stl_algo.h ****     {
 593:/opt/gcc-arm-none-eabi/arm-none-eabi/include/c++/10.3.1/bits/stl_algo.h ****       for (; __first != __last; ++__first)
 594:/opt/gcc-arm-none-eabi/arm-none-eabi/include/c++/10.3.1/bits/stl_algo.h **** 	if (!__pred(__first))
 595:/opt/gcc-arm-none-eabi/arm-none-eabi/include/c++/10.3.1/bits/stl_algo.h **** 	  {
 596:/opt/gcc-arm-none-eabi/arm-none-eabi/include/c++/10.3.1/bits/stl_algo.h **** 	    *__result = *__first;
 597:/opt/gcc-arm-none-eabi/arm-none-eabi/include/c++/10.3.1/bits/stl_algo.h **** 	    ++__result;
 598:/opt/gcc-arm-none-eabi/arm-none-eabi/include/c++/10.3.1/bits/stl_algo.h **** 	  }
 599:/opt/gcc-arm-none-eabi/arm-none-eabi/include/c++/10.3.1/bits/stl_algo.h ****       return __result;
 600:/opt/gcc-arm-none-eabi/arm-none-eabi/include/c++/10.3.1/bits/stl_algo.h ****     }
 601:/opt/gcc-arm-none-eabi/arm-none-eabi/include/c++/10.3.1/bits/stl_algo.h **** 
 602:/opt/gcc-arm-none-eabi/arm-none-eabi/include/c++/10.3.1/bits/stl_algo.h ****   /**
 603:/opt/gcc-arm-none-eabi/arm-none-eabi/include/c++/10.3.1/bits/stl_algo.h ****    *  @brief Copy a sequence, removing elements of a given value.
 604:/opt/gcc-arm-none-eabi/arm-none-eabi/include/c++/10.3.1/bits/stl_algo.h ****    *  @ingroup mutating_algorithms
 605:/opt/gcc-arm-none-eabi/arm-none-eabi/include/c++/10.3.1/bits/stl_algo.h ****    *  @param  __first   An input iterator.
 606:/opt/gcc-arm-none-eabi/arm-none-eabi/include/c++/10.3.1/bits/stl_algo.h ****    *  @param  __last    An input iterator.
 607:/opt/gcc-arm-none-eabi/arm-none-eabi/include/c++/10.3.1/bits/stl_algo.h ****    *  @param  __result  An output iterator.
 608:/opt/gcc-arm-none-eabi/arm-none-eabi/include/c++/10.3.1/bits/stl_algo.h ****    *  @param  __value   The value to be removed.
 609:/opt/gcc-arm-none-eabi/arm-none-eabi/include/c++/10.3.1/bits/stl_algo.h ****    *  @return   An iterator designating the end of the resulting sequence.
 610:/opt/gcc-arm-none-eabi/arm-none-eabi/include/c++/10.3.1/bits/stl_algo.h ****    *
 611:/opt/gcc-arm-none-eabi/arm-none-eabi/include/c++/10.3.1/bits/stl_algo.h ****    *  Copies each element in the range @p [__first,__last) not equal
 612:/opt/gcc-arm-none-eabi/arm-none-eabi/include/c++/10.3.1/bits/stl_algo.h ****    *  to @p __value to the range beginning at @p __result.
 613:/opt/gcc-arm-none-eabi/arm-none-eabi/include/c++/10.3.1/bits/stl_algo.h ****    *  remove_copy() is stable, so the relative order of elements that
 614:/opt/gcc-arm-none-eabi/arm-none-eabi/include/c++/10.3.1/bits/stl_algo.h ****    *  are copied is unchanged.
 615:/opt/gcc-arm-none-eabi/arm-none-eabi/include/c++/10.3.1/bits/stl_algo.h ****   */
 616:/opt/gcc-arm-none-eabi/arm-none-eabi/include/c++/10.3.1/bits/stl_algo.h ****   template<typename _InputIterator, typename _OutputIterator, typename _Tp>
 617:/opt/gcc-arm-none-eabi/arm-none-eabi/include/c++/10.3.1/bits/stl_algo.h ****     _GLIBCXX20_CONSTEXPR
 618:/opt/gcc-arm-none-eabi/arm-none-eabi/include/c++/10.3.1/bits/stl_algo.h ****     inline _OutputIterator
 619:/opt/gcc-arm-none-eabi/arm-none-eabi/include/c++/10.3.1/bits/stl_algo.h ****     remove_copy(_InputIterator __first, _InputIterator __last,
 620:/opt/gcc-arm-none-eabi/arm-none-eabi/include/c++/10.3.1/bits/stl_algo.h **** 		_OutputIterator __result, const _Tp& __value)
 621:/opt/gcc-arm-none-eabi/arm-none-eabi/include/c++/10.3.1/bits/stl_algo.h ****     {
 622:/opt/gcc-arm-none-eabi/arm-none-eabi/include/c++/10.3.1/bits/stl_algo.h ****       // concept requirements
 623:/opt/gcc-arm-none-eabi/arm-none-eabi/include/c++/10.3.1/bits/stl_algo.h ****       __glibcxx_function_requires(_InputIteratorConcept<_InputIterator>)
 624:/opt/gcc-arm-none-eabi/arm-none-eabi/include/c++/10.3.1/bits/stl_algo.h ****       __glibcxx_function_requires(_OutputIteratorConcept<_OutputIterator,
 625:/opt/gcc-arm-none-eabi/arm-none-eabi/include/c++/10.3.1/bits/stl_algo.h **** 	    typename iterator_traits<_InputIterator>::value_type>)
 626:/opt/gcc-arm-none-eabi/arm-none-eabi/include/c++/10.3.1/bits/stl_algo.h ****       __glibcxx_function_requires(_EqualOpConcept<
 627:/opt/gcc-arm-none-eabi/arm-none-eabi/include/c++/10.3.1/bits/stl_algo.h **** 	    typename iterator_traits<_InputIterator>::value_type, _Tp>)
 628:/opt/gcc-arm-none-eabi/arm-none-eabi/include/c++/10.3.1/bits/stl_algo.h ****       __glibcxx_requires_valid_range(__first, __last);
 629:/opt/gcc-arm-none-eabi/arm-none-eabi/include/c++/10.3.1/bits/stl_algo.h **** 
 630:/opt/gcc-arm-none-eabi/arm-none-eabi/include/c++/10.3.1/bits/stl_algo.h ****       return std::__remove_copy_if(__first, __last, __result,
 631:/opt/gcc-arm-none-eabi/arm-none-eabi/include/c++/10.3.1/bits/stl_algo.h **** 	__gnu_cxx::__ops::__iter_equals_val(__value));
 632:/opt/gcc-arm-none-eabi/arm-none-eabi/include/c++/10.3.1/bits/stl_algo.h ****     }
 633:/opt/gcc-arm-none-eabi/arm-none-eabi/include/c++/10.3.1/bits/stl_algo.h **** 
 634:/opt/gcc-arm-none-eabi/arm-none-eabi/include/c++/10.3.1/bits/stl_algo.h ****   /**
 635:/opt/gcc-arm-none-eabi/arm-none-eabi/include/c++/10.3.1/bits/stl_algo.h ****    *  @brief Copy a sequence, removing elements for which a predicate is true.
 636:/opt/gcc-arm-none-eabi/arm-none-eabi/include/c++/10.3.1/bits/stl_algo.h ****    *  @ingroup mutating_algorithms
 637:/opt/gcc-arm-none-eabi/arm-none-eabi/include/c++/10.3.1/bits/stl_algo.h ****    *  @param  __first   An input iterator.
 638:/opt/gcc-arm-none-eabi/arm-none-eabi/include/c++/10.3.1/bits/stl_algo.h ****    *  @param  __last    An input iterator.
ARM GAS  /tmp/ccxBL0ey.s 			page 74


 639:/opt/gcc-arm-none-eabi/arm-none-eabi/include/c++/10.3.1/bits/stl_algo.h ****    *  @param  __result  An output iterator.
 640:/opt/gcc-arm-none-eabi/arm-none-eabi/include/c++/10.3.1/bits/stl_algo.h ****    *  @param  __pred    A predicate.
 641:/opt/gcc-arm-none-eabi/arm-none-eabi/include/c++/10.3.1/bits/stl_algo.h ****    *  @return   An iterator designating the end of the resulting sequence.
 642:/opt/gcc-arm-none-eabi/arm-none-eabi/include/c++/10.3.1/bits/stl_algo.h ****    *
 643:/opt/gcc-arm-none-eabi/arm-none-eabi/include/c++/10.3.1/bits/stl_algo.h ****    *  Copies each element in the range @p [__first,__last) for which
 644:/opt/gcc-arm-none-eabi/arm-none-eabi/include/c++/10.3.1/bits/stl_algo.h ****    *  @p __pred returns false to the range beginning at @p __result.
 645:/opt/gcc-arm-none-eabi/arm-none-eabi/include/c++/10.3.1/bits/stl_algo.h ****    *
 646:/opt/gcc-arm-none-eabi/arm-none-eabi/include/c++/10.3.1/bits/stl_algo.h ****    *  remove_copy_if() is stable, so the relative order of elements that are
 647:/opt/gcc-arm-none-eabi/arm-none-eabi/include/c++/10.3.1/bits/stl_algo.h ****    *  copied is unchanged.
 648:/opt/gcc-arm-none-eabi/arm-none-eabi/include/c++/10.3.1/bits/stl_algo.h ****   */
 649:/opt/gcc-arm-none-eabi/arm-none-eabi/include/c++/10.3.1/bits/stl_algo.h ****   template<typename _InputIterator, typename _OutputIterator,
 650:/opt/gcc-arm-none-eabi/arm-none-eabi/include/c++/10.3.1/bits/stl_algo.h **** 	   typename _Predicate>
 651:/opt/gcc-arm-none-eabi/arm-none-eabi/include/c++/10.3.1/bits/stl_algo.h ****     _GLIBCXX20_CONSTEXPR
 652:/opt/gcc-arm-none-eabi/arm-none-eabi/include/c++/10.3.1/bits/stl_algo.h ****     inline _OutputIterator
 653:/opt/gcc-arm-none-eabi/arm-none-eabi/include/c++/10.3.1/bits/stl_algo.h ****     remove_copy_if(_InputIterator __first, _InputIterator __last,
 654:/opt/gcc-arm-none-eabi/arm-none-eabi/include/c++/10.3.1/bits/stl_algo.h **** 		   _OutputIterator __result, _Predicate __pred)
 655:/opt/gcc-arm-none-eabi/arm-none-eabi/include/c++/10.3.1/bits/stl_algo.h ****     {
 656:/opt/gcc-arm-none-eabi/arm-none-eabi/include/c++/10.3.1/bits/stl_algo.h ****       // concept requirements
 657:/opt/gcc-arm-none-eabi/arm-none-eabi/include/c++/10.3.1/bits/stl_algo.h ****       __glibcxx_function_requires(_InputIteratorConcept<_InputIterator>)
 658:/opt/gcc-arm-none-eabi/arm-none-eabi/include/c++/10.3.1/bits/stl_algo.h ****       __glibcxx_function_requires(_OutputIteratorConcept<_OutputIterator,
 659:/opt/gcc-arm-none-eabi/arm-none-eabi/include/c++/10.3.1/bits/stl_algo.h **** 	    typename iterator_traits<_InputIterator>::value_type>)
 660:/opt/gcc-arm-none-eabi/arm-none-eabi/include/c++/10.3.1/bits/stl_algo.h ****       __glibcxx_function_requires(_UnaryPredicateConcept<_Predicate,
 661:/opt/gcc-arm-none-eabi/arm-none-eabi/include/c++/10.3.1/bits/stl_algo.h **** 	    typename iterator_traits<_InputIterator>::value_type>)
 662:/opt/gcc-arm-none-eabi/arm-none-eabi/include/c++/10.3.1/bits/stl_algo.h ****       __glibcxx_requires_valid_range(__first, __last);
 663:/opt/gcc-arm-none-eabi/arm-none-eabi/include/c++/10.3.1/bits/stl_algo.h **** 
 664:/opt/gcc-arm-none-eabi/arm-none-eabi/include/c++/10.3.1/bits/stl_algo.h ****       return std::__remove_copy_if(__first, __last, __result,
 665:/opt/gcc-arm-none-eabi/arm-none-eabi/include/c++/10.3.1/bits/stl_algo.h **** 				   __gnu_cxx::__ops::__pred_iter(__pred));
 666:/opt/gcc-arm-none-eabi/arm-none-eabi/include/c++/10.3.1/bits/stl_algo.h ****     }
 667:/opt/gcc-arm-none-eabi/arm-none-eabi/include/c++/10.3.1/bits/stl_algo.h **** 
 668:/opt/gcc-arm-none-eabi/arm-none-eabi/include/c++/10.3.1/bits/stl_algo.h **** #if __cplusplus >= 201103L
 669:/opt/gcc-arm-none-eabi/arm-none-eabi/include/c++/10.3.1/bits/stl_algo.h ****   /**
 670:/opt/gcc-arm-none-eabi/arm-none-eabi/include/c++/10.3.1/bits/stl_algo.h ****    *  @brief Copy the elements of a sequence for which a predicate is true.
 671:/opt/gcc-arm-none-eabi/arm-none-eabi/include/c++/10.3.1/bits/stl_algo.h ****    *  @ingroup mutating_algorithms
 672:/opt/gcc-arm-none-eabi/arm-none-eabi/include/c++/10.3.1/bits/stl_algo.h ****    *  @param  __first   An input iterator.
 673:/opt/gcc-arm-none-eabi/arm-none-eabi/include/c++/10.3.1/bits/stl_algo.h ****    *  @param  __last    An input iterator.
 674:/opt/gcc-arm-none-eabi/arm-none-eabi/include/c++/10.3.1/bits/stl_algo.h ****    *  @param  __result  An output iterator.
 675:/opt/gcc-arm-none-eabi/arm-none-eabi/include/c++/10.3.1/bits/stl_algo.h ****    *  @param  __pred    A predicate.
 676:/opt/gcc-arm-none-eabi/arm-none-eabi/include/c++/10.3.1/bits/stl_algo.h ****    *  @return   An iterator designating the end of the resulting sequence.
 677:/opt/gcc-arm-none-eabi/arm-none-eabi/include/c++/10.3.1/bits/stl_algo.h ****    *
 678:/opt/gcc-arm-none-eabi/arm-none-eabi/include/c++/10.3.1/bits/stl_algo.h ****    *  Copies each element in the range @p [__first,__last) for which
 679:/opt/gcc-arm-none-eabi/arm-none-eabi/include/c++/10.3.1/bits/stl_algo.h ****    *  @p __pred returns true to the range beginning at @p __result.
 680:/opt/gcc-arm-none-eabi/arm-none-eabi/include/c++/10.3.1/bits/stl_algo.h ****    *
 681:/opt/gcc-arm-none-eabi/arm-none-eabi/include/c++/10.3.1/bits/stl_algo.h ****    *  copy_if() is stable, so the relative order of elements that are
 682:/opt/gcc-arm-none-eabi/arm-none-eabi/include/c++/10.3.1/bits/stl_algo.h ****    *  copied is unchanged.
 683:/opt/gcc-arm-none-eabi/arm-none-eabi/include/c++/10.3.1/bits/stl_algo.h ****   */
 684:/opt/gcc-arm-none-eabi/arm-none-eabi/include/c++/10.3.1/bits/stl_algo.h ****   template<typename _InputIterator, typename _OutputIterator,
 685:/opt/gcc-arm-none-eabi/arm-none-eabi/include/c++/10.3.1/bits/stl_algo.h **** 	   typename _Predicate>
 686:/opt/gcc-arm-none-eabi/arm-none-eabi/include/c++/10.3.1/bits/stl_algo.h ****     _GLIBCXX20_CONSTEXPR
 687:/opt/gcc-arm-none-eabi/arm-none-eabi/include/c++/10.3.1/bits/stl_algo.h ****     _OutputIterator
 688:/opt/gcc-arm-none-eabi/arm-none-eabi/include/c++/10.3.1/bits/stl_algo.h ****     copy_if(_InputIterator __first, _InputIterator __last,
 689:/opt/gcc-arm-none-eabi/arm-none-eabi/include/c++/10.3.1/bits/stl_algo.h **** 	    _OutputIterator __result, _Predicate __pred)
 690:/opt/gcc-arm-none-eabi/arm-none-eabi/include/c++/10.3.1/bits/stl_algo.h ****     {
 691:/opt/gcc-arm-none-eabi/arm-none-eabi/include/c++/10.3.1/bits/stl_algo.h ****       // concept requirements
 692:/opt/gcc-arm-none-eabi/arm-none-eabi/include/c++/10.3.1/bits/stl_algo.h ****       __glibcxx_function_requires(_InputIteratorConcept<_InputIterator>)
 693:/opt/gcc-arm-none-eabi/arm-none-eabi/include/c++/10.3.1/bits/stl_algo.h ****       __glibcxx_function_requires(_OutputIteratorConcept<_OutputIterator,
 694:/opt/gcc-arm-none-eabi/arm-none-eabi/include/c++/10.3.1/bits/stl_algo.h **** 	    typename iterator_traits<_InputIterator>::value_type>)
 695:/opt/gcc-arm-none-eabi/arm-none-eabi/include/c++/10.3.1/bits/stl_algo.h ****       __glibcxx_function_requires(_UnaryPredicateConcept<_Predicate,
ARM GAS  /tmp/ccxBL0ey.s 			page 75


 696:/opt/gcc-arm-none-eabi/arm-none-eabi/include/c++/10.3.1/bits/stl_algo.h **** 	    typename iterator_traits<_InputIterator>::value_type>)
 697:/opt/gcc-arm-none-eabi/arm-none-eabi/include/c++/10.3.1/bits/stl_algo.h ****       __glibcxx_requires_valid_range(__first, __last);
 698:/opt/gcc-arm-none-eabi/arm-none-eabi/include/c++/10.3.1/bits/stl_algo.h **** 
 699:/opt/gcc-arm-none-eabi/arm-none-eabi/include/c++/10.3.1/bits/stl_algo.h ****       for (; __first != __last; ++__first)
 700:/opt/gcc-arm-none-eabi/arm-none-eabi/include/c++/10.3.1/bits/stl_algo.h **** 	if (__pred(*__first))
 701:/opt/gcc-arm-none-eabi/arm-none-eabi/include/c++/10.3.1/bits/stl_algo.h **** 	  {
 702:/opt/gcc-arm-none-eabi/arm-none-eabi/include/c++/10.3.1/bits/stl_algo.h **** 	    *__result = *__first;
 703:/opt/gcc-arm-none-eabi/arm-none-eabi/include/c++/10.3.1/bits/stl_algo.h **** 	    ++__result;
 704:/opt/gcc-arm-none-eabi/arm-none-eabi/include/c++/10.3.1/bits/stl_algo.h **** 	  }
 705:/opt/gcc-arm-none-eabi/arm-none-eabi/include/c++/10.3.1/bits/stl_algo.h ****       return __result;
 706:/opt/gcc-arm-none-eabi/arm-none-eabi/include/c++/10.3.1/bits/stl_algo.h ****     }
 707:/opt/gcc-arm-none-eabi/arm-none-eabi/include/c++/10.3.1/bits/stl_algo.h **** 
 708:/opt/gcc-arm-none-eabi/arm-none-eabi/include/c++/10.3.1/bits/stl_algo.h ****   template<typename _InputIterator, typename _Size, typename _OutputIterator>
 709:/opt/gcc-arm-none-eabi/arm-none-eabi/include/c++/10.3.1/bits/stl_algo.h ****     _GLIBCXX20_CONSTEXPR
 710:/opt/gcc-arm-none-eabi/arm-none-eabi/include/c++/10.3.1/bits/stl_algo.h ****     _OutputIterator
 711:/opt/gcc-arm-none-eabi/arm-none-eabi/include/c++/10.3.1/bits/stl_algo.h ****     __copy_n_a(_InputIterator __first, _Size __n, _OutputIterator __result)
 712:/opt/gcc-arm-none-eabi/arm-none-eabi/include/c++/10.3.1/bits/stl_algo.h ****     {
 713:/opt/gcc-arm-none-eabi/arm-none-eabi/include/c++/10.3.1/bits/stl_algo.h ****       if (__n > 0)
 714:/opt/gcc-arm-none-eabi/arm-none-eabi/include/c++/10.3.1/bits/stl_algo.h **** 	{
 715:/opt/gcc-arm-none-eabi/arm-none-eabi/include/c++/10.3.1/bits/stl_algo.h **** 	  while (true)
 716:/opt/gcc-arm-none-eabi/arm-none-eabi/include/c++/10.3.1/bits/stl_algo.h **** 	    {
 717:/opt/gcc-arm-none-eabi/arm-none-eabi/include/c++/10.3.1/bits/stl_algo.h **** 	      *__result = *__first;
 718:/opt/gcc-arm-none-eabi/arm-none-eabi/include/c++/10.3.1/bits/stl_algo.h **** 	      ++__result;
 719:/opt/gcc-arm-none-eabi/arm-none-eabi/include/c++/10.3.1/bits/stl_algo.h **** 	      if (--__n > 0)
 720:/opt/gcc-arm-none-eabi/arm-none-eabi/include/c++/10.3.1/bits/stl_algo.h **** 		++__first;
 721:/opt/gcc-arm-none-eabi/arm-none-eabi/include/c++/10.3.1/bits/stl_algo.h **** 	      else
 722:/opt/gcc-arm-none-eabi/arm-none-eabi/include/c++/10.3.1/bits/stl_algo.h **** 		break;
 723:/opt/gcc-arm-none-eabi/arm-none-eabi/include/c++/10.3.1/bits/stl_algo.h **** 	    }
 724:/opt/gcc-arm-none-eabi/arm-none-eabi/include/c++/10.3.1/bits/stl_algo.h **** 	}
 725:/opt/gcc-arm-none-eabi/arm-none-eabi/include/c++/10.3.1/bits/stl_algo.h ****       return __result;
 726:/opt/gcc-arm-none-eabi/arm-none-eabi/include/c++/10.3.1/bits/stl_algo.h ****     }
 727:/opt/gcc-arm-none-eabi/arm-none-eabi/include/c++/10.3.1/bits/stl_algo.h ****  
 728:/opt/gcc-arm-none-eabi/arm-none-eabi/include/c++/10.3.1/bits/stl_algo.h ****   template<typename _CharT, typename _Size>
 729:/opt/gcc-arm-none-eabi/arm-none-eabi/include/c++/10.3.1/bits/stl_algo.h ****     __enable_if_t<__is_char<_CharT>::__value, _CharT*>
 730:/opt/gcc-arm-none-eabi/arm-none-eabi/include/c++/10.3.1/bits/stl_algo.h ****     __copy_n_a(istreambuf_iterator<_CharT, char_traits<_CharT>>,
 731:/opt/gcc-arm-none-eabi/arm-none-eabi/include/c++/10.3.1/bits/stl_algo.h **** 	       _Size, _CharT*);
 732:/opt/gcc-arm-none-eabi/arm-none-eabi/include/c++/10.3.1/bits/stl_algo.h **** 
 733:/opt/gcc-arm-none-eabi/arm-none-eabi/include/c++/10.3.1/bits/stl_algo.h ****   template<typename _InputIterator, typename _Size, typename _OutputIterator>
 734:/opt/gcc-arm-none-eabi/arm-none-eabi/include/c++/10.3.1/bits/stl_algo.h ****     _GLIBCXX20_CONSTEXPR
 735:/opt/gcc-arm-none-eabi/arm-none-eabi/include/c++/10.3.1/bits/stl_algo.h ****     _OutputIterator
 736:/opt/gcc-arm-none-eabi/arm-none-eabi/include/c++/10.3.1/bits/stl_algo.h ****     __copy_n(_InputIterator __first, _Size __n,
 737:/opt/gcc-arm-none-eabi/arm-none-eabi/include/c++/10.3.1/bits/stl_algo.h **** 	     _OutputIterator __result, input_iterator_tag)
 738:/opt/gcc-arm-none-eabi/arm-none-eabi/include/c++/10.3.1/bits/stl_algo.h ****     {
 739:/opt/gcc-arm-none-eabi/arm-none-eabi/include/c++/10.3.1/bits/stl_algo.h ****       return std::__niter_wrap(__result,
 740:/opt/gcc-arm-none-eabi/arm-none-eabi/include/c++/10.3.1/bits/stl_algo.h **** 			       __copy_n_a(__first, __n,
 741:/opt/gcc-arm-none-eabi/arm-none-eabi/include/c++/10.3.1/bits/stl_algo.h **** 					  std::__niter_base(__result)));
 742:/opt/gcc-arm-none-eabi/arm-none-eabi/include/c++/10.3.1/bits/stl_algo.h ****     }
 743:/opt/gcc-arm-none-eabi/arm-none-eabi/include/c++/10.3.1/bits/stl_algo.h **** 
 744:/opt/gcc-arm-none-eabi/arm-none-eabi/include/c++/10.3.1/bits/stl_algo.h ****   template<typename _RandomAccessIterator, typename _Size,
 745:/opt/gcc-arm-none-eabi/arm-none-eabi/include/c++/10.3.1/bits/stl_algo.h **** 	   typename _OutputIterator>
 746:/opt/gcc-arm-none-eabi/arm-none-eabi/include/c++/10.3.1/bits/stl_algo.h ****     _GLIBCXX20_CONSTEXPR
 747:/opt/gcc-arm-none-eabi/arm-none-eabi/include/c++/10.3.1/bits/stl_algo.h ****     inline _OutputIterator
 748:/opt/gcc-arm-none-eabi/arm-none-eabi/include/c++/10.3.1/bits/stl_algo.h ****     __copy_n(_RandomAccessIterator __first, _Size __n,
 749:/opt/gcc-arm-none-eabi/arm-none-eabi/include/c++/10.3.1/bits/stl_algo.h **** 	     _OutputIterator __result, random_access_iterator_tag)
 750:/opt/gcc-arm-none-eabi/arm-none-eabi/include/c++/10.3.1/bits/stl_algo.h ****     { return std::copy(__first, __first + __n, __result); }
 751:/opt/gcc-arm-none-eabi/arm-none-eabi/include/c++/10.3.1/bits/stl_algo.h **** 
 752:/opt/gcc-arm-none-eabi/arm-none-eabi/include/c++/10.3.1/bits/stl_algo.h ****   /**
ARM GAS  /tmp/ccxBL0ey.s 			page 76


 753:/opt/gcc-arm-none-eabi/arm-none-eabi/include/c++/10.3.1/bits/stl_algo.h ****    *  @brief Copies the range [first,first+n) into [result,result+n).
 754:/opt/gcc-arm-none-eabi/arm-none-eabi/include/c++/10.3.1/bits/stl_algo.h ****    *  @ingroup mutating_algorithms
 755:/opt/gcc-arm-none-eabi/arm-none-eabi/include/c++/10.3.1/bits/stl_algo.h ****    *  @param  __first  An input iterator.
 756:/opt/gcc-arm-none-eabi/arm-none-eabi/include/c++/10.3.1/bits/stl_algo.h ****    *  @param  __n      The number of elements to copy.
 757:/opt/gcc-arm-none-eabi/arm-none-eabi/include/c++/10.3.1/bits/stl_algo.h ****    *  @param  __result An output iterator.
 758:/opt/gcc-arm-none-eabi/arm-none-eabi/include/c++/10.3.1/bits/stl_algo.h ****    *  @return  result+n.
 759:/opt/gcc-arm-none-eabi/arm-none-eabi/include/c++/10.3.1/bits/stl_algo.h ****    *
 760:/opt/gcc-arm-none-eabi/arm-none-eabi/include/c++/10.3.1/bits/stl_algo.h ****    *  This inline function will boil down to a call to @c memmove whenever
 761:/opt/gcc-arm-none-eabi/arm-none-eabi/include/c++/10.3.1/bits/stl_algo.h ****    *  possible.  Failing that, if random access iterators are passed, then the
 762:/opt/gcc-arm-none-eabi/arm-none-eabi/include/c++/10.3.1/bits/stl_algo.h ****    *  loop count will be known (and therefore a candidate for compiler
 763:/opt/gcc-arm-none-eabi/arm-none-eabi/include/c++/10.3.1/bits/stl_algo.h ****    *  optimizations such as unrolling).
 764:/opt/gcc-arm-none-eabi/arm-none-eabi/include/c++/10.3.1/bits/stl_algo.h ****   */
 765:/opt/gcc-arm-none-eabi/arm-none-eabi/include/c++/10.3.1/bits/stl_algo.h ****   template<typename _InputIterator, typename _Size, typename _OutputIterator>
 766:/opt/gcc-arm-none-eabi/arm-none-eabi/include/c++/10.3.1/bits/stl_algo.h ****     _GLIBCXX20_CONSTEXPR
 767:/opt/gcc-arm-none-eabi/arm-none-eabi/include/c++/10.3.1/bits/stl_algo.h ****     inline _OutputIterator
 768:/opt/gcc-arm-none-eabi/arm-none-eabi/include/c++/10.3.1/bits/stl_algo.h ****     copy_n(_InputIterator __first, _Size __n, _OutputIterator __result)
 769:/opt/gcc-arm-none-eabi/arm-none-eabi/include/c++/10.3.1/bits/stl_algo.h ****     {
 770:/opt/gcc-arm-none-eabi/arm-none-eabi/include/c++/10.3.1/bits/stl_algo.h ****       // concept requirements
 771:/opt/gcc-arm-none-eabi/arm-none-eabi/include/c++/10.3.1/bits/stl_algo.h ****       __glibcxx_function_requires(_InputIteratorConcept<_InputIterator>)
 772:/opt/gcc-arm-none-eabi/arm-none-eabi/include/c++/10.3.1/bits/stl_algo.h ****       __glibcxx_function_requires(_OutputIteratorConcept<_OutputIterator,
 773:/opt/gcc-arm-none-eabi/arm-none-eabi/include/c++/10.3.1/bits/stl_algo.h **** 	    typename iterator_traits<_InputIterator>::value_type>)
 774:/opt/gcc-arm-none-eabi/arm-none-eabi/include/c++/10.3.1/bits/stl_algo.h **** 
 775:/opt/gcc-arm-none-eabi/arm-none-eabi/include/c++/10.3.1/bits/stl_algo.h ****       const auto __n2 = std::__size_to_integer(__n);
 776:/opt/gcc-arm-none-eabi/arm-none-eabi/include/c++/10.3.1/bits/stl_algo.h ****       if (__n2 <= 0)
 777:/opt/gcc-arm-none-eabi/arm-none-eabi/include/c++/10.3.1/bits/stl_algo.h **** 	return __result;
 778:/opt/gcc-arm-none-eabi/arm-none-eabi/include/c++/10.3.1/bits/stl_algo.h **** 
 779:/opt/gcc-arm-none-eabi/arm-none-eabi/include/c++/10.3.1/bits/stl_algo.h ****       __glibcxx_requires_can_increment(__first, __n2);
 780:/opt/gcc-arm-none-eabi/arm-none-eabi/include/c++/10.3.1/bits/stl_algo.h ****       __glibcxx_requires_can_increment(__result, __n2);
 781:/opt/gcc-arm-none-eabi/arm-none-eabi/include/c++/10.3.1/bits/stl_algo.h **** 
 782:/opt/gcc-arm-none-eabi/arm-none-eabi/include/c++/10.3.1/bits/stl_algo.h ****       return std::__copy_n(__first, __n2, __result,
 783:/opt/gcc-arm-none-eabi/arm-none-eabi/include/c++/10.3.1/bits/stl_algo.h **** 			   std::__iterator_category(__first));
 784:/opt/gcc-arm-none-eabi/arm-none-eabi/include/c++/10.3.1/bits/stl_algo.h ****     }
 785:/opt/gcc-arm-none-eabi/arm-none-eabi/include/c++/10.3.1/bits/stl_algo.h **** 
 786:/opt/gcc-arm-none-eabi/arm-none-eabi/include/c++/10.3.1/bits/stl_algo.h ****   /**
 787:/opt/gcc-arm-none-eabi/arm-none-eabi/include/c++/10.3.1/bits/stl_algo.h ****    *  @brief Copy the elements of a sequence to separate output sequences
 788:/opt/gcc-arm-none-eabi/arm-none-eabi/include/c++/10.3.1/bits/stl_algo.h ****    *         depending on the truth value of a predicate.
 789:/opt/gcc-arm-none-eabi/arm-none-eabi/include/c++/10.3.1/bits/stl_algo.h ****    *  @ingroup mutating_algorithms
 790:/opt/gcc-arm-none-eabi/arm-none-eabi/include/c++/10.3.1/bits/stl_algo.h ****    *  @param  __first   An input iterator.
 791:/opt/gcc-arm-none-eabi/arm-none-eabi/include/c++/10.3.1/bits/stl_algo.h ****    *  @param  __last    An input iterator.
 792:/opt/gcc-arm-none-eabi/arm-none-eabi/include/c++/10.3.1/bits/stl_algo.h ****    *  @param  __out_true   An output iterator.
 793:/opt/gcc-arm-none-eabi/arm-none-eabi/include/c++/10.3.1/bits/stl_algo.h ****    *  @param  __out_false  An output iterator.
 794:/opt/gcc-arm-none-eabi/arm-none-eabi/include/c++/10.3.1/bits/stl_algo.h ****    *  @param  __pred    A predicate.
 795:/opt/gcc-arm-none-eabi/arm-none-eabi/include/c++/10.3.1/bits/stl_algo.h ****    *  @return   A pair designating the ends of the resulting sequences.
 796:/opt/gcc-arm-none-eabi/arm-none-eabi/include/c++/10.3.1/bits/stl_algo.h ****    *
 797:/opt/gcc-arm-none-eabi/arm-none-eabi/include/c++/10.3.1/bits/stl_algo.h ****    *  Copies each element in the range @p [__first,__last) for which
 798:/opt/gcc-arm-none-eabi/arm-none-eabi/include/c++/10.3.1/bits/stl_algo.h ****    *  @p __pred returns true to the range beginning at @p out_true
 799:/opt/gcc-arm-none-eabi/arm-none-eabi/include/c++/10.3.1/bits/stl_algo.h ****    *  and each element for which @p __pred returns false to @p __out_false.
 800:/opt/gcc-arm-none-eabi/arm-none-eabi/include/c++/10.3.1/bits/stl_algo.h ****   */
 801:/opt/gcc-arm-none-eabi/arm-none-eabi/include/c++/10.3.1/bits/stl_algo.h ****   template<typename _InputIterator, typename _OutputIterator1,
 802:/opt/gcc-arm-none-eabi/arm-none-eabi/include/c++/10.3.1/bits/stl_algo.h **** 	   typename _OutputIterator2, typename _Predicate>
 803:/opt/gcc-arm-none-eabi/arm-none-eabi/include/c++/10.3.1/bits/stl_algo.h ****     _GLIBCXX20_CONSTEXPR
 804:/opt/gcc-arm-none-eabi/arm-none-eabi/include/c++/10.3.1/bits/stl_algo.h ****     pair<_OutputIterator1, _OutputIterator2>
 805:/opt/gcc-arm-none-eabi/arm-none-eabi/include/c++/10.3.1/bits/stl_algo.h ****     partition_copy(_InputIterator __first, _InputIterator __last,
 806:/opt/gcc-arm-none-eabi/arm-none-eabi/include/c++/10.3.1/bits/stl_algo.h **** 		   _OutputIterator1 __out_true, _OutputIterator2 __out_false,
 807:/opt/gcc-arm-none-eabi/arm-none-eabi/include/c++/10.3.1/bits/stl_algo.h **** 		   _Predicate __pred)
 808:/opt/gcc-arm-none-eabi/arm-none-eabi/include/c++/10.3.1/bits/stl_algo.h ****     {
 809:/opt/gcc-arm-none-eabi/arm-none-eabi/include/c++/10.3.1/bits/stl_algo.h ****       // concept requirements
ARM GAS  /tmp/ccxBL0ey.s 			page 77


 810:/opt/gcc-arm-none-eabi/arm-none-eabi/include/c++/10.3.1/bits/stl_algo.h ****       __glibcxx_function_requires(_InputIteratorConcept<_InputIterator>)
 811:/opt/gcc-arm-none-eabi/arm-none-eabi/include/c++/10.3.1/bits/stl_algo.h ****       __glibcxx_function_requires(_OutputIteratorConcept<_OutputIterator1,
 812:/opt/gcc-arm-none-eabi/arm-none-eabi/include/c++/10.3.1/bits/stl_algo.h **** 	    typename iterator_traits<_InputIterator>::value_type>)
 813:/opt/gcc-arm-none-eabi/arm-none-eabi/include/c++/10.3.1/bits/stl_algo.h ****       __glibcxx_function_requires(_OutputIteratorConcept<_OutputIterator2,
 814:/opt/gcc-arm-none-eabi/arm-none-eabi/include/c++/10.3.1/bits/stl_algo.h **** 	    typename iterator_traits<_InputIterator>::value_type>)
 815:/opt/gcc-arm-none-eabi/arm-none-eabi/include/c++/10.3.1/bits/stl_algo.h ****       __glibcxx_function_requires(_UnaryPredicateConcept<_Predicate,
 816:/opt/gcc-arm-none-eabi/arm-none-eabi/include/c++/10.3.1/bits/stl_algo.h **** 	    typename iterator_traits<_InputIterator>::value_type>)
 817:/opt/gcc-arm-none-eabi/arm-none-eabi/include/c++/10.3.1/bits/stl_algo.h ****       __glibcxx_requires_valid_range(__first, __last);
 818:/opt/gcc-arm-none-eabi/arm-none-eabi/include/c++/10.3.1/bits/stl_algo.h ****       
 819:/opt/gcc-arm-none-eabi/arm-none-eabi/include/c++/10.3.1/bits/stl_algo.h ****       for (; __first != __last; ++__first)
 820:/opt/gcc-arm-none-eabi/arm-none-eabi/include/c++/10.3.1/bits/stl_algo.h **** 	if (__pred(*__first))
 821:/opt/gcc-arm-none-eabi/arm-none-eabi/include/c++/10.3.1/bits/stl_algo.h **** 	  {
 822:/opt/gcc-arm-none-eabi/arm-none-eabi/include/c++/10.3.1/bits/stl_algo.h **** 	    *__out_true = *__first;
 823:/opt/gcc-arm-none-eabi/arm-none-eabi/include/c++/10.3.1/bits/stl_algo.h **** 	    ++__out_true;
 824:/opt/gcc-arm-none-eabi/arm-none-eabi/include/c++/10.3.1/bits/stl_algo.h **** 	  }
 825:/opt/gcc-arm-none-eabi/arm-none-eabi/include/c++/10.3.1/bits/stl_algo.h **** 	else
 826:/opt/gcc-arm-none-eabi/arm-none-eabi/include/c++/10.3.1/bits/stl_algo.h **** 	  {
 827:/opt/gcc-arm-none-eabi/arm-none-eabi/include/c++/10.3.1/bits/stl_algo.h **** 	    *__out_false = *__first;
 828:/opt/gcc-arm-none-eabi/arm-none-eabi/include/c++/10.3.1/bits/stl_algo.h **** 	    ++__out_false;
 829:/opt/gcc-arm-none-eabi/arm-none-eabi/include/c++/10.3.1/bits/stl_algo.h **** 	  }
 830:/opt/gcc-arm-none-eabi/arm-none-eabi/include/c++/10.3.1/bits/stl_algo.h **** 
 831:/opt/gcc-arm-none-eabi/arm-none-eabi/include/c++/10.3.1/bits/stl_algo.h ****       return pair<_OutputIterator1, _OutputIterator2>(__out_true, __out_false);
 832:/opt/gcc-arm-none-eabi/arm-none-eabi/include/c++/10.3.1/bits/stl_algo.h ****     }
 833:/opt/gcc-arm-none-eabi/arm-none-eabi/include/c++/10.3.1/bits/stl_algo.h **** #endif // C++11
 834:/opt/gcc-arm-none-eabi/arm-none-eabi/include/c++/10.3.1/bits/stl_algo.h **** 
 835:/opt/gcc-arm-none-eabi/arm-none-eabi/include/c++/10.3.1/bits/stl_algo.h ****   template<typename _ForwardIterator, typename _Predicate>
 836:/opt/gcc-arm-none-eabi/arm-none-eabi/include/c++/10.3.1/bits/stl_algo.h ****     _GLIBCXX20_CONSTEXPR
 837:/opt/gcc-arm-none-eabi/arm-none-eabi/include/c++/10.3.1/bits/stl_algo.h ****     _ForwardIterator
 838:/opt/gcc-arm-none-eabi/arm-none-eabi/include/c++/10.3.1/bits/stl_algo.h ****     __remove_if(_ForwardIterator __first, _ForwardIterator __last,
 839:/opt/gcc-arm-none-eabi/arm-none-eabi/include/c++/10.3.1/bits/stl_algo.h **** 		_Predicate __pred)
 840:/opt/gcc-arm-none-eabi/arm-none-eabi/include/c++/10.3.1/bits/stl_algo.h ****     {
 841:/opt/gcc-arm-none-eabi/arm-none-eabi/include/c++/10.3.1/bits/stl_algo.h ****       __first = std::__find_if(__first, __last, __pred);
 842:/opt/gcc-arm-none-eabi/arm-none-eabi/include/c++/10.3.1/bits/stl_algo.h ****       if (__first == __last)
 843:/opt/gcc-arm-none-eabi/arm-none-eabi/include/c++/10.3.1/bits/stl_algo.h **** 	return __first;
 844:/opt/gcc-arm-none-eabi/arm-none-eabi/include/c++/10.3.1/bits/stl_algo.h ****       _ForwardIterator __result = __first;
 845:/opt/gcc-arm-none-eabi/arm-none-eabi/include/c++/10.3.1/bits/stl_algo.h ****       ++__first;
 846:/opt/gcc-arm-none-eabi/arm-none-eabi/include/c++/10.3.1/bits/stl_algo.h ****       for (; __first != __last; ++__first)
 847:/opt/gcc-arm-none-eabi/arm-none-eabi/include/c++/10.3.1/bits/stl_algo.h **** 	if (!__pred(__first))
 848:/opt/gcc-arm-none-eabi/arm-none-eabi/include/c++/10.3.1/bits/stl_algo.h **** 	  {
 849:/opt/gcc-arm-none-eabi/arm-none-eabi/include/c++/10.3.1/bits/stl_algo.h **** 	    *__result = _GLIBCXX_MOVE(*__first);
 850:/opt/gcc-arm-none-eabi/arm-none-eabi/include/c++/10.3.1/bits/stl_algo.h **** 	    ++__result;
 851:/opt/gcc-arm-none-eabi/arm-none-eabi/include/c++/10.3.1/bits/stl_algo.h **** 	  }
 852:/opt/gcc-arm-none-eabi/arm-none-eabi/include/c++/10.3.1/bits/stl_algo.h ****       return __result;
 853:/opt/gcc-arm-none-eabi/arm-none-eabi/include/c++/10.3.1/bits/stl_algo.h ****     }
 854:/opt/gcc-arm-none-eabi/arm-none-eabi/include/c++/10.3.1/bits/stl_algo.h **** 
 855:/opt/gcc-arm-none-eabi/arm-none-eabi/include/c++/10.3.1/bits/stl_algo.h ****   /**
 856:/opt/gcc-arm-none-eabi/arm-none-eabi/include/c++/10.3.1/bits/stl_algo.h ****    *  @brief Remove elements from a sequence.
 857:/opt/gcc-arm-none-eabi/arm-none-eabi/include/c++/10.3.1/bits/stl_algo.h ****    *  @ingroup mutating_algorithms
 858:/opt/gcc-arm-none-eabi/arm-none-eabi/include/c++/10.3.1/bits/stl_algo.h ****    *  @param  __first  An input iterator.
 859:/opt/gcc-arm-none-eabi/arm-none-eabi/include/c++/10.3.1/bits/stl_algo.h ****    *  @param  __last   An input iterator.
 860:/opt/gcc-arm-none-eabi/arm-none-eabi/include/c++/10.3.1/bits/stl_algo.h ****    *  @param  __value  The value to be removed.
 861:/opt/gcc-arm-none-eabi/arm-none-eabi/include/c++/10.3.1/bits/stl_algo.h ****    *  @return   An iterator designating the end of the resulting sequence.
 862:/opt/gcc-arm-none-eabi/arm-none-eabi/include/c++/10.3.1/bits/stl_algo.h ****    *
 863:/opt/gcc-arm-none-eabi/arm-none-eabi/include/c++/10.3.1/bits/stl_algo.h ****    *  All elements equal to @p __value are removed from the range
 864:/opt/gcc-arm-none-eabi/arm-none-eabi/include/c++/10.3.1/bits/stl_algo.h ****    *  @p [__first,__last).
 865:/opt/gcc-arm-none-eabi/arm-none-eabi/include/c++/10.3.1/bits/stl_algo.h ****    *
 866:/opt/gcc-arm-none-eabi/arm-none-eabi/include/c++/10.3.1/bits/stl_algo.h ****    *  remove() is stable, so the relative order of elements that are
ARM GAS  /tmp/ccxBL0ey.s 			page 78


 867:/opt/gcc-arm-none-eabi/arm-none-eabi/include/c++/10.3.1/bits/stl_algo.h ****    *  not removed is unchanged.
 868:/opt/gcc-arm-none-eabi/arm-none-eabi/include/c++/10.3.1/bits/stl_algo.h ****    *
 869:/opt/gcc-arm-none-eabi/arm-none-eabi/include/c++/10.3.1/bits/stl_algo.h ****    *  Elements between the end of the resulting sequence and @p __last
 870:/opt/gcc-arm-none-eabi/arm-none-eabi/include/c++/10.3.1/bits/stl_algo.h ****    *  are still present, but their value is unspecified.
 871:/opt/gcc-arm-none-eabi/arm-none-eabi/include/c++/10.3.1/bits/stl_algo.h ****   */
 872:/opt/gcc-arm-none-eabi/arm-none-eabi/include/c++/10.3.1/bits/stl_algo.h ****   template<typename _ForwardIterator, typename _Tp>
 873:/opt/gcc-arm-none-eabi/arm-none-eabi/include/c++/10.3.1/bits/stl_algo.h ****     _GLIBCXX20_CONSTEXPR
 874:/opt/gcc-arm-none-eabi/arm-none-eabi/include/c++/10.3.1/bits/stl_algo.h ****     inline _ForwardIterator
 875:/opt/gcc-arm-none-eabi/arm-none-eabi/include/c++/10.3.1/bits/stl_algo.h ****     remove(_ForwardIterator __first, _ForwardIterator __last,
 876:/opt/gcc-arm-none-eabi/arm-none-eabi/include/c++/10.3.1/bits/stl_algo.h **** 	   const _Tp& __value)
 877:/opt/gcc-arm-none-eabi/arm-none-eabi/include/c++/10.3.1/bits/stl_algo.h ****     {
 878:/opt/gcc-arm-none-eabi/arm-none-eabi/include/c++/10.3.1/bits/stl_algo.h ****       // concept requirements
 879:/opt/gcc-arm-none-eabi/arm-none-eabi/include/c++/10.3.1/bits/stl_algo.h ****       __glibcxx_function_requires(_Mutable_ForwardIteratorConcept<
 880:/opt/gcc-arm-none-eabi/arm-none-eabi/include/c++/10.3.1/bits/stl_algo.h **** 				  _ForwardIterator>)
 881:/opt/gcc-arm-none-eabi/arm-none-eabi/include/c++/10.3.1/bits/stl_algo.h ****       __glibcxx_function_requires(_EqualOpConcept<
 882:/opt/gcc-arm-none-eabi/arm-none-eabi/include/c++/10.3.1/bits/stl_algo.h **** 	    typename iterator_traits<_ForwardIterator>::value_type, _Tp>)
 883:/opt/gcc-arm-none-eabi/arm-none-eabi/include/c++/10.3.1/bits/stl_algo.h ****       __glibcxx_requires_valid_range(__first, __last);
 884:/opt/gcc-arm-none-eabi/arm-none-eabi/include/c++/10.3.1/bits/stl_algo.h **** 
 885:/opt/gcc-arm-none-eabi/arm-none-eabi/include/c++/10.3.1/bits/stl_algo.h ****       return std::__remove_if(__first, __last,
 886:/opt/gcc-arm-none-eabi/arm-none-eabi/include/c++/10.3.1/bits/stl_algo.h **** 		__gnu_cxx::__ops::__iter_equals_val(__value));
 887:/opt/gcc-arm-none-eabi/arm-none-eabi/include/c++/10.3.1/bits/stl_algo.h ****     }
 888:/opt/gcc-arm-none-eabi/arm-none-eabi/include/c++/10.3.1/bits/stl_algo.h **** 
 889:/opt/gcc-arm-none-eabi/arm-none-eabi/include/c++/10.3.1/bits/stl_algo.h ****   /**
 890:/opt/gcc-arm-none-eabi/arm-none-eabi/include/c++/10.3.1/bits/stl_algo.h ****    *  @brief Remove elements from a sequence using a predicate.
 891:/opt/gcc-arm-none-eabi/arm-none-eabi/include/c++/10.3.1/bits/stl_algo.h ****    *  @ingroup mutating_algorithms
 892:/opt/gcc-arm-none-eabi/arm-none-eabi/include/c++/10.3.1/bits/stl_algo.h ****    *  @param  __first  A forward iterator.
 893:/opt/gcc-arm-none-eabi/arm-none-eabi/include/c++/10.3.1/bits/stl_algo.h ****    *  @param  __last   A forward iterator.
 894:/opt/gcc-arm-none-eabi/arm-none-eabi/include/c++/10.3.1/bits/stl_algo.h ****    *  @param  __pred   A predicate.
 895:/opt/gcc-arm-none-eabi/arm-none-eabi/include/c++/10.3.1/bits/stl_algo.h ****    *  @return   An iterator designating the end of the resulting sequence.
 896:/opt/gcc-arm-none-eabi/arm-none-eabi/include/c++/10.3.1/bits/stl_algo.h ****    *
 897:/opt/gcc-arm-none-eabi/arm-none-eabi/include/c++/10.3.1/bits/stl_algo.h ****    *  All elements for which @p __pred returns true are removed from the range
 898:/opt/gcc-arm-none-eabi/arm-none-eabi/include/c++/10.3.1/bits/stl_algo.h ****    *  @p [__first,__last).
 899:/opt/gcc-arm-none-eabi/arm-none-eabi/include/c++/10.3.1/bits/stl_algo.h ****    *
 900:/opt/gcc-arm-none-eabi/arm-none-eabi/include/c++/10.3.1/bits/stl_algo.h ****    *  remove_if() is stable, so the relative order of elements that are
 901:/opt/gcc-arm-none-eabi/arm-none-eabi/include/c++/10.3.1/bits/stl_algo.h ****    *  not removed is unchanged.
 902:/opt/gcc-arm-none-eabi/arm-none-eabi/include/c++/10.3.1/bits/stl_algo.h ****    *
 903:/opt/gcc-arm-none-eabi/arm-none-eabi/include/c++/10.3.1/bits/stl_algo.h ****    *  Elements between the end of the resulting sequence and @p __last
 904:/opt/gcc-arm-none-eabi/arm-none-eabi/include/c++/10.3.1/bits/stl_algo.h ****    *  are still present, but their value is unspecified.
 905:/opt/gcc-arm-none-eabi/arm-none-eabi/include/c++/10.3.1/bits/stl_algo.h ****   */
 906:/opt/gcc-arm-none-eabi/arm-none-eabi/include/c++/10.3.1/bits/stl_algo.h ****   template<typename _ForwardIterator, typename _Predicate>
 907:/opt/gcc-arm-none-eabi/arm-none-eabi/include/c++/10.3.1/bits/stl_algo.h ****     _GLIBCXX20_CONSTEXPR
 908:/opt/gcc-arm-none-eabi/arm-none-eabi/include/c++/10.3.1/bits/stl_algo.h ****     inline _ForwardIterator
 909:/opt/gcc-arm-none-eabi/arm-none-eabi/include/c++/10.3.1/bits/stl_algo.h ****     remove_if(_ForwardIterator __first, _ForwardIterator __last,
 910:/opt/gcc-arm-none-eabi/arm-none-eabi/include/c++/10.3.1/bits/stl_algo.h **** 	      _Predicate __pred)
 911:/opt/gcc-arm-none-eabi/arm-none-eabi/include/c++/10.3.1/bits/stl_algo.h ****     {
 912:/opt/gcc-arm-none-eabi/arm-none-eabi/include/c++/10.3.1/bits/stl_algo.h ****       // concept requirements
 913:/opt/gcc-arm-none-eabi/arm-none-eabi/include/c++/10.3.1/bits/stl_algo.h ****       __glibcxx_function_requires(_Mutable_ForwardIteratorConcept<
 914:/opt/gcc-arm-none-eabi/arm-none-eabi/include/c++/10.3.1/bits/stl_algo.h **** 				  _ForwardIterator>)
 915:/opt/gcc-arm-none-eabi/arm-none-eabi/include/c++/10.3.1/bits/stl_algo.h ****       __glibcxx_function_requires(_UnaryPredicateConcept<_Predicate,
 916:/opt/gcc-arm-none-eabi/arm-none-eabi/include/c++/10.3.1/bits/stl_algo.h **** 	    typename iterator_traits<_ForwardIterator>::value_type>)
 917:/opt/gcc-arm-none-eabi/arm-none-eabi/include/c++/10.3.1/bits/stl_algo.h ****       __glibcxx_requires_valid_range(__first, __last);
 918:/opt/gcc-arm-none-eabi/arm-none-eabi/include/c++/10.3.1/bits/stl_algo.h **** 
 919:/opt/gcc-arm-none-eabi/arm-none-eabi/include/c++/10.3.1/bits/stl_algo.h ****       return std::__remove_if(__first, __last,
 920:/opt/gcc-arm-none-eabi/arm-none-eabi/include/c++/10.3.1/bits/stl_algo.h **** 			      __gnu_cxx::__ops::__pred_iter(__pred));
 921:/opt/gcc-arm-none-eabi/arm-none-eabi/include/c++/10.3.1/bits/stl_algo.h ****     }
 922:/opt/gcc-arm-none-eabi/arm-none-eabi/include/c++/10.3.1/bits/stl_algo.h **** 
 923:/opt/gcc-arm-none-eabi/arm-none-eabi/include/c++/10.3.1/bits/stl_algo.h ****   template<typename _ForwardIterator, typename _BinaryPredicate>
ARM GAS  /tmp/ccxBL0ey.s 			page 79


 924:/opt/gcc-arm-none-eabi/arm-none-eabi/include/c++/10.3.1/bits/stl_algo.h ****     _GLIBCXX20_CONSTEXPR
 925:/opt/gcc-arm-none-eabi/arm-none-eabi/include/c++/10.3.1/bits/stl_algo.h ****     _ForwardIterator
 926:/opt/gcc-arm-none-eabi/arm-none-eabi/include/c++/10.3.1/bits/stl_algo.h ****     __adjacent_find(_ForwardIterator __first, _ForwardIterator __last,
 927:/opt/gcc-arm-none-eabi/arm-none-eabi/include/c++/10.3.1/bits/stl_algo.h **** 		    _BinaryPredicate __binary_pred)
 928:/opt/gcc-arm-none-eabi/arm-none-eabi/include/c++/10.3.1/bits/stl_algo.h ****     {
 929:/opt/gcc-arm-none-eabi/arm-none-eabi/include/c++/10.3.1/bits/stl_algo.h ****       if (__first == __last)
 930:/opt/gcc-arm-none-eabi/arm-none-eabi/include/c++/10.3.1/bits/stl_algo.h **** 	return __last;
 931:/opt/gcc-arm-none-eabi/arm-none-eabi/include/c++/10.3.1/bits/stl_algo.h ****       _ForwardIterator __next = __first;
 932:/opt/gcc-arm-none-eabi/arm-none-eabi/include/c++/10.3.1/bits/stl_algo.h ****       while (++__next != __last)
 933:/opt/gcc-arm-none-eabi/arm-none-eabi/include/c++/10.3.1/bits/stl_algo.h **** 	{
 934:/opt/gcc-arm-none-eabi/arm-none-eabi/include/c++/10.3.1/bits/stl_algo.h **** 	  if (__binary_pred(__first, __next))
 935:/opt/gcc-arm-none-eabi/arm-none-eabi/include/c++/10.3.1/bits/stl_algo.h **** 	    return __first;
 936:/opt/gcc-arm-none-eabi/arm-none-eabi/include/c++/10.3.1/bits/stl_algo.h **** 	  __first = __next;
 937:/opt/gcc-arm-none-eabi/arm-none-eabi/include/c++/10.3.1/bits/stl_algo.h **** 	}
 938:/opt/gcc-arm-none-eabi/arm-none-eabi/include/c++/10.3.1/bits/stl_algo.h ****       return __last;
 939:/opt/gcc-arm-none-eabi/arm-none-eabi/include/c++/10.3.1/bits/stl_algo.h ****     }
 940:/opt/gcc-arm-none-eabi/arm-none-eabi/include/c++/10.3.1/bits/stl_algo.h **** 
 941:/opt/gcc-arm-none-eabi/arm-none-eabi/include/c++/10.3.1/bits/stl_algo.h ****   template<typename _ForwardIterator, typename _BinaryPredicate>
 942:/opt/gcc-arm-none-eabi/arm-none-eabi/include/c++/10.3.1/bits/stl_algo.h ****     _GLIBCXX20_CONSTEXPR
 943:/opt/gcc-arm-none-eabi/arm-none-eabi/include/c++/10.3.1/bits/stl_algo.h ****     _ForwardIterator
 944:/opt/gcc-arm-none-eabi/arm-none-eabi/include/c++/10.3.1/bits/stl_algo.h ****     __unique(_ForwardIterator __first, _ForwardIterator __last,
 945:/opt/gcc-arm-none-eabi/arm-none-eabi/include/c++/10.3.1/bits/stl_algo.h **** 	     _BinaryPredicate __binary_pred)
 946:/opt/gcc-arm-none-eabi/arm-none-eabi/include/c++/10.3.1/bits/stl_algo.h ****     {
 947:/opt/gcc-arm-none-eabi/arm-none-eabi/include/c++/10.3.1/bits/stl_algo.h ****       // Skip the beginning, if already unique.
 948:/opt/gcc-arm-none-eabi/arm-none-eabi/include/c++/10.3.1/bits/stl_algo.h ****       __first = std::__adjacent_find(__first, __last, __binary_pred);
 949:/opt/gcc-arm-none-eabi/arm-none-eabi/include/c++/10.3.1/bits/stl_algo.h ****       if (__first == __last)
 950:/opt/gcc-arm-none-eabi/arm-none-eabi/include/c++/10.3.1/bits/stl_algo.h **** 	return __last;
 951:/opt/gcc-arm-none-eabi/arm-none-eabi/include/c++/10.3.1/bits/stl_algo.h **** 
 952:/opt/gcc-arm-none-eabi/arm-none-eabi/include/c++/10.3.1/bits/stl_algo.h ****       // Do the real copy work.
 953:/opt/gcc-arm-none-eabi/arm-none-eabi/include/c++/10.3.1/bits/stl_algo.h ****       _ForwardIterator __dest = __first;
 954:/opt/gcc-arm-none-eabi/arm-none-eabi/include/c++/10.3.1/bits/stl_algo.h ****       ++__first;
 955:/opt/gcc-arm-none-eabi/arm-none-eabi/include/c++/10.3.1/bits/stl_algo.h ****       while (++__first != __last)
 956:/opt/gcc-arm-none-eabi/arm-none-eabi/include/c++/10.3.1/bits/stl_algo.h **** 	if (!__binary_pred(__dest, __first))
 957:/opt/gcc-arm-none-eabi/arm-none-eabi/include/c++/10.3.1/bits/stl_algo.h **** 	  *++__dest = _GLIBCXX_MOVE(*__first);
 958:/opt/gcc-arm-none-eabi/arm-none-eabi/include/c++/10.3.1/bits/stl_algo.h ****       return ++__dest;
 959:/opt/gcc-arm-none-eabi/arm-none-eabi/include/c++/10.3.1/bits/stl_algo.h ****     }
 960:/opt/gcc-arm-none-eabi/arm-none-eabi/include/c++/10.3.1/bits/stl_algo.h **** 
 961:/opt/gcc-arm-none-eabi/arm-none-eabi/include/c++/10.3.1/bits/stl_algo.h ****   /**
 962:/opt/gcc-arm-none-eabi/arm-none-eabi/include/c++/10.3.1/bits/stl_algo.h ****    *  @brief Remove consecutive duplicate values from a sequence.
 963:/opt/gcc-arm-none-eabi/arm-none-eabi/include/c++/10.3.1/bits/stl_algo.h ****    *  @ingroup mutating_algorithms
 964:/opt/gcc-arm-none-eabi/arm-none-eabi/include/c++/10.3.1/bits/stl_algo.h ****    *  @param  __first  A forward iterator.
 965:/opt/gcc-arm-none-eabi/arm-none-eabi/include/c++/10.3.1/bits/stl_algo.h ****    *  @param  __last   A forward iterator.
 966:/opt/gcc-arm-none-eabi/arm-none-eabi/include/c++/10.3.1/bits/stl_algo.h ****    *  @return  An iterator designating the end of the resulting sequence.
 967:/opt/gcc-arm-none-eabi/arm-none-eabi/include/c++/10.3.1/bits/stl_algo.h ****    *
 968:/opt/gcc-arm-none-eabi/arm-none-eabi/include/c++/10.3.1/bits/stl_algo.h ****    *  Removes all but the first element from each group of consecutive
 969:/opt/gcc-arm-none-eabi/arm-none-eabi/include/c++/10.3.1/bits/stl_algo.h ****    *  values that compare equal.
 970:/opt/gcc-arm-none-eabi/arm-none-eabi/include/c++/10.3.1/bits/stl_algo.h ****    *  unique() is stable, so the relative order of elements that are
 971:/opt/gcc-arm-none-eabi/arm-none-eabi/include/c++/10.3.1/bits/stl_algo.h ****    *  not removed is unchanged.
 972:/opt/gcc-arm-none-eabi/arm-none-eabi/include/c++/10.3.1/bits/stl_algo.h ****    *  Elements between the end of the resulting sequence and @p __last
 973:/opt/gcc-arm-none-eabi/arm-none-eabi/include/c++/10.3.1/bits/stl_algo.h ****    *  are still present, but their value is unspecified.
 974:/opt/gcc-arm-none-eabi/arm-none-eabi/include/c++/10.3.1/bits/stl_algo.h ****   */
 975:/opt/gcc-arm-none-eabi/arm-none-eabi/include/c++/10.3.1/bits/stl_algo.h ****   template<typename _ForwardIterator>
 976:/opt/gcc-arm-none-eabi/arm-none-eabi/include/c++/10.3.1/bits/stl_algo.h ****     _GLIBCXX20_CONSTEXPR
 977:/opt/gcc-arm-none-eabi/arm-none-eabi/include/c++/10.3.1/bits/stl_algo.h ****     inline _ForwardIterator
 978:/opt/gcc-arm-none-eabi/arm-none-eabi/include/c++/10.3.1/bits/stl_algo.h ****     unique(_ForwardIterator __first, _ForwardIterator __last)
 979:/opt/gcc-arm-none-eabi/arm-none-eabi/include/c++/10.3.1/bits/stl_algo.h ****     {
 980:/opt/gcc-arm-none-eabi/arm-none-eabi/include/c++/10.3.1/bits/stl_algo.h ****       // concept requirements
ARM GAS  /tmp/ccxBL0ey.s 			page 80


 981:/opt/gcc-arm-none-eabi/arm-none-eabi/include/c++/10.3.1/bits/stl_algo.h ****       __glibcxx_function_requires(_Mutable_ForwardIteratorConcept<
 982:/opt/gcc-arm-none-eabi/arm-none-eabi/include/c++/10.3.1/bits/stl_algo.h **** 				  _ForwardIterator>)
 983:/opt/gcc-arm-none-eabi/arm-none-eabi/include/c++/10.3.1/bits/stl_algo.h ****       __glibcxx_function_requires(_EqualityComparableConcept<
 984:/opt/gcc-arm-none-eabi/arm-none-eabi/include/c++/10.3.1/bits/stl_algo.h **** 		     typename iterator_traits<_ForwardIterator>::value_type>)
 985:/opt/gcc-arm-none-eabi/arm-none-eabi/include/c++/10.3.1/bits/stl_algo.h ****       __glibcxx_requires_valid_range(__first, __last);
 986:/opt/gcc-arm-none-eabi/arm-none-eabi/include/c++/10.3.1/bits/stl_algo.h **** 
 987:/opt/gcc-arm-none-eabi/arm-none-eabi/include/c++/10.3.1/bits/stl_algo.h ****       return std::__unique(__first, __last,
 988:/opt/gcc-arm-none-eabi/arm-none-eabi/include/c++/10.3.1/bits/stl_algo.h **** 			   __gnu_cxx::__ops::__iter_equal_to_iter());
 989:/opt/gcc-arm-none-eabi/arm-none-eabi/include/c++/10.3.1/bits/stl_algo.h ****     }
 990:/opt/gcc-arm-none-eabi/arm-none-eabi/include/c++/10.3.1/bits/stl_algo.h **** 
 991:/opt/gcc-arm-none-eabi/arm-none-eabi/include/c++/10.3.1/bits/stl_algo.h ****   /**
 992:/opt/gcc-arm-none-eabi/arm-none-eabi/include/c++/10.3.1/bits/stl_algo.h ****    *  @brief Remove consecutive values from a sequence using a predicate.
 993:/opt/gcc-arm-none-eabi/arm-none-eabi/include/c++/10.3.1/bits/stl_algo.h ****    *  @ingroup mutating_algorithms
 994:/opt/gcc-arm-none-eabi/arm-none-eabi/include/c++/10.3.1/bits/stl_algo.h ****    *  @param  __first        A forward iterator.
 995:/opt/gcc-arm-none-eabi/arm-none-eabi/include/c++/10.3.1/bits/stl_algo.h ****    *  @param  __last         A forward iterator.
 996:/opt/gcc-arm-none-eabi/arm-none-eabi/include/c++/10.3.1/bits/stl_algo.h ****    *  @param  __binary_pred  A binary predicate.
 997:/opt/gcc-arm-none-eabi/arm-none-eabi/include/c++/10.3.1/bits/stl_algo.h ****    *  @return  An iterator designating the end of the resulting sequence.
 998:/opt/gcc-arm-none-eabi/arm-none-eabi/include/c++/10.3.1/bits/stl_algo.h ****    *
 999:/opt/gcc-arm-none-eabi/arm-none-eabi/include/c++/10.3.1/bits/stl_algo.h ****    *  Removes all but the first element from each group of consecutive
1000:/opt/gcc-arm-none-eabi/arm-none-eabi/include/c++/10.3.1/bits/stl_algo.h ****    *  values for which @p __binary_pred returns true.
1001:/opt/gcc-arm-none-eabi/arm-none-eabi/include/c++/10.3.1/bits/stl_algo.h ****    *  unique() is stable, so the relative order of elements that are
1002:/opt/gcc-arm-none-eabi/arm-none-eabi/include/c++/10.3.1/bits/stl_algo.h ****    *  not removed is unchanged.
1003:/opt/gcc-arm-none-eabi/arm-none-eabi/include/c++/10.3.1/bits/stl_algo.h ****    *  Elements between the end of the resulting sequence and @p __last
1004:/opt/gcc-arm-none-eabi/arm-none-eabi/include/c++/10.3.1/bits/stl_algo.h ****    *  are still present, but their value is unspecified.
1005:/opt/gcc-arm-none-eabi/arm-none-eabi/include/c++/10.3.1/bits/stl_algo.h ****   */
1006:/opt/gcc-arm-none-eabi/arm-none-eabi/include/c++/10.3.1/bits/stl_algo.h ****   template<typename _ForwardIterator, typename _BinaryPredicate>
1007:/opt/gcc-arm-none-eabi/arm-none-eabi/include/c++/10.3.1/bits/stl_algo.h ****     _GLIBCXX20_CONSTEXPR
1008:/opt/gcc-arm-none-eabi/arm-none-eabi/include/c++/10.3.1/bits/stl_algo.h ****     inline _ForwardIterator
1009:/opt/gcc-arm-none-eabi/arm-none-eabi/include/c++/10.3.1/bits/stl_algo.h ****     unique(_ForwardIterator __first, _ForwardIterator __last,
1010:/opt/gcc-arm-none-eabi/arm-none-eabi/include/c++/10.3.1/bits/stl_algo.h **** 	   _BinaryPredicate __binary_pred)
1011:/opt/gcc-arm-none-eabi/arm-none-eabi/include/c++/10.3.1/bits/stl_algo.h ****     {
1012:/opt/gcc-arm-none-eabi/arm-none-eabi/include/c++/10.3.1/bits/stl_algo.h ****       // concept requirements
1013:/opt/gcc-arm-none-eabi/arm-none-eabi/include/c++/10.3.1/bits/stl_algo.h ****       __glibcxx_function_requires(_Mutable_ForwardIteratorConcept<
1014:/opt/gcc-arm-none-eabi/arm-none-eabi/include/c++/10.3.1/bits/stl_algo.h **** 				  _ForwardIterator>)
1015:/opt/gcc-arm-none-eabi/arm-none-eabi/include/c++/10.3.1/bits/stl_algo.h ****       __glibcxx_function_requires(_BinaryPredicateConcept<_BinaryPredicate,
1016:/opt/gcc-arm-none-eabi/arm-none-eabi/include/c++/10.3.1/bits/stl_algo.h **** 		typename iterator_traits<_ForwardIterator>::value_type,
1017:/opt/gcc-arm-none-eabi/arm-none-eabi/include/c++/10.3.1/bits/stl_algo.h **** 		typename iterator_traits<_ForwardIterator>::value_type>)
1018:/opt/gcc-arm-none-eabi/arm-none-eabi/include/c++/10.3.1/bits/stl_algo.h ****       __glibcxx_requires_valid_range(__first, __last);
1019:/opt/gcc-arm-none-eabi/arm-none-eabi/include/c++/10.3.1/bits/stl_algo.h **** 
1020:/opt/gcc-arm-none-eabi/arm-none-eabi/include/c++/10.3.1/bits/stl_algo.h ****       return std::__unique(__first, __last,
1021:/opt/gcc-arm-none-eabi/arm-none-eabi/include/c++/10.3.1/bits/stl_algo.h **** 			   __gnu_cxx::__ops::__iter_comp_iter(__binary_pred));
1022:/opt/gcc-arm-none-eabi/arm-none-eabi/include/c++/10.3.1/bits/stl_algo.h ****     }
1023:/opt/gcc-arm-none-eabi/arm-none-eabi/include/c++/10.3.1/bits/stl_algo.h **** 
1024:/opt/gcc-arm-none-eabi/arm-none-eabi/include/c++/10.3.1/bits/stl_algo.h ****   /**
1025:/opt/gcc-arm-none-eabi/arm-none-eabi/include/c++/10.3.1/bits/stl_algo.h ****    *  This is an uglified
1026:/opt/gcc-arm-none-eabi/arm-none-eabi/include/c++/10.3.1/bits/stl_algo.h ****    *  unique_copy(_InputIterator, _InputIterator, _OutputIterator,
1027:/opt/gcc-arm-none-eabi/arm-none-eabi/include/c++/10.3.1/bits/stl_algo.h ****    *              _BinaryPredicate)
1028:/opt/gcc-arm-none-eabi/arm-none-eabi/include/c++/10.3.1/bits/stl_algo.h ****    *  overloaded for forward iterators and output iterator as result.
1029:/opt/gcc-arm-none-eabi/arm-none-eabi/include/c++/10.3.1/bits/stl_algo.h ****   */
1030:/opt/gcc-arm-none-eabi/arm-none-eabi/include/c++/10.3.1/bits/stl_algo.h ****   template<typename _ForwardIterator, typename _OutputIterator,
1031:/opt/gcc-arm-none-eabi/arm-none-eabi/include/c++/10.3.1/bits/stl_algo.h **** 	   typename _BinaryPredicate>
1032:/opt/gcc-arm-none-eabi/arm-none-eabi/include/c++/10.3.1/bits/stl_algo.h ****     _GLIBCXX20_CONSTEXPR
1033:/opt/gcc-arm-none-eabi/arm-none-eabi/include/c++/10.3.1/bits/stl_algo.h ****     _OutputIterator
1034:/opt/gcc-arm-none-eabi/arm-none-eabi/include/c++/10.3.1/bits/stl_algo.h ****     __unique_copy(_ForwardIterator __first, _ForwardIterator __last,
1035:/opt/gcc-arm-none-eabi/arm-none-eabi/include/c++/10.3.1/bits/stl_algo.h **** 		  _OutputIterator __result, _BinaryPredicate __binary_pred,
1036:/opt/gcc-arm-none-eabi/arm-none-eabi/include/c++/10.3.1/bits/stl_algo.h **** 		  forward_iterator_tag, output_iterator_tag)
1037:/opt/gcc-arm-none-eabi/arm-none-eabi/include/c++/10.3.1/bits/stl_algo.h ****     {
ARM GAS  /tmp/ccxBL0ey.s 			page 81


1038:/opt/gcc-arm-none-eabi/arm-none-eabi/include/c++/10.3.1/bits/stl_algo.h ****       // concept requirements -- iterators already checked
1039:/opt/gcc-arm-none-eabi/arm-none-eabi/include/c++/10.3.1/bits/stl_algo.h ****       __glibcxx_function_requires(_BinaryPredicateConcept<_BinaryPredicate,
1040:/opt/gcc-arm-none-eabi/arm-none-eabi/include/c++/10.3.1/bits/stl_algo.h **** 	  typename iterator_traits<_ForwardIterator>::value_type,
1041:/opt/gcc-arm-none-eabi/arm-none-eabi/include/c++/10.3.1/bits/stl_algo.h **** 	  typename iterator_traits<_ForwardIterator>::value_type>)
1042:/opt/gcc-arm-none-eabi/arm-none-eabi/include/c++/10.3.1/bits/stl_algo.h **** 
1043:/opt/gcc-arm-none-eabi/arm-none-eabi/include/c++/10.3.1/bits/stl_algo.h ****       _ForwardIterator __next = __first;
1044:/opt/gcc-arm-none-eabi/arm-none-eabi/include/c++/10.3.1/bits/stl_algo.h ****       *__result = *__first;
1045:/opt/gcc-arm-none-eabi/arm-none-eabi/include/c++/10.3.1/bits/stl_algo.h ****       while (++__next != __last)
1046:/opt/gcc-arm-none-eabi/arm-none-eabi/include/c++/10.3.1/bits/stl_algo.h **** 	if (!__binary_pred(__first, __next))
1047:/opt/gcc-arm-none-eabi/arm-none-eabi/include/c++/10.3.1/bits/stl_algo.h **** 	  {
1048:/opt/gcc-arm-none-eabi/arm-none-eabi/include/c++/10.3.1/bits/stl_algo.h **** 	    __first = __next;
1049:/opt/gcc-arm-none-eabi/arm-none-eabi/include/c++/10.3.1/bits/stl_algo.h **** 	    *++__result = *__first;
1050:/opt/gcc-arm-none-eabi/arm-none-eabi/include/c++/10.3.1/bits/stl_algo.h **** 	  }
1051:/opt/gcc-arm-none-eabi/arm-none-eabi/include/c++/10.3.1/bits/stl_algo.h ****       return ++__result;
1052:/opt/gcc-arm-none-eabi/arm-none-eabi/include/c++/10.3.1/bits/stl_algo.h ****     }
1053:/opt/gcc-arm-none-eabi/arm-none-eabi/include/c++/10.3.1/bits/stl_algo.h **** 
1054:/opt/gcc-arm-none-eabi/arm-none-eabi/include/c++/10.3.1/bits/stl_algo.h ****   /**
1055:/opt/gcc-arm-none-eabi/arm-none-eabi/include/c++/10.3.1/bits/stl_algo.h ****    *  This is an uglified
1056:/opt/gcc-arm-none-eabi/arm-none-eabi/include/c++/10.3.1/bits/stl_algo.h ****    *  unique_copy(_InputIterator, _InputIterator, _OutputIterator,
1057:/opt/gcc-arm-none-eabi/arm-none-eabi/include/c++/10.3.1/bits/stl_algo.h ****    *              _BinaryPredicate)
1058:/opt/gcc-arm-none-eabi/arm-none-eabi/include/c++/10.3.1/bits/stl_algo.h ****    *  overloaded for input iterators and output iterator as result.
1059:/opt/gcc-arm-none-eabi/arm-none-eabi/include/c++/10.3.1/bits/stl_algo.h ****   */
1060:/opt/gcc-arm-none-eabi/arm-none-eabi/include/c++/10.3.1/bits/stl_algo.h ****   template<typename _InputIterator, typename _OutputIterator,
1061:/opt/gcc-arm-none-eabi/arm-none-eabi/include/c++/10.3.1/bits/stl_algo.h **** 	   typename _BinaryPredicate>
1062:/opt/gcc-arm-none-eabi/arm-none-eabi/include/c++/10.3.1/bits/stl_algo.h ****     _GLIBCXX20_CONSTEXPR
1063:/opt/gcc-arm-none-eabi/arm-none-eabi/include/c++/10.3.1/bits/stl_algo.h ****     _OutputIterator
1064:/opt/gcc-arm-none-eabi/arm-none-eabi/include/c++/10.3.1/bits/stl_algo.h ****     __unique_copy(_InputIterator __first, _InputIterator __last,
1065:/opt/gcc-arm-none-eabi/arm-none-eabi/include/c++/10.3.1/bits/stl_algo.h **** 		  _OutputIterator __result, _BinaryPredicate __binary_pred,
1066:/opt/gcc-arm-none-eabi/arm-none-eabi/include/c++/10.3.1/bits/stl_algo.h **** 		  input_iterator_tag, output_iterator_tag)
1067:/opt/gcc-arm-none-eabi/arm-none-eabi/include/c++/10.3.1/bits/stl_algo.h ****     {
1068:/opt/gcc-arm-none-eabi/arm-none-eabi/include/c++/10.3.1/bits/stl_algo.h ****       // concept requirements -- iterators already checked
1069:/opt/gcc-arm-none-eabi/arm-none-eabi/include/c++/10.3.1/bits/stl_algo.h ****       __glibcxx_function_requires(_BinaryPredicateConcept<_BinaryPredicate,
1070:/opt/gcc-arm-none-eabi/arm-none-eabi/include/c++/10.3.1/bits/stl_algo.h **** 	  typename iterator_traits<_InputIterator>::value_type,
1071:/opt/gcc-arm-none-eabi/arm-none-eabi/include/c++/10.3.1/bits/stl_algo.h **** 	  typename iterator_traits<_InputIterator>::value_type>)
1072:/opt/gcc-arm-none-eabi/arm-none-eabi/include/c++/10.3.1/bits/stl_algo.h **** 
1073:/opt/gcc-arm-none-eabi/arm-none-eabi/include/c++/10.3.1/bits/stl_algo.h ****       typename iterator_traits<_InputIterator>::value_type __value = *__first;
1074:/opt/gcc-arm-none-eabi/arm-none-eabi/include/c++/10.3.1/bits/stl_algo.h ****       __decltype(__gnu_cxx::__ops::__iter_comp_val(__binary_pred))
1075:/opt/gcc-arm-none-eabi/arm-none-eabi/include/c++/10.3.1/bits/stl_algo.h **** 	__rebound_pred
1076:/opt/gcc-arm-none-eabi/arm-none-eabi/include/c++/10.3.1/bits/stl_algo.h **** 	= __gnu_cxx::__ops::__iter_comp_val(__binary_pred);
1077:/opt/gcc-arm-none-eabi/arm-none-eabi/include/c++/10.3.1/bits/stl_algo.h ****       *__result = __value;
1078:/opt/gcc-arm-none-eabi/arm-none-eabi/include/c++/10.3.1/bits/stl_algo.h ****       while (++__first != __last)
1079:/opt/gcc-arm-none-eabi/arm-none-eabi/include/c++/10.3.1/bits/stl_algo.h **** 	if (!__rebound_pred(__first, __value))
1080:/opt/gcc-arm-none-eabi/arm-none-eabi/include/c++/10.3.1/bits/stl_algo.h **** 	  {
1081:/opt/gcc-arm-none-eabi/arm-none-eabi/include/c++/10.3.1/bits/stl_algo.h **** 	    __value = *__first;
1082:/opt/gcc-arm-none-eabi/arm-none-eabi/include/c++/10.3.1/bits/stl_algo.h **** 	    *++__result = __value;
1083:/opt/gcc-arm-none-eabi/arm-none-eabi/include/c++/10.3.1/bits/stl_algo.h **** 	  }
1084:/opt/gcc-arm-none-eabi/arm-none-eabi/include/c++/10.3.1/bits/stl_algo.h ****       return ++__result;
1085:/opt/gcc-arm-none-eabi/arm-none-eabi/include/c++/10.3.1/bits/stl_algo.h ****     }
1086:/opt/gcc-arm-none-eabi/arm-none-eabi/include/c++/10.3.1/bits/stl_algo.h **** 
1087:/opt/gcc-arm-none-eabi/arm-none-eabi/include/c++/10.3.1/bits/stl_algo.h ****   /**
1088:/opt/gcc-arm-none-eabi/arm-none-eabi/include/c++/10.3.1/bits/stl_algo.h ****    *  This is an uglified
1089:/opt/gcc-arm-none-eabi/arm-none-eabi/include/c++/10.3.1/bits/stl_algo.h ****    *  unique_copy(_InputIterator, _InputIterator, _OutputIterator,
1090:/opt/gcc-arm-none-eabi/arm-none-eabi/include/c++/10.3.1/bits/stl_algo.h ****    *              _BinaryPredicate)
1091:/opt/gcc-arm-none-eabi/arm-none-eabi/include/c++/10.3.1/bits/stl_algo.h ****    *  overloaded for input iterators and forward iterator as result.
1092:/opt/gcc-arm-none-eabi/arm-none-eabi/include/c++/10.3.1/bits/stl_algo.h ****   */
1093:/opt/gcc-arm-none-eabi/arm-none-eabi/include/c++/10.3.1/bits/stl_algo.h ****   template<typename _InputIterator, typename _ForwardIterator,
1094:/opt/gcc-arm-none-eabi/arm-none-eabi/include/c++/10.3.1/bits/stl_algo.h **** 	   typename _BinaryPredicate>
ARM GAS  /tmp/ccxBL0ey.s 			page 82


1095:/opt/gcc-arm-none-eabi/arm-none-eabi/include/c++/10.3.1/bits/stl_algo.h ****     _GLIBCXX20_CONSTEXPR
1096:/opt/gcc-arm-none-eabi/arm-none-eabi/include/c++/10.3.1/bits/stl_algo.h ****     _ForwardIterator
1097:/opt/gcc-arm-none-eabi/arm-none-eabi/include/c++/10.3.1/bits/stl_algo.h ****     __unique_copy(_InputIterator __first, _InputIterator __last,
1098:/opt/gcc-arm-none-eabi/arm-none-eabi/include/c++/10.3.1/bits/stl_algo.h **** 		  _ForwardIterator __result, _BinaryPredicate __binary_pred,
1099:/opt/gcc-arm-none-eabi/arm-none-eabi/include/c++/10.3.1/bits/stl_algo.h **** 		  input_iterator_tag, forward_iterator_tag)
1100:/opt/gcc-arm-none-eabi/arm-none-eabi/include/c++/10.3.1/bits/stl_algo.h ****     {
1101:/opt/gcc-arm-none-eabi/arm-none-eabi/include/c++/10.3.1/bits/stl_algo.h ****       // concept requirements -- iterators already checked
1102:/opt/gcc-arm-none-eabi/arm-none-eabi/include/c++/10.3.1/bits/stl_algo.h ****       __glibcxx_function_requires(_BinaryPredicateConcept<_BinaryPredicate,
1103:/opt/gcc-arm-none-eabi/arm-none-eabi/include/c++/10.3.1/bits/stl_algo.h **** 	  typename iterator_traits<_ForwardIterator>::value_type,
1104:/opt/gcc-arm-none-eabi/arm-none-eabi/include/c++/10.3.1/bits/stl_algo.h **** 	  typename iterator_traits<_InputIterator>::value_type>)
1105:/opt/gcc-arm-none-eabi/arm-none-eabi/include/c++/10.3.1/bits/stl_algo.h ****       *__result = *__first;
1106:/opt/gcc-arm-none-eabi/arm-none-eabi/include/c++/10.3.1/bits/stl_algo.h ****       while (++__first != __last)
1107:/opt/gcc-arm-none-eabi/arm-none-eabi/include/c++/10.3.1/bits/stl_algo.h **** 	if (!__binary_pred(__result, __first))
1108:/opt/gcc-arm-none-eabi/arm-none-eabi/include/c++/10.3.1/bits/stl_algo.h **** 	  *++__result = *__first;
1109:/opt/gcc-arm-none-eabi/arm-none-eabi/include/c++/10.3.1/bits/stl_algo.h ****       return ++__result;
1110:/opt/gcc-arm-none-eabi/arm-none-eabi/include/c++/10.3.1/bits/stl_algo.h ****     }
1111:/opt/gcc-arm-none-eabi/arm-none-eabi/include/c++/10.3.1/bits/stl_algo.h **** 
1112:/opt/gcc-arm-none-eabi/arm-none-eabi/include/c++/10.3.1/bits/stl_algo.h ****   /**
1113:/opt/gcc-arm-none-eabi/arm-none-eabi/include/c++/10.3.1/bits/stl_algo.h ****    *  This is an uglified reverse(_BidirectionalIterator,
1114:/opt/gcc-arm-none-eabi/arm-none-eabi/include/c++/10.3.1/bits/stl_algo.h ****    *                              _BidirectionalIterator)
1115:/opt/gcc-arm-none-eabi/arm-none-eabi/include/c++/10.3.1/bits/stl_algo.h ****    *  overloaded for bidirectional iterators.
1116:/opt/gcc-arm-none-eabi/arm-none-eabi/include/c++/10.3.1/bits/stl_algo.h ****   */
1117:/opt/gcc-arm-none-eabi/arm-none-eabi/include/c++/10.3.1/bits/stl_algo.h ****   template<typename _BidirectionalIterator>
1118:/opt/gcc-arm-none-eabi/arm-none-eabi/include/c++/10.3.1/bits/stl_algo.h ****     _GLIBCXX20_CONSTEXPR
1119:/opt/gcc-arm-none-eabi/arm-none-eabi/include/c++/10.3.1/bits/stl_algo.h ****     void
1120:/opt/gcc-arm-none-eabi/arm-none-eabi/include/c++/10.3.1/bits/stl_algo.h ****     __reverse(_BidirectionalIterator __first, _BidirectionalIterator __last,
1121:/opt/gcc-arm-none-eabi/arm-none-eabi/include/c++/10.3.1/bits/stl_algo.h **** 	      bidirectional_iterator_tag)
1122:/opt/gcc-arm-none-eabi/arm-none-eabi/include/c++/10.3.1/bits/stl_algo.h ****     {
1123:/opt/gcc-arm-none-eabi/arm-none-eabi/include/c++/10.3.1/bits/stl_algo.h ****       while (true)
1124:/opt/gcc-arm-none-eabi/arm-none-eabi/include/c++/10.3.1/bits/stl_algo.h **** 	if (__first == __last || __first == --__last)
1125:/opt/gcc-arm-none-eabi/arm-none-eabi/include/c++/10.3.1/bits/stl_algo.h **** 	  return;
1126:/opt/gcc-arm-none-eabi/arm-none-eabi/include/c++/10.3.1/bits/stl_algo.h **** 	else
1127:/opt/gcc-arm-none-eabi/arm-none-eabi/include/c++/10.3.1/bits/stl_algo.h **** 	  {
1128:/opt/gcc-arm-none-eabi/arm-none-eabi/include/c++/10.3.1/bits/stl_algo.h **** 	    std::iter_swap(__first, __last);
1129:/opt/gcc-arm-none-eabi/arm-none-eabi/include/c++/10.3.1/bits/stl_algo.h **** 	    ++__first;
1130:/opt/gcc-arm-none-eabi/arm-none-eabi/include/c++/10.3.1/bits/stl_algo.h **** 	  }
1131:/opt/gcc-arm-none-eabi/arm-none-eabi/include/c++/10.3.1/bits/stl_algo.h ****     }
1132:/opt/gcc-arm-none-eabi/arm-none-eabi/include/c++/10.3.1/bits/stl_algo.h **** 
1133:/opt/gcc-arm-none-eabi/arm-none-eabi/include/c++/10.3.1/bits/stl_algo.h ****   /**
1134:/opt/gcc-arm-none-eabi/arm-none-eabi/include/c++/10.3.1/bits/stl_algo.h ****    *  This is an uglified reverse(_BidirectionalIterator,
1135:/opt/gcc-arm-none-eabi/arm-none-eabi/include/c++/10.3.1/bits/stl_algo.h ****    *                              _BidirectionalIterator)
1136:/opt/gcc-arm-none-eabi/arm-none-eabi/include/c++/10.3.1/bits/stl_algo.h ****    *  overloaded for random access iterators.
1137:/opt/gcc-arm-none-eabi/arm-none-eabi/include/c++/10.3.1/bits/stl_algo.h ****   */
1138:/opt/gcc-arm-none-eabi/arm-none-eabi/include/c++/10.3.1/bits/stl_algo.h ****   template<typename _RandomAccessIterator>
1139:/opt/gcc-arm-none-eabi/arm-none-eabi/include/c++/10.3.1/bits/stl_algo.h ****     _GLIBCXX20_CONSTEXPR
1140:/opt/gcc-arm-none-eabi/arm-none-eabi/include/c++/10.3.1/bits/stl_algo.h ****     void
1141:/opt/gcc-arm-none-eabi/arm-none-eabi/include/c++/10.3.1/bits/stl_algo.h ****     __reverse(_RandomAccessIterator __first, _RandomAccessIterator __last,
1142:/opt/gcc-arm-none-eabi/arm-none-eabi/include/c++/10.3.1/bits/stl_algo.h **** 	      random_access_iterator_tag)
1143:/opt/gcc-arm-none-eabi/arm-none-eabi/include/c++/10.3.1/bits/stl_algo.h ****     {
1144:/opt/gcc-arm-none-eabi/arm-none-eabi/include/c++/10.3.1/bits/stl_algo.h ****       if (__first == __last)
1145:/opt/gcc-arm-none-eabi/arm-none-eabi/include/c++/10.3.1/bits/stl_algo.h **** 	return;
1146:/opt/gcc-arm-none-eabi/arm-none-eabi/include/c++/10.3.1/bits/stl_algo.h ****       --__last;
1147:/opt/gcc-arm-none-eabi/arm-none-eabi/include/c++/10.3.1/bits/stl_algo.h ****       while (__first < __last)
1148:/opt/gcc-arm-none-eabi/arm-none-eabi/include/c++/10.3.1/bits/stl_algo.h **** 	{
1149:/opt/gcc-arm-none-eabi/arm-none-eabi/include/c++/10.3.1/bits/stl_algo.h **** 	  std::iter_swap(__first, __last);
1150:/opt/gcc-arm-none-eabi/arm-none-eabi/include/c++/10.3.1/bits/stl_algo.h **** 	  ++__first;
1151:/opt/gcc-arm-none-eabi/arm-none-eabi/include/c++/10.3.1/bits/stl_algo.h **** 	  --__last;
ARM GAS  /tmp/ccxBL0ey.s 			page 83


1152:/opt/gcc-arm-none-eabi/arm-none-eabi/include/c++/10.3.1/bits/stl_algo.h **** 	}
1153:/opt/gcc-arm-none-eabi/arm-none-eabi/include/c++/10.3.1/bits/stl_algo.h ****     }
1154:/opt/gcc-arm-none-eabi/arm-none-eabi/include/c++/10.3.1/bits/stl_algo.h **** 
1155:/opt/gcc-arm-none-eabi/arm-none-eabi/include/c++/10.3.1/bits/stl_algo.h ****   /**
1156:/opt/gcc-arm-none-eabi/arm-none-eabi/include/c++/10.3.1/bits/stl_algo.h ****    *  @brief Reverse a sequence.
1157:/opt/gcc-arm-none-eabi/arm-none-eabi/include/c++/10.3.1/bits/stl_algo.h ****    *  @ingroup mutating_algorithms
1158:/opt/gcc-arm-none-eabi/arm-none-eabi/include/c++/10.3.1/bits/stl_algo.h ****    *  @param  __first  A bidirectional iterator.
1159:/opt/gcc-arm-none-eabi/arm-none-eabi/include/c++/10.3.1/bits/stl_algo.h ****    *  @param  __last   A bidirectional iterator.
1160:/opt/gcc-arm-none-eabi/arm-none-eabi/include/c++/10.3.1/bits/stl_algo.h ****    *  @return   reverse() returns no value.
1161:/opt/gcc-arm-none-eabi/arm-none-eabi/include/c++/10.3.1/bits/stl_algo.h ****    *
1162:/opt/gcc-arm-none-eabi/arm-none-eabi/include/c++/10.3.1/bits/stl_algo.h ****    *  Reverses the order of the elements in the range @p [__first,__last),
1163:/opt/gcc-arm-none-eabi/arm-none-eabi/include/c++/10.3.1/bits/stl_algo.h ****    *  so that the first element becomes the last etc.
1164:/opt/gcc-arm-none-eabi/arm-none-eabi/include/c++/10.3.1/bits/stl_algo.h ****    *  For every @c i such that @p 0<=i<=(__last-__first)/2), @p reverse()
1165:/opt/gcc-arm-none-eabi/arm-none-eabi/include/c++/10.3.1/bits/stl_algo.h ****    *  swaps @p *(__first+i) and @p *(__last-(i+1))
1166:/opt/gcc-arm-none-eabi/arm-none-eabi/include/c++/10.3.1/bits/stl_algo.h ****   */
1167:/opt/gcc-arm-none-eabi/arm-none-eabi/include/c++/10.3.1/bits/stl_algo.h ****   template<typename _BidirectionalIterator>
1168:/opt/gcc-arm-none-eabi/arm-none-eabi/include/c++/10.3.1/bits/stl_algo.h ****     _GLIBCXX20_CONSTEXPR
1169:/opt/gcc-arm-none-eabi/arm-none-eabi/include/c++/10.3.1/bits/stl_algo.h ****     inline void
1170:/opt/gcc-arm-none-eabi/arm-none-eabi/include/c++/10.3.1/bits/stl_algo.h ****     reverse(_BidirectionalIterator __first, _BidirectionalIterator __last)
1171:/opt/gcc-arm-none-eabi/arm-none-eabi/include/c++/10.3.1/bits/stl_algo.h ****     {
1172:/opt/gcc-arm-none-eabi/arm-none-eabi/include/c++/10.3.1/bits/stl_algo.h ****       // concept requirements
1173:/opt/gcc-arm-none-eabi/arm-none-eabi/include/c++/10.3.1/bits/stl_algo.h ****       __glibcxx_function_requires(_Mutable_BidirectionalIteratorConcept<
1174:/opt/gcc-arm-none-eabi/arm-none-eabi/include/c++/10.3.1/bits/stl_algo.h **** 				  _BidirectionalIterator>)
1175:/opt/gcc-arm-none-eabi/arm-none-eabi/include/c++/10.3.1/bits/stl_algo.h ****       __glibcxx_requires_valid_range(__first, __last);
1176:/opt/gcc-arm-none-eabi/arm-none-eabi/include/c++/10.3.1/bits/stl_algo.h ****       std::__reverse(__first, __last, std::__iterator_category(__first));
1177:/opt/gcc-arm-none-eabi/arm-none-eabi/include/c++/10.3.1/bits/stl_algo.h ****     }
1178:/opt/gcc-arm-none-eabi/arm-none-eabi/include/c++/10.3.1/bits/stl_algo.h **** 
1179:/opt/gcc-arm-none-eabi/arm-none-eabi/include/c++/10.3.1/bits/stl_algo.h ****   /**
1180:/opt/gcc-arm-none-eabi/arm-none-eabi/include/c++/10.3.1/bits/stl_algo.h ****    *  @brief Copy a sequence, reversing its elements.
1181:/opt/gcc-arm-none-eabi/arm-none-eabi/include/c++/10.3.1/bits/stl_algo.h ****    *  @ingroup mutating_algorithms
1182:/opt/gcc-arm-none-eabi/arm-none-eabi/include/c++/10.3.1/bits/stl_algo.h ****    *  @param  __first   A bidirectional iterator.
1183:/opt/gcc-arm-none-eabi/arm-none-eabi/include/c++/10.3.1/bits/stl_algo.h ****    *  @param  __last    A bidirectional iterator.
1184:/opt/gcc-arm-none-eabi/arm-none-eabi/include/c++/10.3.1/bits/stl_algo.h ****    *  @param  __result  An output iterator.
1185:/opt/gcc-arm-none-eabi/arm-none-eabi/include/c++/10.3.1/bits/stl_algo.h ****    *  @return  An iterator designating the end of the resulting sequence.
1186:/opt/gcc-arm-none-eabi/arm-none-eabi/include/c++/10.3.1/bits/stl_algo.h ****    *
1187:/opt/gcc-arm-none-eabi/arm-none-eabi/include/c++/10.3.1/bits/stl_algo.h ****    *  Copies the elements in the range @p [__first,__last) to the
1188:/opt/gcc-arm-none-eabi/arm-none-eabi/include/c++/10.3.1/bits/stl_algo.h ****    *  range @p [__result,__result+(__last-__first)) such that the
1189:/opt/gcc-arm-none-eabi/arm-none-eabi/include/c++/10.3.1/bits/stl_algo.h ****    *  order of the elements is reversed.  For every @c i such that @p
1190:/opt/gcc-arm-none-eabi/arm-none-eabi/include/c++/10.3.1/bits/stl_algo.h ****    *  0<=i<=(__last-__first), @p reverse_copy() performs the
1191:/opt/gcc-arm-none-eabi/arm-none-eabi/include/c++/10.3.1/bits/stl_algo.h ****    *  assignment @p *(__result+(__last-__first)-1-i) = *(__first+i).
1192:/opt/gcc-arm-none-eabi/arm-none-eabi/include/c++/10.3.1/bits/stl_algo.h ****    *  The ranges @p [__first,__last) and @p
1193:/opt/gcc-arm-none-eabi/arm-none-eabi/include/c++/10.3.1/bits/stl_algo.h ****    *  [__result,__result+(__last-__first)) must not overlap.
1194:/opt/gcc-arm-none-eabi/arm-none-eabi/include/c++/10.3.1/bits/stl_algo.h ****   */
1195:/opt/gcc-arm-none-eabi/arm-none-eabi/include/c++/10.3.1/bits/stl_algo.h ****   template<typename _BidirectionalIterator, typename _OutputIterator>
1196:/opt/gcc-arm-none-eabi/arm-none-eabi/include/c++/10.3.1/bits/stl_algo.h ****     _GLIBCXX20_CONSTEXPR
1197:/opt/gcc-arm-none-eabi/arm-none-eabi/include/c++/10.3.1/bits/stl_algo.h ****     _OutputIterator
1198:/opt/gcc-arm-none-eabi/arm-none-eabi/include/c++/10.3.1/bits/stl_algo.h ****     reverse_copy(_BidirectionalIterator __first, _BidirectionalIterator __last,
1199:/opt/gcc-arm-none-eabi/arm-none-eabi/include/c++/10.3.1/bits/stl_algo.h **** 		 _OutputIterator __result)
1200:/opt/gcc-arm-none-eabi/arm-none-eabi/include/c++/10.3.1/bits/stl_algo.h ****     {
1201:/opt/gcc-arm-none-eabi/arm-none-eabi/include/c++/10.3.1/bits/stl_algo.h ****       // concept requirements
1202:/opt/gcc-arm-none-eabi/arm-none-eabi/include/c++/10.3.1/bits/stl_algo.h ****       __glibcxx_function_requires(_BidirectionalIteratorConcept<
1203:/opt/gcc-arm-none-eabi/arm-none-eabi/include/c++/10.3.1/bits/stl_algo.h **** 				  _BidirectionalIterator>)
1204:/opt/gcc-arm-none-eabi/arm-none-eabi/include/c++/10.3.1/bits/stl_algo.h ****       __glibcxx_function_requires(_OutputIteratorConcept<_OutputIterator,
1205:/opt/gcc-arm-none-eabi/arm-none-eabi/include/c++/10.3.1/bits/stl_algo.h **** 		typename iterator_traits<_BidirectionalIterator>::value_type>)
1206:/opt/gcc-arm-none-eabi/arm-none-eabi/include/c++/10.3.1/bits/stl_algo.h ****       __glibcxx_requires_valid_range(__first, __last);
1207:/opt/gcc-arm-none-eabi/arm-none-eabi/include/c++/10.3.1/bits/stl_algo.h **** 
1208:/opt/gcc-arm-none-eabi/arm-none-eabi/include/c++/10.3.1/bits/stl_algo.h ****       while (__first != __last)
ARM GAS  /tmp/ccxBL0ey.s 			page 84


1209:/opt/gcc-arm-none-eabi/arm-none-eabi/include/c++/10.3.1/bits/stl_algo.h **** 	{
1210:/opt/gcc-arm-none-eabi/arm-none-eabi/include/c++/10.3.1/bits/stl_algo.h **** 	  --__last;
1211:/opt/gcc-arm-none-eabi/arm-none-eabi/include/c++/10.3.1/bits/stl_algo.h **** 	  *__result = *__last;
1212:/opt/gcc-arm-none-eabi/arm-none-eabi/include/c++/10.3.1/bits/stl_algo.h **** 	  ++__result;
1213:/opt/gcc-arm-none-eabi/arm-none-eabi/include/c++/10.3.1/bits/stl_algo.h **** 	}
1214:/opt/gcc-arm-none-eabi/arm-none-eabi/include/c++/10.3.1/bits/stl_algo.h ****       return __result;
1215:/opt/gcc-arm-none-eabi/arm-none-eabi/include/c++/10.3.1/bits/stl_algo.h ****     }
1216:/opt/gcc-arm-none-eabi/arm-none-eabi/include/c++/10.3.1/bits/stl_algo.h **** 
1217:/opt/gcc-arm-none-eabi/arm-none-eabi/include/c++/10.3.1/bits/stl_algo.h ****   /**
1218:/opt/gcc-arm-none-eabi/arm-none-eabi/include/c++/10.3.1/bits/stl_algo.h ****    *  This is a helper function for the rotate algorithm specialized on RAIs.
1219:/opt/gcc-arm-none-eabi/arm-none-eabi/include/c++/10.3.1/bits/stl_algo.h ****    *  It returns the greatest common divisor of two integer values.
1220:/opt/gcc-arm-none-eabi/arm-none-eabi/include/c++/10.3.1/bits/stl_algo.h ****   */
1221:/opt/gcc-arm-none-eabi/arm-none-eabi/include/c++/10.3.1/bits/stl_algo.h ****   template<typename _EuclideanRingElement>
1222:/opt/gcc-arm-none-eabi/arm-none-eabi/include/c++/10.3.1/bits/stl_algo.h ****     _GLIBCXX20_CONSTEXPR
1223:/opt/gcc-arm-none-eabi/arm-none-eabi/include/c++/10.3.1/bits/stl_algo.h ****     _EuclideanRingElement
1224:/opt/gcc-arm-none-eabi/arm-none-eabi/include/c++/10.3.1/bits/stl_algo.h ****     __gcd(_EuclideanRingElement __m, _EuclideanRingElement __n)
1225:/opt/gcc-arm-none-eabi/arm-none-eabi/include/c++/10.3.1/bits/stl_algo.h ****     {
1226:/opt/gcc-arm-none-eabi/arm-none-eabi/include/c++/10.3.1/bits/stl_algo.h ****       while (__n != 0)
1227:/opt/gcc-arm-none-eabi/arm-none-eabi/include/c++/10.3.1/bits/stl_algo.h **** 	{
1228:/opt/gcc-arm-none-eabi/arm-none-eabi/include/c++/10.3.1/bits/stl_algo.h **** 	  _EuclideanRingElement __t = __m % __n;
1229:/opt/gcc-arm-none-eabi/arm-none-eabi/include/c++/10.3.1/bits/stl_algo.h **** 	  __m = __n;
1230:/opt/gcc-arm-none-eabi/arm-none-eabi/include/c++/10.3.1/bits/stl_algo.h **** 	  __n = __t;
1231:/opt/gcc-arm-none-eabi/arm-none-eabi/include/c++/10.3.1/bits/stl_algo.h **** 	}
1232:/opt/gcc-arm-none-eabi/arm-none-eabi/include/c++/10.3.1/bits/stl_algo.h ****       return __m;
1233:/opt/gcc-arm-none-eabi/arm-none-eabi/include/c++/10.3.1/bits/stl_algo.h ****     }
1234:/opt/gcc-arm-none-eabi/arm-none-eabi/include/c++/10.3.1/bits/stl_algo.h **** 
1235:/opt/gcc-arm-none-eabi/arm-none-eabi/include/c++/10.3.1/bits/stl_algo.h ****   inline namespace _V2
1236:/opt/gcc-arm-none-eabi/arm-none-eabi/include/c++/10.3.1/bits/stl_algo.h ****   {
1237:/opt/gcc-arm-none-eabi/arm-none-eabi/include/c++/10.3.1/bits/stl_algo.h **** 
1238:/opt/gcc-arm-none-eabi/arm-none-eabi/include/c++/10.3.1/bits/stl_algo.h ****   /// This is a helper function for the rotate algorithm.
1239:/opt/gcc-arm-none-eabi/arm-none-eabi/include/c++/10.3.1/bits/stl_algo.h ****   template<typename _ForwardIterator>
1240:/opt/gcc-arm-none-eabi/arm-none-eabi/include/c++/10.3.1/bits/stl_algo.h ****     _GLIBCXX20_CONSTEXPR
1241:/opt/gcc-arm-none-eabi/arm-none-eabi/include/c++/10.3.1/bits/stl_algo.h ****     _ForwardIterator
1242:/opt/gcc-arm-none-eabi/arm-none-eabi/include/c++/10.3.1/bits/stl_algo.h ****     __rotate(_ForwardIterator __first,
1243:/opt/gcc-arm-none-eabi/arm-none-eabi/include/c++/10.3.1/bits/stl_algo.h **** 	     _ForwardIterator __middle,
1244:/opt/gcc-arm-none-eabi/arm-none-eabi/include/c++/10.3.1/bits/stl_algo.h **** 	     _ForwardIterator __last,
1245:/opt/gcc-arm-none-eabi/arm-none-eabi/include/c++/10.3.1/bits/stl_algo.h **** 	     forward_iterator_tag)
1246:/opt/gcc-arm-none-eabi/arm-none-eabi/include/c++/10.3.1/bits/stl_algo.h ****     {
1247:/opt/gcc-arm-none-eabi/arm-none-eabi/include/c++/10.3.1/bits/stl_algo.h ****       if (__first == __middle)
1248:/opt/gcc-arm-none-eabi/arm-none-eabi/include/c++/10.3.1/bits/stl_algo.h **** 	return __last;
1249:/opt/gcc-arm-none-eabi/arm-none-eabi/include/c++/10.3.1/bits/stl_algo.h ****       else if (__last == __middle)
1250:/opt/gcc-arm-none-eabi/arm-none-eabi/include/c++/10.3.1/bits/stl_algo.h **** 	return __first;
1251:/opt/gcc-arm-none-eabi/arm-none-eabi/include/c++/10.3.1/bits/stl_algo.h **** 
1252:/opt/gcc-arm-none-eabi/arm-none-eabi/include/c++/10.3.1/bits/stl_algo.h ****       _ForwardIterator __first2 = __middle;
1253:/opt/gcc-arm-none-eabi/arm-none-eabi/include/c++/10.3.1/bits/stl_algo.h ****       do
1254:/opt/gcc-arm-none-eabi/arm-none-eabi/include/c++/10.3.1/bits/stl_algo.h **** 	{
1255:/opt/gcc-arm-none-eabi/arm-none-eabi/include/c++/10.3.1/bits/stl_algo.h **** 	  std::iter_swap(__first, __first2);
1256:/opt/gcc-arm-none-eabi/arm-none-eabi/include/c++/10.3.1/bits/stl_algo.h **** 	  ++__first;
1257:/opt/gcc-arm-none-eabi/arm-none-eabi/include/c++/10.3.1/bits/stl_algo.h **** 	  ++__first2;
1258:/opt/gcc-arm-none-eabi/arm-none-eabi/include/c++/10.3.1/bits/stl_algo.h **** 	  if (__first == __middle)
1259:/opt/gcc-arm-none-eabi/arm-none-eabi/include/c++/10.3.1/bits/stl_algo.h **** 	    __middle = __first2;
1260:/opt/gcc-arm-none-eabi/arm-none-eabi/include/c++/10.3.1/bits/stl_algo.h **** 	}
1261:/opt/gcc-arm-none-eabi/arm-none-eabi/include/c++/10.3.1/bits/stl_algo.h ****       while (__first2 != __last);
1262:/opt/gcc-arm-none-eabi/arm-none-eabi/include/c++/10.3.1/bits/stl_algo.h **** 
1263:/opt/gcc-arm-none-eabi/arm-none-eabi/include/c++/10.3.1/bits/stl_algo.h ****       _ForwardIterator __ret = __first;
1264:/opt/gcc-arm-none-eabi/arm-none-eabi/include/c++/10.3.1/bits/stl_algo.h **** 
1265:/opt/gcc-arm-none-eabi/arm-none-eabi/include/c++/10.3.1/bits/stl_algo.h ****       __first2 = __middle;
ARM GAS  /tmp/ccxBL0ey.s 			page 85


1266:/opt/gcc-arm-none-eabi/arm-none-eabi/include/c++/10.3.1/bits/stl_algo.h **** 
1267:/opt/gcc-arm-none-eabi/arm-none-eabi/include/c++/10.3.1/bits/stl_algo.h ****       while (__first2 != __last)
1268:/opt/gcc-arm-none-eabi/arm-none-eabi/include/c++/10.3.1/bits/stl_algo.h **** 	{
1269:/opt/gcc-arm-none-eabi/arm-none-eabi/include/c++/10.3.1/bits/stl_algo.h **** 	  std::iter_swap(__first, __first2);
1270:/opt/gcc-arm-none-eabi/arm-none-eabi/include/c++/10.3.1/bits/stl_algo.h **** 	  ++__first;
1271:/opt/gcc-arm-none-eabi/arm-none-eabi/include/c++/10.3.1/bits/stl_algo.h **** 	  ++__first2;
1272:/opt/gcc-arm-none-eabi/arm-none-eabi/include/c++/10.3.1/bits/stl_algo.h **** 	  if (__first == __middle)
1273:/opt/gcc-arm-none-eabi/arm-none-eabi/include/c++/10.3.1/bits/stl_algo.h **** 	    __middle = __first2;
1274:/opt/gcc-arm-none-eabi/arm-none-eabi/include/c++/10.3.1/bits/stl_algo.h **** 	  else if (__first2 == __last)
1275:/opt/gcc-arm-none-eabi/arm-none-eabi/include/c++/10.3.1/bits/stl_algo.h **** 	    __first2 = __middle;
1276:/opt/gcc-arm-none-eabi/arm-none-eabi/include/c++/10.3.1/bits/stl_algo.h **** 	}
1277:/opt/gcc-arm-none-eabi/arm-none-eabi/include/c++/10.3.1/bits/stl_algo.h ****       return __ret;
1278:/opt/gcc-arm-none-eabi/arm-none-eabi/include/c++/10.3.1/bits/stl_algo.h ****     }
1279:/opt/gcc-arm-none-eabi/arm-none-eabi/include/c++/10.3.1/bits/stl_algo.h **** 
1280:/opt/gcc-arm-none-eabi/arm-none-eabi/include/c++/10.3.1/bits/stl_algo.h ****    /// This is a helper function for the rotate algorithm.
1281:/opt/gcc-arm-none-eabi/arm-none-eabi/include/c++/10.3.1/bits/stl_algo.h ****   template<typename _BidirectionalIterator>
1282:/opt/gcc-arm-none-eabi/arm-none-eabi/include/c++/10.3.1/bits/stl_algo.h ****     _GLIBCXX20_CONSTEXPR
1283:/opt/gcc-arm-none-eabi/arm-none-eabi/include/c++/10.3.1/bits/stl_algo.h ****     _BidirectionalIterator
1284:/opt/gcc-arm-none-eabi/arm-none-eabi/include/c++/10.3.1/bits/stl_algo.h ****     __rotate(_BidirectionalIterator __first,
1285:/opt/gcc-arm-none-eabi/arm-none-eabi/include/c++/10.3.1/bits/stl_algo.h **** 	     _BidirectionalIterator __middle,
1286:/opt/gcc-arm-none-eabi/arm-none-eabi/include/c++/10.3.1/bits/stl_algo.h **** 	     _BidirectionalIterator __last,
1287:/opt/gcc-arm-none-eabi/arm-none-eabi/include/c++/10.3.1/bits/stl_algo.h **** 	      bidirectional_iterator_tag)
1288:/opt/gcc-arm-none-eabi/arm-none-eabi/include/c++/10.3.1/bits/stl_algo.h ****     {
1289:/opt/gcc-arm-none-eabi/arm-none-eabi/include/c++/10.3.1/bits/stl_algo.h ****       // concept requirements
1290:/opt/gcc-arm-none-eabi/arm-none-eabi/include/c++/10.3.1/bits/stl_algo.h ****       __glibcxx_function_requires(_Mutable_BidirectionalIteratorConcept<
1291:/opt/gcc-arm-none-eabi/arm-none-eabi/include/c++/10.3.1/bits/stl_algo.h **** 				  _BidirectionalIterator>)
1292:/opt/gcc-arm-none-eabi/arm-none-eabi/include/c++/10.3.1/bits/stl_algo.h **** 
1293:/opt/gcc-arm-none-eabi/arm-none-eabi/include/c++/10.3.1/bits/stl_algo.h ****       if (__first == __middle)
1294:/opt/gcc-arm-none-eabi/arm-none-eabi/include/c++/10.3.1/bits/stl_algo.h **** 	return __last;
1295:/opt/gcc-arm-none-eabi/arm-none-eabi/include/c++/10.3.1/bits/stl_algo.h ****       else if (__last == __middle)
1296:/opt/gcc-arm-none-eabi/arm-none-eabi/include/c++/10.3.1/bits/stl_algo.h **** 	return __first;
1297:/opt/gcc-arm-none-eabi/arm-none-eabi/include/c++/10.3.1/bits/stl_algo.h **** 
1298:/opt/gcc-arm-none-eabi/arm-none-eabi/include/c++/10.3.1/bits/stl_algo.h ****       std::__reverse(__first,  __middle, bidirectional_iterator_tag());
1299:/opt/gcc-arm-none-eabi/arm-none-eabi/include/c++/10.3.1/bits/stl_algo.h ****       std::__reverse(__middle, __last,   bidirectional_iterator_tag());
1300:/opt/gcc-arm-none-eabi/arm-none-eabi/include/c++/10.3.1/bits/stl_algo.h **** 
1301:/opt/gcc-arm-none-eabi/arm-none-eabi/include/c++/10.3.1/bits/stl_algo.h ****       while (__first != __middle && __middle != __last)
1302:/opt/gcc-arm-none-eabi/arm-none-eabi/include/c++/10.3.1/bits/stl_algo.h **** 	{
1303:/opt/gcc-arm-none-eabi/arm-none-eabi/include/c++/10.3.1/bits/stl_algo.h **** 	  std::iter_swap(__first, --__last);
1304:/opt/gcc-arm-none-eabi/arm-none-eabi/include/c++/10.3.1/bits/stl_algo.h **** 	  ++__first;
1305:/opt/gcc-arm-none-eabi/arm-none-eabi/include/c++/10.3.1/bits/stl_algo.h **** 	}
1306:/opt/gcc-arm-none-eabi/arm-none-eabi/include/c++/10.3.1/bits/stl_algo.h **** 
1307:/opt/gcc-arm-none-eabi/arm-none-eabi/include/c++/10.3.1/bits/stl_algo.h ****       if (__first == __middle)
1308:/opt/gcc-arm-none-eabi/arm-none-eabi/include/c++/10.3.1/bits/stl_algo.h **** 	{
1309:/opt/gcc-arm-none-eabi/arm-none-eabi/include/c++/10.3.1/bits/stl_algo.h **** 	  std::__reverse(__middle, __last,   bidirectional_iterator_tag());
1310:/opt/gcc-arm-none-eabi/arm-none-eabi/include/c++/10.3.1/bits/stl_algo.h **** 	  return __last;
1311:/opt/gcc-arm-none-eabi/arm-none-eabi/include/c++/10.3.1/bits/stl_algo.h **** 	}
1312:/opt/gcc-arm-none-eabi/arm-none-eabi/include/c++/10.3.1/bits/stl_algo.h ****       else
1313:/opt/gcc-arm-none-eabi/arm-none-eabi/include/c++/10.3.1/bits/stl_algo.h **** 	{
1314:/opt/gcc-arm-none-eabi/arm-none-eabi/include/c++/10.3.1/bits/stl_algo.h **** 	  std::__reverse(__first,  __middle, bidirectional_iterator_tag());
1315:/opt/gcc-arm-none-eabi/arm-none-eabi/include/c++/10.3.1/bits/stl_algo.h **** 	  return __first;
1316:/opt/gcc-arm-none-eabi/arm-none-eabi/include/c++/10.3.1/bits/stl_algo.h **** 	}
1317:/opt/gcc-arm-none-eabi/arm-none-eabi/include/c++/10.3.1/bits/stl_algo.h ****     }
1318:/opt/gcc-arm-none-eabi/arm-none-eabi/include/c++/10.3.1/bits/stl_algo.h **** 
1319:/opt/gcc-arm-none-eabi/arm-none-eabi/include/c++/10.3.1/bits/stl_algo.h ****   /// This is a helper function for the rotate algorithm.
1320:/opt/gcc-arm-none-eabi/arm-none-eabi/include/c++/10.3.1/bits/stl_algo.h ****   template<typename _RandomAccessIterator>
1321:/opt/gcc-arm-none-eabi/arm-none-eabi/include/c++/10.3.1/bits/stl_algo.h ****     _GLIBCXX20_CONSTEXPR
1322:/opt/gcc-arm-none-eabi/arm-none-eabi/include/c++/10.3.1/bits/stl_algo.h ****     _RandomAccessIterator
ARM GAS  /tmp/ccxBL0ey.s 			page 86


1323:/opt/gcc-arm-none-eabi/arm-none-eabi/include/c++/10.3.1/bits/stl_algo.h ****     __rotate(_RandomAccessIterator __first,
1324:/opt/gcc-arm-none-eabi/arm-none-eabi/include/c++/10.3.1/bits/stl_algo.h **** 	     _RandomAccessIterator __middle,
1325:/opt/gcc-arm-none-eabi/arm-none-eabi/include/c++/10.3.1/bits/stl_algo.h **** 	     _RandomAccessIterator __last,
1326:/opt/gcc-arm-none-eabi/arm-none-eabi/include/c++/10.3.1/bits/stl_algo.h **** 	     random_access_iterator_tag)
1327:/opt/gcc-arm-none-eabi/arm-none-eabi/include/c++/10.3.1/bits/stl_algo.h ****     {
1328:/opt/gcc-arm-none-eabi/arm-none-eabi/include/c++/10.3.1/bits/stl_algo.h ****       // concept requirements
1329:/opt/gcc-arm-none-eabi/arm-none-eabi/include/c++/10.3.1/bits/stl_algo.h ****       __glibcxx_function_requires(_Mutable_RandomAccessIteratorConcept<
1330:/opt/gcc-arm-none-eabi/arm-none-eabi/include/c++/10.3.1/bits/stl_algo.h **** 				  _RandomAccessIterator>)
1331:/opt/gcc-arm-none-eabi/arm-none-eabi/include/c++/10.3.1/bits/stl_algo.h **** 
1332:/opt/gcc-arm-none-eabi/arm-none-eabi/include/c++/10.3.1/bits/stl_algo.h ****       if (__first == __middle)
1333:/opt/gcc-arm-none-eabi/arm-none-eabi/include/c++/10.3.1/bits/stl_algo.h **** 	return __last;
1334:/opt/gcc-arm-none-eabi/arm-none-eabi/include/c++/10.3.1/bits/stl_algo.h ****       else if (__last == __middle)
1335:/opt/gcc-arm-none-eabi/arm-none-eabi/include/c++/10.3.1/bits/stl_algo.h **** 	return __first;
1336:/opt/gcc-arm-none-eabi/arm-none-eabi/include/c++/10.3.1/bits/stl_algo.h **** 
1337:/opt/gcc-arm-none-eabi/arm-none-eabi/include/c++/10.3.1/bits/stl_algo.h ****       typedef typename iterator_traits<_RandomAccessIterator>::difference_type
1338:/opt/gcc-arm-none-eabi/arm-none-eabi/include/c++/10.3.1/bits/stl_algo.h **** 	_Distance;
1339:/opt/gcc-arm-none-eabi/arm-none-eabi/include/c++/10.3.1/bits/stl_algo.h ****       typedef typename iterator_traits<_RandomAccessIterator>::value_type
1340:/opt/gcc-arm-none-eabi/arm-none-eabi/include/c++/10.3.1/bits/stl_algo.h **** 	_ValueType;
1341:/opt/gcc-arm-none-eabi/arm-none-eabi/include/c++/10.3.1/bits/stl_algo.h **** 
1342:/opt/gcc-arm-none-eabi/arm-none-eabi/include/c++/10.3.1/bits/stl_algo.h ****       _Distance __n = __last   - __first;
1343:/opt/gcc-arm-none-eabi/arm-none-eabi/include/c++/10.3.1/bits/stl_algo.h ****       _Distance __k = __middle - __first;
1344:/opt/gcc-arm-none-eabi/arm-none-eabi/include/c++/10.3.1/bits/stl_algo.h **** 
1345:/opt/gcc-arm-none-eabi/arm-none-eabi/include/c++/10.3.1/bits/stl_algo.h ****       if (__k == __n - __k)
1346:/opt/gcc-arm-none-eabi/arm-none-eabi/include/c++/10.3.1/bits/stl_algo.h **** 	{
1347:/opt/gcc-arm-none-eabi/arm-none-eabi/include/c++/10.3.1/bits/stl_algo.h **** 	  std::swap_ranges(__first, __middle, __middle);
1348:/opt/gcc-arm-none-eabi/arm-none-eabi/include/c++/10.3.1/bits/stl_algo.h **** 	  return __middle;
1349:/opt/gcc-arm-none-eabi/arm-none-eabi/include/c++/10.3.1/bits/stl_algo.h **** 	}
1350:/opt/gcc-arm-none-eabi/arm-none-eabi/include/c++/10.3.1/bits/stl_algo.h **** 
1351:/opt/gcc-arm-none-eabi/arm-none-eabi/include/c++/10.3.1/bits/stl_algo.h ****       _RandomAccessIterator __p = __first;
1352:/opt/gcc-arm-none-eabi/arm-none-eabi/include/c++/10.3.1/bits/stl_algo.h ****       _RandomAccessIterator __ret = __first + (__last - __middle);
1353:/opt/gcc-arm-none-eabi/arm-none-eabi/include/c++/10.3.1/bits/stl_algo.h **** 
1354:/opt/gcc-arm-none-eabi/arm-none-eabi/include/c++/10.3.1/bits/stl_algo.h ****       for (;;)
1355:/opt/gcc-arm-none-eabi/arm-none-eabi/include/c++/10.3.1/bits/stl_algo.h **** 	{
1356:/opt/gcc-arm-none-eabi/arm-none-eabi/include/c++/10.3.1/bits/stl_algo.h **** 	  if (__k < __n - __k)
1357:/opt/gcc-arm-none-eabi/arm-none-eabi/include/c++/10.3.1/bits/stl_algo.h **** 	    {
1358:/opt/gcc-arm-none-eabi/arm-none-eabi/include/c++/10.3.1/bits/stl_algo.h **** 	      if (__is_pod(_ValueType) && __k == 1)
1359:/opt/gcc-arm-none-eabi/arm-none-eabi/include/c++/10.3.1/bits/stl_algo.h **** 		{
1360:/opt/gcc-arm-none-eabi/arm-none-eabi/include/c++/10.3.1/bits/stl_algo.h **** 		  _ValueType __t = _GLIBCXX_MOVE(*__p);
1361:/opt/gcc-arm-none-eabi/arm-none-eabi/include/c++/10.3.1/bits/stl_algo.h **** 		  _GLIBCXX_MOVE3(__p + 1, __p + __n, __p);
1362:/opt/gcc-arm-none-eabi/arm-none-eabi/include/c++/10.3.1/bits/stl_algo.h **** 		  *(__p + __n - 1) = _GLIBCXX_MOVE(__t);
1363:/opt/gcc-arm-none-eabi/arm-none-eabi/include/c++/10.3.1/bits/stl_algo.h **** 		  return __ret;
1364:/opt/gcc-arm-none-eabi/arm-none-eabi/include/c++/10.3.1/bits/stl_algo.h **** 		}
1365:/opt/gcc-arm-none-eabi/arm-none-eabi/include/c++/10.3.1/bits/stl_algo.h **** 	      _RandomAccessIterator __q = __p + __k;
1366:/opt/gcc-arm-none-eabi/arm-none-eabi/include/c++/10.3.1/bits/stl_algo.h **** 	      for (_Distance __i = 0; __i < __n - __k; ++ __i)
1367:/opt/gcc-arm-none-eabi/arm-none-eabi/include/c++/10.3.1/bits/stl_algo.h **** 		{
1368:/opt/gcc-arm-none-eabi/arm-none-eabi/include/c++/10.3.1/bits/stl_algo.h **** 		  std::iter_swap(__p, __q);
1369:/opt/gcc-arm-none-eabi/arm-none-eabi/include/c++/10.3.1/bits/stl_algo.h **** 		  ++__p;
1370:/opt/gcc-arm-none-eabi/arm-none-eabi/include/c++/10.3.1/bits/stl_algo.h **** 		  ++__q;
1371:/opt/gcc-arm-none-eabi/arm-none-eabi/include/c++/10.3.1/bits/stl_algo.h **** 		}
1372:/opt/gcc-arm-none-eabi/arm-none-eabi/include/c++/10.3.1/bits/stl_algo.h **** 	      __n %= __k;
1373:/opt/gcc-arm-none-eabi/arm-none-eabi/include/c++/10.3.1/bits/stl_algo.h **** 	      if (__n == 0)
1374:/opt/gcc-arm-none-eabi/arm-none-eabi/include/c++/10.3.1/bits/stl_algo.h **** 		return __ret;
1375:/opt/gcc-arm-none-eabi/arm-none-eabi/include/c++/10.3.1/bits/stl_algo.h **** 	      std::swap(__n, __k);
1376:/opt/gcc-arm-none-eabi/arm-none-eabi/include/c++/10.3.1/bits/stl_algo.h **** 	      __k = __n - __k;
1377:/opt/gcc-arm-none-eabi/arm-none-eabi/include/c++/10.3.1/bits/stl_algo.h **** 	    }
1378:/opt/gcc-arm-none-eabi/arm-none-eabi/include/c++/10.3.1/bits/stl_algo.h **** 	  else
1379:/opt/gcc-arm-none-eabi/arm-none-eabi/include/c++/10.3.1/bits/stl_algo.h **** 	    {
ARM GAS  /tmp/ccxBL0ey.s 			page 87


1380:/opt/gcc-arm-none-eabi/arm-none-eabi/include/c++/10.3.1/bits/stl_algo.h **** 	      __k = __n - __k;
1381:/opt/gcc-arm-none-eabi/arm-none-eabi/include/c++/10.3.1/bits/stl_algo.h **** 	      if (__is_pod(_ValueType) && __k == 1)
1382:/opt/gcc-arm-none-eabi/arm-none-eabi/include/c++/10.3.1/bits/stl_algo.h **** 		{
1383:/opt/gcc-arm-none-eabi/arm-none-eabi/include/c++/10.3.1/bits/stl_algo.h **** 		  _ValueType __t = _GLIBCXX_MOVE(*(__p + __n - 1));
1384:/opt/gcc-arm-none-eabi/arm-none-eabi/include/c++/10.3.1/bits/stl_algo.h **** 		  _GLIBCXX_MOVE_BACKWARD3(__p, __p + __n - 1, __p + __n);
1385:/opt/gcc-arm-none-eabi/arm-none-eabi/include/c++/10.3.1/bits/stl_algo.h **** 		  *__p = _GLIBCXX_MOVE(__t);
1386:/opt/gcc-arm-none-eabi/arm-none-eabi/include/c++/10.3.1/bits/stl_algo.h **** 		  return __ret;
1387:/opt/gcc-arm-none-eabi/arm-none-eabi/include/c++/10.3.1/bits/stl_algo.h **** 		}
1388:/opt/gcc-arm-none-eabi/arm-none-eabi/include/c++/10.3.1/bits/stl_algo.h **** 	      _RandomAccessIterator __q = __p + __n;
1389:/opt/gcc-arm-none-eabi/arm-none-eabi/include/c++/10.3.1/bits/stl_algo.h **** 	      __p = __q - __k;
1390:/opt/gcc-arm-none-eabi/arm-none-eabi/include/c++/10.3.1/bits/stl_algo.h **** 	      for (_Distance __i = 0; __i < __n - __k; ++ __i)
1391:/opt/gcc-arm-none-eabi/arm-none-eabi/include/c++/10.3.1/bits/stl_algo.h **** 		{
1392:/opt/gcc-arm-none-eabi/arm-none-eabi/include/c++/10.3.1/bits/stl_algo.h **** 		  --__p;
1393:/opt/gcc-arm-none-eabi/arm-none-eabi/include/c++/10.3.1/bits/stl_algo.h **** 		  --__q;
1394:/opt/gcc-arm-none-eabi/arm-none-eabi/include/c++/10.3.1/bits/stl_algo.h **** 		  std::iter_swap(__p, __q);
1395:/opt/gcc-arm-none-eabi/arm-none-eabi/include/c++/10.3.1/bits/stl_algo.h **** 		}
1396:/opt/gcc-arm-none-eabi/arm-none-eabi/include/c++/10.3.1/bits/stl_algo.h **** 	      __n %= __k;
1397:/opt/gcc-arm-none-eabi/arm-none-eabi/include/c++/10.3.1/bits/stl_algo.h **** 	      if (__n == 0)
1398:/opt/gcc-arm-none-eabi/arm-none-eabi/include/c++/10.3.1/bits/stl_algo.h **** 		return __ret;
1399:/opt/gcc-arm-none-eabi/arm-none-eabi/include/c++/10.3.1/bits/stl_algo.h **** 	      std::swap(__n, __k);
1400:/opt/gcc-arm-none-eabi/arm-none-eabi/include/c++/10.3.1/bits/stl_algo.h **** 	    }
1401:/opt/gcc-arm-none-eabi/arm-none-eabi/include/c++/10.3.1/bits/stl_algo.h **** 	}
1402:/opt/gcc-arm-none-eabi/arm-none-eabi/include/c++/10.3.1/bits/stl_algo.h ****     }
1403:/opt/gcc-arm-none-eabi/arm-none-eabi/include/c++/10.3.1/bits/stl_algo.h **** 
1404:/opt/gcc-arm-none-eabi/arm-none-eabi/include/c++/10.3.1/bits/stl_algo.h ****    // _GLIBCXX_RESOLVE_LIB_DEFECTS
1405:/opt/gcc-arm-none-eabi/arm-none-eabi/include/c++/10.3.1/bits/stl_algo.h ****    // DR 488. rotate throws away useful information
1406:/opt/gcc-arm-none-eabi/arm-none-eabi/include/c++/10.3.1/bits/stl_algo.h ****   /**
1407:/opt/gcc-arm-none-eabi/arm-none-eabi/include/c++/10.3.1/bits/stl_algo.h ****    *  @brief Rotate the elements of a sequence.
1408:/opt/gcc-arm-none-eabi/arm-none-eabi/include/c++/10.3.1/bits/stl_algo.h ****    *  @ingroup mutating_algorithms
1409:/opt/gcc-arm-none-eabi/arm-none-eabi/include/c++/10.3.1/bits/stl_algo.h ****    *  @param  __first   A forward iterator.
1410:/opt/gcc-arm-none-eabi/arm-none-eabi/include/c++/10.3.1/bits/stl_algo.h ****    *  @param  __middle  A forward iterator.
1411:/opt/gcc-arm-none-eabi/arm-none-eabi/include/c++/10.3.1/bits/stl_algo.h ****    *  @param  __last    A forward iterator.
1412:/opt/gcc-arm-none-eabi/arm-none-eabi/include/c++/10.3.1/bits/stl_algo.h ****    *  @return  first + (last - middle).
1413:/opt/gcc-arm-none-eabi/arm-none-eabi/include/c++/10.3.1/bits/stl_algo.h ****    *
1414:/opt/gcc-arm-none-eabi/arm-none-eabi/include/c++/10.3.1/bits/stl_algo.h ****    *  Rotates the elements of the range @p [__first,__last) by 
1415:/opt/gcc-arm-none-eabi/arm-none-eabi/include/c++/10.3.1/bits/stl_algo.h ****    *  @p (__middle - __first) positions so that the element at @p __middle
1416:/opt/gcc-arm-none-eabi/arm-none-eabi/include/c++/10.3.1/bits/stl_algo.h ****    *  is moved to @p __first, the element at @p __middle+1 is moved to
1417:/opt/gcc-arm-none-eabi/arm-none-eabi/include/c++/10.3.1/bits/stl_algo.h ****    *  @p __first+1 and so on for each element in the range
1418:/opt/gcc-arm-none-eabi/arm-none-eabi/include/c++/10.3.1/bits/stl_algo.h ****    *  @p [__first,__last).
1419:/opt/gcc-arm-none-eabi/arm-none-eabi/include/c++/10.3.1/bits/stl_algo.h ****    *
1420:/opt/gcc-arm-none-eabi/arm-none-eabi/include/c++/10.3.1/bits/stl_algo.h ****    *  This effectively swaps the ranges @p [__first,__middle) and
1421:/opt/gcc-arm-none-eabi/arm-none-eabi/include/c++/10.3.1/bits/stl_algo.h ****    *  @p [__middle,__last).
1422:/opt/gcc-arm-none-eabi/arm-none-eabi/include/c++/10.3.1/bits/stl_algo.h ****    *
1423:/opt/gcc-arm-none-eabi/arm-none-eabi/include/c++/10.3.1/bits/stl_algo.h ****    *  Performs
1424:/opt/gcc-arm-none-eabi/arm-none-eabi/include/c++/10.3.1/bits/stl_algo.h ****    *   @p *(__first+(n+(__last-__middle))%(__last-__first))=*(__first+n)
1425:/opt/gcc-arm-none-eabi/arm-none-eabi/include/c++/10.3.1/bits/stl_algo.h ****    *  for each @p n in the range @p [0,__last-__first).
1426:/opt/gcc-arm-none-eabi/arm-none-eabi/include/c++/10.3.1/bits/stl_algo.h ****   */
1427:/opt/gcc-arm-none-eabi/arm-none-eabi/include/c++/10.3.1/bits/stl_algo.h ****   template<typename _ForwardIterator>
1428:/opt/gcc-arm-none-eabi/arm-none-eabi/include/c++/10.3.1/bits/stl_algo.h ****     _GLIBCXX20_CONSTEXPR
1429:/opt/gcc-arm-none-eabi/arm-none-eabi/include/c++/10.3.1/bits/stl_algo.h ****     inline _ForwardIterator
1430:/opt/gcc-arm-none-eabi/arm-none-eabi/include/c++/10.3.1/bits/stl_algo.h ****     rotate(_ForwardIterator __first, _ForwardIterator __middle,
1431:/opt/gcc-arm-none-eabi/arm-none-eabi/include/c++/10.3.1/bits/stl_algo.h **** 	   _ForwardIterator __last)
1432:/opt/gcc-arm-none-eabi/arm-none-eabi/include/c++/10.3.1/bits/stl_algo.h ****     {
1433:/opt/gcc-arm-none-eabi/arm-none-eabi/include/c++/10.3.1/bits/stl_algo.h ****       // concept requirements
1434:/opt/gcc-arm-none-eabi/arm-none-eabi/include/c++/10.3.1/bits/stl_algo.h ****       __glibcxx_function_requires(_Mutable_ForwardIteratorConcept<
1435:/opt/gcc-arm-none-eabi/arm-none-eabi/include/c++/10.3.1/bits/stl_algo.h **** 				  _ForwardIterator>)
1436:/opt/gcc-arm-none-eabi/arm-none-eabi/include/c++/10.3.1/bits/stl_algo.h ****       __glibcxx_requires_valid_range(__first, __middle);
ARM GAS  /tmp/ccxBL0ey.s 			page 88


1437:/opt/gcc-arm-none-eabi/arm-none-eabi/include/c++/10.3.1/bits/stl_algo.h ****       __glibcxx_requires_valid_range(__middle, __last);
1438:/opt/gcc-arm-none-eabi/arm-none-eabi/include/c++/10.3.1/bits/stl_algo.h **** 
1439:/opt/gcc-arm-none-eabi/arm-none-eabi/include/c++/10.3.1/bits/stl_algo.h ****       return std::__rotate(__first, __middle, __last,
1440:/opt/gcc-arm-none-eabi/arm-none-eabi/include/c++/10.3.1/bits/stl_algo.h **** 			   std::__iterator_category(__first));
1441:/opt/gcc-arm-none-eabi/arm-none-eabi/include/c++/10.3.1/bits/stl_algo.h ****     }
1442:/opt/gcc-arm-none-eabi/arm-none-eabi/include/c++/10.3.1/bits/stl_algo.h **** 
1443:/opt/gcc-arm-none-eabi/arm-none-eabi/include/c++/10.3.1/bits/stl_algo.h ****   } // namespace _V2
1444:/opt/gcc-arm-none-eabi/arm-none-eabi/include/c++/10.3.1/bits/stl_algo.h **** 
1445:/opt/gcc-arm-none-eabi/arm-none-eabi/include/c++/10.3.1/bits/stl_algo.h ****   /**
1446:/opt/gcc-arm-none-eabi/arm-none-eabi/include/c++/10.3.1/bits/stl_algo.h ****    *  @brief Copy a sequence, rotating its elements.
1447:/opt/gcc-arm-none-eabi/arm-none-eabi/include/c++/10.3.1/bits/stl_algo.h ****    *  @ingroup mutating_algorithms
1448:/opt/gcc-arm-none-eabi/arm-none-eabi/include/c++/10.3.1/bits/stl_algo.h ****    *  @param  __first   A forward iterator.
1449:/opt/gcc-arm-none-eabi/arm-none-eabi/include/c++/10.3.1/bits/stl_algo.h ****    *  @param  __middle  A forward iterator.
1450:/opt/gcc-arm-none-eabi/arm-none-eabi/include/c++/10.3.1/bits/stl_algo.h ****    *  @param  __last    A forward iterator.
1451:/opt/gcc-arm-none-eabi/arm-none-eabi/include/c++/10.3.1/bits/stl_algo.h ****    *  @param  __result  An output iterator.
1452:/opt/gcc-arm-none-eabi/arm-none-eabi/include/c++/10.3.1/bits/stl_algo.h ****    *  @return   An iterator designating the end of the resulting sequence.
1453:/opt/gcc-arm-none-eabi/arm-none-eabi/include/c++/10.3.1/bits/stl_algo.h ****    *
1454:/opt/gcc-arm-none-eabi/arm-none-eabi/include/c++/10.3.1/bits/stl_algo.h ****    *  Copies the elements of the range @p [__first,__last) to the
1455:/opt/gcc-arm-none-eabi/arm-none-eabi/include/c++/10.3.1/bits/stl_algo.h ****    *  range beginning at @result, rotating the copied elements by 
1456:/opt/gcc-arm-none-eabi/arm-none-eabi/include/c++/10.3.1/bits/stl_algo.h ****    *  @p (__middle-__first) positions so that the element at @p __middle
1457:/opt/gcc-arm-none-eabi/arm-none-eabi/include/c++/10.3.1/bits/stl_algo.h ****    *  is moved to @p __result, the element at @p __middle+1 is moved
1458:/opt/gcc-arm-none-eabi/arm-none-eabi/include/c++/10.3.1/bits/stl_algo.h ****    *  to @p __result+1 and so on for each element in the range @p
1459:/opt/gcc-arm-none-eabi/arm-none-eabi/include/c++/10.3.1/bits/stl_algo.h ****    *  [__first,__last).
1460:/opt/gcc-arm-none-eabi/arm-none-eabi/include/c++/10.3.1/bits/stl_algo.h ****    *
1461:/opt/gcc-arm-none-eabi/arm-none-eabi/include/c++/10.3.1/bits/stl_algo.h ****    *  Performs 
1462:/opt/gcc-arm-none-eabi/arm-none-eabi/include/c++/10.3.1/bits/stl_algo.h ****    *  @p *(__result+(n+(__last-__middle))%(__last-__first))=*(__first+n)
1463:/opt/gcc-arm-none-eabi/arm-none-eabi/include/c++/10.3.1/bits/stl_algo.h ****    *  for each @p n in the range @p [0,__last-__first).
1464:/opt/gcc-arm-none-eabi/arm-none-eabi/include/c++/10.3.1/bits/stl_algo.h ****   */
1465:/opt/gcc-arm-none-eabi/arm-none-eabi/include/c++/10.3.1/bits/stl_algo.h ****   template<typename _ForwardIterator, typename _OutputIterator>
1466:/opt/gcc-arm-none-eabi/arm-none-eabi/include/c++/10.3.1/bits/stl_algo.h ****     _GLIBCXX20_CONSTEXPR
1467:/opt/gcc-arm-none-eabi/arm-none-eabi/include/c++/10.3.1/bits/stl_algo.h ****     inline _OutputIterator
1468:/opt/gcc-arm-none-eabi/arm-none-eabi/include/c++/10.3.1/bits/stl_algo.h ****     rotate_copy(_ForwardIterator __first, _ForwardIterator __middle,
1469:/opt/gcc-arm-none-eabi/arm-none-eabi/include/c++/10.3.1/bits/stl_algo.h **** 		_ForwardIterator __last, _OutputIterator __result)
1470:/opt/gcc-arm-none-eabi/arm-none-eabi/include/c++/10.3.1/bits/stl_algo.h ****     {
1471:/opt/gcc-arm-none-eabi/arm-none-eabi/include/c++/10.3.1/bits/stl_algo.h ****       // concept requirements
1472:/opt/gcc-arm-none-eabi/arm-none-eabi/include/c++/10.3.1/bits/stl_algo.h ****       __glibcxx_function_requires(_ForwardIteratorConcept<_ForwardIterator>)
1473:/opt/gcc-arm-none-eabi/arm-none-eabi/include/c++/10.3.1/bits/stl_algo.h ****       __glibcxx_function_requires(_OutputIteratorConcept<_OutputIterator,
1474:/opt/gcc-arm-none-eabi/arm-none-eabi/include/c++/10.3.1/bits/stl_algo.h **** 		typename iterator_traits<_ForwardIterator>::value_type>)
1475:/opt/gcc-arm-none-eabi/arm-none-eabi/include/c++/10.3.1/bits/stl_algo.h ****       __glibcxx_requires_valid_range(__first, __middle);
1476:/opt/gcc-arm-none-eabi/arm-none-eabi/include/c++/10.3.1/bits/stl_algo.h ****       __glibcxx_requires_valid_range(__middle, __last);
1477:/opt/gcc-arm-none-eabi/arm-none-eabi/include/c++/10.3.1/bits/stl_algo.h **** 
1478:/opt/gcc-arm-none-eabi/arm-none-eabi/include/c++/10.3.1/bits/stl_algo.h ****       return std::copy(__first, __middle,
1479:/opt/gcc-arm-none-eabi/arm-none-eabi/include/c++/10.3.1/bits/stl_algo.h **** 		       std::copy(__middle, __last, __result));
1480:/opt/gcc-arm-none-eabi/arm-none-eabi/include/c++/10.3.1/bits/stl_algo.h ****     }
1481:/opt/gcc-arm-none-eabi/arm-none-eabi/include/c++/10.3.1/bits/stl_algo.h **** 
1482:/opt/gcc-arm-none-eabi/arm-none-eabi/include/c++/10.3.1/bits/stl_algo.h ****   /// This is a helper function...
1483:/opt/gcc-arm-none-eabi/arm-none-eabi/include/c++/10.3.1/bits/stl_algo.h ****   template<typename _ForwardIterator, typename _Predicate>
1484:/opt/gcc-arm-none-eabi/arm-none-eabi/include/c++/10.3.1/bits/stl_algo.h ****     _GLIBCXX20_CONSTEXPR
1485:/opt/gcc-arm-none-eabi/arm-none-eabi/include/c++/10.3.1/bits/stl_algo.h ****     _ForwardIterator
1486:/opt/gcc-arm-none-eabi/arm-none-eabi/include/c++/10.3.1/bits/stl_algo.h ****     __partition(_ForwardIterator __first, _ForwardIterator __last,
1487:/opt/gcc-arm-none-eabi/arm-none-eabi/include/c++/10.3.1/bits/stl_algo.h **** 		_Predicate __pred, forward_iterator_tag)
1488:/opt/gcc-arm-none-eabi/arm-none-eabi/include/c++/10.3.1/bits/stl_algo.h ****     {
1489:/opt/gcc-arm-none-eabi/arm-none-eabi/include/c++/10.3.1/bits/stl_algo.h ****       if (__first == __last)
1490:/opt/gcc-arm-none-eabi/arm-none-eabi/include/c++/10.3.1/bits/stl_algo.h **** 	return __first;
1491:/opt/gcc-arm-none-eabi/arm-none-eabi/include/c++/10.3.1/bits/stl_algo.h **** 
1492:/opt/gcc-arm-none-eabi/arm-none-eabi/include/c++/10.3.1/bits/stl_algo.h ****       while (__pred(*__first))
1493:/opt/gcc-arm-none-eabi/arm-none-eabi/include/c++/10.3.1/bits/stl_algo.h **** 	if (++__first == __last)
ARM GAS  /tmp/ccxBL0ey.s 			page 89


1494:/opt/gcc-arm-none-eabi/arm-none-eabi/include/c++/10.3.1/bits/stl_algo.h **** 	  return __first;
1495:/opt/gcc-arm-none-eabi/arm-none-eabi/include/c++/10.3.1/bits/stl_algo.h **** 
1496:/opt/gcc-arm-none-eabi/arm-none-eabi/include/c++/10.3.1/bits/stl_algo.h ****       _ForwardIterator __next = __first;
1497:/opt/gcc-arm-none-eabi/arm-none-eabi/include/c++/10.3.1/bits/stl_algo.h **** 
1498:/opt/gcc-arm-none-eabi/arm-none-eabi/include/c++/10.3.1/bits/stl_algo.h ****       while (++__next != __last)
1499:/opt/gcc-arm-none-eabi/arm-none-eabi/include/c++/10.3.1/bits/stl_algo.h **** 	if (__pred(*__next))
1500:/opt/gcc-arm-none-eabi/arm-none-eabi/include/c++/10.3.1/bits/stl_algo.h **** 	  {
1501:/opt/gcc-arm-none-eabi/arm-none-eabi/include/c++/10.3.1/bits/stl_algo.h **** 	    std::iter_swap(__first, __next);
1502:/opt/gcc-arm-none-eabi/arm-none-eabi/include/c++/10.3.1/bits/stl_algo.h **** 	    ++__first;
1503:/opt/gcc-arm-none-eabi/arm-none-eabi/include/c++/10.3.1/bits/stl_algo.h **** 	  }
1504:/opt/gcc-arm-none-eabi/arm-none-eabi/include/c++/10.3.1/bits/stl_algo.h **** 
1505:/opt/gcc-arm-none-eabi/arm-none-eabi/include/c++/10.3.1/bits/stl_algo.h ****       return __first;
1506:/opt/gcc-arm-none-eabi/arm-none-eabi/include/c++/10.3.1/bits/stl_algo.h ****     }
1507:/opt/gcc-arm-none-eabi/arm-none-eabi/include/c++/10.3.1/bits/stl_algo.h **** 
1508:/opt/gcc-arm-none-eabi/arm-none-eabi/include/c++/10.3.1/bits/stl_algo.h ****   /// This is a helper function...
1509:/opt/gcc-arm-none-eabi/arm-none-eabi/include/c++/10.3.1/bits/stl_algo.h ****   template<typename _BidirectionalIterator, typename _Predicate>
1510:/opt/gcc-arm-none-eabi/arm-none-eabi/include/c++/10.3.1/bits/stl_algo.h ****     _GLIBCXX20_CONSTEXPR
1511:/opt/gcc-arm-none-eabi/arm-none-eabi/include/c++/10.3.1/bits/stl_algo.h ****     _BidirectionalIterator
1512:/opt/gcc-arm-none-eabi/arm-none-eabi/include/c++/10.3.1/bits/stl_algo.h ****     __partition(_BidirectionalIterator __first, _BidirectionalIterator __last,
1513:/opt/gcc-arm-none-eabi/arm-none-eabi/include/c++/10.3.1/bits/stl_algo.h **** 		_Predicate __pred, bidirectional_iterator_tag)
1514:/opt/gcc-arm-none-eabi/arm-none-eabi/include/c++/10.3.1/bits/stl_algo.h ****     {
1515:/opt/gcc-arm-none-eabi/arm-none-eabi/include/c++/10.3.1/bits/stl_algo.h ****       while (true)
1516:/opt/gcc-arm-none-eabi/arm-none-eabi/include/c++/10.3.1/bits/stl_algo.h **** 	{
1517:/opt/gcc-arm-none-eabi/arm-none-eabi/include/c++/10.3.1/bits/stl_algo.h **** 	  while (true)
1518:/opt/gcc-arm-none-eabi/arm-none-eabi/include/c++/10.3.1/bits/stl_algo.h **** 	    if (__first == __last)
1519:/opt/gcc-arm-none-eabi/arm-none-eabi/include/c++/10.3.1/bits/stl_algo.h **** 	      return __first;
1520:/opt/gcc-arm-none-eabi/arm-none-eabi/include/c++/10.3.1/bits/stl_algo.h **** 	    else if (__pred(*__first))
1521:/opt/gcc-arm-none-eabi/arm-none-eabi/include/c++/10.3.1/bits/stl_algo.h **** 	      ++__first;
1522:/opt/gcc-arm-none-eabi/arm-none-eabi/include/c++/10.3.1/bits/stl_algo.h **** 	    else
1523:/opt/gcc-arm-none-eabi/arm-none-eabi/include/c++/10.3.1/bits/stl_algo.h **** 	      break;
1524:/opt/gcc-arm-none-eabi/arm-none-eabi/include/c++/10.3.1/bits/stl_algo.h **** 	  --__last;
1525:/opt/gcc-arm-none-eabi/arm-none-eabi/include/c++/10.3.1/bits/stl_algo.h **** 	  while (true)
1526:/opt/gcc-arm-none-eabi/arm-none-eabi/include/c++/10.3.1/bits/stl_algo.h **** 	    if (__first == __last)
1527:/opt/gcc-arm-none-eabi/arm-none-eabi/include/c++/10.3.1/bits/stl_algo.h **** 	      return __first;
1528:/opt/gcc-arm-none-eabi/arm-none-eabi/include/c++/10.3.1/bits/stl_algo.h **** 	    else if (!bool(__pred(*__last)))
1529:/opt/gcc-arm-none-eabi/arm-none-eabi/include/c++/10.3.1/bits/stl_algo.h **** 	      --__last;
1530:/opt/gcc-arm-none-eabi/arm-none-eabi/include/c++/10.3.1/bits/stl_algo.h **** 	    else
1531:/opt/gcc-arm-none-eabi/arm-none-eabi/include/c++/10.3.1/bits/stl_algo.h **** 	      break;
1532:/opt/gcc-arm-none-eabi/arm-none-eabi/include/c++/10.3.1/bits/stl_algo.h **** 	  std::iter_swap(__first, __last);
1533:/opt/gcc-arm-none-eabi/arm-none-eabi/include/c++/10.3.1/bits/stl_algo.h **** 	  ++__first;
1534:/opt/gcc-arm-none-eabi/arm-none-eabi/include/c++/10.3.1/bits/stl_algo.h **** 	}
1535:/opt/gcc-arm-none-eabi/arm-none-eabi/include/c++/10.3.1/bits/stl_algo.h ****     }
1536:/opt/gcc-arm-none-eabi/arm-none-eabi/include/c++/10.3.1/bits/stl_algo.h **** 
1537:/opt/gcc-arm-none-eabi/arm-none-eabi/include/c++/10.3.1/bits/stl_algo.h ****   // partition
1538:/opt/gcc-arm-none-eabi/arm-none-eabi/include/c++/10.3.1/bits/stl_algo.h **** 
1539:/opt/gcc-arm-none-eabi/arm-none-eabi/include/c++/10.3.1/bits/stl_algo.h ****   /// This is a helper function...
1540:/opt/gcc-arm-none-eabi/arm-none-eabi/include/c++/10.3.1/bits/stl_algo.h ****   /// Requires __first != __last and !__pred(__first)
1541:/opt/gcc-arm-none-eabi/arm-none-eabi/include/c++/10.3.1/bits/stl_algo.h ****   /// and __len == distance(__first, __last).
1542:/opt/gcc-arm-none-eabi/arm-none-eabi/include/c++/10.3.1/bits/stl_algo.h ****   ///
1543:/opt/gcc-arm-none-eabi/arm-none-eabi/include/c++/10.3.1/bits/stl_algo.h ****   /// !__pred(__first) allows us to guarantee that we don't
1544:/opt/gcc-arm-none-eabi/arm-none-eabi/include/c++/10.3.1/bits/stl_algo.h ****   /// move-assign an element onto itself.
1545:/opt/gcc-arm-none-eabi/arm-none-eabi/include/c++/10.3.1/bits/stl_algo.h ****   template<typename _ForwardIterator, typename _Pointer, typename _Predicate,
1546:/opt/gcc-arm-none-eabi/arm-none-eabi/include/c++/10.3.1/bits/stl_algo.h **** 	   typename _Distance>
1547:/opt/gcc-arm-none-eabi/arm-none-eabi/include/c++/10.3.1/bits/stl_algo.h ****     _ForwardIterator
1548:/opt/gcc-arm-none-eabi/arm-none-eabi/include/c++/10.3.1/bits/stl_algo.h ****     __stable_partition_adaptive(_ForwardIterator __first,
1549:/opt/gcc-arm-none-eabi/arm-none-eabi/include/c++/10.3.1/bits/stl_algo.h **** 				_ForwardIterator __last,
1550:/opt/gcc-arm-none-eabi/arm-none-eabi/include/c++/10.3.1/bits/stl_algo.h **** 				_Predicate __pred, _Distance __len,
ARM GAS  /tmp/ccxBL0ey.s 			page 90


1551:/opt/gcc-arm-none-eabi/arm-none-eabi/include/c++/10.3.1/bits/stl_algo.h **** 				_Pointer __buffer,
1552:/opt/gcc-arm-none-eabi/arm-none-eabi/include/c++/10.3.1/bits/stl_algo.h **** 				_Distance __buffer_size)
1553:/opt/gcc-arm-none-eabi/arm-none-eabi/include/c++/10.3.1/bits/stl_algo.h ****     {
1554:/opt/gcc-arm-none-eabi/arm-none-eabi/include/c++/10.3.1/bits/stl_algo.h ****       if (__len == 1)
1555:/opt/gcc-arm-none-eabi/arm-none-eabi/include/c++/10.3.1/bits/stl_algo.h **** 	return __first;
1556:/opt/gcc-arm-none-eabi/arm-none-eabi/include/c++/10.3.1/bits/stl_algo.h **** 
1557:/opt/gcc-arm-none-eabi/arm-none-eabi/include/c++/10.3.1/bits/stl_algo.h ****       if (__len <= __buffer_size)
1558:/opt/gcc-arm-none-eabi/arm-none-eabi/include/c++/10.3.1/bits/stl_algo.h **** 	{
1559:/opt/gcc-arm-none-eabi/arm-none-eabi/include/c++/10.3.1/bits/stl_algo.h **** 	  _ForwardIterator __result1 = __first;
1560:/opt/gcc-arm-none-eabi/arm-none-eabi/include/c++/10.3.1/bits/stl_algo.h **** 	  _Pointer __result2 = __buffer;
1561:/opt/gcc-arm-none-eabi/arm-none-eabi/include/c++/10.3.1/bits/stl_algo.h **** 
1562:/opt/gcc-arm-none-eabi/arm-none-eabi/include/c++/10.3.1/bits/stl_algo.h **** 	  // The precondition guarantees that !__pred(__first), so
1563:/opt/gcc-arm-none-eabi/arm-none-eabi/include/c++/10.3.1/bits/stl_algo.h **** 	  // move that element to the buffer before starting the loop.
1564:/opt/gcc-arm-none-eabi/arm-none-eabi/include/c++/10.3.1/bits/stl_algo.h **** 	  // This ensures that we only call __pred once per element.
1565:/opt/gcc-arm-none-eabi/arm-none-eabi/include/c++/10.3.1/bits/stl_algo.h **** 	  *__result2 = _GLIBCXX_MOVE(*__first);
1566:/opt/gcc-arm-none-eabi/arm-none-eabi/include/c++/10.3.1/bits/stl_algo.h **** 	  ++__result2;
1567:/opt/gcc-arm-none-eabi/arm-none-eabi/include/c++/10.3.1/bits/stl_algo.h **** 	  ++__first;
1568:/opt/gcc-arm-none-eabi/arm-none-eabi/include/c++/10.3.1/bits/stl_algo.h **** 	  for (; __first != __last; ++__first)
1569:/opt/gcc-arm-none-eabi/arm-none-eabi/include/c++/10.3.1/bits/stl_algo.h **** 	    if (__pred(__first))
1570:/opt/gcc-arm-none-eabi/arm-none-eabi/include/c++/10.3.1/bits/stl_algo.h **** 	      {
1571:/opt/gcc-arm-none-eabi/arm-none-eabi/include/c++/10.3.1/bits/stl_algo.h **** 		*__result1 = _GLIBCXX_MOVE(*__first);
1572:/opt/gcc-arm-none-eabi/arm-none-eabi/include/c++/10.3.1/bits/stl_algo.h **** 		++__result1;
1573:/opt/gcc-arm-none-eabi/arm-none-eabi/include/c++/10.3.1/bits/stl_algo.h **** 	      }
1574:/opt/gcc-arm-none-eabi/arm-none-eabi/include/c++/10.3.1/bits/stl_algo.h **** 	    else
1575:/opt/gcc-arm-none-eabi/arm-none-eabi/include/c++/10.3.1/bits/stl_algo.h **** 	      {
1576:/opt/gcc-arm-none-eabi/arm-none-eabi/include/c++/10.3.1/bits/stl_algo.h **** 		*__result2 = _GLIBCXX_MOVE(*__first);
1577:/opt/gcc-arm-none-eabi/arm-none-eabi/include/c++/10.3.1/bits/stl_algo.h **** 		++__result2;
1578:/opt/gcc-arm-none-eabi/arm-none-eabi/include/c++/10.3.1/bits/stl_algo.h **** 	      }
1579:/opt/gcc-arm-none-eabi/arm-none-eabi/include/c++/10.3.1/bits/stl_algo.h **** 
1580:/opt/gcc-arm-none-eabi/arm-none-eabi/include/c++/10.3.1/bits/stl_algo.h **** 	  _GLIBCXX_MOVE3(__buffer, __result2, __result1);
1581:/opt/gcc-arm-none-eabi/arm-none-eabi/include/c++/10.3.1/bits/stl_algo.h **** 	  return __result1;
1582:/opt/gcc-arm-none-eabi/arm-none-eabi/include/c++/10.3.1/bits/stl_algo.h **** 	}
1583:/opt/gcc-arm-none-eabi/arm-none-eabi/include/c++/10.3.1/bits/stl_algo.h **** 
1584:/opt/gcc-arm-none-eabi/arm-none-eabi/include/c++/10.3.1/bits/stl_algo.h ****       _ForwardIterator __middle = __first;
1585:/opt/gcc-arm-none-eabi/arm-none-eabi/include/c++/10.3.1/bits/stl_algo.h ****       std::advance(__middle, __len / 2);
1586:/opt/gcc-arm-none-eabi/arm-none-eabi/include/c++/10.3.1/bits/stl_algo.h ****       _ForwardIterator __left_split =
1587:/opt/gcc-arm-none-eabi/arm-none-eabi/include/c++/10.3.1/bits/stl_algo.h **** 	std::__stable_partition_adaptive(__first, __middle, __pred,
1588:/opt/gcc-arm-none-eabi/arm-none-eabi/include/c++/10.3.1/bits/stl_algo.h **** 					 __len / 2, __buffer,
1589:/opt/gcc-arm-none-eabi/arm-none-eabi/include/c++/10.3.1/bits/stl_algo.h **** 					 __buffer_size);
1590:/opt/gcc-arm-none-eabi/arm-none-eabi/include/c++/10.3.1/bits/stl_algo.h **** 
1591:/opt/gcc-arm-none-eabi/arm-none-eabi/include/c++/10.3.1/bits/stl_algo.h ****       // Advance past true-predicate values to satisfy this
1592:/opt/gcc-arm-none-eabi/arm-none-eabi/include/c++/10.3.1/bits/stl_algo.h ****       // function's preconditions.
1593:/opt/gcc-arm-none-eabi/arm-none-eabi/include/c++/10.3.1/bits/stl_algo.h ****       _Distance __right_len = __len - __len / 2;
1594:/opt/gcc-arm-none-eabi/arm-none-eabi/include/c++/10.3.1/bits/stl_algo.h ****       _ForwardIterator __right_split =
1595:/opt/gcc-arm-none-eabi/arm-none-eabi/include/c++/10.3.1/bits/stl_algo.h **** 	std::__find_if_not_n(__middle, __right_len, __pred);
1596:/opt/gcc-arm-none-eabi/arm-none-eabi/include/c++/10.3.1/bits/stl_algo.h **** 
1597:/opt/gcc-arm-none-eabi/arm-none-eabi/include/c++/10.3.1/bits/stl_algo.h ****       if (__right_len)
1598:/opt/gcc-arm-none-eabi/arm-none-eabi/include/c++/10.3.1/bits/stl_algo.h **** 	__right_split =
1599:/opt/gcc-arm-none-eabi/arm-none-eabi/include/c++/10.3.1/bits/stl_algo.h **** 	  std::__stable_partition_adaptive(__right_split, __last, __pred,
1600:/opt/gcc-arm-none-eabi/arm-none-eabi/include/c++/10.3.1/bits/stl_algo.h **** 					   __right_len,
1601:/opt/gcc-arm-none-eabi/arm-none-eabi/include/c++/10.3.1/bits/stl_algo.h **** 					   __buffer, __buffer_size);
1602:/opt/gcc-arm-none-eabi/arm-none-eabi/include/c++/10.3.1/bits/stl_algo.h **** 
1603:/opt/gcc-arm-none-eabi/arm-none-eabi/include/c++/10.3.1/bits/stl_algo.h ****       return std::rotate(__left_split, __middle, __right_split);
1604:/opt/gcc-arm-none-eabi/arm-none-eabi/include/c++/10.3.1/bits/stl_algo.h ****     }
1605:/opt/gcc-arm-none-eabi/arm-none-eabi/include/c++/10.3.1/bits/stl_algo.h **** 
1606:/opt/gcc-arm-none-eabi/arm-none-eabi/include/c++/10.3.1/bits/stl_algo.h ****   template<typename _ForwardIterator, typename _Predicate>
1607:/opt/gcc-arm-none-eabi/arm-none-eabi/include/c++/10.3.1/bits/stl_algo.h ****     _ForwardIterator
ARM GAS  /tmp/ccxBL0ey.s 			page 91


1608:/opt/gcc-arm-none-eabi/arm-none-eabi/include/c++/10.3.1/bits/stl_algo.h ****     __stable_partition(_ForwardIterator __first, _ForwardIterator __last,
1609:/opt/gcc-arm-none-eabi/arm-none-eabi/include/c++/10.3.1/bits/stl_algo.h **** 		       _Predicate __pred)
1610:/opt/gcc-arm-none-eabi/arm-none-eabi/include/c++/10.3.1/bits/stl_algo.h ****     {
1611:/opt/gcc-arm-none-eabi/arm-none-eabi/include/c++/10.3.1/bits/stl_algo.h ****       __first = std::__find_if_not(__first, __last, __pred);
1612:/opt/gcc-arm-none-eabi/arm-none-eabi/include/c++/10.3.1/bits/stl_algo.h **** 
1613:/opt/gcc-arm-none-eabi/arm-none-eabi/include/c++/10.3.1/bits/stl_algo.h ****       if (__first == __last)
1614:/opt/gcc-arm-none-eabi/arm-none-eabi/include/c++/10.3.1/bits/stl_algo.h **** 	return __first;
1615:/opt/gcc-arm-none-eabi/arm-none-eabi/include/c++/10.3.1/bits/stl_algo.h **** 
1616:/opt/gcc-arm-none-eabi/arm-none-eabi/include/c++/10.3.1/bits/stl_algo.h ****       typedef typename iterator_traits<_ForwardIterator>::value_type
1617:/opt/gcc-arm-none-eabi/arm-none-eabi/include/c++/10.3.1/bits/stl_algo.h **** 	_ValueType;
1618:/opt/gcc-arm-none-eabi/arm-none-eabi/include/c++/10.3.1/bits/stl_algo.h ****       typedef typename iterator_traits<_ForwardIterator>::difference_type
1619:/opt/gcc-arm-none-eabi/arm-none-eabi/include/c++/10.3.1/bits/stl_algo.h **** 	_DistanceType;
1620:/opt/gcc-arm-none-eabi/arm-none-eabi/include/c++/10.3.1/bits/stl_algo.h **** 
1621:/opt/gcc-arm-none-eabi/arm-none-eabi/include/c++/10.3.1/bits/stl_algo.h ****       _Temporary_buffer<_ForwardIterator, _ValueType>
1622:/opt/gcc-arm-none-eabi/arm-none-eabi/include/c++/10.3.1/bits/stl_algo.h **** 	__buf(__first, std::distance(__first, __last));
1623:/opt/gcc-arm-none-eabi/arm-none-eabi/include/c++/10.3.1/bits/stl_algo.h ****       return
1624:/opt/gcc-arm-none-eabi/arm-none-eabi/include/c++/10.3.1/bits/stl_algo.h **** 	std::__stable_partition_adaptive(__first, __last, __pred,
1625:/opt/gcc-arm-none-eabi/arm-none-eabi/include/c++/10.3.1/bits/stl_algo.h **** 					 _DistanceType(__buf.requested_size()),
1626:/opt/gcc-arm-none-eabi/arm-none-eabi/include/c++/10.3.1/bits/stl_algo.h **** 					 __buf.begin(),
1627:/opt/gcc-arm-none-eabi/arm-none-eabi/include/c++/10.3.1/bits/stl_algo.h **** 					 _DistanceType(__buf.size()));
1628:/opt/gcc-arm-none-eabi/arm-none-eabi/include/c++/10.3.1/bits/stl_algo.h ****     }
1629:/opt/gcc-arm-none-eabi/arm-none-eabi/include/c++/10.3.1/bits/stl_algo.h **** 
1630:/opt/gcc-arm-none-eabi/arm-none-eabi/include/c++/10.3.1/bits/stl_algo.h ****   /**
1631:/opt/gcc-arm-none-eabi/arm-none-eabi/include/c++/10.3.1/bits/stl_algo.h ****    *  @brief Move elements for which a predicate is true to the beginning
1632:/opt/gcc-arm-none-eabi/arm-none-eabi/include/c++/10.3.1/bits/stl_algo.h ****    *         of a sequence, preserving relative ordering.
1633:/opt/gcc-arm-none-eabi/arm-none-eabi/include/c++/10.3.1/bits/stl_algo.h ****    *  @ingroup mutating_algorithms
1634:/opt/gcc-arm-none-eabi/arm-none-eabi/include/c++/10.3.1/bits/stl_algo.h ****    *  @param  __first   A forward iterator.
1635:/opt/gcc-arm-none-eabi/arm-none-eabi/include/c++/10.3.1/bits/stl_algo.h ****    *  @param  __last    A forward iterator.
1636:/opt/gcc-arm-none-eabi/arm-none-eabi/include/c++/10.3.1/bits/stl_algo.h ****    *  @param  __pred    A predicate functor.
1637:/opt/gcc-arm-none-eabi/arm-none-eabi/include/c++/10.3.1/bits/stl_algo.h ****    *  @return  An iterator @p middle such that @p __pred(i) is true for each
1638:/opt/gcc-arm-none-eabi/arm-none-eabi/include/c++/10.3.1/bits/stl_algo.h ****    *  iterator @p i in the range @p [first,middle) and false for each @p i
1639:/opt/gcc-arm-none-eabi/arm-none-eabi/include/c++/10.3.1/bits/stl_algo.h ****    *  in the range @p [middle,last).
1640:/opt/gcc-arm-none-eabi/arm-none-eabi/include/c++/10.3.1/bits/stl_algo.h ****    *
1641:/opt/gcc-arm-none-eabi/arm-none-eabi/include/c++/10.3.1/bits/stl_algo.h ****    *  Performs the same function as @p partition() with the additional
1642:/opt/gcc-arm-none-eabi/arm-none-eabi/include/c++/10.3.1/bits/stl_algo.h ****    *  guarantee that the relative ordering of elements in each group is
1643:/opt/gcc-arm-none-eabi/arm-none-eabi/include/c++/10.3.1/bits/stl_algo.h ****    *  preserved, so any two elements @p x and @p y in the range
1644:/opt/gcc-arm-none-eabi/arm-none-eabi/include/c++/10.3.1/bits/stl_algo.h ****    *  @p [__first,__last) such that @p __pred(x)==__pred(y) will have the same
1645:/opt/gcc-arm-none-eabi/arm-none-eabi/include/c++/10.3.1/bits/stl_algo.h ****    *  relative ordering after calling @p stable_partition().
1646:/opt/gcc-arm-none-eabi/arm-none-eabi/include/c++/10.3.1/bits/stl_algo.h ****   */
1647:/opt/gcc-arm-none-eabi/arm-none-eabi/include/c++/10.3.1/bits/stl_algo.h ****   template<typename _ForwardIterator, typename _Predicate>
1648:/opt/gcc-arm-none-eabi/arm-none-eabi/include/c++/10.3.1/bits/stl_algo.h ****     inline _ForwardIterator
1649:/opt/gcc-arm-none-eabi/arm-none-eabi/include/c++/10.3.1/bits/stl_algo.h ****     stable_partition(_ForwardIterator __first, _ForwardIterator __last,
1650:/opt/gcc-arm-none-eabi/arm-none-eabi/include/c++/10.3.1/bits/stl_algo.h **** 		     _Predicate __pred)
1651:/opt/gcc-arm-none-eabi/arm-none-eabi/include/c++/10.3.1/bits/stl_algo.h ****     {
1652:/opt/gcc-arm-none-eabi/arm-none-eabi/include/c++/10.3.1/bits/stl_algo.h ****       // concept requirements
1653:/opt/gcc-arm-none-eabi/arm-none-eabi/include/c++/10.3.1/bits/stl_algo.h ****       __glibcxx_function_requires(_Mutable_ForwardIteratorConcept<
1654:/opt/gcc-arm-none-eabi/arm-none-eabi/include/c++/10.3.1/bits/stl_algo.h **** 				  _ForwardIterator>)
1655:/opt/gcc-arm-none-eabi/arm-none-eabi/include/c++/10.3.1/bits/stl_algo.h ****       __glibcxx_function_requires(_UnaryPredicateConcept<_Predicate,
1656:/opt/gcc-arm-none-eabi/arm-none-eabi/include/c++/10.3.1/bits/stl_algo.h **** 	    typename iterator_traits<_ForwardIterator>::value_type>)
1657:/opt/gcc-arm-none-eabi/arm-none-eabi/include/c++/10.3.1/bits/stl_algo.h ****       __glibcxx_requires_valid_range(__first, __last);
1658:/opt/gcc-arm-none-eabi/arm-none-eabi/include/c++/10.3.1/bits/stl_algo.h **** 
1659:/opt/gcc-arm-none-eabi/arm-none-eabi/include/c++/10.3.1/bits/stl_algo.h ****       return std::__stable_partition(__first, __last,
1660:/opt/gcc-arm-none-eabi/arm-none-eabi/include/c++/10.3.1/bits/stl_algo.h **** 				     __gnu_cxx::__ops::__pred_iter(__pred));
1661:/opt/gcc-arm-none-eabi/arm-none-eabi/include/c++/10.3.1/bits/stl_algo.h ****     }
1662:/opt/gcc-arm-none-eabi/arm-none-eabi/include/c++/10.3.1/bits/stl_algo.h **** 
1663:/opt/gcc-arm-none-eabi/arm-none-eabi/include/c++/10.3.1/bits/stl_algo.h ****   /// This is a helper function for the sort routines.
1664:/opt/gcc-arm-none-eabi/arm-none-eabi/include/c++/10.3.1/bits/stl_algo.h ****   template<typename _RandomAccessIterator, typename _Compare>
ARM GAS  /tmp/ccxBL0ey.s 			page 92


1665:/opt/gcc-arm-none-eabi/arm-none-eabi/include/c++/10.3.1/bits/stl_algo.h ****     _GLIBCXX20_CONSTEXPR
1666:/opt/gcc-arm-none-eabi/arm-none-eabi/include/c++/10.3.1/bits/stl_algo.h ****     void
1667:/opt/gcc-arm-none-eabi/arm-none-eabi/include/c++/10.3.1/bits/stl_algo.h ****     __heap_select(_RandomAccessIterator __first,
1668:/opt/gcc-arm-none-eabi/arm-none-eabi/include/c++/10.3.1/bits/stl_algo.h **** 		  _RandomAccessIterator __middle,
1669:/opt/gcc-arm-none-eabi/arm-none-eabi/include/c++/10.3.1/bits/stl_algo.h **** 		  _RandomAccessIterator __last, _Compare __comp)
1670:/opt/gcc-arm-none-eabi/arm-none-eabi/include/c++/10.3.1/bits/stl_algo.h ****     {
1671:/opt/gcc-arm-none-eabi/arm-none-eabi/include/c++/10.3.1/bits/stl_algo.h ****       std::__make_heap(__first, __middle, __comp);
1672:/opt/gcc-arm-none-eabi/arm-none-eabi/include/c++/10.3.1/bits/stl_algo.h ****       for (_RandomAccessIterator __i = __middle; __i < __last; ++__i)
1673:/opt/gcc-arm-none-eabi/arm-none-eabi/include/c++/10.3.1/bits/stl_algo.h **** 	if (__comp(__i, __first))
1674:/opt/gcc-arm-none-eabi/arm-none-eabi/include/c++/10.3.1/bits/stl_algo.h **** 	  std::__pop_heap(__first, __middle, __i, __comp);
1675:/opt/gcc-arm-none-eabi/arm-none-eabi/include/c++/10.3.1/bits/stl_algo.h ****     }
1676:/opt/gcc-arm-none-eabi/arm-none-eabi/include/c++/10.3.1/bits/stl_algo.h **** 
1677:/opt/gcc-arm-none-eabi/arm-none-eabi/include/c++/10.3.1/bits/stl_algo.h ****   // partial_sort
1678:/opt/gcc-arm-none-eabi/arm-none-eabi/include/c++/10.3.1/bits/stl_algo.h **** 
1679:/opt/gcc-arm-none-eabi/arm-none-eabi/include/c++/10.3.1/bits/stl_algo.h ****   template<typename _InputIterator, typename _RandomAccessIterator,
1680:/opt/gcc-arm-none-eabi/arm-none-eabi/include/c++/10.3.1/bits/stl_algo.h **** 	   typename _Compare>
1681:/opt/gcc-arm-none-eabi/arm-none-eabi/include/c++/10.3.1/bits/stl_algo.h ****     _GLIBCXX20_CONSTEXPR
1682:/opt/gcc-arm-none-eabi/arm-none-eabi/include/c++/10.3.1/bits/stl_algo.h ****     _RandomAccessIterator
1683:/opt/gcc-arm-none-eabi/arm-none-eabi/include/c++/10.3.1/bits/stl_algo.h ****     __partial_sort_copy(_InputIterator __first, _InputIterator __last,
1684:/opt/gcc-arm-none-eabi/arm-none-eabi/include/c++/10.3.1/bits/stl_algo.h **** 			_RandomAccessIterator __result_first,
1685:/opt/gcc-arm-none-eabi/arm-none-eabi/include/c++/10.3.1/bits/stl_algo.h **** 			_RandomAccessIterator __result_last,
1686:/opt/gcc-arm-none-eabi/arm-none-eabi/include/c++/10.3.1/bits/stl_algo.h **** 			_Compare __comp)
1687:/opt/gcc-arm-none-eabi/arm-none-eabi/include/c++/10.3.1/bits/stl_algo.h ****     {
1688:/opt/gcc-arm-none-eabi/arm-none-eabi/include/c++/10.3.1/bits/stl_algo.h ****       typedef typename iterator_traits<_InputIterator>::value_type
1689:/opt/gcc-arm-none-eabi/arm-none-eabi/include/c++/10.3.1/bits/stl_algo.h **** 	_InputValueType;
1690:/opt/gcc-arm-none-eabi/arm-none-eabi/include/c++/10.3.1/bits/stl_algo.h ****       typedef iterator_traits<_RandomAccessIterator> _RItTraits;
1691:/opt/gcc-arm-none-eabi/arm-none-eabi/include/c++/10.3.1/bits/stl_algo.h ****       typedef typename _RItTraits::difference_type _DistanceType;
1692:/opt/gcc-arm-none-eabi/arm-none-eabi/include/c++/10.3.1/bits/stl_algo.h **** 
1693:/opt/gcc-arm-none-eabi/arm-none-eabi/include/c++/10.3.1/bits/stl_algo.h ****       if (__result_first == __result_last)
1694:/opt/gcc-arm-none-eabi/arm-none-eabi/include/c++/10.3.1/bits/stl_algo.h **** 	return __result_last;
1695:/opt/gcc-arm-none-eabi/arm-none-eabi/include/c++/10.3.1/bits/stl_algo.h ****       _RandomAccessIterator __result_real_last = __result_first;
1696:/opt/gcc-arm-none-eabi/arm-none-eabi/include/c++/10.3.1/bits/stl_algo.h ****       while (__first != __last && __result_real_last != __result_last)
1697:/opt/gcc-arm-none-eabi/arm-none-eabi/include/c++/10.3.1/bits/stl_algo.h **** 	{
1698:/opt/gcc-arm-none-eabi/arm-none-eabi/include/c++/10.3.1/bits/stl_algo.h **** 	  *__result_real_last = *__first;
1699:/opt/gcc-arm-none-eabi/arm-none-eabi/include/c++/10.3.1/bits/stl_algo.h **** 	  ++__result_real_last;
1700:/opt/gcc-arm-none-eabi/arm-none-eabi/include/c++/10.3.1/bits/stl_algo.h **** 	  ++__first;
1701:/opt/gcc-arm-none-eabi/arm-none-eabi/include/c++/10.3.1/bits/stl_algo.h **** 	}
1702:/opt/gcc-arm-none-eabi/arm-none-eabi/include/c++/10.3.1/bits/stl_algo.h ****       
1703:/opt/gcc-arm-none-eabi/arm-none-eabi/include/c++/10.3.1/bits/stl_algo.h ****       std::__make_heap(__result_first, __result_real_last, __comp);
1704:/opt/gcc-arm-none-eabi/arm-none-eabi/include/c++/10.3.1/bits/stl_algo.h ****       while (__first != __last)
1705:/opt/gcc-arm-none-eabi/arm-none-eabi/include/c++/10.3.1/bits/stl_algo.h **** 	{
1706:/opt/gcc-arm-none-eabi/arm-none-eabi/include/c++/10.3.1/bits/stl_algo.h **** 	  if (__comp(__first, __result_first))
1707:/opt/gcc-arm-none-eabi/arm-none-eabi/include/c++/10.3.1/bits/stl_algo.h **** 	    std::__adjust_heap(__result_first, _DistanceType(0),
1708:/opt/gcc-arm-none-eabi/arm-none-eabi/include/c++/10.3.1/bits/stl_algo.h **** 			       _DistanceType(__result_real_last
1709:/opt/gcc-arm-none-eabi/arm-none-eabi/include/c++/10.3.1/bits/stl_algo.h **** 					     - __result_first),
1710:/opt/gcc-arm-none-eabi/arm-none-eabi/include/c++/10.3.1/bits/stl_algo.h **** 			       _InputValueType(*__first), __comp);
1711:/opt/gcc-arm-none-eabi/arm-none-eabi/include/c++/10.3.1/bits/stl_algo.h **** 	  ++__first;
1712:/opt/gcc-arm-none-eabi/arm-none-eabi/include/c++/10.3.1/bits/stl_algo.h **** 	}
1713:/opt/gcc-arm-none-eabi/arm-none-eabi/include/c++/10.3.1/bits/stl_algo.h ****       std::__sort_heap(__result_first, __result_real_last, __comp);
1714:/opt/gcc-arm-none-eabi/arm-none-eabi/include/c++/10.3.1/bits/stl_algo.h ****       return __result_real_last;
1715:/opt/gcc-arm-none-eabi/arm-none-eabi/include/c++/10.3.1/bits/stl_algo.h ****     }
1716:/opt/gcc-arm-none-eabi/arm-none-eabi/include/c++/10.3.1/bits/stl_algo.h **** 
1717:/opt/gcc-arm-none-eabi/arm-none-eabi/include/c++/10.3.1/bits/stl_algo.h ****   /**
1718:/opt/gcc-arm-none-eabi/arm-none-eabi/include/c++/10.3.1/bits/stl_algo.h ****    *  @brief Copy the smallest elements of a sequence.
1719:/opt/gcc-arm-none-eabi/arm-none-eabi/include/c++/10.3.1/bits/stl_algo.h ****    *  @ingroup sorting_algorithms
1720:/opt/gcc-arm-none-eabi/arm-none-eabi/include/c++/10.3.1/bits/stl_algo.h ****    *  @param  __first   An iterator.
1721:/opt/gcc-arm-none-eabi/arm-none-eabi/include/c++/10.3.1/bits/stl_algo.h ****    *  @param  __last    Another iterator.
ARM GAS  /tmp/ccxBL0ey.s 			page 93


1722:/opt/gcc-arm-none-eabi/arm-none-eabi/include/c++/10.3.1/bits/stl_algo.h ****    *  @param  __result_first   A random-access iterator.
1723:/opt/gcc-arm-none-eabi/arm-none-eabi/include/c++/10.3.1/bits/stl_algo.h ****    *  @param  __result_last    Another random-access iterator.
1724:/opt/gcc-arm-none-eabi/arm-none-eabi/include/c++/10.3.1/bits/stl_algo.h ****    *  @return   An iterator indicating the end of the resulting sequence.
1725:/opt/gcc-arm-none-eabi/arm-none-eabi/include/c++/10.3.1/bits/stl_algo.h ****    *
1726:/opt/gcc-arm-none-eabi/arm-none-eabi/include/c++/10.3.1/bits/stl_algo.h ****    *  Copies and sorts the smallest N values from the range @p [__first,__last)
1727:/opt/gcc-arm-none-eabi/arm-none-eabi/include/c++/10.3.1/bits/stl_algo.h ****    *  to the range beginning at @p __result_first, where the number of
1728:/opt/gcc-arm-none-eabi/arm-none-eabi/include/c++/10.3.1/bits/stl_algo.h ****    *  elements to be copied, @p N, is the smaller of @p (__last-__first) and
1729:/opt/gcc-arm-none-eabi/arm-none-eabi/include/c++/10.3.1/bits/stl_algo.h ****    *  @p (__result_last-__result_first).
1730:/opt/gcc-arm-none-eabi/arm-none-eabi/include/c++/10.3.1/bits/stl_algo.h ****    *  After the sort if @e i and @e j are iterators in the range
1731:/opt/gcc-arm-none-eabi/arm-none-eabi/include/c++/10.3.1/bits/stl_algo.h ****    *  @p [__result_first,__result_first+N) such that i precedes j then
1732:/opt/gcc-arm-none-eabi/arm-none-eabi/include/c++/10.3.1/bits/stl_algo.h ****    *  *j<*i is false.
1733:/opt/gcc-arm-none-eabi/arm-none-eabi/include/c++/10.3.1/bits/stl_algo.h ****    *  The value returned is @p __result_first+N.
1734:/opt/gcc-arm-none-eabi/arm-none-eabi/include/c++/10.3.1/bits/stl_algo.h ****   */
1735:/opt/gcc-arm-none-eabi/arm-none-eabi/include/c++/10.3.1/bits/stl_algo.h ****   template<typename _InputIterator, typename _RandomAccessIterator>
1736:/opt/gcc-arm-none-eabi/arm-none-eabi/include/c++/10.3.1/bits/stl_algo.h ****     _GLIBCXX20_CONSTEXPR
1737:/opt/gcc-arm-none-eabi/arm-none-eabi/include/c++/10.3.1/bits/stl_algo.h ****     inline _RandomAccessIterator
1738:/opt/gcc-arm-none-eabi/arm-none-eabi/include/c++/10.3.1/bits/stl_algo.h ****     partial_sort_copy(_InputIterator __first, _InputIterator __last,
1739:/opt/gcc-arm-none-eabi/arm-none-eabi/include/c++/10.3.1/bits/stl_algo.h **** 		      _RandomAccessIterator __result_first,
1740:/opt/gcc-arm-none-eabi/arm-none-eabi/include/c++/10.3.1/bits/stl_algo.h **** 		      _RandomAccessIterator __result_last)
1741:/opt/gcc-arm-none-eabi/arm-none-eabi/include/c++/10.3.1/bits/stl_algo.h ****     {
1742:/opt/gcc-arm-none-eabi/arm-none-eabi/include/c++/10.3.1/bits/stl_algo.h **** #ifdef _GLIBCXX_CONCEPT_CHECKS
1743:/opt/gcc-arm-none-eabi/arm-none-eabi/include/c++/10.3.1/bits/stl_algo.h ****       typedef typename iterator_traits<_InputIterator>::value_type
1744:/opt/gcc-arm-none-eabi/arm-none-eabi/include/c++/10.3.1/bits/stl_algo.h **** 	_InputValueType;
1745:/opt/gcc-arm-none-eabi/arm-none-eabi/include/c++/10.3.1/bits/stl_algo.h ****       typedef typename iterator_traits<_RandomAccessIterator>::value_type
1746:/opt/gcc-arm-none-eabi/arm-none-eabi/include/c++/10.3.1/bits/stl_algo.h **** 	_OutputValueType;
1747:/opt/gcc-arm-none-eabi/arm-none-eabi/include/c++/10.3.1/bits/stl_algo.h **** #endif
1748:/opt/gcc-arm-none-eabi/arm-none-eabi/include/c++/10.3.1/bits/stl_algo.h **** 
1749:/opt/gcc-arm-none-eabi/arm-none-eabi/include/c++/10.3.1/bits/stl_algo.h ****       // concept requirements
1750:/opt/gcc-arm-none-eabi/arm-none-eabi/include/c++/10.3.1/bits/stl_algo.h ****       __glibcxx_function_requires(_InputIteratorConcept<_InputIterator>)
1751:/opt/gcc-arm-none-eabi/arm-none-eabi/include/c++/10.3.1/bits/stl_algo.h ****       __glibcxx_function_requires(_ConvertibleConcept<_InputValueType,
1752:/opt/gcc-arm-none-eabi/arm-none-eabi/include/c++/10.3.1/bits/stl_algo.h **** 				  _OutputValueType>)
1753:/opt/gcc-arm-none-eabi/arm-none-eabi/include/c++/10.3.1/bits/stl_algo.h ****       __glibcxx_function_requires(_LessThanOpConcept<_InputValueType,
1754:/opt/gcc-arm-none-eabi/arm-none-eabi/include/c++/10.3.1/bits/stl_algo.h **** 						     _OutputValueType>)
1755:/opt/gcc-arm-none-eabi/arm-none-eabi/include/c++/10.3.1/bits/stl_algo.h ****       __glibcxx_function_requires(_LessThanComparableConcept<_OutputValueType>)
1756:/opt/gcc-arm-none-eabi/arm-none-eabi/include/c++/10.3.1/bits/stl_algo.h ****       __glibcxx_requires_valid_range(__first, __last);
1757:/opt/gcc-arm-none-eabi/arm-none-eabi/include/c++/10.3.1/bits/stl_algo.h ****       __glibcxx_requires_irreflexive(__first, __last);
1758:/opt/gcc-arm-none-eabi/arm-none-eabi/include/c++/10.3.1/bits/stl_algo.h ****       __glibcxx_requires_valid_range(__result_first, __result_last);
1759:/opt/gcc-arm-none-eabi/arm-none-eabi/include/c++/10.3.1/bits/stl_algo.h **** 
1760:/opt/gcc-arm-none-eabi/arm-none-eabi/include/c++/10.3.1/bits/stl_algo.h ****       return std::__partial_sort_copy(__first, __last,
1761:/opt/gcc-arm-none-eabi/arm-none-eabi/include/c++/10.3.1/bits/stl_algo.h **** 				      __result_first, __result_last,
1762:/opt/gcc-arm-none-eabi/arm-none-eabi/include/c++/10.3.1/bits/stl_algo.h **** 				      __gnu_cxx::__ops::__iter_less_iter());
1763:/opt/gcc-arm-none-eabi/arm-none-eabi/include/c++/10.3.1/bits/stl_algo.h ****     }
1764:/opt/gcc-arm-none-eabi/arm-none-eabi/include/c++/10.3.1/bits/stl_algo.h **** 
1765:/opt/gcc-arm-none-eabi/arm-none-eabi/include/c++/10.3.1/bits/stl_algo.h ****   /**
1766:/opt/gcc-arm-none-eabi/arm-none-eabi/include/c++/10.3.1/bits/stl_algo.h ****    *  @brief Copy the smallest elements of a sequence using a predicate for
1767:/opt/gcc-arm-none-eabi/arm-none-eabi/include/c++/10.3.1/bits/stl_algo.h ****    *         comparison.
1768:/opt/gcc-arm-none-eabi/arm-none-eabi/include/c++/10.3.1/bits/stl_algo.h ****    *  @ingroup sorting_algorithms
1769:/opt/gcc-arm-none-eabi/arm-none-eabi/include/c++/10.3.1/bits/stl_algo.h ****    *  @param  __first   An input iterator.
1770:/opt/gcc-arm-none-eabi/arm-none-eabi/include/c++/10.3.1/bits/stl_algo.h ****    *  @param  __last    Another input iterator.
1771:/opt/gcc-arm-none-eabi/arm-none-eabi/include/c++/10.3.1/bits/stl_algo.h ****    *  @param  __result_first   A random-access iterator.
1772:/opt/gcc-arm-none-eabi/arm-none-eabi/include/c++/10.3.1/bits/stl_algo.h ****    *  @param  __result_last    Another random-access iterator.
1773:/opt/gcc-arm-none-eabi/arm-none-eabi/include/c++/10.3.1/bits/stl_algo.h ****    *  @param  __comp    A comparison functor.
1774:/opt/gcc-arm-none-eabi/arm-none-eabi/include/c++/10.3.1/bits/stl_algo.h ****    *  @return   An iterator indicating the end of the resulting sequence.
1775:/opt/gcc-arm-none-eabi/arm-none-eabi/include/c++/10.3.1/bits/stl_algo.h ****    *
1776:/opt/gcc-arm-none-eabi/arm-none-eabi/include/c++/10.3.1/bits/stl_algo.h ****    *  Copies and sorts the smallest N values from the range @p [__first,__last)
1777:/opt/gcc-arm-none-eabi/arm-none-eabi/include/c++/10.3.1/bits/stl_algo.h ****    *  to the range beginning at @p result_first, where the number of
1778:/opt/gcc-arm-none-eabi/arm-none-eabi/include/c++/10.3.1/bits/stl_algo.h ****    *  elements to be copied, @p N, is the smaller of @p (__last-__first) and
ARM GAS  /tmp/ccxBL0ey.s 			page 94


1779:/opt/gcc-arm-none-eabi/arm-none-eabi/include/c++/10.3.1/bits/stl_algo.h ****    *  @p (__result_last-__result_first).
1780:/opt/gcc-arm-none-eabi/arm-none-eabi/include/c++/10.3.1/bits/stl_algo.h ****    *  After the sort if @e i and @e j are iterators in the range
1781:/opt/gcc-arm-none-eabi/arm-none-eabi/include/c++/10.3.1/bits/stl_algo.h ****    *  @p [__result_first,__result_first+N) such that i precedes j then
1782:/opt/gcc-arm-none-eabi/arm-none-eabi/include/c++/10.3.1/bits/stl_algo.h ****    *  @p __comp(*j,*i) is false.
1783:/opt/gcc-arm-none-eabi/arm-none-eabi/include/c++/10.3.1/bits/stl_algo.h ****    *  The value returned is @p __result_first+N.
1784:/opt/gcc-arm-none-eabi/arm-none-eabi/include/c++/10.3.1/bits/stl_algo.h ****   */
1785:/opt/gcc-arm-none-eabi/arm-none-eabi/include/c++/10.3.1/bits/stl_algo.h ****   template<typename _InputIterator, typename _RandomAccessIterator,
1786:/opt/gcc-arm-none-eabi/arm-none-eabi/include/c++/10.3.1/bits/stl_algo.h **** 	   typename _Compare>
1787:/opt/gcc-arm-none-eabi/arm-none-eabi/include/c++/10.3.1/bits/stl_algo.h ****     _GLIBCXX20_CONSTEXPR
1788:/opt/gcc-arm-none-eabi/arm-none-eabi/include/c++/10.3.1/bits/stl_algo.h ****     inline _RandomAccessIterator
1789:/opt/gcc-arm-none-eabi/arm-none-eabi/include/c++/10.3.1/bits/stl_algo.h ****     partial_sort_copy(_InputIterator __first, _InputIterator __last,
1790:/opt/gcc-arm-none-eabi/arm-none-eabi/include/c++/10.3.1/bits/stl_algo.h **** 		      _RandomAccessIterator __result_first,
1791:/opt/gcc-arm-none-eabi/arm-none-eabi/include/c++/10.3.1/bits/stl_algo.h **** 		      _RandomAccessIterator __result_last,
1792:/opt/gcc-arm-none-eabi/arm-none-eabi/include/c++/10.3.1/bits/stl_algo.h **** 		      _Compare __comp)
1793:/opt/gcc-arm-none-eabi/arm-none-eabi/include/c++/10.3.1/bits/stl_algo.h ****     {
1794:/opt/gcc-arm-none-eabi/arm-none-eabi/include/c++/10.3.1/bits/stl_algo.h **** #ifdef _GLIBCXX_CONCEPT_CHECKS
1795:/opt/gcc-arm-none-eabi/arm-none-eabi/include/c++/10.3.1/bits/stl_algo.h ****       typedef typename iterator_traits<_InputIterator>::value_type
1796:/opt/gcc-arm-none-eabi/arm-none-eabi/include/c++/10.3.1/bits/stl_algo.h **** 	_InputValueType;
1797:/opt/gcc-arm-none-eabi/arm-none-eabi/include/c++/10.3.1/bits/stl_algo.h ****       typedef typename iterator_traits<_RandomAccessIterator>::value_type
1798:/opt/gcc-arm-none-eabi/arm-none-eabi/include/c++/10.3.1/bits/stl_algo.h **** 	_OutputValueType;
1799:/opt/gcc-arm-none-eabi/arm-none-eabi/include/c++/10.3.1/bits/stl_algo.h **** #endif
1800:/opt/gcc-arm-none-eabi/arm-none-eabi/include/c++/10.3.1/bits/stl_algo.h **** 
1801:/opt/gcc-arm-none-eabi/arm-none-eabi/include/c++/10.3.1/bits/stl_algo.h ****       // concept requirements
1802:/opt/gcc-arm-none-eabi/arm-none-eabi/include/c++/10.3.1/bits/stl_algo.h ****       __glibcxx_function_requires(_InputIteratorConcept<_InputIterator>)
1803:/opt/gcc-arm-none-eabi/arm-none-eabi/include/c++/10.3.1/bits/stl_algo.h ****       __glibcxx_function_requires(_Mutable_RandomAccessIteratorConcept<
1804:/opt/gcc-arm-none-eabi/arm-none-eabi/include/c++/10.3.1/bits/stl_algo.h **** 				  _RandomAccessIterator>)
1805:/opt/gcc-arm-none-eabi/arm-none-eabi/include/c++/10.3.1/bits/stl_algo.h ****       __glibcxx_function_requires(_ConvertibleConcept<_InputValueType,
1806:/opt/gcc-arm-none-eabi/arm-none-eabi/include/c++/10.3.1/bits/stl_algo.h **** 				  _OutputValueType>)
1807:/opt/gcc-arm-none-eabi/arm-none-eabi/include/c++/10.3.1/bits/stl_algo.h ****       __glibcxx_function_requires(_BinaryPredicateConcept<_Compare,
1808:/opt/gcc-arm-none-eabi/arm-none-eabi/include/c++/10.3.1/bits/stl_algo.h **** 				  _InputValueType, _OutputValueType>)
1809:/opt/gcc-arm-none-eabi/arm-none-eabi/include/c++/10.3.1/bits/stl_algo.h ****       __glibcxx_function_requires(_BinaryPredicateConcept<_Compare,
1810:/opt/gcc-arm-none-eabi/arm-none-eabi/include/c++/10.3.1/bits/stl_algo.h **** 				  _OutputValueType, _OutputValueType>)
1811:/opt/gcc-arm-none-eabi/arm-none-eabi/include/c++/10.3.1/bits/stl_algo.h ****       __glibcxx_requires_valid_range(__first, __last);
1812:/opt/gcc-arm-none-eabi/arm-none-eabi/include/c++/10.3.1/bits/stl_algo.h ****       __glibcxx_requires_irreflexive_pred(__first, __last, __comp);
1813:/opt/gcc-arm-none-eabi/arm-none-eabi/include/c++/10.3.1/bits/stl_algo.h ****       __glibcxx_requires_valid_range(__result_first, __result_last);
1814:/opt/gcc-arm-none-eabi/arm-none-eabi/include/c++/10.3.1/bits/stl_algo.h **** 
1815:/opt/gcc-arm-none-eabi/arm-none-eabi/include/c++/10.3.1/bits/stl_algo.h ****       return std::__partial_sort_copy(__first, __last,
1816:/opt/gcc-arm-none-eabi/arm-none-eabi/include/c++/10.3.1/bits/stl_algo.h **** 				      __result_first, __result_last,
1817:/opt/gcc-arm-none-eabi/arm-none-eabi/include/c++/10.3.1/bits/stl_algo.h **** 				__gnu_cxx::__ops::__iter_comp_iter(__comp));
1818:/opt/gcc-arm-none-eabi/arm-none-eabi/include/c++/10.3.1/bits/stl_algo.h ****     }
1819:/opt/gcc-arm-none-eabi/arm-none-eabi/include/c++/10.3.1/bits/stl_algo.h **** 
1820:/opt/gcc-arm-none-eabi/arm-none-eabi/include/c++/10.3.1/bits/stl_algo.h ****   /// This is a helper function for the sort routine.
1821:/opt/gcc-arm-none-eabi/arm-none-eabi/include/c++/10.3.1/bits/stl_algo.h ****   template<typename _RandomAccessIterator, typename _Compare>
1822:/opt/gcc-arm-none-eabi/arm-none-eabi/include/c++/10.3.1/bits/stl_algo.h ****     _GLIBCXX20_CONSTEXPR
1823:/opt/gcc-arm-none-eabi/arm-none-eabi/include/c++/10.3.1/bits/stl_algo.h ****     void
1824:/opt/gcc-arm-none-eabi/arm-none-eabi/include/c++/10.3.1/bits/stl_algo.h ****     __unguarded_linear_insert(_RandomAccessIterator __last,
1825:/opt/gcc-arm-none-eabi/arm-none-eabi/include/c++/10.3.1/bits/stl_algo.h **** 			      _Compare __comp)
1826:/opt/gcc-arm-none-eabi/arm-none-eabi/include/c++/10.3.1/bits/stl_algo.h ****     {
1827:/opt/gcc-arm-none-eabi/arm-none-eabi/include/c++/10.3.1/bits/stl_algo.h ****       typename iterator_traits<_RandomAccessIterator>::value_type
1828:/opt/gcc-arm-none-eabi/arm-none-eabi/include/c++/10.3.1/bits/stl_algo.h **** 	__val = _GLIBCXX_MOVE(*__last);
1829:/opt/gcc-arm-none-eabi/arm-none-eabi/include/c++/10.3.1/bits/stl_algo.h ****       _RandomAccessIterator __next = __last;
1830:/opt/gcc-arm-none-eabi/arm-none-eabi/include/c++/10.3.1/bits/stl_algo.h ****       --__next;
1831:/opt/gcc-arm-none-eabi/arm-none-eabi/include/c++/10.3.1/bits/stl_algo.h ****       while (__comp(__val, __next))
1832:/opt/gcc-arm-none-eabi/arm-none-eabi/include/c++/10.3.1/bits/stl_algo.h **** 	{
1833:/opt/gcc-arm-none-eabi/arm-none-eabi/include/c++/10.3.1/bits/stl_algo.h **** 	  *__last = _GLIBCXX_MOVE(*__next);
1834:/opt/gcc-arm-none-eabi/arm-none-eabi/include/c++/10.3.1/bits/stl_algo.h **** 	  __last = __next;
1835:/opt/gcc-arm-none-eabi/arm-none-eabi/include/c++/10.3.1/bits/stl_algo.h **** 	  --__next;
ARM GAS  /tmp/ccxBL0ey.s 			page 95


1836:/opt/gcc-arm-none-eabi/arm-none-eabi/include/c++/10.3.1/bits/stl_algo.h **** 	}
1837:/opt/gcc-arm-none-eabi/arm-none-eabi/include/c++/10.3.1/bits/stl_algo.h ****       *__last = _GLIBCXX_MOVE(__val);
1838:/opt/gcc-arm-none-eabi/arm-none-eabi/include/c++/10.3.1/bits/stl_algo.h ****     }
1839:/opt/gcc-arm-none-eabi/arm-none-eabi/include/c++/10.3.1/bits/stl_algo.h **** 
1840:/opt/gcc-arm-none-eabi/arm-none-eabi/include/c++/10.3.1/bits/stl_algo.h ****   /// This is a helper function for the sort routine.
1841:/opt/gcc-arm-none-eabi/arm-none-eabi/include/c++/10.3.1/bits/stl_algo.h ****   template<typename _RandomAccessIterator, typename _Compare>
1842:/opt/gcc-arm-none-eabi/arm-none-eabi/include/c++/10.3.1/bits/stl_algo.h ****     _GLIBCXX20_CONSTEXPR
1843:/opt/gcc-arm-none-eabi/arm-none-eabi/include/c++/10.3.1/bits/stl_algo.h ****     void
1844:/opt/gcc-arm-none-eabi/arm-none-eabi/include/c++/10.3.1/bits/stl_algo.h ****     __insertion_sort(_RandomAccessIterator __first,
1845:/opt/gcc-arm-none-eabi/arm-none-eabi/include/c++/10.3.1/bits/stl_algo.h **** 		     _RandomAccessIterator __last, _Compare __comp)
1846:/opt/gcc-arm-none-eabi/arm-none-eabi/include/c++/10.3.1/bits/stl_algo.h ****     {
1847:/opt/gcc-arm-none-eabi/arm-none-eabi/include/c++/10.3.1/bits/stl_algo.h ****       if (__first == __last) return;
1848:/opt/gcc-arm-none-eabi/arm-none-eabi/include/c++/10.3.1/bits/stl_algo.h **** 
1849:/opt/gcc-arm-none-eabi/arm-none-eabi/include/c++/10.3.1/bits/stl_algo.h ****       for (_RandomAccessIterator __i = __first + 1; __i != __last; ++__i)
1850:/opt/gcc-arm-none-eabi/arm-none-eabi/include/c++/10.3.1/bits/stl_algo.h **** 	{
1851:/opt/gcc-arm-none-eabi/arm-none-eabi/include/c++/10.3.1/bits/stl_algo.h **** 	  if (__comp(__i, __first))
1852:/opt/gcc-arm-none-eabi/arm-none-eabi/include/c++/10.3.1/bits/stl_algo.h **** 	    {
1853:/opt/gcc-arm-none-eabi/arm-none-eabi/include/c++/10.3.1/bits/stl_algo.h **** 	      typename iterator_traits<_RandomAccessIterator>::value_type
1854:/opt/gcc-arm-none-eabi/arm-none-eabi/include/c++/10.3.1/bits/stl_algo.h **** 		__val = _GLIBCXX_MOVE(*__i);
1855:/opt/gcc-arm-none-eabi/arm-none-eabi/include/c++/10.3.1/bits/stl_algo.h **** 	      _GLIBCXX_MOVE_BACKWARD3(__first, __i, __i + 1);
1856:/opt/gcc-arm-none-eabi/arm-none-eabi/include/c++/10.3.1/bits/stl_algo.h **** 	      *__first = _GLIBCXX_MOVE(__val);
1857:/opt/gcc-arm-none-eabi/arm-none-eabi/include/c++/10.3.1/bits/stl_algo.h **** 	    }
1858:/opt/gcc-arm-none-eabi/arm-none-eabi/include/c++/10.3.1/bits/stl_algo.h **** 	  else
1859:/opt/gcc-arm-none-eabi/arm-none-eabi/include/c++/10.3.1/bits/stl_algo.h **** 	    std::__unguarded_linear_insert(__i,
1860:/opt/gcc-arm-none-eabi/arm-none-eabi/include/c++/10.3.1/bits/stl_algo.h **** 				__gnu_cxx::__ops::__val_comp_iter(__comp));
1861:/opt/gcc-arm-none-eabi/arm-none-eabi/include/c++/10.3.1/bits/stl_algo.h **** 	}
1862:/opt/gcc-arm-none-eabi/arm-none-eabi/include/c++/10.3.1/bits/stl_algo.h ****     }
1863:/opt/gcc-arm-none-eabi/arm-none-eabi/include/c++/10.3.1/bits/stl_algo.h **** 
1864:/opt/gcc-arm-none-eabi/arm-none-eabi/include/c++/10.3.1/bits/stl_algo.h ****   /// This is a helper function for the sort routine.
1865:/opt/gcc-arm-none-eabi/arm-none-eabi/include/c++/10.3.1/bits/stl_algo.h ****   template<typename _RandomAccessIterator, typename _Compare>
1866:/opt/gcc-arm-none-eabi/arm-none-eabi/include/c++/10.3.1/bits/stl_algo.h ****     _GLIBCXX20_CONSTEXPR
1867:/opt/gcc-arm-none-eabi/arm-none-eabi/include/c++/10.3.1/bits/stl_algo.h ****     inline void
1868:/opt/gcc-arm-none-eabi/arm-none-eabi/include/c++/10.3.1/bits/stl_algo.h ****     __unguarded_insertion_sort(_RandomAccessIterator __first,
1869:/opt/gcc-arm-none-eabi/arm-none-eabi/include/c++/10.3.1/bits/stl_algo.h **** 			       _RandomAccessIterator __last, _Compare __comp)
1870:/opt/gcc-arm-none-eabi/arm-none-eabi/include/c++/10.3.1/bits/stl_algo.h ****     {
1871:/opt/gcc-arm-none-eabi/arm-none-eabi/include/c++/10.3.1/bits/stl_algo.h ****       for (_RandomAccessIterator __i = __first; __i != __last; ++__i)
1872:/opt/gcc-arm-none-eabi/arm-none-eabi/include/c++/10.3.1/bits/stl_algo.h **** 	std::__unguarded_linear_insert(__i,
1873:/opt/gcc-arm-none-eabi/arm-none-eabi/include/c++/10.3.1/bits/stl_algo.h **** 				__gnu_cxx::__ops::__val_comp_iter(__comp));
1874:/opt/gcc-arm-none-eabi/arm-none-eabi/include/c++/10.3.1/bits/stl_algo.h ****     }
1875:/opt/gcc-arm-none-eabi/arm-none-eabi/include/c++/10.3.1/bits/stl_algo.h **** 
1876:/opt/gcc-arm-none-eabi/arm-none-eabi/include/c++/10.3.1/bits/stl_algo.h ****   /**
1877:/opt/gcc-arm-none-eabi/arm-none-eabi/include/c++/10.3.1/bits/stl_algo.h ****    *  @doctodo
1878:/opt/gcc-arm-none-eabi/arm-none-eabi/include/c++/10.3.1/bits/stl_algo.h ****    *  This controls some aspect of the sort routines.
1879:/opt/gcc-arm-none-eabi/arm-none-eabi/include/c++/10.3.1/bits/stl_algo.h ****   */
1880:/opt/gcc-arm-none-eabi/arm-none-eabi/include/c++/10.3.1/bits/stl_algo.h ****   enum { _S_threshold = 16 };
1881:/opt/gcc-arm-none-eabi/arm-none-eabi/include/c++/10.3.1/bits/stl_algo.h **** 
1882:/opt/gcc-arm-none-eabi/arm-none-eabi/include/c++/10.3.1/bits/stl_algo.h ****   /// This is a helper function for the sort routine.
1883:/opt/gcc-arm-none-eabi/arm-none-eabi/include/c++/10.3.1/bits/stl_algo.h ****   template<typename _RandomAccessIterator, typename _Compare>
1884:/opt/gcc-arm-none-eabi/arm-none-eabi/include/c++/10.3.1/bits/stl_algo.h ****     _GLIBCXX20_CONSTEXPR
1885:/opt/gcc-arm-none-eabi/arm-none-eabi/include/c++/10.3.1/bits/stl_algo.h ****     void
1886:/opt/gcc-arm-none-eabi/arm-none-eabi/include/c++/10.3.1/bits/stl_algo.h ****     __final_insertion_sort(_RandomAccessIterator __first,
1887:/opt/gcc-arm-none-eabi/arm-none-eabi/include/c++/10.3.1/bits/stl_algo.h **** 			   _RandomAccessIterator __last, _Compare __comp)
1888:/opt/gcc-arm-none-eabi/arm-none-eabi/include/c++/10.3.1/bits/stl_algo.h ****     {
1889:/opt/gcc-arm-none-eabi/arm-none-eabi/include/c++/10.3.1/bits/stl_algo.h ****       if (__last - __first > int(_S_threshold))
1890:/opt/gcc-arm-none-eabi/arm-none-eabi/include/c++/10.3.1/bits/stl_algo.h **** 	{
1891:/opt/gcc-arm-none-eabi/arm-none-eabi/include/c++/10.3.1/bits/stl_algo.h **** 	  std::__insertion_sort(__first, __first + int(_S_threshold), __comp);
1892:/opt/gcc-arm-none-eabi/arm-none-eabi/include/c++/10.3.1/bits/stl_algo.h **** 	  std::__unguarded_insertion_sort(__first + int(_S_threshold), __last,
ARM GAS  /tmp/ccxBL0ey.s 			page 96


1893:/opt/gcc-arm-none-eabi/arm-none-eabi/include/c++/10.3.1/bits/stl_algo.h **** 					  __comp);
1894:/opt/gcc-arm-none-eabi/arm-none-eabi/include/c++/10.3.1/bits/stl_algo.h **** 	}
1895:/opt/gcc-arm-none-eabi/arm-none-eabi/include/c++/10.3.1/bits/stl_algo.h ****       else
1896:/opt/gcc-arm-none-eabi/arm-none-eabi/include/c++/10.3.1/bits/stl_algo.h **** 	std::__insertion_sort(__first, __last, __comp);
1897:/opt/gcc-arm-none-eabi/arm-none-eabi/include/c++/10.3.1/bits/stl_algo.h ****     }
1898:/opt/gcc-arm-none-eabi/arm-none-eabi/include/c++/10.3.1/bits/stl_algo.h **** 
1899:/opt/gcc-arm-none-eabi/arm-none-eabi/include/c++/10.3.1/bits/stl_algo.h ****   /// This is a helper function...
1900:/opt/gcc-arm-none-eabi/arm-none-eabi/include/c++/10.3.1/bits/stl_algo.h ****   template<typename _RandomAccessIterator, typename _Compare>
1901:/opt/gcc-arm-none-eabi/arm-none-eabi/include/c++/10.3.1/bits/stl_algo.h ****     _GLIBCXX20_CONSTEXPR
1902:/opt/gcc-arm-none-eabi/arm-none-eabi/include/c++/10.3.1/bits/stl_algo.h ****     _RandomAccessIterator
1903:/opt/gcc-arm-none-eabi/arm-none-eabi/include/c++/10.3.1/bits/stl_algo.h ****     __unguarded_partition(_RandomAccessIterator __first,
1904:/opt/gcc-arm-none-eabi/arm-none-eabi/include/c++/10.3.1/bits/stl_algo.h **** 			  _RandomAccessIterator __last,
1905:/opt/gcc-arm-none-eabi/arm-none-eabi/include/c++/10.3.1/bits/stl_algo.h **** 			  _RandomAccessIterator __pivot, _Compare __comp)
1906:/opt/gcc-arm-none-eabi/arm-none-eabi/include/c++/10.3.1/bits/stl_algo.h ****     {
1907:/opt/gcc-arm-none-eabi/arm-none-eabi/include/c++/10.3.1/bits/stl_algo.h ****       while (true)
1908:/opt/gcc-arm-none-eabi/arm-none-eabi/include/c++/10.3.1/bits/stl_algo.h **** 	{
1909:/opt/gcc-arm-none-eabi/arm-none-eabi/include/c++/10.3.1/bits/stl_algo.h **** 	  while (__comp(__first, __pivot))
1910:/opt/gcc-arm-none-eabi/arm-none-eabi/include/c++/10.3.1/bits/stl_algo.h **** 	    ++__first;
1911:/opt/gcc-arm-none-eabi/arm-none-eabi/include/c++/10.3.1/bits/stl_algo.h **** 	  --__last;
1912:/opt/gcc-arm-none-eabi/arm-none-eabi/include/c++/10.3.1/bits/stl_algo.h **** 	  while (__comp(__pivot, __last))
1913:/opt/gcc-arm-none-eabi/arm-none-eabi/include/c++/10.3.1/bits/stl_algo.h **** 	    --__last;
1914:/opt/gcc-arm-none-eabi/arm-none-eabi/include/c++/10.3.1/bits/stl_algo.h **** 	  if (!(__first < __last))
1915:/opt/gcc-arm-none-eabi/arm-none-eabi/include/c++/10.3.1/bits/stl_algo.h **** 	    return __first;
1916:/opt/gcc-arm-none-eabi/arm-none-eabi/include/c++/10.3.1/bits/stl_algo.h **** 	  std::iter_swap(__first, __last);
1917:/opt/gcc-arm-none-eabi/arm-none-eabi/include/c++/10.3.1/bits/stl_algo.h **** 	  ++__first;
1918:/opt/gcc-arm-none-eabi/arm-none-eabi/include/c++/10.3.1/bits/stl_algo.h **** 	}
1919:/opt/gcc-arm-none-eabi/arm-none-eabi/include/c++/10.3.1/bits/stl_algo.h ****     }
1920:/opt/gcc-arm-none-eabi/arm-none-eabi/include/c++/10.3.1/bits/stl_algo.h **** 
1921:/opt/gcc-arm-none-eabi/arm-none-eabi/include/c++/10.3.1/bits/stl_algo.h ****   /// This is a helper function...
1922:/opt/gcc-arm-none-eabi/arm-none-eabi/include/c++/10.3.1/bits/stl_algo.h ****   template<typename _RandomAccessIterator, typename _Compare>
1923:/opt/gcc-arm-none-eabi/arm-none-eabi/include/c++/10.3.1/bits/stl_algo.h ****     _GLIBCXX20_CONSTEXPR
1924:/opt/gcc-arm-none-eabi/arm-none-eabi/include/c++/10.3.1/bits/stl_algo.h ****     inline _RandomAccessIterator
1925:/opt/gcc-arm-none-eabi/arm-none-eabi/include/c++/10.3.1/bits/stl_algo.h ****     __unguarded_partition_pivot(_RandomAccessIterator __first,
1926:/opt/gcc-arm-none-eabi/arm-none-eabi/include/c++/10.3.1/bits/stl_algo.h **** 				_RandomAccessIterator __last, _Compare __comp)
1927:/opt/gcc-arm-none-eabi/arm-none-eabi/include/c++/10.3.1/bits/stl_algo.h ****     {
1928:/opt/gcc-arm-none-eabi/arm-none-eabi/include/c++/10.3.1/bits/stl_algo.h ****       _RandomAccessIterator __mid = __first + (__last - __first) / 2;
1929:/opt/gcc-arm-none-eabi/arm-none-eabi/include/c++/10.3.1/bits/stl_algo.h ****       std::__move_median_to_first(__first, __first + 1, __mid, __last - 1,
1930:/opt/gcc-arm-none-eabi/arm-none-eabi/include/c++/10.3.1/bits/stl_algo.h **** 				  __comp);
1931:/opt/gcc-arm-none-eabi/arm-none-eabi/include/c++/10.3.1/bits/stl_algo.h ****       return std::__unguarded_partition(__first + 1, __last, __first, __comp);
1932:/opt/gcc-arm-none-eabi/arm-none-eabi/include/c++/10.3.1/bits/stl_algo.h ****     }
1933:/opt/gcc-arm-none-eabi/arm-none-eabi/include/c++/10.3.1/bits/stl_algo.h **** 
1934:/opt/gcc-arm-none-eabi/arm-none-eabi/include/c++/10.3.1/bits/stl_algo.h ****   template<typename _RandomAccessIterator, typename _Compare>
1935:/opt/gcc-arm-none-eabi/arm-none-eabi/include/c++/10.3.1/bits/stl_algo.h ****     _GLIBCXX20_CONSTEXPR
1936:/opt/gcc-arm-none-eabi/arm-none-eabi/include/c++/10.3.1/bits/stl_algo.h ****     inline void
1937:/opt/gcc-arm-none-eabi/arm-none-eabi/include/c++/10.3.1/bits/stl_algo.h ****     __partial_sort(_RandomAccessIterator __first,
1938:/opt/gcc-arm-none-eabi/arm-none-eabi/include/c++/10.3.1/bits/stl_algo.h **** 		   _RandomAccessIterator __middle,
1939:/opt/gcc-arm-none-eabi/arm-none-eabi/include/c++/10.3.1/bits/stl_algo.h **** 		   _RandomAccessIterator __last,
1940:/opt/gcc-arm-none-eabi/arm-none-eabi/include/c++/10.3.1/bits/stl_algo.h **** 		   _Compare __comp)
1941:/opt/gcc-arm-none-eabi/arm-none-eabi/include/c++/10.3.1/bits/stl_algo.h ****     {
1942:/opt/gcc-arm-none-eabi/arm-none-eabi/include/c++/10.3.1/bits/stl_algo.h ****       std::__heap_select(__first, __middle, __last, __comp);
1943:/opt/gcc-arm-none-eabi/arm-none-eabi/include/c++/10.3.1/bits/stl_algo.h ****       std::__sort_heap(__first, __middle, __comp);
1944:/opt/gcc-arm-none-eabi/arm-none-eabi/include/c++/10.3.1/bits/stl_algo.h ****     }
1945:/opt/gcc-arm-none-eabi/arm-none-eabi/include/c++/10.3.1/bits/stl_algo.h **** 
1946:/opt/gcc-arm-none-eabi/arm-none-eabi/include/c++/10.3.1/bits/stl_algo.h ****   /// This is a helper function for the sort routine.
1947:/opt/gcc-arm-none-eabi/arm-none-eabi/include/c++/10.3.1/bits/stl_algo.h ****   template<typename _RandomAccessIterator, typename _Size, typename _Compare>
1948:/opt/gcc-arm-none-eabi/arm-none-eabi/include/c++/10.3.1/bits/stl_algo.h ****     _GLIBCXX20_CONSTEXPR
1949:/opt/gcc-arm-none-eabi/arm-none-eabi/include/c++/10.3.1/bits/stl_algo.h ****     void
ARM GAS  /tmp/ccxBL0ey.s 			page 97


1950:/opt/gcc-arm-none-eabi/arm-none-eabi/include/c++/10.3.1/bits/stl_algo.h ****     __introsort_loop(_RandomAccessIterator __first,
1951:/opt/gcc-arm-none-eabi/arm-none-eabi/include/c++/10.3.1/bits/stl_algo.h **** 		     _RandomAccessIterator __last,
1952:/opt/gcc-arm-none-eabi/arm-none-eabi/include/c++/10.3.1/bits/stl_algo.h **** 		     _Size __depth_limit, _Compare __comp)
1953:/opt/gcc-arm-none-eabi/arm-none-eabi/include/c++/10.3.1/bits/stl_algo.h ****     {
1954:/opt/gcc-arm-none-eabi/arm-none-eabi/include/c++/10.3.1/bits/stl_algo.h ****       while (__last - __first > int(_S_threshold))
1955:/opt/gcc-arm-none-eabi/arm-none-eabi/include/c++/10.3.1/bits/stl_algo.h **** 	{
1956:/opt/gcc-arm-none-eabi/arm-none-eabi/include/c++/10.3.1/bits/stl_algo.h **** 	  if (__depth_limit == 0)
1957:/opt/gcc-arm-none-eabi/arm-none-eabi/include/c++/10.3.1/bits/stl_algo.h **** 	    {
1958:/opt/gcc-arm-none-eabi/arm-none-eabi/include/c++/10.3.1/bits/stl_algo.h **** 	      std::__partial_sort(__first, __last, __last, __comp);
1959:/opt/gcc-arm-none-eabi/arm-none-eabi/include/c++/10.3.1/bits/stl_algo.h **** 	      return;
1960:/opt/gcc-arm-none-eabi/arm-none-eabi/include/c++/10.3.1/bits/stl_algo.h **** 	    }
1961:/opt/gcc-arm-none-eabi/arm-none-eabi/include/c++/10.3.1/bits/stl_algo.h **** 	  --__depth_limit;
1962:/opt/gcc-arm-none-eabi/arm-none-eabi/include/c++/10.3.1/bits/stl_algo.h **** 	  _RandomAccessIterator __cut =
1963:/opt/gcc-arm-none-eabi/arm-none-eabi/include/c++/10.3.1/bits/stl_algo.h **** 	    std::__unguarded_partition_pivot(__first, __last, __comp);
1964:/opt/gcc-arm-none-eabi/arm-none-eabi/include/c++/10.3.1/bits/stl_algo.h **** 	  std::__introsort_loop(__cut, __last, __depth_limit, __comp);
1965:/opt/gcc-arm-none-eabi/arm-none-eabi/include/c++/10.3.1/bits/stl_algo.h **** 	  __last = __cut;
1966:/opt/gcc-arm-none-eabi/arm-none-eabi/include/c++/10.3.1/bits/stl_algo.h **** 	}
1967:/opt/gcc-arm-none-eabi/arm-none-eabi/include/c++/10.3.1/bits/stl_algo.h ****     }
1968:/opt/gcc-arm-none-eabi/arm-none-eabi/include/c++/10.3.1/bits/stl_algo.h **** 
1969:/opt/gcc-arm-none-eabi/arm-none-eabi/include/c++/10.3.1/bits/stl_algo.h ****   // sort
1970:/opt/gcc-arm-none-eabi/arm-none-eabi/include/c++/10.3.1/bits/stl_algo.h **** 
1971:/opt/gcc-arm-none-eabi/arm-none-eabi/include/c++/10.3.1/bits/stl_algo.h ****   template<typename _RandomAccessIterator, typename _Compare>
1972:/opt/gcc-arm-none-eabi/arm-none-eabi/include/c++/10.3.1/bits/stl_algo.h ****     _GLIBCXX20_CONSTEXPR
1973:/opt/gcc-arm-none-eabi/arm-none-eabi/include/c++/10.3.1/bits/stl_algo.h ****     inline void
1974:/opt/gcc-arm-none-eabi/arm-none-eabi/include/c++/10.3.1/bits/stl_algo.h ****     __sort(_RandomAccessIterator __first, _RandomAccessIterator __last,
1975:/opt/gcc-arm-none-eabi/arm-none-eabi/include/c++/10.3.1/bits/stl_algo.h **** 	   _Compare __comp)
1976:/opt/gcc-arm-none-eabi/arm-none-eabi/include/c++/10.3.1/bits/stl_algo.h ****     {
1977:/opt/gcc-arm-none-eabi/arm-none-eabi/include/c++/10.3.1/bits/stl_algo.h ****       if (__first != __last)
1978:/opt/gcc-arm-none-eabi/arm-none-eabi/include/c++/10.3.1/bits/stl_algo.h **** 	{
1979:/opt/gcc-arm-none-eabi/arm-none-eabi/include/c++/10.3.1/bits/stl_algo.h **** 	  std::__introsort_loop(__first, __last,
1980:/opt/gcc-arm-none-eabi/arm-none-eabi/include/c++/10.3.1/bits/stl_algo.h **** 				std::__lg(__last - __first) * 2,
1981:/opt/gcc-arm-none-eabi/arm-none-eabi/include/c++/10.3.1/bits/stl_algo.h **** 				__comp);
1982:/opt/gcc-arm-none-eabi/arm-none-eabi/include/c++/10.3.1/bits/stl_algo.h **** 	  std::__final_insertion_sort(__first, __last, __comp);
1983:/opt/gcc-arm-none-eabi/arm-none-eabi/include/c++/10.3.1/bits/stl_algo.h **** 	}
1984:/opt/gcc-arm-none-eabi/arm-none-eabi/include/c++/10.3.1/bits/stl_algo.h ****     }
1985:/opt/gcc-arm-none-eabi/arm-none-eabi/include/c++/10.3.1/bits/stl_algo.h **** 
1986:/opt/gcc-arm-none-eabi/arm-none-eabi/include/c++/10.3.1/bits/stl_algo.h ****   template<typename _RandomAccessIterator, typename _Size, typename _Compare>
1987:/opt/gcc-arm-none-eabi/arm-none-eabi/include/c++/10.3.1/bits/stl_algo.h ****     _GLIBCXX20_CONSTEXPR
1988:/opt/gcc-arm-none-eabi/arm-none-eabi/include/c++/10.3.1/bits/stl_algo.h ****     void
1989:/opt/gcc-arm-none-eabi/arm-none-eabi/include/c++/10.3.1/bits/stl_algo.h ****     __introselect(_RandomAccessIterator __first, _RandomAccessIterator __nth,
1990:/opt/gcc-arm-none-eabi/arm-none-eabi/include/c++/10.3.1/bits/stl_algo.h **** 		  _RandomAccessIterator __last, _Size __depth_limit,
1991:/opt/gcc-arm-none-eabi/arm-none-eabi/include/c++/10.3.1/bits/stl_algo.h **** 		  _Compare __comp)
1992:/opt/gcc-arm-none-eabi/arm-none-eabi/include/c++/10.3.1/bits/stl_algo.h ****     {
1993:/opt/gcc-arm-none-eabi/arm-none-eabi/include/c++/10.3.1/bits/stl_algo.h ****       while (__last - __first > 3)
1994:/opt/gcc-arm-none-eabi/arm-none-eabi/include/c++/10.3.1/bits/stl_algo.h **** 	{
1995:/opt/gcc-arm-none-eabi/arm-none-eabi/include/c++/10.3.1/bits/stl_algo.h **** 	  if (__depth_limit == 0)
1996:/opt/gcc-arm-none-eabi/arm-none-eabi/include/c++/10.3.1/bits/stl_algo.h **** 	    {
1997:/opt/gcc-arm-none-eabi/arm-none-eabi/include/c++/10.3.1/bits/stl_algo.h **** 	      std::__heap_select(__first, __nth + 1, __last, __comp);
1998:/opt/gcc-arm-none-eabi/arm-none-eabi/include/c++/10.3.1/bits/stl_algo.h **** 	      // Place the nth largest element in its final position.
1999:/opt/gcc-arm-none-eabi/arm-none-eabi/include/c++/10.3.1/bits/stl_algo.h **** 	      std::iter_swap(__first, __nth);
2000:/opt/gcc-arm-none-eabi/arm-none-eabi/include/c++/10.3.1/bits/stl_algo.h **** 	      return;
2001:/opt/gcc-arm-none-eabi/arm-none-eabi/include/c++/10.3.1/bits/stl_algo.h **** 	    }
2002:/opt/gcc-arm-none-eabi/arm-none-eabi/include/c++/10.3.1/bits/stl_algo.h **** 	  --__depth_limit;
2003:/opt/gcc-arm-none-eabi/arm-none-eabi/include/c++/10.3.1/bits/stl_algo.h **** 	  _RandomAccessIterator __cut =
2004:/opt/gcc-arm-none-eabi/arm-none-eabi/include/c++/10.3.1/bits/stl_algo.h **** 	    std::__unguarded_partition_pivot(__first, __last, __comp);
2005:/opt/gcc-arm-none-eabi/arm-none-eabi/include/c++/10.3.1/bits/stl_algo.h **** 	  if (__cut <= __nth)
2006:/opt/gcc-arm-none-eabi/arm-none-eabi/include/c++/10.3.1/bits/stl_algo.h **** 	    __first = __cut;
ARM GAS  /tmp/ccxBL0ey.s 			page 98


2007:/opt/gcc-arm-none-eabi/arm-none-eabi/include/c++/10.3.1/bits/stl_algo.h **** 	  else
2008:/opt/gcc-arm-none-eabi/arm-none-eabi/include/c++/10.3.1/bits/stl_algo.h **** 	    __last = __cut;
2009:/opt/gcc-arm-none-eabi/arm-none-eabi/include/c++/10.3.1/bits/stl_algo.h **** 	}
2010:/opt/gcc-arm-none-eabi/arm-none-eabi/include/c++/10.3.1/bits/stl_algo.h ****       std::__insertion_sort(__first, __last, __comp);
2011:/opt/gcc-arm-none-eabi/arm-none-eabi/include/c++/10.3.1/bits/stl_algo.h ****     }
2012:/opt/gcc-arm-none-eabi/arm-none-eabi/include/c++/10.3.1/bits/stl_algo.h **** 
2013:/opt/gcc-arm-none-eabi/arm-none-eabi/include/c++/10.3.1/bits/stl_algo.h ****   // nth_element
2014:/opt/gcc-arm-none-eabi/arm-none-eabi/include/c++/10.3.1/bits/stl_algo.h **** 
2015:/opt/gcc-arm-none-eabi/arm-none-eabi/include/c++/10.3.1/bits/stl_algo.h ****   // lower_bound moved to stl_algobase.h
2016:/opt/gcc-arm-none-eabi/arm-none-eabi/include/c++/10.3.1/bits/stl_algo.h **** 
2017:/opt/gcc-arm-none-eabi/arm-none-eabi/include/c++/10.3.1/bits/stl_algo.h ****   /**
2018:/opt/gcc-arm-none-eabi/arm-none-eabi/include/c++/10.3.1/bits/stl_algo.h ****    *  @brief Finds the first position in which @p __val could be inserted
2019:/opt/gcc-arm-none-eabi/arm-none-eabi/include/c++/10.3.1/bits/stl_algo.h ****    *         without changing the ordering.
2020:/opt/gcc-arm-none-eabi/arm-none-eabi/include/c++/10.3.1/bits/stl_algo.h ****    *  @ingroup binary_search_algorithms
2021:/opt/gcc-arm-none-eabi/arm-none-eabi/include/c++/10.3.1/bits/stl_algo.h ****    *  @param  __first   An iterator.
2022:/opt/gcc-arm-none-eabi/arm-none-eabi/include/c++/10.3.1/bits/stl_algo.h ****    *  @param  __last    Another iterator.
2023:/opt/gcc-arm-none-eabi/arm-none-eabi/include/c++/10.3.1/bits/stl_algo.h ****    *  @param  __val     The search term.
2024:/opt/gcc-arm-none-eabi/arm-none-eabi/include/c++/10.3.1/bits/stl_algo.h ****    *  @param  __comp    A functor to use for comparisons.
2025:/opt/gcc-arm-none-eabi/arm-none-eabi/include/c++/10.3.1/bits/stl_algo.h ****    *  @return An iterator pointing to the first element <em>not less
2026:/opt/gcc-arm-none-eabi/arm-none-eabi/include/c++/10.3.1/bits/stl_algo.h ****    *           than</em> @p __val, or end() if every element is less
2027:/opt/gcc-arm-none-eabi/arm-none-eabi/include/c++/10.3.1/bits/stl_algo.h ****    *           than @p __val.
2028:/opt/gcc-arm-none-eabi/arm-none-eabi/include/c++/10.3.1/bits/stl_algo.h ****    *  @ingroup binary_search_algorithms
2029:/opt/gcc-arm-none-eabi/arm-none-eabi/include/c++/10.3.1/bits/stl_algo.h ****    *
2030:/opt/gcc-arm-none-eabi/arm-none-eabi/include/c++/10.3.1/bits/stl_algo.h ****    *  The comparison function should have the same effects on ordering as
2031:/opt/gcc-arm-none-eabi/arm-none-eabi/include/c++/10.3.1/bits/stl_algo.h ****    *  the function used for the initial sort.
2032:/opt/gcc-arm-none-eabi/arm-none-eabi/include/c++/10.3.1/bits/stl_algo.h ****   */
2033:/opt/gcc-arm-none-eabi/arm-none-eabi/include/c++/10.3.1/bits/stl_algo.h ****   template<typename _ForwardIterator, typename _Tp, typename _Compare>
2034:/opt/gcc-arm-none-eabi/arm-none-eabi/include/c++/10.3.1/bits/stl_algo.h ****     _GLIBCXX20_CONSTEXPR
2035:/opt/gcc-arm-none-eabi/arm-none-eabi/include/c++/10.3.1/bits/stl_algo.h ****     inline _ForwardIterator
2036:/opt/gcc-arm-none-eabi/arm-none-eabi/include/c++/10.3.1/bits/stl_algo.h ****     lower_bound(_ForwardIterator __first, _ForwardIterator __last,
2037:/opt/gcc-arm-none-eabi/arm-none-eabi/include/c++/10.3.1/bits/stl_algo.h **** 		const _Tp& __val, _Compare __comp)
2038:/opt/gcc-arm-none-eabi/arm-none-eabi/include/c++/10.3.1/bits/stl_algo.h ****     {
2039:/opt/gcc-arm-none-eabi/arm-none-eabi/include/c++/10.3.1/bits/stl_algo.h ****       // concept requirements
2040:/opt/gcc-arm-none-eabi/arm-none-eabi/include/c++/10.3.1/bits/stl_algo.h ****       __glibcxx_function_requires(_ForwardIteratorConcept<_ForwardIterator>)
2041:/opt/gcc-arm-none-eabi/arm-none-eabi/include/c++/10.3.1/bits/stl_algo.h ****       __glibcxx_function_requires(_BinaryPredicateConcept<_Compare,
2042:/opt/gcc-arm-none-eabi/arm-none-eabi/include/c++/10.3.1/bits/stl_algo.h **** 	typename iterator_traits<_ForwardIterator>::value_type, _Tp>)
2043:/opt/gcc-arm-none-eabi/arm-none-eabi/include/c++/10.3.1/bits/stl_algo.h ****       __glibcxx_requires_partitioned_lower_pred(__first, __last,
2044:/opt/gcc-arm-none-eabi/arm-none-eabi/include/c++/10.3.1/bits/stl_algo.h **** 						__val, __comp);
2045:/opt/gcc-arm-none-eabi/arm-none-eabi/include/c++/10.3.1/bits/stl_algo.h **** 
2046:/opt/gcc-arm-none-eabi/arm-none-eabi/include/c++/10.3.1/bits/stl_algo.h ****       return std::__lower_bound(__first, __last, __val,
2047:/opt/gcc-arm-none-eabi/arm-none-eabi/include/c++/10.3.1/bits/stl_algo.h **** 				__gnu_cxx::__ops::__iter_comp_val(__comp));
2048:/opt/gcc-arm-none-eabi/arm-none-eabi/include/c++/10.3.1/bits/stl_algo.h ****     }
2049:/opt/gcc-arm-none-eabi/arm-none-eabi/include/c++/10.3.1/bits/stl_algo.h **** 
2050:/opt/gcc-arm-none-eabi/arm-none-eabi/include/c++/10.3.1/bits/stl_algo.h ****   template<typename _ForwardIterator, typename _Tp, typename _Compare>
2051:/opt/gcc-arm-none-eabi/arm-none-eabi/include/c++/10.3.1/bits/stl_algo.h ****     _GLIBCXX20_CONSTEXPR
2052:/opt/gcc-arm-none-eabi/arm-none-eabi/include/c++/10.3.1/bits/stl_algo.h ****     _ForwardIterator
2053:/opt/gcc-arm-none-eabi/arm-none-eabi/include/c++/10.3.1/bits/stl_algo.h ****     __upper_bound(_ForwardIterator __first, _ForwardIterator __last,
2054:/opt/gcc-arm-none-eabi/arm-none-eabi/include/c++/10.3.1/bits/stl_algo.h **** 		  const _Tp& __val, _Compare __comp)
2055:/opt/gcc-arm-none-eabi/arm-none-eabi/include/c++/10.3.1/bits/stl_algo.h ****     {
2056:/opt/gcc-arm-none-eabi/arm-none-eabi/include/c++/10.3.1/bits/stl_algo.h ****       typedef typename iterator_traits<_ForwardIterator>::difference_type
2057:/opt/gcc-arm-none-eabi/arm-none-eabi/include/c++/10.3.1/bits/stl_algo.h **** 	_DistanceType;
2058:/opt/gcc-arm-none-eabi/arm-none-eabi/include/c++/10.3.1/bits/stl_algo.h **** 
2059:/opt/gcc-arm-none-eabi/arm-none-eabi/include/c++/10.3.1/bits/stl_algo.h ****       _DistanceType __len = std::distance(__first, __last);
2060:/opt/gcc-arm-none-eabi/arm-none-eabi/include/c++/10.3.1/bits/stl_algo.h **** 
2061:/opt/gcc-arm-none-eabi/arm-none-eabi/include/c++/10.3.1/bits/stl_algo.h ****       while (__len > 0)
2062:/opt/gcc-arm-none-eabi/arm-none-eabi/include/c++/10.3.1/bits/stl_algo.h **** 	{
2063:/opt/gcc-arm-none-eabi/arm-none-eabi/include/c++/10.3.1/bits/stl_algo.h **** 	  _DistanceType __half = __len >> 1;
ARM GAS  /tmp/ccxBL0ey.s 			page 99


2064:/opt/gcc-arm-none-eabi/arm-none-eabi/include/c++/10.3.1/bits/stl_algo.h **** 	  _ForwardIterator __middle = __first;
2065:/opt/gcc-arm-none-eabi/arm-none-eabi/include/c++/10.3.1/bits/stl_algo.h **** 	  std::advance(__middle, __half);
2066:/opt/gcc-arm-none-eabi/arm-none-eabi/include/c++/10.3.1/bits/stl_algo.h **** 	  if (__comp(__val, __middle))
2067:/opt/gcc-arm-none-eabi/arm-none-eabi/include/c++/10.3.1/bits/stl_algo.h **** 	    __len = __half;
2068:/opt/gcc-arm-none-eabi/arm-none-eabi/include/c++/10.3.1/bits/stl_algo.h **** 	  else
2069:/opt/gcc-arm-none-eabi/arm-none-eabi/include/c++/10.3.1/bits/stl_algo.h **** 	    {
2070:/opt/gcc-arm-none-eabi/arm-none-eabi/include/c++/10.3.1/bits/stl_algo.h **** 	      __first = __middle;
2071:/opt/gcc-arm-none-eabi/arm-none-eabi/include/c++/10.3.1/bits/stl_algo.h **** 	      ++__first;
2072:/opt/gcc-arm-none-eabi/arm-none-eabi/include/c++/10.3.1/bits/stl_algo.h **** 	      __len = __len - __half - 1;
2073:/opt/gcc-arm-none-eabi/arm-none-eabi/include/c++/10.3.1/bits/stl_algo.h **** 	    }
2074:/opt/gcc-arm-none-eabi/arm-none-eabi/include/c++/10.3.1/bits/stl_algo.h **** 	}
2075:/opt/gcc-arm-none-eabi/arm-none-eabi/include/c++/10.3.1/bits/stl_algo.h ****       return __first;
2076:/opt/gcc-arm-none-eabi/arm-none-eabi/include/c++/10.3.1/bits/stl_algo.h ****     }
2077:/opt/gcc-arm-none-eabi/arm-none-eabi/include/c++/10.3.1/bits/stl_algo.h **** 
2078:/opt/gcc-arm-none-eabi/arm-none-eabi/include/c++/10.3.1/bits/stl_algo.h ****   /**
2079:/opt/gcc-arm-none-eabi/arm-none-eabi/include/c++/10.3.1/bits/stl_algo.h ****    *  @brief Finds the last position in which @p __val could be inserted
2080:/opt/gcc-arm-none-eabi/arm-none-eabi/include/c++/10.3.1/bits/stl_algo.h ****    *         without changing the ordering.
2081:/opt/gcc-arm-none-eabi/arm-none-eabi/include/c++/10.3.1/bits/stl_algo.h ****    *  @ingroup binary_search_algorithms
2082:/opt/gcc-arm-none-eabi/arm-none-eabi/include/c++/10.3.1/bits/stl_algo.h ****    *  @param  __first   An iterator.
2083:/opt/gcc-arm-none-eabi/arm-none-eabi/include/c++/10.3.1/bits/stl_algo.h ****    *  @param  __last    Another iterator.
2084:/opt/gcc-arm-none-eabi/arm-none-eabi/include/c++/10.3.1/bits/stl_algo.h ****    *  @param  __val     The search term.
2085:/opt/gcc-arm-none-eabi/arm-none-eabi/include/c++/10.3.1/bits/stl_algo.h ****    *  @return  An iterator pointing to the first element greater than @p __val,
2086:/opt/gcc-arm-none-eabi/arm-none-eabi/include/c++/10.3.1/bits/stl_algo.h ****    *           or end() if no elements are greater than @p __val.
2087:/opt/gcc-arm-none-eabi/arm-none-eabi/include/c++/10.3.1/bits/stl_algo.h ****    *  @ingroup binary_search_algorithms
2088:/opt/gcc-arm-none-eabi/arm-none-eabi/include/c++/10.3.1/bits/stl_algo.h ****   */
2089:/opt/gcc-arm-none-eabi/arm-none-eabi/include/c++/10.3.1/bits/stl_algo.h ****   template<typename _ForwardIterator, typename _Tp>
2090:/opt/gcc-arm-none-eabi/arm-none-eabi/include/c++/10.3.1/bits/stl_algo.h ****     _GLIBCXX20_CONSTEXPR
2091:/opt/gcc-arm-none-eabi/arm-none-eabi/include/c++/10.3.1/bits/stl_algo.h ****     inline _ForwardIterator
2092:/opt/gcc-arm-none-eabi/arm-none-eabi/include/c++/10.3.1/bits/stl_algo.h ****     upper_bound(_ForwardIterator __first, _ForwardIterator __last,
2093:/opt/gcc-arm-none-eabi/arm-none-eabi/include/c++/10.3.1/bits/stl_algo.h **** 		const _Tp& __val)
2094:/opt/gcc-arm-none-eabi/arm-none-eabi/include/c++/10.3.1/bits/stl_algo.h ****     {
2095:/opt/gcc-arm-none-eabi/arm-none-eabi/include/c++/10.3.1/bits/stl_algo.h ****       // concept requirements
2096:/opt/gcc-arm-none-eabi/arm-none-eabi/include/c++/10.3.1/bits/stl_algo.h ****       __glibcxx_function_requires(_ForwardIteratorConcept<_ForwardIterator>)
2097:/opt/gcc-arm-none-eabi/arm-none-eabi/include/c++/10.3.1/bits/stl_algo.h ****       __glibcxx_function_requires(_LessThanOpConcept<
2098:/opt/gcc-arm-none-eabi/arm-none-eabi/include/c++/10.3.1/bits/stl_algo.h **** 	_Tp, typename iterator_traits<_ForwardIterator>::value_type>)
2099:/opt/gcc-arm-none-eabi/arm-none-eabi/include/c++/10.3.1/bits/stl_algo.h ****       __glibcxx_requires_partitioned_upper(__first, __last, __val);
2100:/opt/gcc-arm-none-eabi/arm-none-eabi/include/c++/10.3.1/bits/stl_algo.h **** 
2101:/opt/gcc-arm-none-eabi/arm-none-eabi/include/c++/10.3.1/bits/stl_algo.h ****       return std::__upper_bound(__first, __last, __val,
2102:/opt/gcc-arm-none-eabi/arm-none-eabi/include/c++/10.3.1/bits/stl_algo.h **** 				__gnu_cxx::__ops::__val_less_iter());
2103:/opt/gcc-arm-none-eabi/arm-none-eabi/include/c++/10.3.1/bits/stl_algo.h ****     }
2104:/opt/gcc-arm-none-eabi/arm-none-eabi/include/c++/10.3.1/bits/stl_algo.h **** 
2105:/opt/gcc-arm-none-eabi/arm-none-eabi/include/c++/10.3.1/bits/stl_algo.h ****   /**
2106:/opt/gcc-arm-none-eabi/arm-none-eabi/include/c++/10.3.1/bits/stl_algo.h ****    *  @brief Finds the last position in which @p __val could be inserted
2107:/opt/gcc-arm-none-eabi/arm-none-eabi/include/c++/10.3.1/bits/stl_algo.h ****    *         without changing the ordering.
2108:/opt/gcc-arm-none-eabi/arm-none-eabi/include/c++/10.3.1/bits/stl_algo.h ****    *  @ingroup binary_search_algorithms
2109:/opt/gcc-arm-none-eabi/arm-none-eabi/include/c++/10.3.1/bits/stl_algo.h ****    *  @param  __first   An iterator.
2110:/opt/gcc-arm-none-eabi/arm-none-eabi/include/c++/10.3.1/bits/stl_algo.h ****    *  @param  __last    Another iterator.
2111:/opt/gcc-arm-none-eabi/arm-none-eabi/include/c++/10.3.1/bits/stl_algo.h ****    *  @param  __val     The search term.
2112:/opt/gcc-arm-none-eabi/arm-none-eabi/include/c++/10.3.1/bits/stl_algo.h ****    *  @param  __comp    A functor to use for comparisons.
2113:/opt/gcc-arm-none-eabi/arm-none-eabi/include/c++/10.3.1/bits/stl_algo.h ****    *  @return  An iterator pointing to the first element greater than @p __val,
2114:/opt/gcc-arm-none-eabi/arm-none-eabi/include/c++/10.3.1/bits/stl_algo.h ****    *           or end() if no elements are greater than @p __val.
2115:/opt/gcc-arm-none-eabi/arm-none-eabi/include/c++/10.3.1/bits/stl_algo.h ****    *  @ingroup binary_search_algorithms
2116:/opt/gcc-arm-none-eabi/arm-none-eabi/include/c++/10.3.1/bits/stl_algo.h ****    *
2117:/opt/gcc-arm-none-eabi/arm-none-eabi/include/c++/10.3.1/bits/stl_algo.h ****    *  The comparison function should have the same effects on ordering as
2118:/opt/gcc-arm-none-eabi/arm-none-eabi/include/c++/10.3.1/bits/stl_algo.h ****    *  the function used for the initial sort.
2119:/opt/gcc-arm-none-eabi/arm-none-eabi/include/c++/10.3.1/bits/stl_algo.h ****   */
2120:/opt/gcc-arm-none-eabi/arm-none-eabi/include/c++/10.3.1/bits/stl_algo.h ****   template<typename _ForwardIterator, typename _Tp, typename _Compare>
ARM GAS  /tmp/ccxBL0ey.s 			page 100


2121:/opt/gcc-arm-none-eabi/arm-none-eabi/include/c++/10.3.1/bits/stl_algo.h ****     _GLIBCXX20_CONSTEXPR
2122:/opt/gcc-arm-none-eabi/arm-none-eabi/include/c++/10.3.1/bits/stl_algo.h ****     inline _ForwardIterator
2123:/opt/gcc-arm-none-eabi/arm-none-eabi/include/c++/10.3.1/bits/stl_algo.h ****     upper_bound(_ForwardIterator __first, _ForwardIterator __last,
2124:/opt/gcc-arm-none-eabi/arm-none-eabi/include/c++/10.3.1/bits/stl_algo.h **** 		const _Tp& __val, _Compare __comp)
2125:/opt/gcc-arm-none-eabi/arm-none-eabi/include/c++/10.3.1/bits/stl_algo.h ****     {
2126:/opt/gcc-arm-none-eabi/arm-none-eabi/include/c++/10.3.1/bits/stl_algo.h ****       // concept requirements
2127:/opt/gcc-arm-none-eabi/arm-none-eabi/include/c++/10.3.1/bits/stl_algo.h ****       __glibcxx_function_requires(_ForwardIteratorConcept<_ForwardIterator>)
2128:/opt/gcc-arm-none-eabi/arm-none-eabi/include/c++/10.3.1/bits/stl_algo.h ****       __glibcxx_function_requires(_BinaryPredicateConcept<_Compare,
2129:/opt/gcc-arm-none-eabi/arm-none-eabi/include/c++/10.3.1/bits/stl_algo.h **** 	_Tp, typename iterator_traits<_ForwardIterator>::value_type>)
2130:/opt/gcc-arm-none-eabi/arm-none-eabi/include/c++/10.3.1/bits/stl_algo.h ****       __glibcxx_requires_partitioned_upper_pred(__first, __last,
2131:/opt/gcc-arm-none-eabi/arm-none-eabi/include/c++/10.3.1/bits/stl_algo.h **** 						__val, __comp);
2132:/opt/gcc-arm-none-eabi/arm-none-eabi/include/c++/10.3.1/bits/stl_algo.h **** 
2133:/opt/gcc-arm-none-eabi/arm-none-eabi/include/c++/10.3.1/bits/stl_algo.h ****       return std::__upper_bound(__first, __last, __val,
2134:/opt/gcc-arm-none-eabi/arm-none-eabi/include/c++/10.3.1/bits/stl_algo.h **** 				__gnu_cxx::__ops::__val_comp_iter(__comp));
2135:/opt/gcc-arm-none-eabi/arm-none-eabi/include/c++/10.3.1/bits/stl_algo.h ****     }
2136:/opt/gcc-arm-none-eabi/arm-none-eabi/include/c++/10.3.1/bits/stl_algo.h **** 
2137:/opt/gcc-arm-none-eabi/arm-none-eabi/include/c++/10.3.1/bits/stl_algo.h ****   template<typename _ForwardIterator, typename _Tp,
2138:/opt/gcc-arm-none-eabi/arm-none-eabi/include/c++/10.3.1/bits/stl_algo.h **** 	   typename _CompareItTp, typename _CompareTpIt>
2139:/opt/gcc-arm-none-eabi/arm-none-eabi/include/c++/10.3.1/bits/stl_algo.h ****     _GLIBCXX20_CONSTEXPR
2140:/opt/gcc-arm-none-eabi/arm-none-eabi/include/c++/10.3.1/bits/stl_algo.h ****     pair<_ForwardIterator, _ForwardIterator>
2141:/opt/gcc-arm-none-eabi/arm-none-eabi/include/c++/10.3.1/bits/stl_algo.h ****     __equal_range(_ForwardIterator __first, _ForwardIterator __last,
2142:/opt/gcc-arm-none-eabi/arm-none-eabi/include/c++/10.3.1/bits/stl_algo.h **** 		  const _Tp& __val,
2143:/opt/gcc-arm-none-eabi/arm-none-eabi/include/c++/10.3.1/bits/stl_algo.h **** 		  _CompareItTp __comp_it_val, _CompareTpIt __comp_val_it)
2144:/opt/gcc-arm-none-eabi/arm-none-eabi/include/c++/10.3.1/bits/stl_algo.h ****     {
2145:/opt/gcc-arm-none-eabi/arm-none-eabi/include/c++/10.3.1/bits/stl_algo.h ****       typedef typename iterator_traits<_ForwardIterator>::difference_type
2146:/opt/gcc-arm-none-eabi/arm-none-eabi/include/c++/10.3.1/bits/stl_algo.h **** 	_DistanceType;
2147:/opt/gcc-arm-none-eabi/arm-none-eabi/include/c++/10.3.1/bits/stl_algo.h **** 
2148:/opt/gcc-arm-none-eabi/arm-none-eabi/include/c++/10.3.1/bits/stl_algo.h ****       _DistanceType __len = std::distance(__first, __last);
2149:/opt/gcc-arm-none-eabi/arm-none-eabi/include/c++/10.3.1/bits/stl_algo.h **** 
2150:/opt/gcc-arm-none-eabi/arm-none-eabi/include/c++/10.3.1/bits/stl_algo.h ****       while (__len > 0)
2151:/opt/gcc-arm-none-eabi/arm-none-eabi/include/c++/10.3.1/bits/stl_algo.h **** 	{
2152:/opt/gcc-arm-none-eabi/arm-none-eabi/include/c++/10.3.1/bits/stl_algo.h **** 	  _DistanceType __half = __len >> 1;
2153:/opt/gcc-arm-none-eabi/arm-none-eabi/include/c++/10.3.1/bits/stl_algo.h **** 	  _ForwardIterator __middle = __first;
2154:/opt/gcc-arm-none-eabi/arm-none-eabi/include/c++/10.3.1/bits/stl_algo.h **** 	  std::advance(__middle, __half);
2155:/opt/gcc-arm-none-eabi/arm-none-eabi/include/c++/10.3.1/bits/stl_algo.h **** 	  if (__comp_it_val(__middle, __val))
2156:/opt/gcc-arm-none-eabi/arm-none-eabi/include/c++/10.3.1/bits/stl_algo.h **** 	    {
2157:/opt/gcc-arm-none-eabi/arm-none-eabi/include/c++/10.3.1/bits/stl_algo.h **** 	      __first = __middle;
2158:/opt/gcc-arm-none-eabi/arm-none-eabi/include/c++/10.3.1/bits/stl_algo.h **** 	      ++__first;
2159:/opt/gcc-arm-none-eabi/arm-none-eabi/include/c++/10.3.1/bits/stl_algo.h **** 	      __len = __len - __half - 1;
2160:/opt/gcc-arm-none-eabi/arm-none-eabi/include/c++/10.3.1/bits/stl_algo.h **** 	    }
2161:/opt/gcc-arm-none-eabi/arm-none-eabi/include/c++/10.3.1/bits/stl_algo.h **** 	  else if (__comp_val_it(__val, __middle))
2162:/opt/gcc-arm-none-eabi/arm-none-eabi/include/c++/10.3.1/bits/stl_algo.h **** 	    __len = __half;
2163:/opt/gcc-arm-none-eabi/arm-none-eabi/include/c++/10.3.1/bits/stl_algo.h **** 	  else
2164:/opt/gcc-arm-none-eabi/arm-none-eabi/include/c++/10.3.1/bits/stl_algo.h **** 	    {
2165:/opt/gcc-arm-none-eabi/arm-none-eabi/include/c++/10.3.1/bits/stl_algo.h **** 	      _ForwardIterator __left
2166:/opt/gcc-arm-none-eabi/arm-none-eabi/include/c++/10.3.1/bits/stl_algo.h **** 		= std::__lower_bound(__first, __middle, __val, __comp_it_val);
2167:/opt/gcc-arm-none-eabi/arm-none-eabi/include/c++/10.3.1/bits/stl_algo.h **** 	      std::advance(__first, __len);
2168:/opt/gcc-arm-none-eabi/arm-none-eabi/include/c++/10.3.1/bits/stl_algo.h **** 	      _ForwardIterator __right
2169:/opt/gcc-arm-none-eabi/arm-none-eabi/include/c++/10.3.1/bits/stl_algo.h **** 		= std::__upper_bound(++__middle, __first, __val, __comp_val_it);
2170:/opt/gcc-arm-none-eabi/arm-none-eabi/include/c++/10.3.1/bits/stl_algo.h **** 	      return pair<_ForwardIterator, _ForwardIterator>(__left, __right);
2171:/opt/gcc-arm-none-eabi/arm-none-eabi/include/c++/10.3.1/bits/stl_algo.h **** 	    }
2172:/opt/gcc-arm-none-eabi/arm-none-eabi/include/c++/10.3.1/bits/stl_algo.h **** 	}
2173:/opt/gcc-arm-none-eabi/arm-none-eabi/include/c++/10.3.1/bits/stl_algo.h ****       return pair<_ForwardIterator, _ForwardIterator>(__first, __first);
2174:/opt/gcc-arm-none-eabi/arm-none-eabi/include/c++/10.3.1/bits/stl_algo.h ****     }
2175:/opt/gcc-arm-none-eabi/arm-none-eabi/include/c++/10.3.1/bits/stl_algo.h **** 
2176:/opt/gcc-arm-none-eabi/arm-none-eabi/include/c++/10.3.1/bits/stl_algo.h ****   /**
2177:/opt/gcc-arm-none-eabi/arm-none-eabi/include/c++/10.3.1/bits/stl_algo.h ****    *  @brief Finds the largest subrange in which @p __val could be inserted
ARM GAS  /tmp/ccxBL0ey.s 			page 101


2178:/opt/gcc-arm-none-eabi/arm-none-eabi/include/c++/10.3.1/bits/stl_algo.h ****    *         at any place in it without changing the ordering.
2179:/opt/gcc-arm-none-eabi/arm-none-eabi/include/c++/10.3.1/bits/stl_algo.h ****    *  @ingroup binary_search_algorithms
2180:/opt/gcc-arm-none-eabi/arm-none-eabi/include/c++/10.3.1/bits/stl_algo.h ****    *  @param  __first   An iterator.
2181:/opt/gcc-arm-none-eabi/arm-none-eabi/include/c++/10.3.1/bits/stl_algo.h ****    *  @param  __last    Another iterator.
2182:/opt/gcc-arm-none-eabi/arm-none-eabi/include/c++/10.3.1/bits/stl_algo.h ****    *  @param  __val     The search term.
2183:/opt/gcc-arm-none-eabi/arm-none-eabi/include/c++/10.3.1/bits/stl_algo.h ****    *  @return  An pair of iterators defining the subrange.
2184:/opt/gcc-arm-none-eabi/arm-none-eabi/include/c++/10.3.1/bits/stl_algo.h ****    *  @ingroup binary_search_algorithms
2185:/opt/gcc-arm-none-eabi/arm-none-eabi/include/c++/10.3.1/bits/stl_algo.h ****    *
2186:/opt/gcc-arm-none-eabi/arm-none-eabi/include/c++/10.3.1/bits/stl_algo.h ****    *  This is equivalent to
2187:/opt/gcc-arm-none-eabi/arm-none-eabi/include/c++/10.3.1/bits/stl_algo.h ****    *  @code
2188:/opt/gcc-arm-none-eabi/arm-none-eabi/include/c++/10.3.1/bits/stl_algo.h ****    *    std::make_pair(lower_bound(__first, __last, __val),
2189:/opt/gcc-arm-none-eabi/arm-none-eabi/include/c++/10.3.1/bits/stl_algo.h ****    *                   upper_bound(__first, __last, __val))
2190:/opt/gcc-arm-none-eabi/arm-none-eabi/include/c++/10.3.1/bits/stl_algo.h ****    *  @endcode
2191:/opt/gcc-arm-none-eabi/arm-none-eabi/include/c++/10.3.1/bits/stl_algo.h ****    *  but does not actually call those functions.
2192:/opt/gcc-arm-none-eabi/arm-none-eabi/include/c++/10.3.1/bits/stl_algo.h ****   */
2193:/opt/gcc-arm-none-eabi/arm-none-eabi/include/c++/10.3.1/bits/stl_algo.h ****   template<typename _ForwardIterator, typename _Tp>
2194:/opt/gcc-arm-none-eabi/arm-none-eabi/include/c++/10.3.1/bits/stl_algo.h ****     _GLIBCXX20_CONSTEXPR
2195:/opt/gcc-arm-none-eabi/arm-none-eabi/include/c++/10.3.1/bits/stl_algo.h ****     inline pair<_ForwardIterator, _ForwardIterator>
2196:/opt/gcc-arm-none-eabi/arm-none-eabi/include/c++/10.3.1/bits/stl_algo.h ****     equal_range(_ForwardIterator __first, _ForwardIterator __last,
2197:/opt/gcc-arm-none-eabi/arm-none-eabi/include/c++/10.3.1/bits/stl_algo.h **** 		const _Tp& __val)
2198:/opt/gcc-arm-none-eabi/arm-none-eabi/include/c++/10.3.1/bits/stl_algo.h ****     {
2199:/opt/gcc-arm-none-eabi/arm-none-eabi/include/c++/10.3.1/bits/stl_algo.h ****       // concept requirements
2200:/opt/gcc-arm-none-eabi/arm-none-eabi/include/c++/10.3.1/bits/stl_algo.h ****       __glibcxx_function_requires(_ForwardIteratorConcept<_ForwardIterator>)
2201:/opt/gcc-arm-none-eabi/arm-none-eabi/include/c++/10.3.1/bits/stl_algo.h ****       __glibcxx_function_requires(_LessThanOpConcept<
2202:/opt/gcc-arm-none-eabi/arm-none-eabi/include/c++/10.3.1/bits/stl_algo.h **** 	typename iterator_traits<_ForwardIterator>::value_type, _Tp>)
2203:/opt/gcc-arm-none-eabi/arm-none-eabi/include/c++/10.3.1/bits/stl_algo.h ****       __glibcxx_function_requires(_LessThanOpConcept<
2204:/opt/gcc-arm-none-eabi/arm-none-eabi/include/c++/10.3.1/bits/stl_algo.h **** 	_Tp, typename iterator_traits<_ForwardIterator>::value_type>)
2205:/opt/gcc-arm-none-eabi/arm-none-eabi/include/c++/10.3.1/bits/stl_algo.h ****       __glibcxx_requires_partitioned_lower(__first, __last, __val);
2206:/opt/gcc-arm-none-eabi/arm-none-eabi/include/c++/10.3.1/bits/stl_algo.h ****       __glibcxx_requires_partitioned_upper(__first, __last, __val);
2207:/opt/gcc-arm-none-eabi/arm-none-eabi/include/c++/10.3.1/bits/stl_algo.h **** 
2208:/opt/gcc-arm-none-eabi/arm-none-eabi/include/c++/10.3.1/bits/stl_algo.h ****       return std::__equal_range(__first, __last, __val,
2209:/opt/gcc-arm-none-eabi/arm-none-eabi/include/c++/10.3.1/bits/stl_algo.h **** 				__gnu_cxx::__ops::__iter_less_val(),
2210:/opt/gcc-arm-none-eabi/arm-none-eabi/include/c++/10.3.1/bits/stl_algo.h **** 				__gnu_cxx::__ops::__val_less_iter());
2211:/opt/gcc-arm-none-eabi/arm-none-eabi/include/c++/10.3.1/bits/stl_algo.h ****     }
2212:/opt/gcc-arm-none-eabi/arm-none-eabi/include/c++/10.3.1/bits/stl_algo.h **** 
2213:/opt/gcc-arm-none-eabi/arm-none-eabi/include/c++/10.3.1/bits/stl_algo.h ****   /**
2214:/opt/gcc-arm-none-eabi/arm-none-eabi/include/c++/10.3.1/bits/stl_algo.h ****    *  @brief Finds the largest subrange in which @p __val could be inserted
2215:/opt/gcc-arm-none-eabi/arm-none-eabi/include/c++/10.3.1/bits/stl_algo.h ****    *         at any place in it without changing the ordering.
2216:/opt/gcc-arm-none-eabi/arm-none-eabi/include/c++/10.3.1/bits/stl_algo.h ****    *  @param  __first   An iterator.
2217:/opt/gcc-arm-none-eabi/arm-none-eabi/include/c++/10.3.1/bits/stl_algo.h ****    *  @param  __last    Another iterator.
2218:/opt/gcc-arm-none-eabi/arm-none-eabi/include/c++/10.3.1/bits/stl_algo.h ****    *  @param  __val     The search term.
2219:/opt/gcc-arm-none-eabi/arm-none-eabi/include/c++/10.3.1/bits/stl_algo.h ****    *  @param  __comp    A functor to use for comparisons.
2220:/opt/gcc-arm-none-eabi/arm-none-eabi/include/c++/10.3.1/bits/stl_algo.h ****    *  @return  An pair of iterators defining the subrange.
2221:/opt/gcc-arm-none-eabi/arm-none-eabi/include/c++/10.3.1/bits/stl_algo.h ****    *  @ingroup binary_search_algorithms
2222:/opt/gcc-arm-none-eabi/arm-none-eabi/include/c++/10.3.1/bits/stl_algo.h ****    *
2223:/opt/gcc-arm-none-eabi/arm-none-eabi/include/c++/10.3.1/bits/stl_algo.h ****    *  This is equivalent to
2224:/opt/gcc-arm-none-eabi/arm-none-eabi/include/c++/10.3.1/bits/stl_algo.h ****    *  @code
2225:/opt/gcc-arm-none-eabi/arm-none-eabi/include/c++/10.3.1/bits/stl_algo.h ****    *    std::make_pair(lower_bound(__first, __last, __val, __comp),
2226:/opt/gcc-arm-none-eabi/arm-none-eabi/include/c++/10.3.1/bits/stl_algo.h ****    *                   upper_bound(__first, __last, __val, __comp))
2227:/opt/gcc-arm-none-eabi/arm-none-eabi/include/c++/10.3.1/bits/stl_algo.h ****    *  @endcode
2228:/opt/gcc-arm-none-eabi/arm-none-eabi/include/c++/10.3.1/bits/stl_algo.h ****    *  but does not actually call those functions.
2229:/opt/gcc-arm-none-eabi/arm-none-eabi/include/c++/10.3.1/bits/stl_algo.h ****   */
2230:/opt/gcc-arm-none-eabi/arm-none-eabi/include/c++/10.3.1/bits/stl_algo.h ****   template<typename _ForwardIterator, typename _Tp, typename _Compare>
2231:/opt/gcc-arm-none-eabi/arm-none-eabi/include/c++/10.3.1/bits/stl_algo.h ****     _GLIBCXX20_CONSTEXPR
2232:/opt/gcc-arm-none-eabi/arm-none-eabi/include/c++/10.3.1/bits/stl_algo.h ****     inline pair<_ForwardIterator, _ForwardIterator>
2233:/opt/gcc-arm-none-eabi/arm-none-eabi/include/c++/10.3.1/bits/stl_algo.h ****     equal_range(_ForwardIterator __first, _ForwardIterator __last,
2234:/opt/gcc-arm-none-eabi/arm-none-eabi/include/c++/10.3.1/bits/stl_algo.h **** 		const _Tp& __val, _Compare __comp)
ARM GAS  /tmp/ccxBL0ey.s 			page 102


2235:/opt/gcc-arm-none-eabi/arm-none-eabi/include/c++/10.3.1/bits/stl_algo.h ****     {
2236:/opt/gcc-arm-none-eabi/arm-none-eabi/include/c++/10.3.1/bits/stl_algo.h ****       // concept requirements
2237:/opt/gcc-arm-none-eabi/arm-none-eabi/include/c++/10.3.1/bits/stl_algo.h ****       __glibcxx_function_requires(_ForwardIteratorConcept<_ForwardIterator>)
2238:/opt/gcc-arm-none-eabi/arm-none-eabi/include/c++/10.3.1/bits/stl_algo.h ****       __glibcxx_function_requires(_BinaryPredicateConcept<_Compare,
2239:/opt/gcc-arm-none-eabi/arm-none-eabi/include/c++/10.3.1/bits/stl_algo.h **** 	typename iterator_traits<_ForwardIterator>::value_type, _Tp>)
2240:/opt/gcc-arm-none-eabi/arm-none-eabi/include/c++/10.3.1/bits/stl_algo.h ****       __glibcxx_function_requires(_BinaryPredicateConcept<_Compare,
2241:/opt/gcc-arm-none-eabi/arm-none-eabi/include/c++/10.3.1/bits/stl_algo.h **** 	_Tp, typename iterator_traits<_ForwardIterator>::value_type>)
2242:/opt/gcc-arm-none-eabi/arm-none-eabi/include/c++/10.3.1/bits/stl_algo.h ****       __glibcxx_requires_partitioned_lower_pred(__first, __last,
2243:/opt/gcc-arm-none-eabi/arm-none-eabi/include/c++/10.3.1/bits/stl_algo.h **** 						__val, __comp);
2244:/opt/gcc-arm-none-eabi/arm-none-eabi/include/c++/10.3.1/bits/stl_algo.h ****       __glibcxx_requires_partitioned_upper_pred(__first, __last,
2245:/opt/gcc-arm-none-eabi/arm-none-eabi/include/c++/10.3.1/bits/stl_algo.h **** 						__val, __comp);
2246:/opt/gcc-arm-none-eabi/arm-none-eabi/include/c++/10.3.1/bits/stl_algo.h **** 
2247:/opt/gcc-arm-none-eabi/arm-none-eabi/include/c++/10.3.1/bits/stl_algo.h ****       return std::__equal_range(__first, __last, __val,
2248:/opt/gcc-arm-none-eabi/arm-none-eabi/include/c++/10.3.1/bits/stl_algo.h **** 				__gnu_cxx::__ops::__iter_comp_val(__comp),
2249:/opt/gcc-arm-none-eabi/arm-none-eabi/include/c++/10.3.1/bits/stl_algo.h **** 				__gnu_cxx::__ops::__val_comp_iter(__comp));
2250:/opt/gcc-arm-none-eabi/arm-none-eabi/include/c++/10.3.1/bits/stl_algo.h ****     }
2251:/opt/gcc-arm-none-eabi/arm-none-eabi/include/c++/10.3.1/bits/stl_algo.h **** 
2252:/opt/gcc-arm-none-eabi/arm-none-eabi/include/c++/10.3.1/bits/stl_algo.h ****   /**
2253:/opt/gcc-arm-none-eabi/arm-none-eabi/include/c++/10.3.1/bits/stl_algo.h ****    *  @brief Determines whether an element exists in a range.
2254:/opt/gcc-arm-none-eabi/arm-none-eabi/include/c++/10.3.1/bits/stl_algo.h ****    *  @ingroup binary_search_algorithms
2255:/opt/gcc-arm-none-eabi/arm-none-eabi/include/c++/10.3.1/bits/stl_algo.h ****    *  @param  __first   An iterator.
2256:/opt/gcc-arm-none-eabi/arm-none-eabi/include/c++/10.3.1/bits/stl_algo.h ****    *  @param  __last    Another iterator.
2257:/opt/gcc-arm-none-eabi/arm-none-eabi/include/c++/10.3.1/bits/stl_algo.h ****    *  @param  __val     The search term.
2258:/opt/gcc-arm-none-eabi/arm-none-eabi/include/c++/10.3.1/bits/stl_algo.h ****    *  @return True if @p __val (or its equivalent) is in [@p
2259:/opt/gcc-arm-none-eabi/arm-none-eabi/include/c++/10.3.1/bits/stl_algo.h ****    *  __first,@p __last ].
2260:/opt/gcc-arm-none-eabi/arm-none-eabi/include/c++/10.3.1/bits/stl_algo.h ****    *
2261:/opt/gcc-arm-none-eabi/arm-none-eabi/include/c++/10.3.1/bits/stl_algo.h ****    *  Note that this does not actually return an iterator to @p __val.  For
2262:/opt/gcc-arm-none-eabi/arm-none-eabi/include/c++/10.3.1/bits/stl_algo.h ****    *  that, use std::find or a container's specialized find member functions.
2263:/opt/gcc-arm-none-eabi/arm-none-eabi/include/c++/10.3.1/bits/stl_algo.h ****   */
2264:/opt/gcc-arm-none-eabi/arm-none-eabi/include/c++/10.3.1/bits/stl_algo.h ****   template<typename _ForwardIterator, typename _Tp>
2265:/opt/gcc-arm-none-eabi/arm-none-eabi/include/c++/10.3.1/bits/stl_algo.h ****     _GLIBCXX20_CONSTEXPR
2266:/opt/gcc-arm-none-eabi/arm-none-eabi/include/c++/10.3.1/bits/stl_algo.h ****     bool
2267:/opt/gcc-arm-none-eabi/arm-none-eabi/include/c++/10.3.1/bits/stl_algo.h ****     binary_search(_ForwardIterator __first, _ForwardIterator __last,
2268:/opt/gcc-arm-none-eabi/arm-none-eabi/include/c++/10.3.1/bits/stl_algo.h **** 		  const _Tp& __val)
2269:/opt/gcc-arm-none-eabi/arm-none-eabi/include/c++/10.3.1/bits/stl_algo.h ****     {
2270:/opt/gcc-arm-none-eabi/arm-none-eabi/include/c++/10.3.1/bits/stl_algo.h ****       // concept requirements
2271:/opt/gcc-arm-none-eabi/arm-none-eabi/include/c++/10.3.1/bits/stl_algo.h ****       __glibcxx_function_requires(_ForwardIteratorConcept<_ForwardIterator>)
2272:/opt/gcc-arm-none-eabi/arm-none-eabi/include/c++/10.3.1/bits/stl_algo.h ****       __glibcxx_function_requires(_LessThanOpConcept<
2273:/opt/gcc-arm-none-eabi/arm-none-eabi/include/c++/10.3.1/bits/stl_algo.h **** 	_Tp, typename iterator_traits<_ForwardIterator>::value_type>)
2274:/opt/gcc-arm-none-eabi/arm-none-eabi/include/c++/10.3.1/bits/stl_algo.h ****       __glibcxx_requires_partitioned_lower(__first, __last, __val);
2275:/opt/gcc-arm-none-eabi/arm-none-eabi/include/c++/10.3.1/bits/stl_algo.h ****       __glibcxx_requires_partitioned_upper(__first, __last, __val);
2276:/opt/gcc-arm-none-eabi/arm-none-eabi/include/c++/10.3.1/bits/stl_algo.h **** 
2277:/opt/gcc-arm-none-eabi/arm-none-eabi/include/c++/10.3.1/bits/stl_algo.h ****       _ForwardIterator __i
2278:/opt/gcc-arm-none-eabi/arm-none-eabi/include/c++/10.3.1/bits/stl_algo.h **** 	= std::__lower_bound(__first, __last, __val,
2279:/opt/gcc-arm-none-eabi/arm-none-eabi/include/c++/10.3.1/bits/stl_algo.h **** 			     __gnu_cxx::__ops::__iter_less_val());
2280:/opt/gcc-arm-none-eabi/arm-none-eabi/include/c++/10.3.1/bits/stl_algo.h ****       return __i != __last && !(__val < *__i);
2281:/opt/gcc-arm-none-eabi/arm-none-eabi/include/c++/10.3.1/bits/stl_algo.h ****     }
2282:/opt/gcc-arm-none-eabi/arm-none-eabi/include/c++/10.3.1/bits/stl_algo.h **** 
2283:/opt/gcc-arm-none-eabi/arm-none-eabi/include/c++/10.3.1/bits/stl_algo.h ****   /**
2284:/opt/gcc-arm-none-eabi/arm-none-eabi/include/c++/10.3.1/bits/stl_algo.h ****    *  @brief Determines whether an element exists in a range.
2285:/opt/gcc-arm-none-eabi/arm-none-eabi/include/c++/10.3.1/bits/stl_algo.h ****    *  @ingroup binary_search_algorithms
2286:/opt/gcc-arm-none-eabi/arm-none-eabi/include/c++/10.3.1/bits/stl_algo.h ****    *  @param  __first   An iterator.
2287:/opt/gcc-arm-none-eabi/arm-none-eabi/include/c++/10.3.1/bits/stl_algo.h ****    *  @param  __last    Another iterator.
2288:/opt/gcc-arm-none-eabi/arm-none-eabi/include/c++/10.3.1/bits/stl_algo.h ****    *  @param  __val     The search term.
2289:/opt/gcc-arm-none-eabi/arm-none-eabi/include/c++/10.3.1/bits/stl_algo.h ****    *  @param  __comp    A functor to use for comparisons.
2290:/opt/gcc-arm-none-eabi/arm-none-eabi/include/c++/10.3.1/bits/stl_algo.h ****    *  @return  True if @p __val (or its equivalent) is in @p [__first,__last].
2291:/opt/gcc-arm-none-eabi/arm-none-eabi/include/c++/10.3.1/bits/stl_algo.h ****    *
ARM GAS  /tmp/ccxBL0ey.s 			page 103


2292:/opt/gcc-arm-none-eabi/arm-none-eabi/include/c++/10.3.1/bits/stl_algo.h ****    *  Note that this does not actually return an iterator to @p __val.  For
2293:/opt/gcc-arm-none-eabi/arm-none-eabi/include/c++/10.3.1/bits/stl_algo.h ****    *  that, use std::find or a container's specialized find member functions.
2294:/opt/gcc-arm-none-eabi/arm-none-eabi/include/c++/10.3.1/bits/stl_algo.h ****    *
2295:/opt/gcc-arm-none-eabi/arm-none-eabi/include/c++/10.3.1/bits/stl_algo.h ****    *  The comparison function should have the same effects on ordering as
2296:/opt/gcc-arm-none-eabi/arm-none-eabi/include/c++/10.3.1/bits/stl_algo.h ****    *  the function used for the initial sort.
2297:/opt/gcc-arm-none-eabi/arm-none-eabi/include/c++/10.3.1/bits/stl_algo.h ****   */
2298:/opt/gcc-arm-none-eabi/arm-none-eabi/include/c++/10.3.1/bits/stl_algo.h ****   template<typename _ForwardIterator, typename _Tp, typename _Compare>
2299:/opt/gcc-arm-none-eabi/arm-none-eabi/include/c++/10.3.1/bits/stl_algo.h ****     _GLIBCXX20_CONSTEXPR
2300:/opt/gcc-arm-none-eabi/arm-none-eabi/include/c++/10.3.1/bits/stl_algo.h ****     bool
2301:/opt/gcc-arm-none-eabi/arm-none-eabi/include/c++/10.3.1/bits/stl_algo.h ****     binary_search(_ForwardIterator __first, _ForwardIterator __last,
2302:/opt/gcc-arm-none-eabi/arm-none-eabi/include/c++/10.3.1/bits/stl_algo.h **** 		  const _Tp& __val, _Compare __comp)
2303:/opt/gcc-arm-none-eabi/arm-none-eabi/include/c++/10.3.1/bits/stl_algo.h ****     {
2304:/opt/gcc-arm-none-eabi/arm-none-eabi/include/c++/10.3.1/bits/stl_algo.h ****       // concept requirements
2305:/opt/gcc-arm-none-eabi/arm-none-eabi/include/c++/10.3.1/bits/stl_algo.h ****       __glibcxx_function_requires(_ForwardIteratorConcept<_ForwardIterator>)
2306:/opt/gcc-arm-none-eabi/arm-none-eabi/include/c++/10.3.1/bits/stl_algo.h ****       __glibcxx_function_requires(_BinaryPredicateConcept<_Compare,
2307:/opt/gcc-arm-none-eabi/arm-none-eabi/include/c++/10.3.1/bits/stl_algo.h **** 	_Tp, typename iterator_traits<_ForwardIterator>::value_type>)
2308:/opt/gcc-arm-none-eabi/arm-none-eabi/include/c++/10.3.1/bits/stl_algo.h ****       __glibcxx_requires_partitioned_lower_pred(__first, __last,
2309:/opt/gcc-arm-none-eabi/arm-none-eabi/include/c++/10.3.1/bits/stl_algo.h **** 						__val, __comp);
2310:/opt/gcc-arm-none-eabi/arm-none-eabi/include/c++/10.3.1/bits/stl_algo.h ****       __glibcxx_requires_partitioned_upper_pred(__first, __last,
2311:/opt/gcc-arm-none-eabi/arm-none-eabi/include/c++/10.3.1/bits/stl_algo.h **** 						__val, __comp);
2312:/opt/gcc-arm-none-eabi/arm-none-eabi/include/c++/10.3.1/bits/stl_algo.h **** 
2313:/opt/gcc-arm-none-eabi/arm-none-eabi/include/c++/10.3.1/bits/stl_algo.h ****       _ForwardIterator __i
2314:/opt/gcc-arm-none-eabi/arm-none-eabi/include/c++/10.3.1/bits/stl_algo.h **** 	= std::__lower_bound(__first, __last, __val,
2315:/opt/gcc-arm-none-eabi/arm-none-eabi/include/c++/10.3.1/bits/stl_algo.h **** 			     __gnu_cxx::__ops::__iter_comp_val(__comp));
2316:/opt/gcc-arm-none-eabi/arm-none-eabi/include/c++/10.3.1/bits/stl_algo.h ****       return __i != __last && !bool(__comp(__val, *__i));
2317:/opt/gcc-arm-none-eabi/arm-none-eabi/include/c++/10.3.1/bits/stl_algo.h ****     }
2318:/opt/gcc-arm-none-eabi/arm-none-eabi/include/c++/10.3.1/bits/stl_algo.h **** 
2319:/opt/gcc-arm-none-eabi/arm-none-eabi/include/c++/10.3.1/bits/stl_algo.h ****   // merge
2320:/opt/gcc-arm-none-eabi/arm-none-eabi/include/c++/10.3.1/bits/stl_algo.h **** 
2321:/opt/gcc-arm-none-eabi/arm-none-eabi/include/c++/10.3.1/bits/stl_algo.h ****   /// This is a helper function for the __merge_adaptive routines.
2322:/opt/gcc-arm-none-eabi/arm-none-eabi/include/c++/10.3.1/bits/stl_algo.h ****   template<typename _InputIterator1, typename _InputIterator2,
2323:/opt/gcc-arm-none-eabi/arm-none-eabi/include/c++/10.3.1/bits/stl_algo.h **** 	   typename _OutputIterator, typename _Compare>
2324:/opt/gcc-arm-none-eabi/arm-none-eabi/include/c++/10.3.1/bits/stl_algo.h ****     void
2325:/opt/gcc-arm-none-eabi/arm-none-eabi/include/c++/10.3.1/bits/stl_algo.h ****     __move_merge_adaptive(_InputIterator1 __first1, _InputIterator1 __last1,
2326:/opt/gcc-arm-none-eabi/arm-none-eabi/include/c++/10.3.1/bits/stl_algo.h **** 			  _InputIterator2 __first2, _InputIterator2 __last2,
2327:/opt/gcc-arm-none-eabi/arm-none-eabi/include/c++/10.3.1/bits/stl_algo.h **** 			  _OutputIterator __result, _Compare __comp)
2328:/opt/gcc-arm-none-eabi/arm-none-eabi/include/c++/10.3.1/bits/stl_algo.h ****     {
2329:/opt/gcc-arm-none-eabi/arm-none-eabi/include/c++/10.3.1/bits/stl_algo.h ****       while (__first1 != __last1 && __first2 != __last2)
2330:/opt/gcc-arm-none-eabi/arm-none-eabi/include/c++/10.3.1/bits/stl_algo.h **** 	{
2331:/opt/gcc-arm-none-eabi/arm-none-eabi/include/c++/10.3.1/bits/stl_algo.h **** 	  if (__comp(__first2, __first1))
2332:/opt/gcc-arm-none-eabi/arm-none-eabi/include/c++/10.3.1/bits/stl_algo.h **** 	    {
2333:/opt/gcc-arm-none-eabi/arm-none-eabi/include/c++/10.3.1/bits/stl_algo.h **** 	      *__result = _GLIBCXX_MOVE(*__first2);
2334:/opt/gcc-arm-none-eabi/arm-none-eabi/include/c++/10.3.1/bits/stl_algo.h **** 	      ++__first2;
2335:/opt/gcc-arm-none-eabi/arm-none-eabi/include/c++/10.3.1/bits/stl_algo.h **** 	    }
2336:/opt/gcc-arm-none-eabi/arm-none-eabi/include/c++/10.3.1/bits/stl_algo.h **** 	  else
2337:/opt/gcc-arm-none-eabi/arm-none-eabi/include/c++/10.3.1/bits/stl_algo.h **** 	    {
2338:/opt/gcc-arm-none-eabi/arm-none-eabi/include/c++/10.3.1/bits/stl_algo.h **** 	      *__result = _GLIBCXX_MOVE(*__first1);
2339:/opt/gcc-arm-none-eabi/arm-none-eabi/include/c++/10.3.1/bits/stl_algo.h **** 	      ++__first1;
2340:/opt/gcc-arm-none-eabi/arm-none-eabi/include/c++/10.3.1/bits/stl_algo.h **** 	    }
2341:/opt/gcc-arm-none-eabi/arm-none-eabi/include/c++/10.3.1/bits/stl_algo.h **** 	  ++__result;
2342:/opt/gcc-arm-none-eabi/arm-none-eabi/include/c++/10.3.1/bits/stl_algo.h **** 	}
2343:/opt/gcc-arm-none-eabi/arm-none-eabi/include/c++/10.3.1/bits/stl_algo.h ****       if (__first1 != __last1)
2344:/opt/gcc-arm-none-eabi/arm-none-eabi/include/c++/10.3.1/bits/stl_algo.h **** 	_GLIBCXX_MOVE3(__first1, __last1, __result);
2345:/opt/gcc-arm-none-eabi/arm-none-eabi/include/c++/10.3.1/bits/stl_algo.h ****     }
2346:/opt/gcc-arm-none-eabi/arm-none-eabi/include/c++/10.3.1/bits/stl_algo.h **** 
2347:/opt/gcc-arm-none-eabi/arm-none-eabi/include/c++/10.3.1/bits/stl_algo.h ****   /// This is a helper function for the __merge_adaptive routines.
2348:/opt/gcc-arm-none-eabi/arm-none-eabi/include/c++/10.3.1/bits/stl_algo.h ****   template<typename _BidirectionalIterator1, typename _BidirectionalIterator2,
ARM GAS  /tmp/ccxBL0ey.s 			page 104


2349:/opt/gcc-arm-none-eabi/arm-none-eabi/include/c++/10.3.1/bits/stl_algo.h **** 	   typename _BidirectionalIterator3, typename _Compare>
2350:/opt/gcc-arm-none-eabi/arm-none-eabi/include/c++/10.3.1/bits/stl_algo.h ****     void
2351:/opt/gcc-arm-none-eabi/arm-none-eabi/include/c++/10.3.1/bits/stl_algo.h ****     __move_merge_adaptive_backward(_BidirectionalIterator1 __first1,
2352:/opt/gcc-arm-none-eabi/arm-none-eabi/include/c++/10.3.1/bits/stl_algo.h **** 				   _BidirectionalIterator1 __last1,
2353:/opt/gcc-arm-none-eabi/arm-none-eabi/include/c++/10.3.1/bits/stl_algo.h **** 				   _BidirectionalIterator2 __first2,
2354:/opt/gcc-arm-none-eabi/arm-none-eabi/include/c++/10.3.1/bits/stl_algo.h **** 				   _BidirectionalIterator2 __last2,
2355:/opt/gcc-arm-none-eabi/arm-none-eabi/include/c++/10.3.1/bits/stl_algo.h **** 				   _BidirectionalIterator3 __result,
2356:/opt/gcc-arm-none-eabi/arm-none-eabi/include/c++/10.3.1/bits/stl_algo.h **** 				   _Compare __comp)
2357:/opt/gcc-arm-none-eabi/arm-none-eabi/include/c++/10.3.1/bits/stl_algo.h ****     {
2358:/opt/gcc-arm-none-eabi/arm-none-eabi/include/c++/10.3.1/bits/stl_algo.h ****       if (__first1 == __last1)
2359:/opt/gcc-arm-none-eabi/arm-none-eabi/include/c++/10.3.1/bits/stl_algo.h **** 	{
2360:/opt/gcc-arm-none-eabi/arm-none-eabi/include/c++/10.3.1/bits/stl_algo.h **** 	  _GLIBCXX_MOVE_BACKWARD3(__first2, __last2, __result);
2361:/opt/gcc-arm-none-eabi/arm-none-eabi/include/c++/10.3.1/bits/stl_algo.h **** 	  return;
2362:/opt/gcc-arm-none-eabi/arm-none-eabi/include/c++/10.3.1/bits/stl_algo.h **** 	}
2363:/opt/gcc-arm-none-eabi/arm-none-eabi/include/c++/10.3.1/bits/stl_algo.h ****       else if (__first2 == __last2)
2364:/opt/gcc-arm-none-eabi/arm-none-eabi/include/c++/10.3.1/bits/stl_algo.h **** 	return;
2365:/opt/gcc-arm-none-eabi/arm-none-eabi/include/c++/10.3.1/bits/stl_algo.h **** 
2366:/opt/gcc-arm-none-eabi/arm-none-eabi/include/c++/10.3.1/bits/stl_algo.h ****       --__last1;
2367:/opt/gcc-arm-none-eabi/arm-none-eabi/include/c++/10.3.1/bits/stl_algo.h ****       --__last2;
2368:/opt/gcc-arm-none-eabi/arm-none-eabi/include/c++/10.3.1/bits/stl_algo.h ****       while (true)
2369:/opt/gcc-arm-none-eabi/arm-none-eabi/include/c++/10.3.1/bits/stl_algo.h **** 	{
2370:/opt/gcc-arm-none-eabi/arm-none-eabi/include/c++/10.3.1/bits/stl_algo.h **** 	  if (__comp(__last2, __last1))
2371:/opt/gcc-arm-none-eabi/arm-none-eabi/include/c++/10.3.1/bits/stl_algo.h **** 	    {
2372:/opt/gcc-arm-none-eabi/arm-none-eabi/include/c++/10.3.1/bits/stl_algo.h **** 	      *--__result = _GLIBCXX_MOVE(*__last1);
2373:/opt/gcc-arm-none-eabi/arm-none-eabi/include/c++/10.3.1/bits/stl_algo.h **** 	      if (__first1 == __last1)
2374:/opt/gcc-arm-none-eabi/arm-none-eabi/include/c++/10.3.1/bits/stl_algo.h **** 		{
2375:/opt/gcc-arm-none-eabi/arm-none-eabi/include/c++/10.3.1/bits/stl_algo.h **** 		  _GLIBCXX_MOVE_BACKWARD3(__first2, ++__last2, __result);
2376:/opt/gcc-arm-none-eabi/arm-none-eabi/include/c++/10.3.1/bits/stl_algo.h **** 		  return;
2377:/opt/gcc-arm-none-eabi/arm-none-eabi/include/c++/10.3.1/bits/stl_algo.h **** 		}
2378:/opt/gcc-arm-none-eabi/arm-none-eabi/include/c++/10.3.1/bits/stl_algo.h **** 	      --__last1;
2379:/opt/gcc-arm-none-eabi/arm-none-eabi/include/c++/10.3.1/bits/stl_algo.h **** 	    }
2380:/opt/gcc-arm-none-eabi/arm-none-eabi/include/c++/10.3.1/bits/stl_algo.h **** 	  else
2381:/opt/gcc-arm-none-eabi/arm-none-eabi/include/c++/10.3.1/bits/stl_algo.h **** 	    {
2382:/opt/gcc-arm-none-eabi/arm-none-eabi/include/c++/10.3.1/bits/stl_algo.h **** 	      *--__result = _GLIBCXX_MOVE(*__last2);
2383:/opt/gcc-arm-none-eabi/arm-none-eabi/include/c++/10.3.1/bits/stl_algo.h **** 	      if (__first2 == __last2)
2384:/opt/gcc-arm-none-eabi/arm-none-eabi/include/c++/10.3.1/bits/stl_algo.h **** 		return;
2385:/opt/gcc-arm-none-eabi/arm-none-eabi/include/c++/10.3.1/bits/stl_algo.h **** 	      --__last2;
2386:/opt/gcc-arm-none-eabi/arm-none-eabi/include/c++/10.3.1/bits/stl_algo.h **** 	    }
2387:/opt/gcc-arm-none-eabi/arm-none-eabi/include/c++/10.3.1/bits/stl_algo.h **** 	}
2388:/opt/gcc-arm-none-eabi/arm-none-eabi/include/c++/10.3.1/bits/stl_algo.h ****     }
2389:/opt/gcc-arm-none-eabi/arm-none-eabi/include/c++/10.3.1/bits/stl_algo.h **** 
2390:/opt/gcc-arm-none-eabi/arm-none-eabi/include/c++/10.3.1/bits/stl_algo.h ****   /// This is a helper function for the merge routines.
2391:/opt/gcc-arm-none-eabi/arm-none-eabi/include/c++/10.3.1/bits/stl_algo.h ****   template<typename _BidirectionalIterator1, typename _BidirectionalIterator2,
2392:/opt/gcc-arm-none-eabi/arm-none-eabi/include/c++/10.3.1/bits/stl_algo.h **** 	   typename _Distance>
2393:/opt/gcc-arm-none-eabi/arm-none-eabi/include/c++/10.3.1/bits/stl_algo.h ****     _BidirectionalIterator1
2394:/opt/gcc-arm-none-eabi/arm-none-eabi/include/c++/10.3.1/bits/stl_algo.h ****     __rotate_adaptive(_BidirectionalIterator1 __first,
2395:/opt/gcc-arm-none-eabi/arm-none-eabi/include/c++/10.3.1/bits/stl_algo.h **** 		      _BidirectionalIterator1 __middle,
2396:/opt/gcc-arm-none-eabi/arm-none-eabi/include/c++/10.3.1/bits/stl_algo.h **** 		      _BidirectionalIterator1 __last,
2397:/opt/gcc-arm-none-eabi/arm-none-eabi/include/c++/10.3.1/bits/stl_algo.h **** 		      _Distance __len1, _Distance __len2,
2398:/opt/gcc-arm-none-eabi/arm-none-eabi/include/c++/10.3.1/bits/stl_algo.h **** 		      _BidirectionalIterator2 __buffer,
2399:/opt/gcc-arm-none-eabi/arm-none-eabi/include/c++/10.3.1/bits/stl_algo.h **** 		      _Distance __buffer_size)
2400:/opt/gcc-arm-none-eabi/arm-none-eabi/include/c++/10.3.1/bits/stl_algo.h ****     {
2401:/opt/gcc-arm-none-eabi/arm-none-eabi/include/c++/10.3.1/bits/stl_algo.h ****       _BidirectionalIterator2 __buffer_end;
2402:/opt/gcc-arm-none-eabi/arm-none-eabi/include/c++/10.3.1/bits/stl_algo.h ****       if (__len1 > __len2 && __len2 <= __buffer_size)
2403:/opt/gcc-arm-none-eabi/arm-none-eabi/include/c++/10.3.1/bits/stl_algo.h **** 	{
2404:/opt/gcc-arm-none-eabi/arm-none-eabi/include/c++/10.3.1/bits/stl_algo.h **** 	  if (__len2)
2405:/opt/gcc-arm-none-eabi/arm-none-eabi/include/c++/10.3.1/bits/stl_algo.h **** 	    {
ARM GAS  /tmp/ccxBL0ey.s 			page 105


2406:/opt/gcc-arm-none-eabi/arm-none-eabi/include/c++/10.3.1/bits/stl_algo.h **** 	      __buffer_end = _GLIBCXX_MOVE3(__middle, __last, __buffer);
2407:/opt/gcc-arm-none-eabi/arm-none-eabi/include/c++/10.3.1/bits/stl_algo.h **** 	      _GLIBCXX_MOVE_BACKWARD3(__first, __middle, __last);
2408:/opt/gcc-arm-none-eabi/arm-none-eabi/include/c++/10.3.1/bits/stl_algo.h **** 	      return _GLIBCXX_MOVE3(__buffer, __buffer_end, __first);
2409:/opt/gcc-arm-none-eabi/arm-none-eabi/include/c++/10.3.1/bits/stl_algo.h **** 	    }
2410:/opt/gcc-arm-none-eabi/arm-none-eabi/include/c++/10.3.1/bits/stl_algo.h **** 	  else
2411:/opt/gcc-arm-none-eabi/arm-none-eabi/include/c++/10.3.1/bits/stl_algo.h **** 	    return __first;
2412:/opt/gcc-arm-none-eabi/arm-none-eabi/include/c++/10.3.1/bits/stl_algo.h **** 	}
2413:/opt/gcc-arm-none-eabi/arm-none-eabi/include/c++/10.3.1/bits/stl_algo.h ****       else if (__len1 <= __buffer_size)
2414:/opt/gcc-arm-none-eabi/arm-none-eabi/include/c++/10.3.1/bits/stl_algo.h **** 	{
2415:/opt/gcc-arm-none-eabi/arm-none-eabi/include/c++/10.3.1/bits/stl_algo.h **** 	  if (__len1)
2416:/opt/gcc-arm-none-eabi/arm-none-eabi/include/c++/10.3.1/bits/stl_algo.h **** 	    {
2417:/opt/gcc-arm-none-eabi/arm-none-eabi/include/c++/10.3.1/bits/stl_algo.h **** 	      __buffer_end = _GLIBCXX_MOVE3(__first, __middle, __buffer);
2418:/opt/gcc-arm-none-eabi/arm-none-eabi/include/c++/10.3.1/bits/stl_algo.h **** 	      _GLIBCXX_MOVE3(__middle, __last, __first);
2419:/opt/gcc-arm-none-eabi/arm-none-eabi/include/c++/10.3.1/bits/stl_algo.h **** 	      return _GLIBCXX_MOVE_BACKWARD3(__buffer, __buffer_end, __last);
2420:/opt/gcc-arm-none-eabi/arm-none-eabi/include/c++/10.3.1/bits/stl_algo.h **** 	    }
2421:/opt/gcc-arm-none-eabi/arm-none-eabi/include/c++/10.3.1/bits/stl_algo.h **** 	  else
2422:/opt/gcc-arm-none-eabi/arm-none-eabi/include/c++/10.3.1/bits/stl_algo.h **** 	    return __last;
2423:/opt/gcc-arm-none-eabi/arm-none-eabi/include/c++/10.3.1/bits/stl_algo.h **** 	}
2424:/opt/gcc-arm-none-eabi/arm-none-eabi/include/c++/10.3.1/bits/stl_algo.h ****       else
2425:/opt/gcc-arm-none-eabi/arm-none-eabi/include/c++/10.3.1/bits/stl_algo.h **** 	return std::rotate(__first, __middle, __last);
2426:/opt/gcc-arm-none-eabi/arm-none-eabi/include/c++/10.3.1/bits/stl_algo.h ****     }
2427:/opt/gcc-arm-none-eabi/arm-none-eabi/include/c++/10.3.1/bits/stl_algo.h **** 
2428:/opt/gcc-arm-none-eabi/arm-none-eabi/include/c++/10.3.1/bits/stl_algo.h ****   /// This is a helper function for the merge routines.
2429:/opt/gcc-arm-none-eabi/arm-none-eabi/include/c++/10.3.1/bits/stl_algo.h ****   template<typename _BidirectionalIterator, typename _Distance, 
2430:/opt/gcc-arm-none-eabi/arm-none-eabi/include/c++/10.3.1/bits/stl_algo.h **** 	   typename _Pointer, typename _Compare>
2431:/opt/gcc-arm-none-eabi/arm-none-eabi/include/c++/10.3.1/bits/stl_algo.h ****     void
2432:/opt/gcc-arm-none-eabi/arm-none-eabi/include/c++/10.3.1/bits/stl_algo.h ****     __merge_adaptive(_BidirectionalIterator __first,
2433:/opt/gcc-arm-none-eabi/arm-none-eabi/include/c++/10.3.1/bits/stl_algo.h **** 		     _BidirectionalIterator __middle,
2434:/opt/gcc-arm-none-eabi/arm-none-eabi/include/c++/10.3.1/bits/stl_algo.h **** 		     _BidirectionalIterator __last,
2435:/opt/gcc-arm-none-eabi/arm-none-eabi/include/c++/10.3.1/bits/stl_algo.h **** 		     _Distance __len1, _Distance __len2,
2436:/opt/gcc-arm-none-eabi/arm-none-eabi/include/c++/10.3.1/bits/stl_algo.h **** 		     _Pointer __buffer, _Distance __buffer_size,
2437:/opt/gcc-arm-none-eabi/arm-none-eabi/include/c++/10.3.1/bits/stl_algo.h **** 		     _Compare __comp)
2438:/opt/gcc-arm-none-eabi/arm-none-eabi/include/c++/10.3.1/bits/stl_algo.h ****     {
2439:/opt/gcc-arm-none-eabi/arm-none-eabi/include/c++/10.3.1/bits/stl_algo.h ****       if (__len1 <= __len2 && __len1 <= __buffer_size)
2440:/opt/gcc-arm-none-eabi/arm-none-eabi/include/c++/10.3.1/bits/stl_algo.h **** 	{
2441:/opt/gcc-arm-none-eabi/arm-none-eabi/include/c++/10.3.1/bits/stl_algo.h **** 	  _Pointer __buffer_end = _GLIBCXX_MOVE3(__first, __middle, __buffer);
2442:/opt/gcc-arm-none-eabi/arm-none-eabi/include/c++/10.3.1/bits/stl_algo.h **** 	  std::__move_merge_adaptive(__buffer, __buffer_end, __middle, __last,
2443:/opt/gcc-arm-none-eabi/arm-none-eabi/include/c++/10.3.1/bits/stl_algo.h **** 				     __first, __comp);
2444:/opt/gcc-arm-none-eabi/arm-none-eabi/include/c++/10.3.1/bits/stl_algo.h **** 	}
2445:/opt/gcc-arm-none-eabi/arm-none-eabi/include/c++/10.3.1/bits/stl_algo.h ****       else if (__len2 <= __buffer_size)
2446:/opt/gcc-arm-none-eabi/arm-none-eabi/include/c++/10.3.1/bits/stl_algo.h **** 	{
2447:/opt/gcc-arm-none-eabi/arm-none-eabi/include/c++/10.3.1/bits/stl_algo.h **** 	  _Pointer __buffer_end = _GLIBCXX_MOVE3(__middle, __last, __buffer);
2448:/opt/gcc-arm-none-eabi/arm-none-eabi/include/c++/10.3.1/bits/stl_algo.h **** 	  std::__move_merge_adaptive_backward(__first, __middle, __buffer,
2449:/opt/gcc-arm-none-eabi/arm-none-eabi/include/c++/10.3.1/bits/stl_algo.h **** 					      __buffer_end, __last, __comp);
2450:/opt/gcc-arm-none-eabi/arm-none-eabi/include/c++/10.3.1/bits/stl_algo.h **** 	}
2451:/opt/gcc-arm-none-eabi/arm-none-eabi/include/c++/10.3.1/bits/stl_algo.h ****       else
2452:/opt/gcc-arm-none-eabi/arm-none-eabi/include/c++/10.3.1/bits/stl_algo.h **** 	{
2453:/opt/gcc-arm-none-eabi/arm-none-eabi/include/c++/10.3.1/bits/stl_algo.h **** 	  _BidirectionalIterator __first_cut = __first;
2454:/opt/gcc-arm-none-eabi/arm-none-eabi/include/c++/10.3.1/bits/stl_algo.h **** 	  _BidirectionalIterator __second_cut = __middle;
2455:/opt/gcc-arm-none-eabi/arm-none-eabi/include/c++/10.3.1/bits/stl_algo.h **** 	  _Distance __len11 = 0;
2456:/opt/gcc-arm-none-eabi/arm-none-eabi/include/c++/10.3.1/bits/stl_algo.h **** 	  _Distance __len22 = 0;
2457:/opt/gcc-arm-none-eabi/arm-none-eabi/include/c++/10.3.1/bits/stl_algo.h **** 	  if (__len1 > __len2)
2458:/opt/gcc-arm-none-eabi/arm-none-eabi/include/c++/10.3.1/bits/stl_algo.h **** 	    {
2459:/opt/gcc-arm-none-eabi/arm-none-eabi/include/c++/10.3.1/bits/stl_algo.h **** 	      __len11 = __len1 / 2;
2460:/opt/gcc-arm-none-eabi/arm-none-eabi/include/c++/10.3.1/bits/stl_algo.h **** 	      std::advance(__first_cut, __len11);
2461:/opt/gcc-arm-none-eabi/arm-none-eabi/include/c++/10.3.1/bits/stl_algo.h **** 	      __second_cut
2462:/opt/gcc-arm-none-eabi/arm-none-eabi/include/c++/10.3.1/bits/stl_algo.h **** 		= std::__lower_bound(__middle, __last, *__first_cut,
ARM GAS  /tmp/ccxBL0ey.s 			page 106


2463:/opt/gcc-arm-none-eabi/arm-none-eabi/include/c++/10.3.1/bits/stl_algo.h **** 				     __gnu_cxx::__ops::__iter_comp_val(__comp));
2464:/opt/gcc-arm-none-eabi/arm-none-eabi/include/c++/10.3.1/bits/stl_algo.h **** 	      __len22 = std::distance(__middle, __second_cut);
2465:/opt/gcc-arm-none-eabi/arm-none-eabi/include/c++/10.3.1/bits/stl_algo.h **** 	    }
2466:/opt/gcc-arm-none-eabi/arm-none-eabi/include/c++/10.3.1/bits/stl_algo.h **** 	  else
2467:/opt/gcc-arm-none-eabi/arm-none-eabi/include/c++/10.3.1/bits/stl_algo.h **** 	    {
2468:/opt/gcc-arm-none-eabi/arm-none-eabi/include/c++/10.3.1/bits/stl_algo.h **** 	      __len22 = __len2 / 2;
2469:/opt/gcc-arm-none-eabi/arm-none-eabi/include/c++/10.3.1/bits/stl_algo.h **** 	      std::advance(__second_cut, __len22);
2470:/opt/gcc-arm-none-eabi/arm-none-eabi/include/c++/10.3.1/bits/stl_algo.h **** 	      __first_cut
2471:/opt/gcc-arm-none-eabi/arm-none-eabi/include/c++/10.3.1/bits/stl_algo.h **** 		= std::__upper_bound(__first, __middle, *__second_cut,
2472:/opt/gcc-arm-none-eabi/arm-none-eabi/include/c++/10.3.1/bits/stl_algo.h **** 				     __gnu_cxx::__ops::__val_comp_iter(__comp));
2473:/opt/gcc-arm-none-eabi/arm-none-eabi/include/c++/10.3.1/bits/stl_algo.h **** 	      __len11 = std::distance(__first, __first_cut);
2474:/opt/gcc-arm-none-eabi/arm-none-eabi/include/c++/10.3.1/bits/stl_algo.h **** 	    }
2475:/opt/gcc-arm-none-eabi/arm-none-eabi/include/c++/10.3.1/bits/stl_algo.h **** 
2476:/opt/gcc-arm-none-eabi/arm-none-eabi/include/c++/10.3.1/bits/stl_algo.h **** 	  _BidirectionalIterator __new_middle
2477:/opt/gcc-arm-none-eabi/arm-none-eabi/include/c++/10.3.1/bits/stl_algo.h **** 	    = std::__rotate_adaptive(__first_cut, __middle, __second_cut,
2478:/opt/gcc-arm-none-eabi/arm-none-eabi/include/c++/10.3.1/bits/stl_algo.h **** 				     __len1 - __len11, __len22, __buffer,
2479:/opt/gcc-arm-none-eabi/arm-none-eabi/include/c++/10.3.1/bits/stl_algo.h **** 				     __buffer_size);
2480:/opt/gcc-arm-none-eabi/arm-none-eabi/include/c++/10.3.1/bits/stl_algo.h **** 	  std::__merge_adaptive(__first, __first_cut, __new_middle, __len11,
2481:/opt/gcc-arm-none-eabi/arm-none-eabi/include/c++/10.3.1/bits/stl_algo.h **** 				__len22, __buffer, __buffer_size, __comp);
2482:/opt/gcc-arm-none-eabi/arm-none-eabi/include/c++/10.3.1/bits/stl_algo.h **** 	  std::__merge_adaptive(__new_middle, __second_cut, __last,
2483:/opt/gcc-arm-none-eabi/arm-none-eabi/include/c++/10.3.1/bits/stl_algo.h **** 				__len1 - __len11,
2484:/opt/gcc-arm-none-eabi/arm-none-eabi/include/c++/10.3.1/bits/stl_algo.h **** 				__len2 - __len22, __buffer,
2485:/opt/gcc-arm-none-eabi/arm-none-eabi/include/c++/10.3.1/bits/stl_algo.h **** 				__buffer_size, __comp);
2486:/opt/gcc-arm-none-eabi/arm-none-eabi/include/c++/10.3.1/bits/stl_algo.h **** 	}
2487:/opt/gcc-arm-none-eabi/arm-none-eabi/include/c++/10.3.1/bits/stl_algo.h ****     }
2488:/opt/gcc-arm-none-eabi/arm-none-eabi/include/c++/10.3.1/bits/stl_algo.h **** 
2489:/opt/gcc-arm-none-eabi/arm-none-eabi/include/c++/10.3.1/bits/stl_algo.h ****   /// This is a helper function for the merge routines.
2490:/opt/gcc-arm-none-eabi/arm-none-eabi/include/c++/10.3.1/bits/stl_algo.h ****   template<typename _BidirectionalIterator, typename _Distance,
2491:/opt/gcc-arm-none-eabi/arm-none-eabi/include/c++/10.3.1/bits/stl_algo.h **** 	   typename _Compare>
2492:/opt/gcc-arm-none-eabi/arm-none-eabi/include/c++/10.3.1/bits/stl_algo.h ****     void
2493:/opt/gcc-arm-none-eabi/arm-none-eabi/include/c++/10.3.1/bits/stl_algo.h ****     __merge_without_buffer(_BidirectionalIterator __first,
2494:/opt/gcc-arm-none-eabi/arm-none-eabi/include/c++/10.3.1/bits/stl_algo.h **** 			   _BidirectionalIterator __middle,
2495:/opt/gcc-arm-none-eabi/arm-none-eabi/include/c++/10.3.1/bits/stl_algo.h **** 			   _BidirectionalIterator __last,
2496:/opt/gcc-arm-none-eabi/arm-none-eabi/include/c++/10.3.1/bits/stl_algo.h **** 			   _Distance __len1, _Distance __len2,
2497:/opt/gcc-arm-none-eabi/arm-none-eabi/include/c++/10.3.1/bits/stl_algo.h **** 			   _Compare __comp)
2498:/opt/gcc-arm-none-eabi/arm-none-eabi/include/c++/10.3.1/bits/stl_algo.h ****     {
2499:/opt/gcc-arm-none-eabi/arm-none-eabi/include/c++/10.3.1/bits/stl_algo.h ****       if (__len1 == 0 || __len2 == 0)
2500:/opt/gcc-arm-none-eabi/arm-none-eabi/include/c++/10.3.1/bits/stl_algo.h **** 	return;
2501:/opt/gcc-arm-none-eabi/arm-none-eabi/include/c++/10.3.1/bits/stl_algo.h **** 
2502:/opt/gcc-arm-none-eabi/arm-none-eabi/include/c++/10.3.1/bits/stl_algo.h ****       if (__len1 + __len2 == 2)
2503:/opt/gcc-arm-none-eabi/arm-none-eabi/include/c++/10.3.1/bits/stl_algo.h **** 	{
2504:/opt/gcc-arm-none-eabi/arm-none-eabi/include/c++/10.3.1/bits/stl_algo.h **** 	  if (__comp(__middle, __first))
2505:/opt/gcc-arm-none-eabi/arm-none-eabi/include/c++/10.3.1/bits/stl_algo.h **** 	    std::iter_swap(__first, __middle);
2506:/opt/gcc-arm-none-eabi/arm-none-eabi/include/c++/10.3.1/bits/stl_algo.h **** 	  return;
2507:/opt/gcc-arm-none-eabi/arm-none-eabi/include/c++/10.3.1/bits/stl_algo.h **** 	}
2508:/opt/gcc-arm-none-eabi/arm-none-eabi/include/c++/10.3.1/bits/stl_algo.h **** 
2509:/opt/gcc-arm-none-eabi/arm-none-eabi/include/c++/10.3.1/bits/stl_algo.h ****       _BidirectionalIterator __first_cut = __first;
2510:/opt/gcc-arm-none-eabi/arm-none-eabi/include/c++/10.3.1/bits/stl_algo.h ****       _BidirectionalIterator __second_cut = __middle;
2511:/opt/gcc-arm-none-eabi/arm-none-eabi/include/c++/10.3.1/bits/stl_algo.h ****       _Distance __len11 = 0;
2512:/opt/gcc-arm-none-eabi/arm-none-eabi/include/c++/10.3.1/bits/stl_algo.h ****       _Distance __len22 = 0;
2513:/opt/gcc-arm-none-eabi/arm-none-eabi/include/c++/10.3.1/bits/stl_algo.h ****       if (__len1 > __len2)
2514:/opt/gcc-arm-none-eabi/arm-none-eabi/include/c++/10.3.1/bits/stl_algo.h **** 	{
2515:/opt/gcc-arm-none-eabi/arm-none-eabi/include/c++/10.3.1/bits/stl_algo.h **** 	  __len11 = __len1 / 2;
2516:/opt/gcc-arm-none-eabi/arm-none-eabi/include/c++/10.3.1/bits/stl_algo.h **** 	  std::advance(__first_cut, __len11);
2517:/opt/gcc-arm-none-eabi/arm-none-eabi/include/c++/10.3.1/bits/stl_algo.h **** 	  __second_cut
2518:/opt/gcc-arm-none-eabi/arm-none-eabi/include/c++/10.3.1/bits/stl_algo.h **** 	    = std::__lower_bound(__middle, __last, *__first_cut,
2519:/opt/gcc-arm-none-eabi/arm-none-eabi/include/c++/10.3.1/bits/stl_algo.h **** 				 __gnu_cxx::__ops::__iter_comp_val(__comp));
ARM GAS  /tmp/ccxBL0ey.s 			page 107


2520:/opt/gcc-arm-none-eabi/arm-none-eabi/include/c++/10.3.1/bits/stl_algo.h **** 	  __len22 = std::distance(__middle, __second_cut);
2521:/opt/gcc-arm-none-eabi/arm-none-eabi/include/c++/10.3.1/bits/stl_algo.h **** 	}
2522:/opt/gcc-arm-none-eabi/arm-none-eabi/include/c++/10.3.1/bits/stl_algo.h ****       else
2523:/opt/gcc-arm-none-eabi/arm-none-eabi/include/c++/10.3.1/bits/stl_algo.h **** 	{
2524:/opt/gcc-arm-none-eabi/arm-none-eabi/include/c++/10.3.1/bits/stl_algo.h **** 	  __len22 = __len2 / 2;
2525:/opt/gcc-arm-none-eabi/arm-none-eabi/include/c++/10.3.1/bits/stl_algo.h **** 	  std::advance(__second_cut, __len22);
2526:/opt/gcc-arm-none-eabi/arm-none-eabi/include/c++/10.3.1/bits/stl_algo.h **** 	  __first_cut
2527:/opt/gcc-arm-none-eabi/arm-none-eabi/include/c++/10.3.1/bits/stl_algo.h **** 	    = std::__upper_bound(__first, __middle, *__second_cut,
2528:/opt/gcc-arm-none-eabi/arm-none-eabi/include/c++/10.3.1/bits/stl_algo.h **** 				 __gnu_cxx::__ops::__val_comp_iter(__comp));
2529:/opt/gcc-arm-none-eabi/arm-none-eabi/include/c++/10.3.1/bits/stl_algo.h **** 	  __len11 = std::distance(__first, __first_cut);
2530:/opt/gcc-arm-none-eabi/arm-none-eabi/include/c++/10.3.1/bits/stl_algo.h **** 	}
2531:/opt/gcc-arm-none-eabi/arm-none-eabi/include/c++/10.3.1/bits/stl_algo.h **** 
2532:/opt/gcc-arm-none-eabi/arm-none-eabi/include/c++/10.3.1/bits/stl_algo.h ****       _BidirectionalIterator __new_middle
2533:/opt/gcc-arm-none-eabi/arm-none-eabi/include/c++/10.3.1/bits/stl_algo.h **** 	= std::rotate(__first_cut, __middle, __second_cut);
2534:/opt/gcc-arm-none-eabi/arm-none-eabi/include/c++/10.3.1/bits/stl_algo.h ****       std::__merge_without_buffer(__first, __first_cut, __new_middle,
2535:/opt/gcc-arm-none-eabi/arm-none-eabi/include/c++/10.3.1/bits/stl_algo.h **** 				  __len11, __len22, __comp);
2536:/opt/gcc-arm-none-eabi/arm-none-eabi/include/c++/10.3.1/bits/stl_algo.h ****       std::__merge_without_buffer(__new_middle, __second_cut, __last,
2537:/opt/gcc-arm-none-eabi/arm-none-eabi/include/c++/10.3.1/bits/stl_algo.h **** 				  __len1 - __len11, __len2 - __len22, __comp);
2538:/opt/gcc-arm-none-eabi/arm-none-eabi/include/c++/10.3.1/bits/stl_algo.h ****     }
2539:/opt/gcc-arm-none-eabi/arm-none-eabi/include/c++/10.3.1/bits/stl_algo.h **** 
2540:/opt/gcc-arm-none-eabi/arm-none-eabi/include/c++/10.3.1/bits/stl_algo.h ****   template<typename _BidirectionalIterator, typename _Compare>
2541:/opt/gcc-arm-none-eabi/arm-none-eabi/include/c++/10.3.1/bits/stl_algo.h ****     void
2542:/opt/gcc-arm-none-eabi/arm-none-eabi/include/c++/10.3.1/bits/stl_algo.h ****     __inplace_merge(_BidirectionalIterator __first,
2543:/opt/gcc-arm-none-eabi/arm-none-eabi/include/c++/10.3.1/bits/stl_algo.h **** 		    _BidirectionalIterator __middle,
2544:/opt/gcc-arm-none-eabi/arm-none-eabi/include/c++/10.3.1/bits/stl_algo.h **** 		    _BidirectionalIterator __last,
2545:/opt/gcc-arm-none-eabi/arm-none-eabi/include/c++/10.3.1/bits/stl_algo.h **** 		    _Compare __comp)
2546:/opt/gcc-arm-none-eabi/arm-none-eabi/include/c++/10.3.1/bits/stl_algo.h ****     {
2547:/opt/gcc-arm-none-eabi/arm-none-eabi/include/c++/10.3.1/bits/stl_algo.h ****       typedef typename iterator_traits<_BidirectionalIterator>::value_type
2548:/opt/gcc-arm-none-eabi/arm-none-eabi/include/c++/10.3.1/bits/stl_algo.h **** 	  _ValueType;
2549:/opt/gcc-arm-none-eabi/arm-none-eabi/include/c++/10.3.1/bits/stl_algo.h ****       typedef typename iterator_traits<_BidirectionalIterator>::difference_type
2550:/opt/gcc-arm-none-eabi/arm-none-eabi/include/c++/10.3.1/bits/stl_algo.h **** 	  _DistanceType;
2551:/opt/gcc-arm-none-eabi/arm-none-eabi/include/c++/10.3.1/bits/stl_algo.h **** 
2552:/opt/gcc-arm-none-eabi/arm-none-eabi/include/c++/10.3.1/bits/stl_algo.h ****       if (__first == __middle || __middle == __last)
2553:/opt/gcc-arm-none-eabi/arm-none-eabi/include/c++/10.3.1/bits/stl_algo.h **** 	return;
2554:/opt/gcc-arm-none-eabi/arm-none-eabi/include/c++/10.3.1/bits/stl_algo.h **** 
2555:/opt/gcc-arm-none-eabi/arm-none-eabi/include/c++/10.3.1/bits/stl_algo.h ****       const _DistanceType __len1 = std::distance(__first, __middle);
2556:/opt/gcc-arm-none-eabi/arm-none-eabi/include/c++/10.3.1/bits/stl_algo.h ****       const _DistanceType __len2 = std::distance(__middle, __last);
2557:/opt/gcc-arm-none-eabi/arm-none-eabi/include/c++/10.3.1/bits/stl_algo.h **** 
2558:/opt/gcc-arm-none-eabi/arm-none-eabi/include/c++/10.3.1/bits/stl_algo.h ****       typedef _Temporary_buffer<_BidirectionalIterator, _ValueType> _TmpBuf;
2559:/opt/gcc-arm-none-eabi/arm-none-eabi/include/c++/10.3.1/bits/stl_algo.h ****       _TmpBuf __buf(__first, __len1 + __len2);
2560:/opt/gcc-arm-none-eabi/arm-none-eabi/include/c++/10.3.1/bits/stl_algo.h **** 
2561:/opt/gcc-arm-none-eabi/arm-none-eabi/include/c++/10.3.1/bits/stl_algo.h ****       if (__buf.begin() == 0)
2562:/opt/gcc-arm-none-eabi/arm-none-eabi/include/c++/10.3.1/bits/stl_algo.h **** 	std::__merge_without_buffer
2563:/opt/gcc-arm-none-eabi/arm-none-eabi/include/c++/10.3.1/bits/stl_algo.h **** 	  (__first, __middle, __last, __len1, __len2, __comp);
2564:/opt/gcc-arm-none-eabi/arm-none-eabi/include/c++/10.3.1/bits/stl_algo.h ****       else
2565:/opt/gcc-arm-none-eabi/arm-none-eabi/include/c++/10.3.1/bits/stl_algo.h **** 	std::__merge_adaptive
2566:/opt/gcc-arm-none-eabi/arm-none-eabi/include/c++/10.3.1/bits/stl_algo.h **** 	  (__first, __middle, __last, __len1, __len2, __buf.begin(),
2567:/opt/gcc-arm-none-eabi/arm-none-eabi/include/c++/10.3.1/bits/stl_algo.h **** 	   _DistanceType(__buf.size()), __comp);
2568:/opt/gcc-arm-none-eabi/arm-none-eabi/include/c++/10.3.1/bits/stl_algo.h ****     }
2569:/opt/gcc-arm-none-eabi/arm-none-eabi/include/c++/10.3.1/bits/stl_algo.h **** 
2570:/opt/gcc-arm-none-eabi/arm-none-eabi/include/c++/10.3.1/bits/stl_algo.h ****   /**
2571:/opt/gcc-arm-none-eabi/arm-none-eabi/include/c++/10.3.1/bits/stl_algo.h ****    *  @brief Merges two sorted ranges in place.
2572:/opt/gcc-arm-none-eabi/arm-none-eabi/include/c++/10.3.1/bits/stl_algo.h ****    *  @ingroup sorting_algorithms
2573:/opt/gcc-arm-none-eabi/arm-none-eabi/include/c++/10.3.1/bits/stl_algo.h ****    *  @param  __first   An iterator.
2574:/opt/gcc-arm-none-eabi/arm-none-eabi/include/c++/10.3.1/bits/stl_algo.h ****    *  @param  __middle  Another iterator.
2575:/opt/gcc-arm-none-eabi/arm-none-eabi/include/c++/10.3.1/bits/stl_algo.h ****    *  @param  __last    Another iterator.
2576:/opt/gcc-arm-none-eabi/arm-none-eabi/include/c++/10.3.1/bits/stl_algo.h ****    *  @return  Nothing.
ARM GAS  /tmp/ccxBL0ey.s 			page 108


2577:/opt/gcc-arm-none-eabi/arm-none-eabi/include/c++/10.3.1/bits/stl_algo.h ****    *
2578:/opt/gcc-arm-none-eabi/arm-none-eabi/include/c++/10.3.1/bits/stl_algo.h ****    *  Merges two sorted and consecutive ranges, [__first,__middle) and
2579:/opt/gcc-arm-none-eabi/arm-none-eabi/include/c++/10.3.1/bits/stl_algo.h ****    *  [__middle,__last), and puts the result in [__first,__last).  The
2580:/opt/gcc-arm-none-eabi/arm-none-eabi/include/c++/10.3.1/bits/stl_algo.h ****    *  output will be sorted.  The sort is @e stable, that is, for
2581:/opt/gcc-arm-none-eabi/arm-none-eabi/include/c++/10.3.1/bits/stl_algo.h ****    *  equivalent elements in the two ranges, elements from the first
2582:/opt/gcc-arm-none-eabi/arm-none-eabi/include/c++/10.3.1/bits/stl_algo.h ****    *  range will always come before elements from the second.
2583:/opt/gcc-arm-none-eabi/arm-none-eabi/include/c++/10.3.1/bits/stl_algo.h ****    *
2584:/opt/gcc-arm-none-eabi/arm-none-eabi/include/c++/10.3.1/bits/stl_algo.h ****    *  If enough additional memory is available, this takes (__last-__first)-1
2585:/opt/gcc-arm-none-eabi/arm-none-eabi/include/c++/10.3.1/bits/stl_algo.h ****    *  comparisons.  Otherwise an NlogN algorithm is used, where N is
2586:/opt/gcc-arm-none-eabi/arm-none-eabi/include/c++/10.3.1/bits/stl_algo.h ****    *  distance(__first,__last).
2587:/opt/gcc-arm-none-eabi/arm-none-eabi/include/c++/10.3.1/bits/stl_algo.h ****   */
2588:/opt/gcc-arm-none-eabi/arm-none-eabi/include/c++/10.3.1/bits/stl_algo.h ****   template<typename _BidirectionalIterator>
2589:/opt/gcc-arm-none-eabi/arm-none-eabi/include/c++/10.3.1/bits/stl_algo.h ****     inline void
2590:/opt/gcc-arm-none-eabi/arm-none-eabi/include/c++/10.3.1/bits/stl_algo.h ****     inplace_merge(_BidirectionalIterator __first,
2591:/opt/gcc-arm-none-eabi/arm-none-eabi/include/c++/10.3.1/bits/stl_algo.h **** 		  _BidirectionalIterator __middle,
2592:/opt/gcc-arm-none-eabi/arm-none-eabi/include/c++/10.3.1/bits/stl_algo.h **** 		  _BidirectionalIterator __last)
2593:/opt/gcc-arm-none-eabi/arm-none-eabi/include/c++/10.3.1/bits/stl_algo.h ****     {
2594:/opt/gcc-arm-none-eabi/arm-none-eabi/include/c++/10.3.1/bits/stl_algo.h ****       // concept requirements
2595:/opt/gcc-arm-none-eabi/arm-none-eabi/include/c++/10.3.1/bits/stl_algo.h ****       __glibcxx_function_requires(_Mutable_BidirectionalIteratorConcept<
2596:/opt/gcc-arm-none-eabi/arm-none-eabi/include/c++/10.3.1/bits/stl_algo.h **** 	    _BidirectionalIterator>)
2597:/opt/gcc-arm-none-eabi/arm-none-eabi/include/c++/10.3.1/bits/stl_algo.h ****       __glibcxx_function_requires(_LessThanComparableConcept<
2598:/opt/gcc-arm-none-eabi/arm-none-eabi/include/c++/10.3.1/bits/stl_algo.h **** 	    typename iterator_traits<_BidirectionalIterator>::value_type>)
2599:/opt/gcc-arm-none-eabi/arm-none-eabi/include/c++/10.3.1/bits/stl_algo.h ****       __glibcxx_requires_sorted(__first, __middle);
2600:/opt/gcc-arm-none-eabi/arm-none-eabi/include/c++/10.3.1/bits/stl_algo.h ****       __glibcxx_requires_sorted(__middle, __last);
2601:/opt/gcc-arm-none-eabi/arm-none-eabi/include/c++/10.3.1/bits/stl_algo.h ****       __glibcxx_requires_irreflexive(__first, __last);
2602:/opt/gcc-arm-none-eabi/arm-none-eabi/include/c++/10.3.1/bits/stl_algo.h **** 
2603:/opt/gcc-arm-none-eabi/arm-none-eabi/include/c++/10.3.1/bits/stl_algo.h ****       std::__inplace_merge(__first, __middle, __last,
2604:/opt/gcc-arm-none-eabi/arm-none-eabi/include/c++/10.3.1/bits/stl_algo.h **** 			   __gnu_cxx::__ops::__iter_less_iter());
2605:/opt/gcc-arm-none-eabi/arm-none-eabi/include/c++/10.3.1/bits/stl_algo.h ****     }
2606:/opt/gcc-arm-none-eabi/arm-none-eabi/include/c++/10.3.1/bits/stl_algo.h **** 
2607:/opt/gcc-arm-none-eabi/arm-none-eabi/include/c++/10.3.1/bits/stl_algo.h ****   /**
2608:/opt/gcc-arm-none-eabi/arm-none-eabi/include/c++/10.3.1/bits/stl_algo.h ****    *  @brief Merges two sorted ranges in place.
2609:/opt/gcc-arm-none-eabi/arm-none-eabi/include/c++/10.3.1/bits/stl_algo.h ****    *  @ingroup sorting_algorithms
2610:/opt/gcc-arm-none-eabi/arm-none-eabi/include/c++/10.3.1/bits/stl_algo.h ****    *  @param  __first   An iterator.
2611:/opt/gcc-arm-none-eabi/arm-none-eabi/include/c++/10.3.1/bits/stl_algo.h ****    *  @param  __middle  Another iterator.
2612:/opt/gcc-arm-none-eabi/arm-none-eabi/include/c++/10.3.1/bits/stl_algo.h ****    *  @param  __last    Another iterator.
2613:/opt/gcc-arm-none-eabi/arm-none-eabi/include/c++/10.3.1/bits/stl_algo.h ****    *  @param  __comp    A functor to use for comparisons.
2614:/opt/gcc-arm-none-eabi/arm-none-eabi/include/c++/10.3.1/bits/stl_algo.h ****    *  @return  Nothing.
2615:/opt/gcc-arm-none-eabi/arm-none-eabi/include/c++/10.3.1/bits/stl_algo.h ****    *
2616:/opt/gcc-arm-none-eabi/arm-none-eabi/include/c++/10.3.1/bits/stl_algo.h ****    *  Merges two sorted and consecutive ranges, [__first,__middle) and
2617:/opt/gcc-arm-none-eabi/arm-none-eabi/include/c++/10.3.1/bits/stl_algo.h ****    *  [middle,last), and puts the result in [__first,__last).  The output will
2618:/opt/gcc-arm-none-eabi/arm-none-eabi/include/c++/10.3.1/bits/stl_algo.h ****    *  be sorted.  The sort is @e stable, that is, for equivalent
2619:/opt/gcc-arm-none-eabi/arm-none-eabi/include/c++/10.3.1/bits/stl_algo.h ****    *  elements in the two ranges, elements from the first range will always
2620:/opt/gcc-arm-none-eabi/arm-none-eabi/include/c++/10.3.1/bits/stl_algo.h ****    *  come before elements from the second.
2621:/opt/gcc-arm-none-eabi/arm-none-eabi/include/c++/10.3.1/bits/stl_algo.h ****    *
2622:/opt/gcc-arm-none-eabi/arm-none-eabi/include/c++/10.3.1/bits/stl_algo.h ****    *  If enough additional memory is available, this takes (__last-__first)-1
2623:/opt/gcc-arm-none-eabi/arm-none-eabi/include/c++/10.3.1/bits/stl_algo.h ****    *  comparisons.  Otherwise an NlogN algorithm is used, where N is
2624:/opt/gcc-arm-none-eabi/arm-none-eabi/include/c++/10.3.1/bits/stl_algo.h ****    *  distance(__first,__last).
2625:/opt/gcc-arm-none-eabi/arm-none-eabi/include/c++/10.3.1/bits/stl_algo.h ****    *
2626:/opt/gcc-arm-none-eabi/arm-none-eabi/include/c++/10.3.1/bits/stl_algo.h ****    *  The comparison function should have the same effects on ordering as
2627:/opt/gcc-arm-none-eabi/arm-none-eabi/include/c++/10.3.1/bits/stl_algo.h ****    *  the function used for the initial sort.
2628:/opt/gcc-arm-none-eabi/arm-none-eabi/include/c++/10.3.1/bits/stl_algo.h ****   */
2629:/opt/gcc-arm-none-eabi/arm-none-eabi/include/c++/10.3.1/bits/stl_algo.h ****   template<typename _BidirectionalIterator, typename _Compare>
2630:/opt/gcc-arm-none-eabi/arm-none-eabi/include/c++/10.3.1/bits/stl_algo.h ****     inline void
2631:/opt/gcc-arm-none-eabi/arm-none-eabi/include/c++/10.3.1/bits/stl_algo.h ****     inplace_merge(_BidirectionalIterator __first,
2632:/opt/gcc-arm-none-eabi/arm-none-eabi/include/c++/10.3.1/bits/stl_algo.h **** 		  _BidirectionalIterator __middle,
2633:/opt/gcc-arm-none-eabi/arm-none-eabi/include/c++/10.3.1/bits/stl_algo.h **** 		  _BidirectionalIterator __last,
ARM GAS  /tmp/ccxBL0ey.s 			page 109


2634:/opt/gcc-arm-none-eabi/arm-none-eabi/include/c++/10.3.1/bits/stl_algo.h **** 		  _Compare __comp)
2635:/opt/gcc-arm-none-eabi/arm-none-eabi/include/c++/10.3.1/bits/stl_algo.h ****     {
2636:/opt/gcc-arm-none-eabi/arm-none-eabi/include/c++/10.3.1/bits/stl_algo.h ****       // concept requirements
2637:/opt/gcc-arm-none-eabi/arm-none-eabi/include/c++/10.3.1/bits/stl_algo.h ****       __glibcxx_function_requires(_Mutable_BidirectionalIteratorConcept<
2638:/opt/gcc-arm-none-eabi/arm-none-eabi/include/c++/10.3.1/bits/stl_algo.h **** 	    _BidirectionalIterator>)
2639:/opt/gcc-arm-none-eabi/arm-none-eabi/include/c++/10.3.1/bits/stl_algo.h ****       __glibcxx_function_requires(_BinaryPredicateConcept<_Compare,
2640:/opt/gcc-arm-none-eabi/arm-none-eabi/include/c++/10.3.1/bits/stl_algo.h **** 	    typename iterator_traits<_BidirectionalIterator>::value_type,
2641:/opt/gcc-arm-none-eabi/arm-none-eabi/include/c++/10.3.1/bits/stl_algo.h **** 	    typename iterator_traits<_BidirectionalIterator>::value_type>)
2642:/opt/gcc-arm-none-eabi/arm-none-eabi/include/c++/10.3.1/bits/stl_algo.h ****       __glibcxx_requires_sorted_pred(__first, __middle, __comp);
2643:/opt/gcc-arm-none-eabi/arm-none-eabi/include/c++/10.3.1/bits/stl_algo.h ****       __glibcxx_requires_sorted_pred(__middle, __last, __comp);
2644:/opt/gcc-arm-none-eabi/arm-none-eabi/include/c++/10.3.1/bits/stl_algo.h ****       __glibcxx_requires_irreflexive_pred(__first, __last, __comp);
2645:/opt/gcc-arm-none-eabi/arm-none-eabi/include/c++/10.3.1/bits/stl_algo.h **** 
2646:/opt/gcc-arm-none-eabi/arm-none-eabi/include/c++/10.3.1/bits/stl_algo.h ****       std::__inplace_merge(__first, __middle, __last,
2647:/opt/gcc-arm-none-eabi/arm-none-eabi/include/c++/10.3.1/bits/stl_algo.h **** 			   __gnu_cxx::__ops::__iter_comp_iter(__comp));
2648:/opt/gcc-arm-none-eabi/arm-none-eabi/include/c++/10.3.1/bits/stl_algo.h ****     }
2649:/opt/gcc-arm-none-eabi/arm-none-eabi/include/c++/10.3.1/bits/stl_algo.h **** 
2650:/opt/gcc-arm-none-eabi/arm-none-eabi/include/c++/10.3.1/bits/stl_algo.h **** 
2651:/opt/gcc-arm-none-eabi/arm-none-eabi/include/c++/10.3.1/bits/stl_algo.h ****   /// This is a helper function for the __merge_sort_loop routines.
2652:/opt/gcc-arm-none-eabi/arm-none-eabi/include/c++/10.3.1/bits/stl_algo.h ****   template<typename _InputIterator, typename _OutputIterator,
2653:/opt/gcc-arm-none-eabi/arm-none-eabi/include/c++/10.3.1/bits/stl_algo.h **** 	   typename _Compare>
2654:/opt/gcc-arm-none-eabi/arm-none-eabi/include/c++/10.3.1/bits/stl_algo.h ****     _OutputIterator
2655:/opt/gcc-arm-none-eabi/arm-none-eabi/include/c++/10.3.1/bits/stl_algo.h ****     __move_merge(_InputIterator __first1, _InputIterator __last1,
2656:/opt/gcc-arm-none-eabi/arm-none-eabi/include/c++/10.3.1/bits/stl_algo.h **** 		 _InputIterator __first2, _InputIterator __last2,
2657:/opt/gcc-arm-none-eabi/arm-none-eabi/include/c++/10.3.1/bits/stl_algo.h **** 		 _OutputIterator __result, _Compare __comp)
2658:/opt/gcc-arm-none-eabi/arm-none-eabi/include/c++/10.3.1/bits/stl_algo.h ****     {
2659:/opt/gcc-arm-none-eabi/arm-none-eabi/include/c++/10.3.1/bits/stl_algo.h ****       while (__first1 != __last1 && __first2 != __last2)
2660:/opt/gcc-arm-none-eabi/arm-none-eabi/include/c++/10.3.1/bits/stl_algo.h **** 	{
2661:/opt/gcc-arm-none-eabi/arm-none-eabi/include/c++/10.3.1/bits/stl_algo.h **** 	  if (__comp(__first2, __first1))
2662:/opt/gcc-arm-none-eabi/arm-none-eabi/include/c++/10.3.1/bits/stl_algo.h **** 	    {
2663:/opt/gcc-arm-none-eabi/arm-none-eabi/include/c++/10.3.1/bits/stl_algo.h **** 	      *__result = _GLIBCXX_MOVE(*__first2);
2664:/opt/gcc-arm-none-eabi/arm-none-eabi/include/c++/10.3.1/bits/stl_algo.h **** 	      ++__first2;
2665:/opt/gcc-arm-none-eabi/arm-none-eabi/include/c++/10.3.1/bits/stl_algo.h **** 	    }
2666:/opt/gcc-arm-none-eabi/arm-none-eabi/include/c++/10.3.1/bits/stl_algo.h **** 	  else
2667:/opt/gcc-arm-none-eabi/arm-none-eabi/include/c++/10.3.1/bits/stl_algo.h **** 	    {
2668:/opt/gcc-arm-none-eabi/arm-none-eabi/include/c++/10.3.1/bits/stl_algo.h **** 	      *__result = _GLIBCXX_MOVE(*__first1);
2669:/opt/gcc-arm-none-eabi/arm-none-eabi/include/c++/10.3.1/bits/stl_algo.h **** 	      ++__first1;
2670:/opt/gcc-arm-none-eabi/arm-none-eabi/include/c++/10.3.1/bits/stl_algo.h **** 	    }
2671:/opt/gcc-arm-none-eabi/arm-none-eabi/include/c++/10.3.1/bits/stl_algo.h **** 	  ++__result;
2672:/opt/gcc-arm-none-eabi/arm-none-eabi/include/c++/10.3.1/bits/stl_algo.h **** 	}
2673:/opt/gcc-arm-none-eabi/arm-none-eabi/include/c++/10.3.1/bits/stl_algo.h ****       return _GLIBCXX_MOVE3(__first2, __last2,
2674:/opt/gcc-arm-none-eabi/arm-none-eabi/include/c++/10.3.1/bits/stl_algo.h **** 			    _GLIBCXX_MOVE3(__first1, __last1,
2675:/opt/gcc-arm-none-eabi/arm-none-eabi/include/c++/10.3.1/bits/stl_algo.h **** 					   __result));
2676:/opt/gcc-arm-none-eabi/arm-none-eabi/include/c++/10.3.1/bits/stl_algo.h ****     }
2677:/opt/gcc-arm-none-eabi/arm-none-eabi/include/c++/10.3.1/bits/stl_algo.h **** 
2678:/opt/gcc-arm-none-eabi/arm-none-eabi/include/c++/10.3.1/bits/stl_algo.h ****   template<typename _RandomAccessIterator1, typename _RandomAccessIterator2,
2679:/opt/gcc-arm-none-eabi/arm-none-eabi/include/c++/10.3.1/bits/stl_algo.h **** 	   typename _Distance, typename _Compare>
2680:/opt/gcc-arm-none-eabi/arm-none-eabi/include/c++/10.3.1/bits/stl_algo.h ****     void
2681:/opt/gcc-arm-none-eabi/arm-none-eabi/include/c++/10.3.1/bits/stl_algo.h ****     __merge_sort_loop(_RandomAccessIterator1 __first,
2682:/opt/gcc-arm-none-eabi/arm-none-eabi/include/c++/10.3.1/bits/stl_algo.h **** 		      _RandomAccessIterator1 __last,
2683:/opt/gcc-arm-none-eabi/arm-none-eabi/include/c++/10.3.1/bits/stl_algo.h **** 		      _RandomAccessIterator2 __result, _Distance __step_size,
2684:/opt/gcc-arm-none-eabi/arm-none-eabi/include/c++/10.3.1/bits/stl_algo.h **** 		      _Compare __comp)
2685:/opt/gcc-arm-none-eabi/arm-none-eabi/include/c++/10.3.1/bits/stl_algo.h ****     {
2686:/opt/gcc-arm-none-eabi/arm-none-eabi/include/c++/10.3.1/bits/stl_algo.h ****       const _Distance __two_step = 2 * __step_size;
2687:/opt/gcc-arm-none-eabi/arm-none-eabi/include/c++/10.3.1/bits/stl_algo.h **** 
2688:/opt/gcc-arm-none-eabi/arm-none-eabi/include/c++/10.3.1/bits/stl_algo.h ****       while (__last - __first >= __two_step)
2689:/opt/gcc-arm-none-eabi/arm-none-eabi/include/c++/10.3.1/bits/stl_algo.h **** 	{
2690:/opt/gcc-arm-none-eabi/arm-none-eabi/include/c++/10.3.1/bits/stl_algo.h **** 	  __result = std::__move_merge(__first, __first + __step_size,
ARM GAS  /tmp/ccxBL0ey.s 			page 110


2691:/opt/gcc-arm-none-eabi/arm-none-eabi/include/c++/10.3.1/bits/stl_algo.h **** 				       __first + __step_size,
2692:/opt/gcc-arm-none-eabi/arm-none-eabi/include/c++/10.3.1/bits/stl_algo.h **** 				       __first + __two_step,
2693:/opt/gcc-arm-none-eabi/arm-none-eabi/include/c++/10.3.1/bits/stl_algo.h **** 				       __result, __comp);
2694:/opt/gcc-arm-none-eabi/arm-none-eabi/include/c++/10.3.1/bits/stl_algo.h **** 	  __first += __two_step;
2695:/opt/gcc-arm-none-eabi/arm-none-eabi/include/c++/10.3.1/bits/stl_algo.h **** 	}
2696:/opt/gcc-arm-none-eabi/arm-none-eabi/include/c++/10.3.1/bits/stl_algo.h ****       __step_size = std::min(_Distance(__last - __first), __step_size);
2697:/opt/gcc-arm-none-eabi/arm-none-eabi/include/c++/10.3.1/bits/stl_algo.h **** 
2698:/opt/gcc-arm-none-eabi/arm-none-eabi/include/c++/10.3.1/bits/stl_algo.h ****       std::__move_merge(__first, __first + __step_size,
2699:/opt/gcc-arm-none-eabi/arm-none-eabi/include/c++/10.3.1/bits/stl_algo.h **** 			__first + __step_size, __last, __result, __comp);
2700:/opt/gcc-arm-none-eabi/arm-none-eabi/include/c++/10.3.1/bits/stl_algo.h ****     }
2701:/opt/gcc-arm-none-eabi/arm-none-eabi/include/c++/10.3.1/bits/stl_algo.h **** 
2702:/opt/gcc-arm-none-eabi/arm-none-eabi/include/c++/10.3.1/bits/stl_algo.h ****   template<typename _RandomAccessIterator, typename _Distance,
2703:/opt/gcc-arm-none-eabi/arm-none-eabi/include/c++/10.3.1/bits/stl_algo.h **** 	   typename _Compare>
2704:/opt/gcc-arm-none-eabi/arm-none-eabi/include/c++/10.3.1/bits/stl_algo.h ****     _GLIBCXX20_CONSTEXPR
2705:/opt/gcc-arm-none-eabi/arm-none-eabi/include/c++/10.3.1/bits/stl_algo.h ****     void
2706:/opt/gcc-arm-none-eabi/arm-none-eabi/include/c++/10.3.1/bits/stl_algo.h ****     __chunk_insertion_sort(_RandomAccessIterator __first,
2707:/opt/gcc-arm-none-eabi/arm-none-eabi/include/c++/10.3.1/bits/stl_algo.h **** 			   _RandomAccessIterator __last,
2708:/opt/gcc-arm-none-eabi/arm-none-eabi/include/c++/10.3.1/bits/stl_algo.h **** 			   _Distance __chunk_size, _Compare __comp)
2709:/opt/gcc-arm-none-eabi/arm-none-eabi/include/c++/10.3.1/bits/stl_algo.h ****     {
2710:/opt/gcc-arm-none-eabi/arm-none-eabi/include/c++/10.3.1/bits/stl_algo.h ****       while (__last - __first >= __chunk_size)
2711:/opt/gcc-arm-none-eabi/arm-none-eabi/include/c++/10.3.1/bits/stl_algo.h **** 	{
2712:/opt/gcc-arm-none-eabi/arm-none-eabi/include/c++/10.3.1/bits/stl_algo.h **** 	  std::__insertion_sort(__first, __first + __chunk_size, __comp);
2713:/opt/gcc-arm-none-eabi/arm-none-eabi/include/c++/10.3.1/bits/stl_algo.h **** 	  __first += __chunk_size;
2714:/opt/gcc-arm-none-eabi/arm-none-eabi/include/c++/10.3.1/bits/stl_algo.h **** 	}
2715:/opt/gcc-arm-none-eabi/arm-none-eabi/include/c++/10.3.1/bits/stl_algo.h ****       std::__insertion_sort(__first, __last, __comp);
2716:/opt/gcc-arm-none-eabi/arm-none-eabi/include/c++/10.3.1/bits/stl_algo.h ****     }
2717:/opt/gcc-arm-none-eabi/arm-none-eabi/include/c++/10.3.1/bits/stl_algo.h **** 
2718:/opt/gcc-arm-none-eabi/arm-none-eabi/include/c++/10.3.1/bits/stl_algo.h ****   enum { _S_chunk_size = 7 };
2719:/opt/gcc-arm-none-eabi/arm-none-eabi/include/c++/10.3.1/bits/stl_algo.h **** 
2720:/opt/gcc-arm-none-eabi/arm-none-eabi/include/c++/10.3.1/bits/stl_algo.h ****   template<typename _RandomAccessIterator, typename _Pointer, typename _Compare>
2721:/opt/gcc-arm-none-eabi/arm-none-eabi/include/c++/10.3.1/bits/stl_algo.h ****     void
2722:/opt/gcc-arm-none-eabi/arm-none-eabi/include/c++/10.3.1/bits/stl_algo.h ****     __merge_sort_with_buffer(_RandomAccessIterator __first,
2723:/opt/gcc-arm-none-eabi/arm-none-eabi/include/c++/10.3.1/bits/stl_algo.h **** 			     _RandomAccessIterator __last,
2724:/opt/gcc-arm-none-eabi/arm-none-eabi/include/c++/10.3.1/bits/stl_algo.h **** 			     _Pointer __buffer, _Compare __comp)
2725:/opt/gcc-arm-none-eabi/arm-none-eabi/include/c++/10.3.1/bits/stl_algo.h ****     {
2726:/opt/gcc-arm-none-eabi/arm-none-eabi/include/c++/10.3.1/bits/stl_algo.h ****       typedef typename iterator_traits<_RandomAccessIterator>::difference_type
2727:/opt/gcc-arm-none-eabi/arm-none-eabi/include/c++/10.3.1/bits/stl_algo.h **** 	_Distance;
2728:/opt/gcc-arm-none-eabi/arm-none-eabi/include/c++/10.3.1/bits/stl_algo.h **** 
2729:/opt/gcc-arm-none-eabi/arm-none-eabi/include/c++/10.3.1/bits/stl_algo.h ****       const _Distance __len = __last - __first;
2730:/opt/gcc-arm-none-eabi/arm-none-eabi/include/c++/10.3.1/bits/stl_algo.h ****       const _Pointer __buffer_last = __buffer + __len;
2731:/opt/gcc-arm-none-eabi/arm-none-eabi/include/c++/10.3.1/bits/stl_algo.h **** 
2732:/opt/gcc-arm-none-eabi/arm-none-eabi/include/c++/10.3.1/bits/stl_algo.h ****       _Distance __step_size = _S_chunk_size;
2733:/opt/gcc-arm-none-eabi/arm-none-eabi/include/c++/10.3.1/bits/stl_algo.h ****       std::__chunk_insertion_sort(__first, __last, __step_size, __comp);
2734:/opt/gcc-arm-none-eabi/arm-none-eabi/include/c++/10.3.1/bits/stl_algo.h **** 
2735:/opt/gcc-arm-none-eabi/arm-none-eabi/include/c++/10.3.1/bits/stl_algo.h ****       while (__step_size < __len)
2736:/opt/gcc-arm-none-eabi/arm-none-eabi/include/c++/10.3.1/bits/stl_algo.h **** 	{
2737:/opt/gcc-arm-none-eabi/arm-none-eabi/include/c++/10.3.1/bits/stl_algo.h **** 	  std::__merge_sort_loop(__first, __last, __buffer,
2738:/opt/gcc-arm-none-eabi/arm-none-eabi/include/c++/10.3.1/bits/stl_algo.h **** 				 __step_size, __comp);
2739:/opt/gcc-arm-none-eabi/arm-none-eabi/include/c++/10.3.1/bits/stl_algo.h **** 	  __step_size *= 2;
2740:/opt/gcc-arm-none-eabi/arm-none-eabi/include/c++/10.3.1/bits/stl_algo.h **** 	  std::__merge_sort_loop(__buffer, __buffer_last, __first,
2741:/opt/gcc-arm-none-eabi/arm-none-eabi/include/c++/10.3.1/bits/stl_algo.h **** 				 __step_size, __comp);
2742:/opt/gcc-arm-none-eabi/arm-none-eabi/include/c++/10.3.1/bits/stl_algo.h **** 	  __step_size *= 2;
2743:/opt/gcc-arm-none-eabi/arm-none-eabi/include/c++/10.3.1/bits/stl_algo.h **** 	}
2744:/opt/gcc-arm-none-eabi/arm-none-eabi/include/c++/10.3.1/bits/stl_algo.h ****     }
2745:/opt/gcc-arm-none-eabi/arm-none-eabi/include/c++/10.3.1/bits/stl_algo.h **** 
2746:/opt/gcc-arm-none-eabi/arm-none-eabi/include/c++/10.3.1/bits/stl_algo.h ****   template<typename _RandomAccessIterator, typename _Pointer,
2747:/opt/gcc-arm-none-eabi/arm-none-eabi/include/c++/10.3.1/bits/stl_algo.h **** 	   typename _Distance, typename _Compare>
ARM GAS  /tmp/ccxBL0ey.s 			page 111


2748:/opt/gcc-arm-none-eabi/arm-none-eabi/include/c++/10.3.1/bits/stl_algo.h ****     void
2749:/opt/gcc-arm-none-eabi/arm-none-eabi/include/c++/10.3.1/bits/stl_algo.h ****     __stable_sort_adaptive(_RandomAccessIterator __first,
2750:/opt/gcc-arm-none-eabi/arm-none-eabi/include/c++/10.3.1/bits/stl_algo.h **** 			   _RandomAccessIterator __last,
2751:/opt/gcc-arm-none-eabi/arm-none-eabi/include/c++/10.3.1/bits/stl_algo.h **** 			   _Pointer __buffer, _Distance __buffer_size,
2752:/opt/gcc-arm-none-eabi/arm-none-eabi/include/c++/10.3.1/bits/stl_algo.h **** 			   _Compare __comp)
2753:/opt/gcc-arm-none-eabi/arm-none-eabi/include/c++/10.3.1/bits/stl_algo.h ****     {
2754:/opt/gcc-arm-none-eabi/arm-none-eabi/include/c++/10.3.1/bits/stl_algo.h ****       const _Distance __len = (__last - __first + 1) / 2;
2755:/opt/gcc-arm-none-eabi/arm-none-eabi/include/c++/10.3.1/bits/stl_algo.h ****       const _RandomAccessIterator __middle = __first + __len;
2756:/opt/gcc-arm-none-eabi/arm-none-eabi/include/c++/10.3.1/bits/stl_algo.h ****       if (__len > __buffer_size)
2757:/opt/gcc-arm-none-eabi/arm-none-eabi/include/c++/10.3.1/bits/stl_algo.h **** 	{
2758:/opt/gcc-arm-none-eabi/arm-none-eabi/include/c++/10.3.1/bits/stl_algo.h **** 	  std::__stable_sort_adaptive(__first, __middle, __buffer,
2759:/opt/gcc-arm-none-eabi/arm-none-eabi/include/c++/10.3.1/bits/stl_algo.h **** 				      __buffer_size, __comp);
2760:/opt/gcc-arm-none-eabi/arm-none-eabi/include/c++/10.3.1/bits/stl_algo.h **** 	  std::__stable_sort_adaptive(__middle, __last, __buffer,
2761:/opt/gcc-arm-none-eabi/arm-none-eabi/include/c++/10.3.1/bits/stl_algo.h **** 				      __buffer_size, __comp);
2762:/opt/gcc-arm-none-eabi/arm-none-eabi/include/c++/10.3.1/bits/stl_algo.h **** 	}
2763:/opt/gcc-arm-none-eabi/arm-none-eabi/include/c++/10.3.1/bits/stl_algo.h ****       else
2764:/opt/gcc-arm-none-eabi/arm-none-eabi/include/c++/10.3.1/bits/stl_algo.h **** 	{
2765:/opt/gcc-arm-none-eabi/arm-none-eabi/include/c++/10.3.1/bits/stl_algo.h **** 	  std::__merge_sort_with_buffer(__first, __middle, __buffer, __comp);
2766:/opt/gcc-arm-none-eabi/arm-none-eabi/include/c++/10.3.1/bits/stl_algo.h **** 	  std::__merge_sort_with_buffer(__middle, __last, __buffer, __comp);
2767:/opt/gcc-arm-none-eabi/arm-none-eabi/include/c++/10.3.1/bits/stl_algo.h **** 	}
2768:/opt/gcc-arm-none-eabi/arm-none-eabi/include/c++/10.3.1/bits/stl_algo.h ****       std::__merge_adaptive(__first, __middle, __last,
2769:/opt/gcc-arm-none-eabi/arm-none-eabi/include/c++/10.3.1/bits/stl_algo.h **** 			    _Distance(__middle - __first),
2770:/opt/gcc-arm-none-eabi/arm-none-eabi/include/c++/10.3.1/bits/stl_algo.h **** 			    _Distance(__last - __middle),
2771:/opt/gcc-arm-none-eabi/arm-none-eabi/include/c++/10.3.1/bits/stl_algo.h **** 			    __buffer, __buffer_size,
2772:/opt/gcc-arm-none-eabi/arm-none-eabi/include/c++/10.3.1/bits/stl_algo.h **** 			    __comp);
2773:/opt/gcc-arm-none-eabi/arm-none-eabi/include/c++/10.3.1/bits/stl_algo.h ****     }
2774:/opt/gcc-arm-none-eabi/arm-none-eabi/include/c++/10.3.1/bits/stl_algo.h **** 
2775:/opt/gcc-arm-none-eabi/arm-none-eabi/include/c++/10.3.1/bits/stl_algo.h ****   /// This is a helper function for the stable sorting routines.
2776:/opt/gcc-arm-none-eabi/arm-none-eabi/include/c++/10.3.1/bits/stl_algo.h ****   template<typename _RandomAccessIterator, typename _Compare>
2777:/opt/gcc-arm-none-eabi/arm-none-eabi/include/c++/10.3.1/bits/stl_algo.h ****     void
2778:/opt/gcc-arm-none-eabi/arm-none-eabi/include/c++/10.3.1/bits/stl_algo.h ****     __inplace_stable_sort(_RandomAccessIterator __first,
2779:/opt/gcc-arm-none-eabi/arm-none-eabi/include/c++/10.3.1/bits/stl_algo.h **** 			  _RandomAccessIterator __last, _Compare __comp)
2780:/opt/gcc-arm-none-eabi/arm-none-eabi/include/c++/10.3.1/bits/stl_algo.h ****     {
2781:/opt/gcc-arm-none-eabi/arm-none-eabi/include/c++/10.3.1/bits/stl_algo.h ****       if (__last - __first < 15)
2782:/opt/gcc-arm-none-eabi/arm-none-eabi/include/c++/10.3.1/bits/stl_algo.h **** 	{
2783:/opt/gcc-arm-none-eabi/arm-none-eabi/include/c++/10.3.1/bits/stl_algo.h **** 	  std::__insertion_sort(__first, __last, __comp);
2784:/opt/gcc-arm-none-eabi/arm-none-eabi/include/c++/10.3.1/bits/stl_algo.h **** 	  return;
2785:/opt/gcc-arm-none-eabi/arm-none-eabi/include/c++/10.3.1/bits/stl_algo.h **** 	}
2786:/opt/gcc-arm-none-eabi/arm-none-eabi/include/c++/10.3.1/bits/stl_algo.h ****       _RandomAccessIterator __middle = __first + (__last - __first) / 2;
2787:/opt/gcc-arm-none-eabi/arm-none-eabi/include/c++/10.3.1/bits/stl_algo.h ****       std::__inplace_stable_sort(__first, __middle, __comp);
2788:/opt/gcc-arm-none-eabi/arm-none-eabi/include/c++/10.3.1/bits/stl_algo.h ****       std::__inplace_stable_sort(__middle, __last, __comp);
2789:/opt/gcc-arm-none-eabi/arm-none-eabi/include/c++/10.3.1/bits/stl_algo.h ****       std::__merge_without_buffer(__first, __middle, __last,
2790:/opt/gcc-arm-none-eabi/arm-none-eabi/include/c++/10.3.1/bits/stl_algo.h **** 				  __middle - __first,
2791:/opt/gcc-arm-none-eabi/arm-none-eabi/include/c++/10.3.1/bits/stl_algo.h **** 				  __last - __middle,
2792:/opt/gcc-arm-none-eabi/arm-none-eabi/include/c++/10.3.1/bits/stl_algo.h **** 				  __comp);
2793:/opt/gcc-arm-none-eabi/arm-none-eabi/include/c++/10.3.1/bits/stl_algo.h ****     }
2794:/opt/gcc-arm-none-eabi/arm-none-eabi/include/c++/10.3.1/bits/stl_algo.h **** 
2795:/opt/gcc-arm-none-eabi/arm-none-eabi/include/c++/10.3.1/bits/stl_algo.h ****   // stable_sort
2796:/opt/gcc-arm-none-eabi/arm-none-eabi/include/c++/10.3.1/bits/stl_algo.h **** 
2797:/opt/gcc-arm-none-eabi/arm-none-eabi/include/c++/10.3.1/bits/stl_algo.h ****   // Set algorithms: includes, set_union, set_intersection, set_difference,
2798:/opt/gcc-arm-none-eabi/arm-none-eabi/include/c++/10.3.1/bits/stl_algo.h ****   // set_symmetric_difference.  All of these algorithms have the precondition
2799:/opt/gcc-arm-none-eabi/arm-none-eabi/include/c++/10.3.1/bits/stl_algo.h ****   // that their input ranges are sorted and the postcondition that their output
2800:/opt/gcc-arm-none-eabi/arm-none-eabi/include/c++/10.3.1/bits/stl_algo.h ****   // ranges are sorted.
2801:/opt/gcc-arm-none-eabi/arm-none-eabi/include/c++/10.3.1/bits/stl_algo.h **** 
2802:/opt/gcc-arm-none-eabi/arm-none-eabi/include/c++/10.3.1/bits/stl_algo.h ****   template<typename _InputIterator1, typename _InputIterator2,
2803:/opt/gcc-arm-none-eabi/arm-none-eabi/include/c++/10.3.1/bits/stl_algo.h **** 	   typename _Compare>
2804:/opt/gcc-arm-none-eabi/arm-none-eabi/include/c++/10.3.1/bits/stl_algo.h ****     _GLIBCXX20_CONSTEXPR
ARM GAS  /tmp/ccxBL0ey.s 			page 112


2805:/opt/gcc-arm-none-eabi/arm-none-eabi/include/c++/10.3.1/bits/stl_algo.h ****     bool
2806:/opt/gcc-arm-none-eabi/arm-none-eabi/include/c++/10.3.1/bits/stl_algo.h ****     __includes(_InputIterator1 __first1, _InputIterator1 __last1,
2807:/opt/gcc-arm-none-eabi/arm-none-eabi/include/c++/10.3.1/bits/stl_algo.h **** 	       _InputIterator2 __first2, _InputIterator2 __last2,
2808:/opt/gcc-arm-none-eabi/arm-none-eabi/include/c++/10.3.1/bits/stl_algo.h **** 	       _Compare __comp)
2809:/opt/gcc-arm-none-eabi/arm-none-eabi/include/c++/10.3.1/bits/stl_algo.h ****     {
2810:/opt/gcc-arm-none-eabi/arm-none-eabi/include/c++/10.3.1/bits/stl_algo.h ****       while (__first1 != __last1 && __first2 != __last2)
2811:/opt/gcc-arm-none-eabi/arm-none-eabi/include/c++/10.3.1/bits/stl_algo.h **** 	if (__comp(__first2, __first1))
2812:/opt/gcc-arm-none-eabi/arm-none-eabi/include/c++/10.3.1/bits/stl_algo.h **** 	  return false;
2813:/opt/gcc-arm-none-eabi/arm-none-eabi/include/c++/10.3.1/bits/stl_algo.h **** 	else if (__comp(__first1, __first2))
2814:/opt/gcc-arm-none-eabi/arm-none-eabi/include/c++/10.3.1/bits/stl_algo.h **** 	  ++__first1;
2815:/opt/gcc-arm-none-eabi/arm-none-eabi/include/c++/10.3.1/bits/stl_algo.h **** 	else
2816:/opt/gcc-arm-none-eabi/arm-none-eabi/include/c++/10.3.1/bits/stl_algo.h **** 	  {
2817:/opt/gcc-arm-none-eabi/arm-none-eabi/include/c++/10.3.1/bits/stl_algo.h **** 	    ++__first1;
2818:/opt/gcc-arm-none-eabi/arm-none-eabi/include/c++/10.3.1/bits/stl_algo.h **** 	    ++__first2;
2819:/opt/gcc-arm-none-eabi/arm-none-eabi/include/c++/10.3.1/bits/stl_algo.h **** 	  }
2820:/opt/gcc-arm-none-eabi/arm-none-eabi/include/c++/10.3.1/bits/stl_algo.h **** 
2821:/opt/gcc-arm-none-eabi/arm-none-eabi/include/c++/10.3.1/bits/stl_algo.h ****       return __first2 == __last2;
2822:/opt/gcc-arm-none-eabi/arm-none-eabi/include/c++/10.3.1/bits/stl_algo.h ****     }
2823:/opt/gcc-arm-none-eabi/arm-none-eabi/include/c++/10.3.1/bits/stl_algo.h **** 
2824:/opt/gcc-arm-none-eabi/arm-none-eabi/include/c++/10.3.1/bits/stl_algo.h ****   /**
2825:/opt/gcc-arm-none-eabi/arm-none-eabi/include/c++/10.3.1/bits/stl_algo.h ****    *  @brief Determines whether all elements of a sequence exists in a range.
2826:/opt/gcc-arm-none-eabi/arm-none-eabi/include/c++/10.3.1/bits/stl_algo.h ****    *  @param  __first1  Start of search range.
2827:/opt/gcc-arm-none-eabi/arm-none-eabi/include/c++/10.3.1/bits/stl_algo.h ****    *  @param  __last1   End of search range.
2828:/opt/gcc-arm-none-eabi/arm-none-eabi/include/c++/10.3.1/bits/stl_algo.h ****    *  @param  __first2  Start of sequence
2829:/opt/gcc-arm-none-eabi/arm-none-eabi/include/c++/10.3.1/bits/stl_algo.h ****    *  @param  __last2   End of sequence.
2830:/opt/gcc-arm-none-eabi/arm-none-eabi/include/c++/10.3.1/bits/stl_algo.h ****    *  @return  True if each element in [__first2,__last2) is contained in order
2831:/opt/gcc-arm-none-eabi/arm-none-eabi/include/c++/10.3.1/bits/stl_algo.h ****    *  within [__first1,__last1).  False otherwise.
2832:/opt/gcc-arm-none-eabi/arm-none-eabi/include/c++/10.3.1/bits/stl_algo.h ****    *  @ingroup set_algorithms
2833:/opt/gcc-arm-none-eabi/arm-none-eabi/include/c++/10.3.1/bits/stl_algo.h ****    *
2834:/opt/gcc-arm-none-eabi/arm-none-eabi/include/c++/10.3.1/bits/stl_algo.h ****    *  This operation expects both [__first1,__last1) and
2835:/opt/gcc-arm-none-eabi/arm-none-eabi/include/c++/10.3.1/bits/stl_algo.h ****    *  [__first2,__last2) to be sorted.  Searches for the presence of
2836:/opt/gcc-arm-none-eabi/arm-none-eabi/include/c++/10.3.1/bits/stl_algo.h ****    *  each element in [__first2,__last2) within [__first1,__last1).
2837:/opt/gcc-arm-none-eabi/arm-none-eabi/include/c++/10.3.1/bits/stl_algo.h ****    *  The iterators over each range only move forward, so this is a
2838:/opt/gcc-arm-none-eabi/arm-none-eabi/include/c++/10.3.1/bits/stl_algo.h ****    *  linear algorithm.  If an element in [__first2,__last2) is not
2839:/opt/gcc-arm-none-eabi/arm-none-eabi/include/c++/10.3.1/bits/stl_algo.h ****    *  found before the search iterator reaches @p __last2, false is
2840:/opt/gcc-arm-none-eabi/arm-none-eabi/include/c++/10.3.1/bits/stl_algo.h ****    *  returned.
2841:/opt/gcc-arm-none-eabi/arm-none-eabi/include/c++/10.3.1/bits/stl_algo.h ****   */
2842:/opt/gcc-arm-none-eabi/arm-none-eabi/include/c++/10.3.1/bits/stl_algo.h ****   template<typename _InputIterator1, typename _InputIterator2>
2843:/opt/gcc-arm-none-eabi/arm-none-eabi/include/c++/10.3.1/bits/stl_algo.h ****     _GLIBCXX20_CONSTEXPR
2844:/opt/gcc-arm-none-eabi/arm-none-eabi/include/c++/10.3.1/bits/stl_algo.h ****     inline bool
2845:/opt/gcc-arm-none-eabi/arm-none-eabi/include/c++/10.3.1/bits/stl_algo.h ****     includes(_InputIterator1 __first1, _InputIterator1 __last1,
2846:/opt/gcc-arm-none-eabi/arm-none-eabi/include/c++/10.3.1/bits/stl_algo.h **** 	     _InputIterator2 __first2, _InputIterator2 __last2)
2847:/opt/gcc-arm-none-eabi/arm-none-eabi/include/c++/10.3.1/bits/stl_algo.h ****     {
2848:/opt/gcc-arm-none-eabi/arm-none-eabi/include/c++/10.3.1/bits/stl_algo.h ****       // concept requirements
2849:/opt/gcc-arm-none-eabi/arm-none-eabi/include/c++/10.3.1/bits/stl_algo.h ****       __glibcxx_function_requires(_InputIteratorConcept<_InputIterator1>)
2850:/opt/gcc-arm-none-eabi/arm-none-eabi/include/c++/10.3.1/bits/stl_algo.h ****       __glibcxx_function_requires(_InputIteratorConcept<_InputIterator2>)
2851:/opt/gcc-arm-none-eabi/arm-none-eabi/include/c++/10.3.1/bits/stl_algo.h ****       __glibcxx_function_requires(_LessThanOpConcept<
2852:/opt/gcc-arm-none-eabi/arm-none-eabi/include/c++/10.3.1/bits/stl_algo.h **** 	    typename iterator_traits<_InputIterator1>::value_type,
2853:/opt/gcc-arm-none-eabi/arm-none-eabi/include/c++/10.3.1/bits/stl_algo.h **** 	    typename iterator_traits<_InputIterator2>::value_type>)
2854:/opt/gcc-arm-none-eabi/arm-none-eabi/include/c++/10.3.1/bits/stl_algo.h ****       __glibcxx_function_requires(_LessThanOpConcept<
2855:/opt/gcc-arm-none-eabi/arm-none-eabi/include/c++/10.3.1/bits/stl_algo.h **** 	    typename iterator_traits<_InputIterator2>::value_type,
2856:/opt/gcc-arm-none-eabi/arm-none-eabi/include/c++/10.3.1/bits/stl_algo.h **** 	    typename iterator_traits<_InputIterator1>::value_type>)
2857:/opt/gcc-arm-none-eabi/arm-none-eabi/include/c++/10.3.1/bits/stl_algo.h ****       __glibcxx_requires_sorted_set(__first1, __last1, __first2);
2858:/opt/gcc-arm-none-eabi/arm-none-eabi/include/c++/10.3.1/bits/stl_algo.h ****       __glibcxx_requires_sorted_set(__first2, __last2, __first1);
2859:/opt/gcc-arm-none-eabi/arm-none-eabi/include/c++/10.3.1/bits/stl_algo.h ****       __glibcxx_requires_irreflexive2(__first1, __last1);
2860:/opt/gcc-arm-none-eabi/arm-none-eabi/include/c++/10.3.1/bits/stl_algo.h ****       __glibcxx_requires_irreflexive2(__first2, __last2);
2861:/opt/gcc-arm-none-eabi/arm-none-eabi/include/c++/10.3.1/bits/stl_algo.h **** 
ARM GAS  /tmp/ccxBL0ey.s 			page 113


2862:/opt/gcc-arm-none-eabi/arm-none-eabi/include/c++/10.3.1/bits/stl_algo.h ****       return std::__includes(__first1, __last1, __first2, __last2,
2863:/opt/gcc-arm-none-eabi/arm-none-eabi/include/c++/10.3.1/bits/stl_algo.h **** 			     __gnu_cxx::__ops::__iter_less_iter());
2864:/opt/gcc-arm-none-eabi/arm-none-eabi/include/c++/10.3.1/bits/stl_algo.h ****     }
2865:/opt/gcc-arm-none-eabi/arm-none-eabi/include/c++/10.3.1/bits/stl_algo.h **** 
2866:/opt/gcc-arm-none-eabi/arm-none-eabi/include/c++/10.3.1/bits/stl_algo.h ****   /**
2867:/opt/gcc-arm-none-eabi/arm-none-eabi/include/c++/10.3.1/bits/stl_algo.h ****    *  @brief Determines whether all elements of a sequence exists in a range
2868:/opt/gcc-arm-none-eabi/arm-none-eabi/include/c++/10.3.1/bits/stl_algo.h ****    *  using comparison.
2869:/opt/gcc-arm-none-eabi/arm-none-eabi/include/c++/10.3.1/bits/stl_algo.h ****    *  @ingroup set_algorithms
2870:/opt/gcc-arm-none-eabi/arm-none-eabi/include/c++/10.3.1/bits/stl_algo.h ****    *  @param  __first1  Start of search range.
2871:/opt/gcc-arm-none-eabi/arm-none-eabi/include/c++/10.3.1/bits/stl_algo.h ****    *  @param  __last1   End of search range.
2872:/opt/gcc-arm-none-eabi/arm-none-eabi/include/c++/10.3.1/bits/stl_algo.h ****    *  @param  __first2  Start of sequence
2873:/opt/gcc-arm-none-eabi/arm-none-eabi/include/c++/10.3.1/bits/stl_algo.h ****    *  @param  __last2   End of sequence.
2874:/opt/gcc-arm-none-eabi/arm-none-eabi/include/c++/10.3.1/bits/stl_algo.h ****    *  @param  __comp    Comparison function to use.
2875:/opt/gcc-arm-none-eabi/arm-none-eabi/include/c++/10.3.1/bits/stl_algo.h ****    *  @return True if each element in [__first2,__last2) is contained
2876:/opt/gcc-arm-none-eabi/arm-none-eabi/include/c++/10.3.1/bits/stl_algo.h ****    *  in order within [__first1,__last1) according to comp.  False
2877:/opt/gcc-arm-none-eabi/arm-none-eabi/include/c++/10.3.1/bits/stl_algo.h ****    *  otherwise.  @ingroup set_algorithms
2878:/opt/gcc-arm-none-eabi/arm-none-eabi/include/c++/10.3.1/bits/stl_algo.h ****    *
2879:/opt/gcc-arm-none-eabi/arm-none-eabi/include/c++/10.3.1/bits/stl_algo.h ****    *  This operation expects both [__first1,__last1) and
2880:/opt/gcc-arm-none-eabi/arm-none-eabi/include/c++/10.3.1/bits/stl_algo.h ****    *  [__first2,__last2) to be sorted.  Searches for the presence of
2881:/opt/gcc-arm-none-eabi/arm-none-eabi/include/c++/10.3.1/bits/stl_algo.h ****    *  each element in [__first2,__last2) within [__first1,__last1),
2882:/opt/gcc-arm-none-eabi/arm-none-eabi/include/c++/10.3.1/bits/stl_algo.h ****    *  using comp to decide.  The iterators over each range only move
2883:/opt/gcc-arm-none-eabi/arm-none-eabi/include/c++/10.3.1/bits/stl_algo.h ****    *  forward, so this is a linear algorithm.  If an element in
2884:/opt/gcc-arm-none-eabi/arm-none-eabi/include/c++/10.3.1/bits/stl_algo.h ****    *  [__first2,__last2) is not found before the search iterator
2885:/opt/gcc-arm-none-eabi/arm-none-eabi/include/c++/10.3.1/bits/stl_algo.h ****    *  reaches @p __last2, false is returned.
2886:/opt/gcc-arm-none-eabi/arm-none-eabi/include/c++/10.3.1/bits/stl_algo.h ****   */
2887:/opt/gcc-arm-none-eabi/arm-none-eabi/include/c++/10.3.1/bits/stl_algo.h ****   template<typename _InputIterator1, typename _InputIterator2,
2888:/opt/gcc-arm-none-eabi/arm-none-eabi/include/c++/10.3.1/bits/stl_algo.h **** 	   typename _Compare>
2889:/opt/gcc-arm-none-eabi/arm-none-eabi/include/c++/10.3.1/bits/stl_algo.h ****     _GLIBCXX20_CONSTEXPR
2890:/opt/gcc-arm-none-eabi/arm-none-eabi/include/c++/10.3.1/bits/stl_algo.h ****     inline bool
2891:/opt/gcc-arm-none-eabi/arm-none-eabi/include/c++/10.3.1/bits/stl_algo.h ****     includes(_InputIterator1 __first1, _InputIterator1 __last1,
2892:/opt/gcc-arm-none-eabi/arm-none-eabi/include/c++/10.3.1/bits/stl_algo.h **** 	     _InputIterator2 __first2, _InputIterator2 __last2,
2893:/opt/gcc-arm-none-eabi/arm-none-eabi/include/c++/10.3.1/bits/stl_algo.h **** 	     _Compare __comp)
2894:/opt/gcc-arm-none-eabi/arm-none-eabi/include/c++/10.3.1/bits/stl_algo.h ****     {
2895:/opt/gcc-arm-none-eabi/arm-none-eabi/include/c++/10.3.1/bits/stl_algo.h ****       // concept requirements
2896:/opt/gcc-arm-none-eabi/arm-none-eabi/include/c++/10.3.1/bits/stl_algo.h ****       __glibcxx_function_requires(_InputIteratorConcept<_InputIterator1>)
2897:/opt/gcc-arm-none-eabi/arm-none-eabi/include/c++/10.3.1/bits/stl_algo.h ****       __glibcxx_function_requires(_InputIteratorConcept<_InputIterator2>)
2898:/opt/gcc-arm-none-eabi/arm-none-eabi/include/c++/10.3.1/bits/stl_algo.h ****       __glibcxx_function_requires(_BinaryPredicateConcept<_Compare,
2899:/opt/gcc-arm-none-eabi/arm-none-eabi/include/c++/10.3.1/bits/stl_algo.h **** 	    typename iterator_traits<_InputIterator1>::value_type,
2900:/opt/gcc-arm-none-eabi/arm-none-eabi/include/c++/10.3.1/bits/stl_algo.h **** 	    typename iterator_traits<_InputIterator2>::value_type>)
2901:/opt/gcc-arm-none-eabi/arm-none-eabi/include/c++/10.3.1/bits/stl_algo.h ****       __glibcxx_function_requires(_BinaryPredicateConcept<_Compare,
2902:/opt/gcc-arm-none-eabi/arm-none-eabi/include/c++/10.3.1/bits/stl_algo.h **** 	    typename iterator_traits<_InputIterator2>::value_type,
2903:/opt/gcc-arm-none-eabi/arm-none-eabi/include/c++/10.3.1/bits/stl_algo.h **** 	    typename iterator_traits<_InputIterator1>::value_type>)
2904:/opt/gcc-arm-none-eabi/arm-none-eabi/include/c++/10.3.1/bits/stl_algo.h ****       __glibcxx_requires_sorted_set_pred(__first1, __last1, __first2, __comp);
2905:/opt/gcc-arm-none-eabi/arm-none-eabi/include/c++/10.3.1/bits/stl_algo.h ****       __glibcxx_requires_sorted_set_pred(__first2, __last2, __first1, __comp);
2906:/opt/gcc-arm-none-eabi/arm-none-eabi/include/c++/10.3.1/bits/stl_algo.h ****       __glibcxx_requires_irreflexive_pred2(__first1, __last1, __comp);
2907:/opt/gcc-arm-none-eabi/arm-none-eabi/include/c++/10.3.1/bits/stl_algo.h ****       __glibcxx_requires_irreflexive_pred2(__first2, __last2, __comp);
2908:/opt/gcc-arm-none-eabi/arm-none-eabi/include/c++/10.3.1/bits/stl_algo.h **** 
2909:/opt/gcc-arm-none-eabi/arm-none-eabi/include/c++/10.3.1/bits/stl_algo.h ****       return std::__includes(__first1, __last1, __first2, __last2,
2910:/opt/gcc-arm-none-eabi/arm-none-eabi/include/c++/10.3.1/bits/stl_algo.h **** 			     __gnu_cxx::__ops::__iter_comp_iter(__comp));
2911:/opt/gcc-arm-none-eabi/arm-none-eabi/include/c++/10.3.1/bits/stl_algo.h ****     }
2912:/opt/gcc-arm-none-eabi/arm-none-eabi/include/c++/10.3.1/bits/stl_algo.h **** 
2913:/opt/gcc-arm-none-eabi/arm-none-eabi/include/c++/10.3.1/bits/stl_algo.h ****   // nth_element
2914:/opt/gcc-arm-none-eabi/arm-none-eabi/include/c++/10.3.1/bits/stl_algo.h ****   // merge
2915:/opt/gcc-arm-none-eabi/arm-none-eabi/include/c++/10.3.1/bits/stl_algo.h ****   // set_difference
2916:/opt/gcc-arm-none-eabi/arm-none-eabi/include/c++/10.3.1/bits/stl_algo.h ****   // set_intersection
2917:/opt/gcc-arm-none-eabi/arm-none-eabi/include/c++/10.3.1/bits/stl_algo.h ****   // set_union
2918:/opt/gcc-arm-none-eabi/arm-none-eabi/include/c++/10.3.1/bits/stl_algo.h ****   // stable_sort
ARM GAS  /tmp/ccxBL0ey.s 			page 114


2919:/opt/gcc-arm-none-eabi/arm-none-eabi/include/c++/10.3.1/bits/stl_algo.h ****   // set_symmetric_difference
2920:/opt/gcc-arm-none-eabi/arm-none-eabi/include/c++/10.3.1/bits/stl_algo.h ****   // min_element
2921:/opt/gcc-arm-none-eabi/arm-none-eabi/include/c++/10.3.1/bits/stl_algo.h ****   // max_element
2922:/opt/gcc-arm-none-eabi/arm-none-eabi/include/c++/10.3.1/bits/stl_algo.h **** 
2923:/opt/gcc-arm-none-eabi/arm-none-eabi/include/c++/10.3.1/bits/stl_algo.h ****   template<typename _BidirectionalIterator, typename _Compare>
2924:/opt/gcc-arm-none-eabi/arm-none-eabi/include/c++/10.3.1/bits/stl_algo.h ****     _GLIBCXX20_CONSTEXPR
2925:/opt/gcc-arm-none-eabi/arm-none-eabi/include/c++/10.3.1/bits/stl_algo.h ****     bool
2926:/opt/gcc-arm-none-eabi/arm-none-eabi/include/c++/10.3.1/bits/stl_algo.h ****     __next_permutation(_BidirectionalIterator __first,
2927:/opt/gcc-arm-none-eabi/arm-none-eabi/include/c++/10.3.1/bits/stl_algo.h **** 		       _BidirectionalIterator __last, _Compare __comp)
2928:/opt/gcc-arm-none-eabi/arm-none-eabi/include/c++/10.3.1/bits/stl_algo.h ****     {
2929:/opt/gcc-arm-none-eabi/arm-none-eabi/include/c++/10.3.1/bits/stl_algo.h ****       if (__first == __last)
2930:/opt/gcc-arm-none-eabi/arm-none-eabi/include/c++/10.3.1/bits/stl_algo.h **** 	return false;
2931:/opt/gcc-arm-none-eabi/arm-none-eabi/include/c++/10.3.1/bits/stl_algo.h ****       _BidirectionalIterator __i = __first;
2932:/opt/gcc-arm-none-eabi/arm-none-eabi/include/c++/10.3.1/bits/stl_algo.h ****       ++__i;
2933:/opt/gcc-arm-none-eabi/arm-none-eabi/include/c++/10.3.1/bits/stl_algo.h ****       if (__i == __last)
2934:/opt/gcc-arm-none-eabi/arm-none-eabi/include/c++/10.3.1/bits/stl_algo.h **** 	return false;
2935:/opt/gcc-arm-none-eabi/arm-none-eabi/include/c++/10.3.1/bits/stl_algo.h ****       __i = __last;
2936:/opt/gcc-arm-none-eabi/arm-none-eabi/include/c++/10.3.1/bits/stl_algo.h ****       --__i;
2937:/opt/gcc-arm-none-eabi/arm-none-eabi/include/c++/10.3.1/bits/stl_algo.h **** 
2938:/opt/gcc-arm-none-eabi/arm-none-eabi/include/c++/10.3.1/bits/stl_algo.h ****       for(;;)
2939:/opt/gcc-arm-none-eabi/arm-none-eabi/include/c++/10.3.1/bits/stl_algo.h **** 	{
2940:/opt/gcc-arm-none-eabi/arm-none-eabi/include/c++/10.3.1/bits/stl_algo.h **** 	  _BidirectionalIterator __ii = __i;
2941:/opt/gcc-arm-none-eabi/arm-none-eabi/include/c++/10.3.1/bits/stl_algo.h **** 	  --__i;
2942:/opt/gcc-arm-none-eabi/arm-none-eabi/include/c++/10.3.1/bits/stl_algo.h **** 	  if (__comp(__i, __ii))
2943:/opt/gcc-arm-none-eabi/arm-none-eabi/include/c++/10.3.1/bits/stl_algo.h **** 	    {
2944:/opt/gcc-arm-none-eabi/arm-none-eabi/include/c++/10.3.1/bits/stl_algo.h **** 	      _BidirectionalIterator __j = __last;
2945:/opt/gcc-arm-none-eabi/arm-none-eabi/include/c++/10.3.1/bits/stl_algo.h **** 	      while (!__comp(__i, --__j))
2946:/opt/gcc-arm-none-eabi/arm-none-eabi/include/c++/10.3.1/bits/stl_algo.h **** 		{}
2947:/opt/gcc-arm-none-eabi/arm-none-eabi/include/c++/10.3.1/bits/stl_algo.h **** 	      std::iter_swap(__i, __j);
2948:/opt/gcc-arm-none-eabi/arm-none-eabi/include/c++/10.3.1/bits/stl_algo.h **** 	      std::__reverse(__ii, __last,
2949:/opt/gcc-arm-none-eabi/arm-none-eabi/include/c++/10.3.1/bits/stl_algo.h **** 			     std::__iterator_category(__first));
2950:/opt/gcc-arm-none-eabi/arm-none-eabi/include/c++/10.3.1/bits/stl_algo.h **** 	      return true;
2951:/opt/gcc-arm-none-eabi/arm-none-eabi/include/c++/10.3.1/bits/stl_algo.h **** 	    }
2952:/opt/gcc-arm-none-eabi/arm-none-eabi/include/c++/10.3.1/bits/stl_algo.h **** 	  if (__i == __first)
2953:/opt/gcc-arm-none-eabi/arm-none-eabi/include/c++/10.3.1/bits/stl_algo.h **** 	    {
2954:/opt/gcc-arm-none-eabi/arm-none-eabi/include/c++/10.3.1/bits/stl_algo.h **** 	      std::__reverse(__first, __last,
2955:/opt/gcc-arm-none-eabi/arm-none-eabi/include/c++/10.3.1/bits/stl_algo.h **** 			     std::__iterator_category(__first));
2956:/opt/gcc-arm-none-eabi/arm-none-eabi/include/c++/10.3.1/bits/stl_algo.h **** 	      return false;
2957:/opt/gcc-arm-none-eabi/arm-none-eabi/include/c++/10.3.1/bits/stl_algo.h **** 	    }
2958:/opt/gcc-arm-none-eabi/arm-none-eabi/include/c++/10.3.1/bits/stl_algo.h **** 	}
2959:/opt/gcc-arm-none-eabi/arm-none-eabi/include/c++/10.3.1/bits/stl_algo.h ****     }
2960:/opt/gcc-arm-none-eabi/arm-none-eabi/include/c++/10.3.1/bits/stl_algo.h **** 
2961:/opt/gcc-arm-none-eabi/arm-none-eabi/include/c++/10.3.1/bits/stl_algo.h ****   /**
2962:/opt/gcc-arm-none-eabi/arm-none-eabi/include/c++/10.3.1/bits/stl_algo.h ****    *  @brief  Permute range into the next @e dictionary ordering.
2963:/opt/gcc-arm-none-eabi/arm-none-eabi/include/c++/10.3.1/bits/stl_algo.h ****    *  @ingroup sorting_algorithms
2964:/opt/gcc-arm-none-eabi/arm-none-eabi/include/c++/10.3.1/bits/stl_algo.h ****    *  @param  __first  Start of range.
2965:/opt/gcc-arm-none-eabi/arm-none-eabi/include/c++/10.3.1/bits/stl_algo.h ****    *  @param  __last   End of range.
2966:/opt/gcc-arm-none-eabi/arm-none-eabi/include/c++/10.3.1/bits/stl_algo.h ****    *  @return  False if wrapped to first permutation, true otherwise.
2967:/opt/gcc-arm-none-eabi/arm-none-eabi/include/c++/10.3.1/bits/stl_algo.h ****    *
2968:/opt/gcc-arm-none-eabi/arm-none-eabi/include/c++/10.3.1/bits/stl_algo.h ****    *  Treats all permutations of the range as a set of @e dictionary sorted
2969:/opt/gcc-arm-none-eabi/arm-none-eabi/include/c++/10.3.1/bits/stl_algo.h ****    *  sequences.  Permutes the current sequence into the next one of this set.
2970:/opt/gcc-arm-none-eabi/arm-none-eabi/include/c++/10.3.1/bits/stl_algo.h ****    *  Returns true if there are more sequences to generate.  If the sequence
2971:/opt/gcc-arm-none-eabi/arm-none-eabi/include/c++/10.3.1/bits/stl_algo.h ****    *  is the largest of the set, the smallest is generated and false returned.
2972:/opt/gcc-arm-none-eabi/arm-none-eabi/include/c++/10.3.1/bits/stl_algo.h ****   */
2973:/opt/gcc-arm-none-eabi/arm-none-eabi/include/c++/10.3.1/bits/stl_algo.h ****   template<typename _BidirectionalIterator>
2974:/opt/gcc-arm-none-eabi/arm-none-eabi/include/c++/10.3.1/bits/stl_algo.h ****     _GLIBCXX20_CONSTEXPR
2975:/opt/gcc-arm-none-eabi/arm-none-eabi/include/c++/10.3.1/bits/stl_algo.h ****     inline bool
ARM GAS  /tmp/ccxBL0ey.s 			page 115


2976:/opt/gcc-arm-none-eabi/arm-none-eabi/include/c++/10.3.1/bits/stl_algo.h ****     next_permutation(_BidirectionalIterator __first,
2977:/opt/gcc-arm-none-eabi/arm-none-eabi/include/c++/10.3.1/bits/stl_algo.h **** 		     _BidirectionalIterator __last)
2978:/opt/gcc-arm-none-eabi/arm-none-eabi/include/c++/10.3.1/bits/stl_algo.h ****     {
2979:/opt/gcc-arm-none-eabi/arm-none-eabi/include/c++/10.3.1/bits/stl_algo.h ****       // concept requirements
2980:/opt/gcc-arm-none-eabi/arm-none-eabi/include/c++/10.3.1/bits/stl_algo.h ****       __glibcxx_function_requires(_BidirectionalIteratorConcept<
2981:/opt/gcc-arm-none-eabi/arm-none-eabi/include/c++/10.3.1/bits/stl_algo.h **** 				  _BidirectionalIterator>)
2982:/opt/gcc-arm-none-eabi/arm-none-eabi/include/c++/10.3.1/bits/stl_algo.h ****       __glibcxx_function_requires(_LessThanComparableConcept<
2983:/opt/gcc-arm-none-eabi/arm-none-eabi/include/c++/10.3.1/bits/stl_algo.h **** 	    typename iterator_traits<_BidirectionalIterator>::value_type>)
2984:/opt/gcc-arm-none-eabi/arm-none-eabi/include/c++/10.3.1/bits/stl_algo.h ****       __glibcxx_requires_valid_range(__first, __last);
2985:/opt/gcc-arm-none-eabi/arm-none-eabi/include/c++/10.3.1/bits/stl_algo.h ****       __glibcxx_requires_irreflexive(__first, __last);
2986:/opt/gcc-arm-none-eabi/arm-none-eabi/include/c++/10.3.1/bits/stl_algo.h **** 
2987:/opt/gcc-arm-none-eabi/arm-none-eabi/include/c++/10.3.1/bits/stl_algo.h ****       return std::__next_permutation
2988:/opt/gcc-arm-none-eabi/arm-none-eabi/include/c++/10.3.1/bits/stl_algo.h **** 	(__first, __last, __gnu_cxx::__ops::__iter_less_iter());
2989:/opt/gcc-arm-none-eabi/arm-none-eabi/include/c++/10.3.1/bits/stl_algo.h ****     }
2990:/opt/gcc-arm-none-eabi/arm-none-eabi/include/c++/10.3.1/bits/stl_algo.h **** 
2991:/opt/gcc-arm-none-eabi/arm-none-eabi/include/c++/10.3.1/bits/stl_algo.h ****   /**
2992:/opt/gcc-arm-none-eabi/arm-none-eabi/include/c++/10.3.1/bits/stl_algo.h ****    *  @brief  Permute range into the next @e dictionary ordering using
2993:/opt/gcc-arm-none-eabi/arm-none-eabi/include/c++/10.3.1/bits/stl_algo.h ****    *          comparison functor.
2994:/opt/gcc-arm-none-eabi/arm-none-eabi/include/c++/10.3.1/bits/stl_algo.h ****    *  @ingroup sorting_algorithms
2995:/opt/gcc-arm-none-eabi/arm-none-eabi/include/c++/10.3.1/bits/stl_algo.h ****    *  @param  __first  Start of range.
2996:/opt/gcc-arm-none-eabi/arm-none-eabi/include/c++/10.3.1/bits/stl_algo.h ****    *  @param  __last   End of range.
2997:/opt/gcc-arm-none-eabi/arm-none-eabi/include/c++/10.3.1/bits/stl_algo.h ****    *  @param  __comp   A comparison functor.
2998:/opt/gcc-arm-none-eabi/arm-none-eabi/include/c++/10.3.1/bits/stl_algo.h ****    *  @return  False if wrapped to first permutation, true otherwise.
2999:/opt/gcc-arm-none-eabi/arm-none-eabi/include/c++/10.3.1/bits/stl_algo.h ****    *
3000:/opt/gcc-arm-none-eabi/arm-none-eabi/include/c++/10.3.1/bits/stl_algo.h ****    *  Treats all permutations of the range [__first,__last) as a set of
3001:/opt/gcc-arm-none-eabi/arm-none-eabi/include/c++/10.3.1/bits/stl_algo.h ****    *  @e dictionary sorted sequences ordered by @p __comp.  Permutes the current
3002:/opt/gcc-arm-none-eabi/arm-none-eabi/include/c++/10.3.1/bits/stl_algo.h ****    *  sequence into the next one of this set.  Returns true if there are more
3003:/opt/gcc-arm-none-eabi/arm-none-eabi/include/c++/10.3.1/bits/stl_algo.h ****    *  sequences to generate.  If the sequence is the largest of the set, the
3004:/opt/gcc-arm-none-eabi/arm-none-eabi/include/c++/10.3.1/bits/stl_algo.h ****    *  smallest is generated and false returned.
3005:/opt/gcc-arm-none-eabi/arm-none-eabi/include/c++/10.3.1/bits/stl_algo.h ****   */
3006:/opt/gcc-arm-none-eabi/arm-none-eabi/include/c++/10.3.1/bits/stl_algo.h ****   template<typename _BidirectionalIterator, typename _Compare>
3007:/opt/gcc-arm-none-eabi/arm-none-eabi/include/c++/10.3.1/bits/stl_algo.h ****     _GLIBCXX20_CONSTEXPR
3008:/opt/gcc-arm-none-eabi/arm-none-eabi/include/c++/10.3.1/bits/stl_algo.h ****     inline bool
3009:/opt/gcc-arm-none-eabi/arm-none-eabi/include/c++/10.3.1/bits/stl_algo.h ****     next_permutation(_BidirectionalIterator __first,
3010:/opt/gcc-arm-none-eabi/arm-none-eabi/include/c++/10.3.1/bits/stl_algo.h **** 		     _BidirectionalIterator __last, _Compare __comp)
3011:/opt/gcc-arm-none-eabi/arm-none-eabi/include/c++/10.3.1/bits/stl_algo.h ****     {
3012:/opt/gcc-arm-none-eabi/arm-none-eabi/include/c++/10.3.1/bits/stl_algo.h ****       // concept requirements
3013:/opt/gcc-arm-none-eabi/arm-none-eabi/include/c++/10.3.1/bits/stl_algo.h ****       __glibcxx_function_requires(_BidirectionalIteratorConcept<
3014:/opt/gcc-arm-none-eabi/arm-none-eabi/include/c++/10.3.1/bits/stl_algo.h **** 				  _BidirectionalIterator>)
3015:/opt/gcc-arm-none-eabi/arm-none-eabi/include/c++/10.3.1/bits/stl_algo.h ****       __glibcxx_function_requires(_BinaryPredicateConcept<_Compare,
3016:/opt/gcc-arm-none-eabi/arm-none-eabi/include/c++/10.3.1/bits/stl_algo.h **** 	    typename iterator_traits<_BidirectionalIterator>::value_type,
3017:/opt/gcc-arm-none-eabi/arm-none-eabi/include/c++/10.3.1/bits/stl_algo.h **** 	    typename iterator_traits<_BidirectionalIterator>::value_type>)
3018:/opt/gcc-arm-none-eabi/arm-none-eabi/include/c++/10.3.1/bits/stl_algo.h ****       __glibcxx_requires_valid_range(__first, __last);
3019:/opt/gcc-arm-none-eabi/arm-none-eabi/include/c++/10.3.1/bits/stl_algo.h ****       __glibcxx_requires_irreflexive_pred(__first, __last, __comp);
3020:/opt/gcc-arm-none-eabi/arm-none-eabi/include/c++/10.3.1/bits/stl_algo.h **** 
3021:/opt/gcc-arm-none-eabi/arm-none-eabi/include/c++/10.3.1/bits/stl_algo.h ****       return std::__next_permutation
3022:/opt/gcc-arm-none-eabi/arm-none-eabi/include/c++/10.3.1/bits/stl_algo.h **** 	(__first, __last, __gnu_cxx::__ops::__iter_comp_iter(__comp));
3023:/opt/gcc-arm-none-eabi/arm-none-eabi/include/c++/10.3.1/bits/stl_algo.h ****     }
3024:/opt/gcc-arm-none-eabi/arm-none-eabi/include/c++/10.3.1/bits/stl_algo.h **** 
3025:/opt/gcc-arm-none-eabi/arm-none-eabi/include/c++/10.3.1/bits/stl_algo.h ****   template<typename _BidirectionalIterator, typename _Compare>
3026:/opt/gcc-arm-none-eabi/arm-none-eabi/include/c++/10.3.1/bits/stl_algo.h ****     _GLIBCXX20_CONSTEXPR
3027:/opt/gcc-arm-none-eabi/arm-none-eabi/include/c++/10.3.1/bits/stl_algo.h ****     bool
3028:/opt/gcc-arm-none-eabi/arm-none-eabi/include/c++/10.3.1/bits/stl_algo.h ****     __prev_permutation(_BidirectionalIterator __first,
3029:/opt/gcc-arm-none-eabi/arm-none-eabi/include/c++/10.3.1/bits/stl_algo.h **** 		       _BidirectionalIterator __last, _Compare __comp)
3030:/opt/gcc-arm-none-eabi/arm-none-eabi/include/c++/10.3.1/bits/stl_algo.h ****     {
3031:/opt/gcc-arm-none-eabi/arm-none-eabi/include/c++/10.3.1/bits/stl_algo.h ****       if (__first == __last)
3032:/opt/gcc-arm-none-eabi/arm-none-eabi/include/c++/10.3.1/bits/stl_algo.h **** 	return false;
ARM GAS  /tmp/ccxBL0ey.s 			page 116


3033:/opt/gcc-arm-none-eabi/arm-none-eabi/include/c++/10.3.1/bits/stl_algo.h ****       _BidirectionalIterator __i = __first;
3034:/opt/gcc-arm-none-eabi/arm-none-eabi/include/c++/10.3.1/bits/stl_algo.h ****       ++__i;
3035:/opt/gcc-arm-none-eabi/arm-none-eabi/include/c++/10.3.1/bits/stl_algo.h ****       if (__i == __last)
3036:/opt/gcc-arm-none-eabi/arm-none-eabi/include/c++/10.3.1/bits/stl_algo.h **** 	return false;
3037:/opt/gcc-arm-none-eabi/arm-none-eabi/include/c++/10.3.1/bits/stl_algo.h ****       __i = __last;
3038:/opt/gcc-arm-none-eabi/arm-none-eabi/include/c++/10.3.1/bits/stl_algo.h ****       --__i;
3039:/opt/gcc-arm-none-eabi/arm-none-eabi/include/c++/10.3.1/bits/stl_algo.h **** 
3040:/opt/gcc-arm-none-eabi/arm-none-eabi/include/c++/10.3.1/bits/stl_algo.h ****       for(;;)
3041:/opt/gcc-arm-none-eabi/arm-none-eabi/include/c++/10.3.1/bits/stl_algo.h **** 	{
3042:/opt/gcc-arm-none-eabi/arm-none-eabi/include/c++/10.3.1/bits/stl_algo.h **** 	  _BidirectionalIterator __ii = __i;
3043:/opt/gcc-arm-none-eabi/arm-none-eabi/include/c++/10.3.1/bits/stl_algo.h **** 	  --__i;
3044:/opt/gcc-arm-none-eabi/arm-none-eabi/include/c++/10.3.1/bits/stl_algo.h **** 	  if (__comp(__ii, __i))
3045:/opt/gcc-arm-none-eabi/arm-none-eabi/include/c++/10.3.1/bits/stl_algo.h **** 	    {
3046:/opt/gcc-arm-none-eabi/arm-none-eabi/include/c++/10.3.1/bits/stl_algo.h **** 	      _BidirectionalIterator __j = __last;
3047:/opt/gcc-arm-none-eabi/arm-none-eabi/include/c++/10.3.1/bits/stl_algo.h **** 	      while (!__comp(--__j, __i))
3048:/opt/gcc-arm-none-eabi/arm-none-eabi/include/c++/10.3.1/bits/stl_algo.h **** 		{}
3049:/opt/gcc-arm-none-eabi/arm-none-eabi/include/c++/10.3.1/bits/stl_algo.h **** 	      std::iter_swap(__i, __j);
3050:/opt/gcc-arm-none-eabi/arm-none-eabi/include/c++/10.3.1/bits/stl_algo.h **** 	      std::__reverse(__ii, __last,
3051:/opt/gcc-arm-none-eabi/arm-none-eabi/include/c++/10.3.1/bits/stl_algo.h **** 			     std::__iterator_category(__first));
3052:/opt/gcc-arm-none-eabi/arm-none-eabi/include/c++/10.3.1/bits/stl_algo.h **** 	      return true;
3053:/opt/gcc-arm-none-eabi/arm-none-eabi/include/c++/10.3.1/bits/stl_algo.h **** 	    }
3054:/opt/gcc-arm-none-eabi/arm-none-eabi/include/c++/10.3.1/bits/stl_algo.h **** 	  if (__i == __first)
3055:/opt/gcc-arm-none-eabi/arm-none-eabi/include/c++/10.3.1/bits/stl_algo.h **** 	    {
3056:/opt/gcc-arm-none-eabi/arm-none-eabi/include/c++/10.3.1/bits/stl_algo.h **** 	      std::__reverse(__first, __last,
3057:/opt/gcc-arm-none-eabi/arm-none-eabi/include/c++/10.3.1/bits/stl_algo.h **** 			     std::__iterator_category(__first));
3058:/opt/gcc-arm-none-eabi/arm-none-eabi/include/c++/10.3.1/bits/stl_algo.h **** 	      return false;
3059:/opt/gcc-arm-none-eabi/arm-none-eabi/include/c++/10.3.1/bits/stl_algo.h **** 	    }
3060:/opt/gcc-arm-none-eabi/arm-none-eabi/include/c++/10.3.1/bits/stl_algo.h **** 	}
3061:/opt/gcc-arm-none-eabi/arm-none-eabi/include/c++/10.3.1/bits/stl_algo.h ****     }
3062:/opt/gcc-arm-none-eabi/arm-none-eabi/include/c++/10.3.1/bits/stl_algo.h **** 
3063:/opt/gcc-arm-none-eabi/arm-none-eabi/include/c++/10.3.1/bits/stl_algo.h ****   /**
3064:/opt/gcc-arm-none-eabi/arm-none-eabi/include/c++/10.3.1/bits/stl_algo.h ****    *  @brief  Permute range into the previous @e dictionary ordering.
3065:/opt/gcc-arm-none-eabi/arm-none-eabi/include/c++/10.3.1/bits/stl_algo.h ****    *  @ingroup sorting_algorithms
3066:/opt/gcc-arm-none-eabi/arm-none-eabi/include/c++/10.3.1/bits/stl_algo.h ****    *  @param  __first  Start of range.
3067:/opt/gcc-arm-none-eabi/arm-none-eabi/include/c++/10.3.1/bits/stl_algo.h ****    *  @param  __last   End of range.
3068:/opt/gcc-arm-none-eabi/arm-none-eabi/include/c++/10.3.1/bits/stl_algo.h ****    *  @return  False if wrapped to last permutation, true otherwise.
3069:/opt/gcc-arm-none-eabi/arm-none-eabi/include/c++/10.3.1/bits/stl_algo.h ****    *
3070:/opt/gcc-arm-none-eabi/arm-none-eabi/include/c++/10.3.1/bits/stl_algo.h ****    *  Treats all permutations of the range as a set of @e dictionary sorted
3071:/opt/gcc-arm-none-eabi/arm-none-eabi/include/c++/10.3.1/bits/stl_algo.h ****    *  sequences.  Permutes the current sequence into the previous one of this
3072:/opt/gcc-arm-none-eabi/arm-none-eabi/include/c++/10.3.1/bits/stl_algo.h ****    *  set.  Returns true if there are more sequences to generate.  If the
3073:/opt/gcc-arm-none-eabi/arm-none-eabi/include/c++/10.3.1/bits/stl_algo.h ****    *  sequence is the smallest of the set, the largest is generated and false
3074:/opt/gcc-arm-none-eabi/arm-none-eabi/include/c++/10.3.1/bits/stl_algo.h ****    *  returned.
3075:/opt/gcc-arm-none-eabi/arm-none-eabi/include/c++/10.3.1/bits/stl_algo.h ****   */
3076:/opt/gcc-arm-none-eabi/arm-none-eabi/include/c++/10.3.1/bits/stl_algo.h ****   template<typename _BidirectionalIterator>
3077:/opt/gcc-arm-none-eabi/arm-none-eabi/include/c++/10.3.1/bits/stl_algo.h ****     _GLIBCXX20_CONSTEXPR
3078:/opt/gcc-arm-none-eabi/arm-none-eabi/include/c++/10.3.1/bits/stl_algo.h ****     inline bool
3079:/opt/gcc-arm-none-eabi/arm-none-eabi/include/c++/10.3.1/bits/stl_algo.h ****     prev_permutation(_BidirectionalIterator __first,
3080:/opt/gcc-arm-none-eabi/arm-none-eabi/include/c++/10.3.1/bits/stl_algo.h **** 		     _BidirectionalIterator __last)
3081:/opt/gcc-arm-none-eabi/arm-none-eabi/include/c++/10.3.1/bits/stl_algo.h ****     {
3082:/opt/gcc-arm-none-eabi/arm-none-eabi/include/c++/10.3.1/bits/stl_algo.h ****       // concept requirements
3083:/opt/gcc-arm-none-eabi/arm-none-eabi/include/c++/10.3.1/bits/stl_algo.h ****       __glibcxx_function_requires(_BidirectionalIteratorConcept<
3084:/opt/gcc-arm-none-eabi/arm-none-eabi/include/c++/10.3.1/bits/stl_algo.h **** 				  _BidirectionalIterator>)
3085:/opt/gcc-arm-none-eabi/arm-none-eabi/include/c++/10.3.1/bits/stl_algo.h ****       __glibcxx_function_requires(_LessThanComparableConcept<
3086:/opt/gcc-arm-none-eabi/arm-none-eabi/include/c++/10.3.1/bits/stl_algo.h **** 	    typename iterator_traits<_BidirectionalIterator>::value_type>)
3087:/opt/gcc-arm-none-eabi/arm-none-eabi/include/c++/10.3.1/bits/stl_algo.h ****       __glibcxx_requires_valid_range(__first, __last);
3088:/opt/gcc-arm-none-eabi/arm-none-eabi/include/c++/10.3.1/bits/stl_algo.h ****       __glibcxx_requires_irreflexive(__first, __last);
3089:/opt/gcc-arm-none-eabi/arm-none-eabi/include/c++/10.3.1/bits/stl_algo.h **** 
ARM GAS  /tmp/ccxBL0ey.s 			page 117


3090:/opt/gcc-arm-none-eabi/arm-none-eabi/include/c++/10.3.1/bits/stl_algo.h ****       return std::__prev_permutation(__first, __last,
3091:/opt/gcc-arm-none-eabi/arm-none-eabi/include/c++/10.3.1/bits/stl_algo.h **** 				     __gnu_cxx::__ops::__iter_less_iter());
3092:/opt/gcc-arm-none-eabi/arm-none-eabi/include/c++/10.3.1/bits/stl_algo.h ****     }
3093:/opt/gcc-arm-none-eabi/arm-none-eabi/include/c++/10.3.1/bits/stl_algo.h **** 
3094:/opt/gcc-arm-none-eabi/arm-none-eabi/include/c++/10.3.1/bits/stl_algo.h ****   /**
3095:/opt/gcc-arm-none-eabi/arm-none-eabi/include/c++/10.3.1/bits/stl_algo.h ****    *  @brief  Permute range into the previous @e dictionary ordering using
3096:/opt/gcc-arm-none-eabi/arm-none-eabi/include/c++/10.3.1/bits/stl_algo.h ****    *          comparison functor.
3097:/opt/gcc-arm-none-eabi/arm-none-eabi/include/c++/10.3.1/bits/stl_algo.h ****    *  @ingroup sorting_algorithms
3098:/opt/gcc-arm-none-eabi/arm-none-eabi/include/c++/10.3.1/bits/stl_algo.h ****    *  @param  __first  Start of range.
3099:/opt/gcc-arm-none-eabi/arm-none-eabi/include/c++/10.3.1/bits/stl_algo.h ****    *  @param  __last   End of range.
3100:/opt/gcc-arm-none-eabi/arm-none-eabi/include/c++/10.3.1/bits/stl_algo.h ****    *  @param  __comp   A comparison functor.
3101:/opt/gcc-arm-none-eabi/arm-none-eabi/include/c++/10.3.1/bits/stl_algo.h ****    *  @return  False if wrapped to last permutation, true otherwise.
3102:/opt/gcc-arm-none-eabi/arm-none-eabi/include/c++/10.3.1/bits/stl_algo.h ****    *
3103:/opt/gcc-arm-none-eabi/arm-none-eabi/include/c++/10.3.1/bits/stl_algo.h ****    *  Treats all permutations of the range [__first,__last) as a set of
3104:/opt/gcc-arm-none-eabi/arm-none-eabi/include/c++/10.3.1/bits/stl_algo.h ****    *  @e dictionary sorted sequences ordered by @p __comp.  Permutes the current
3105:/opt/gcc-arm-none-eabi/arm-none-eabi/include/c++/10.3.1/bits/stl_algo.h ****    *  sequence into the previous one of this set.  Returns true if there are
3106:/opt/gcc-arm-none-eabi/arm-none-eabi/include/c++/10.3.1/bits/stl_algo.h ****    *  more sequences to generate.  If the sequence is the smallest of the set,
3107:/opt/gcc-arm-none-eabi/arm-none-eabi/include/c++/10.3.1/bits/stl_algo.h ****    *  the largest is generated and false returned.
3108:/opt/gcc-arm-none-eabi/arm-none-eabi/include/c++/10.3.1/bits/stl_algo.h ****   */
3109:/opt/gcc-arm-none-eabi/arm-none-eabi/include/c++/10.3.1/bits/stl_algo.h ****   template<typename _BidirectionalIterator, typename _Compare>
3110:/opt/gcc-arm-none-eabi/arm-none-eabi/include/c++/10.3.1/bits/stl_algo.h ****     _GLIBCXX20_CONSTEXPR
3111:/opt/gcc-arm-none-eabi/arm-none-eabi/include/c++/10.3.1/bits/stl_algo.h ****     inline bool
3112:/opt/gcc-arm-none-eabi/arm-none-eabi/include/c++/10.3.1/bits/stl_algo.h ****     prev_permutation(_BidirectionalIterator __first,
3113:/opt/gcc-arm-none-eabi/arm-none-eabi/include/c++/10.3.1/bits/stl_algo.h **** 		     _BidirectionalIterator __last, _Compare __comp)
3114:/opt/gcc-arm-none-eabi/arm-none-eabi/include/c++/10.3.1/bits/stl_algo.h ****     {
3115:/opt/gcc-arm-none-eabi/arm-none-eabi/include/c++/10.3.1/bits/stl_algo.h ****       // concept requirements
3116:/opt/gcc-arm-none-eabi/arm-none-eabi/include/c++/10.3.1/bits/stl_algo.h ****       __glibcxx_function_requires(_BidirectionalIteratorConcept<
3117:/opt/gcc-arm-none-eabi/arm-none-eabi/include/c++/10.3.1/bits/stl_algo.h **** 				  _BidirectionalIterator>)
3118:/opt/gcc-arm-none-eabi/arm-none-eabi/include/c++/10.3.1/bits/stl_algo.h ****       __glibcxx_function_requires(_BinaryPredicateConcept<_Compare,
3119:/opt/gcc-arm-none-eabi/arm-none-eabi/include/c++/10.3.1/bits/stl_algo.h **** 	    typename iterator_traits<_BidirectionalIterator>::value_type,
3120:/opt/gcc-arm-none-eabi/arm-none-eabi/include/c++/10.3.1/bits/stl_algo.h **** 	    typename iterator_traits<_BidirectionalIterator>::value_type>)
3121:/opt/gcc-arm-none-eabi/arm-none-eabi/include/c++/10.3.1/bits/stl_algo.h ****       __glibcxx_requires_valid_range(__first, __last);
3122:/opt/gcc-arm-none-eabi/arm-none-eabi/include/c++/10.3.1/bits/stl_algo.h ****       __glibcxx_requires_irreflexive_pred(__first, __last, __comp);
3123:/opt/gcc-arm-none-eabi/arm-none-eabi/include/c++/10.3.1/bits/stl_algo.h **** 
3124:/opt/gcc-arm-none-eabi/arm-none-eabi/include/c++/10.3.1/bits/stl_algo.h ****       return std::__prev_permutation(__first, __last,
3125:/opt/gcc-arm-none-eabi/arm-none-eabi/include/c++/10.3.1/bits/stl_algo.h **** 				__gnu_cxx::__ops::__iter_comp_iter(__comp));
3126:/opt/gcc-arm-none-eabi/arm-none-eabi/include/c++/10.3.1/bits/stl_algo.h ****     }
3127:/opt/gcc-arm-none-eabi/arm-none-eabi/include/c++/10.3.1/bits/stl_algo.h **** 
3128:/opt/gcc-arm-none-eabi/arm-none-eabi/include/c++/10.3.1/bits/stl_algo.h ****   // replace
3129:/opt/gcc-arm-none-eabi/arm-none-eabi/include/c++/10.3.1/bits/stl_algo.h ****   // replace_if
3130:/opt/gcc-arm-none-eabi/arm-none-eabi/include/c++/10.3.1/bits/stl_algo.h **** 
3131:/opt/gcc-arm-none-eabi/arm-none-eabi/include/c++/10.3.1/bits/stl_algo.h ****   template<typename _InputIterator, typename _OutputIterator,
3132:/opt/gcc-arm-none-eabi/arm-none-eabi/include/c++/10.3.1/bits/stl_algo.h **** 	   typename _Predicate, typename _Tp>
3133:/opt/gcc-arm-none-eabi/arm-none-eabi/include/c++/10.3.1/bits/stl_algo.h ****     _GLIBCXX20_CONSTEXPR
3134:/opt/gcc-arm-none-eabi/arm-none-eabi/include/c++/10.3.1/bits/stl_algo.h ****     _OutputIterator
3135:/opt/gcc-arm-none-eabi/arm-none-eabi/include/c++/10.3.1/bits/stl_algo.h ****     __replace_copy_if(_InputIterator __first, _InputIterator __last,
3136:/opt/gcc-arm-none-eabi/arm-none-eabi/include/c++/10.3.1/bits/stl_algo.h **** 		      _OutputIterator __result,
3137:/opt/gcc-arm-none-eabi/arm-none-eabi/include/c++/10.3.1/bits/stl_algo.h **** 		      _Predicate __pred, const _Tp& __new_value)
3138:/opt/gcc-arm-none-eabi/arm-none-eabi/include/c++/10.3.1/bits/stl_algo.h ****     {
3139:/opt/gcc-arm-none-eabi/arm-none-eabi/include/c++/10.3.1/bits/stl_algo.h ****       for (; __first != __last; ++__first, (void)++__result)
3140:/opt/gcc-arm-none-eabi/arm-none-eabi/include/c++/10.3.1/bits/stl_algo.h **** 	if (__pred(__first))
3141:/opt/gcc-arm-none-eabi/arm-none-eabi/include/c++/10.3.1/bits/stl_algo.h **** 	  *__result = __new_value;
3142:/opt/gcc-arm-none-eabi/arm-none-eabi/include/c++/10.3.1/bits/stl_algo.h **** 	else
3143:/opt/gcc-arm-none-eabi/arm-none-eabi/include/c++/10.3.1/bits/stl_algo.h **** 	  *__result = *__first;
3144:/opt/gcc-arm-none-eabi/arm-none-eabi/include/c++/10.3.1/bits/stl_algo.h ****       return __result;
3145:/opt/gcc-arm-none-eabi/arm-none-eabi/include/c++/10.3.1/bits/stl_algo.h ****     }
3146:/opt/gcc-arm-none-eabi/arm-none-eabi/include/c++/10.3.1/bits/stl_algo.h **** 
ARM GAS  /tmp/ccxBL0ey.s 			page 118


3147:/opt/gcc-arm-none-eabi/arm-none-eabi/include/c++/10.3.1/bits/stl_algo.h ****   /**
3148:/opt/gcc-arm-none-eabi/arm-none-eabi/include/c++/10.3.1/bits/stl_algo.h ****    *  @brief Copy a sequence, replacing each element of one value with another
3149:/opt/gcc-arm-none-eabi/arm-none-eabi/include/c++/10.3.1/bits/stl_algo.h ****    *         value.
3150:/opt/gcc-arm-none-eabi/arm-none-eabi/include/c++/10.3.1/bits/stl_algo.h ****    *  @param  __first      An input iterator.
3151:/opt/gcc-arm-none-eabi/arm-none-eabi/include/c++/10.3.1/bits/stl_algo.h ****    *  @param  __last       An input iterator.
3152:/opt/gcc-arm-none-eabi/arm-none-eabi/include/c++/10.3.1/bits/stl_algo.h ****    *  @param  __result     An output iterator.
3153:/opt/gcc-arm-none-eabi/arm-none-eabi/include/c++/10.3.1/bits/stl_algo.h ****    *  @param  __old_value  The value to be replaced.
3154:/opt/gcc-arm-none-eabi/arm-none-eabi/include/c++/10.3.1/bits/stl_algo.h ****    *  @param  __new_value  The replacement value.
3155:/opt/gcc-arm-none-eabi/arm-none-eabi/include/c++/10.3.1/bits/stl_algo.h ****    *  @return   The end of the output sequence, @p result+(last-first).
3156:/opt/gcc-arm-none-eabi/arm-none-eabi/include/c++/10.3.1/bits/stl_algo.h ****    *
3157:/opt/gcc-arm-none-eabi/arm-none-eabi/include/c++/10.3.1/bits/stl_algo.h ****    *  Copies each element in the input range @p [__first,__last) to the
3158:/opt/gcc-arm-none-eabi/arm-none-eabi/include/c++/10.3.1/bits/stl_algo.h ****    *  output range @p [__result,__result+(__last-__first)) replacing elements
3159:/opt/gcc-arm-none-eabi/arm-none-eabi/include/c++/10.3.1/bits/stl_algo.h ****    *  equal to @p __old_value with @p __new_value.
3160:/opt/gcc-arm-none-eabi/arm-none-eabi/include/c++/10.3.1/bits/stl_algo.h ****   */
3161:/opt/gcc-arm-none-eabi/arm-none-eabi/include/c++/10.3.1/bits/stl_algo.h ****   template<typename _InputIterator, typename _OutputIterator, typename _Tp>
3162:/opt/gcc-arm-none-eabi/arm-none-eabi/include/c++/10.3.1/bits/stl_algo.h ****     _GLIBCXX20_CONSTEXPR
3163:/opt/gcc-arm-none-eabi/arm-none-eabi/include/c++/10.3.1/bits/stl_algo.h ****     inline _OutputIterator
3164:/opt/gcc-arm-none-eabi/arm-none-eabi/include/c++/10.3.1/bits/stl_algo.h ****     replace_copy(_InputIterator __first, _InputIterator __last,
3165:/opt/gcc-arm-none-eabi/arm-none-eabi/include/c++/10.3.1/bits/stl_algo.h **** 		 _OutputIterator __result,
3166:/opt/gcc-arm-none-eabi/arm-none-eabi/include/c++/10.3.1/bits/stl_algo.h **** 		 const _Tp& __old_value, const _Tp& __new_value)
3167:/opt/gcc-arm-none-eabi/arm-none-eabi/include/c++/10.3.1/bits/stl_algo.h ****     {
3168:/opt/gcc-arm-none-eabi/arm-none-eabi/include/c++/10.3.1/bits/stl_algo.h ****       // concept requirements
3169:/opt/gcc-arm-none-eabi/arm-none-eabi/include/c++/10.3.1/bits/stl_algo.h ****       __glibcxx_function_requires(_InputIteratorConcept<_InputIterator>)
3170:/opt/gcc-arm-none-eabi/arm-none-eabi/include/c++/10.3.1/bits/stl_algo.h ****       __glibcxx_function_requires(_OutputIteratorConcept<_OutputIterator,
3171:/opt/gcc-arm-none-eabi/arm-none-eabi/include/c++/10.3.1/bits/stl_algo.h **** 	    typename iterator_traits<_InputIterator>::value_type>)
3172:/opt/gcc-arm-none-eabi/arm-none-eabi/include/c++/10.3.1/bits/stl_algo.h ****       __glibcxx_function_requires(_EqualOpConcept<
3173:/opt/gcc-arm-none-eabi/arm-none-eabi/include/c++/10.3.1/bits/stl_algo.h **** 	    typename iterator_traits<_InputIterator>::value_type, _Tp>)
3174:/opt/gcc-arm-none-eabi/arm-none-eabi/include/c++/10.3.1/bits/stl_algo.h ****       __glibcxx_requires_valid_range(__first, __last);
3175:/opt/gcc-arm-none-eabi/arm-none-eabi/include/c++/10.3.1/bits/stl_algo.h **** 
3176:/opt/gcc-arm-none-eabi/arm-none-eabi/include/c++/10.3.1/bits/stl_algo.h ****       return std::__replace_copy_if(__first, __last, __result,
3177:/opt/gcc-arm-none-eabi/arm-none-eabi/include/c++/10.3.1/bits/stl_algo.h **** 			__gnu_cxx::__ops::__iter_equals_val(__old_value),
3178:/opt/gcc-arm-none-eabi/arm-none-eabi/include/c++/10.3.1/bits/stl_algo.h **** 					      __new_value);
3179:/opt/gcc-arm-none-eabi/arm-none-eabi/include/c++/10.3.1/bits/stl_algo.h ****     }
3180:/opt/gcc-arm-none-eabi/arm-none-eabi/include/c++/10.3.1/bits/stl_algo.h **** 
3181:/opt/gcc-arm-none-eabi/arm-none-eabi/include/c++/10.3.1/bits/stl_algo.h ****   /**
3182:/opt/gcc-arm-none-eabi/arm-none-eabi/include/c++/10.3.1/bits/stl_algo.h ****    *  @brief Copy a sequence, replacing each value for which a predicate
3183:/opt/gcc-arm-none-eabi/arm-none-eabi/include/c++/10.3.1/bits/stl_algo.h ****    *         returns true with another value.
3184:/opt/gcc-arm-none-eabi/arm-none-eabi/include/c++/10.3.1/bits/stl_algo.h ****    *  @ingroup mutating_algorithms
3185:/opt/gcc-arm-none-eabi/arm-none-eabi/include/c++/10.3.1/bits/stl_algo.h ****    *  @param  __first      An input iterator.
3186:/opt/gcc-arm-none-eabi/arm-none-eabi/include/c++/10.3.1/bits/stl_algo.h ****    *  @param  __last       An input iterator.
3187:/opt/gcc-arm-none-eabi/arm-none-eabi/include/c++/10.3.1/bits/stl_algo.h ****    *  @param  __result     An output iterator.
3188:/opt/gcc-arm-none-eabi/arm-none-eabi/include/c++/10.3.1/bits/stl_algo.h ****    *  @param  __pred       A predicate.
3189:/opt/gcc-arm-none-eabi/arm-none-eabi/include/c++/10.3.1/bits/stl_algo.h ****    *  @param  __new_value  The replacement value.
3190:/opt/gcc-arm-none-eabi/arm-none-eabi/include/c++/10.3.1/bits/stl_algo.h ****    *  @return   The end of the output sequence, @p __result+(__last-__first).
3191:/opt/gcc-arm-none-eabi/arm-none-eabi/include/c++/10.3.1/bits/stl_algo.h ****    *
3192:/opt/gcc-arm-none-eabi/arm-none-eabi/include/c++/10.3.1/bits/stl_algo.h ****    *  Copies each element in the range @p [__first,__last) to the range
3193:/opt/gcc-arm-none-eabi/arm-none-eabi/include/c++/10.3.1/bits/stl_algo.h ****    *  @p [__result,__result+(__last-__first)) replacing elements for which
3194:/opt/gcc-arm-none-eabi/arm-none-eabi/include/c++/10.3.1/bits/stl_algo.h ****    *  @p __pred returns true with @p __new_value.
3195:/opt/gcc-arm-none-eabi/arm-none-eabi/include/c++/10.3.1/bits/stl_algo.h ****   */
3196:/opt/gcc-arm-none-eabi/arm-none-eabi/include/c++/10.3.1/bits/stl_algo.h ****   template<typename _InputIterator, typename _OutputIterator,
3197:/opt/gcc-arm-none-eabi/arm-none-eabi/include/c++/10.3.1/bits/stl_algo.h **** 	   typename _Predicate, typename _Tp>
3198:/opt/gcc-arm-none-eabi/arm-none-eabi/include/c++/10.3.1/bits/stl_algo.h ****     _GLIBCXX20_CONSTEXPR
3199:/opt/gcc-arm-none-eabi/arm-none-eabi/include/c++/10.3.1/bits/stl_algo.h ****     inline _OutputIterator
3200:/opt/gcc-arm-none-eabi/arm-none-eabi/include/c++/10.3.1/bits/stl_algo.h ****     replace_copy_if(_InputIterator __first, _InputIterator __last,
3201:/opt/gcc-arm-none-eabi/arm-none-eabi/include/c++/10.3.1/bits/stl_algo.h **** 		    _OutputIterator __result,
3202:/opt/gcc-arm-none-eabi/arm-none-eabi/include/c++/10.3.1/bits/stl_algo.h **** 		    _Predicate __pred, const _Tp& __new_value)
3203:/opt/gcc-arm-none-eabi/arm-none-eabi/include/c++/10.3.1/bits/stl_algo.h ****     {
ARM GAS  /tmp/ccxBL0ey.s 			page 119


3204:/opt/gcc-arm-none-eabi/arm-none-eabi/include/c++/10.3.1/bits/stl_algo.h ****       // concept requirements
3205:/opt/gcc-arm-none-eabi/arm-none-eabi/include/c++/10.3.1/bits/stl_algo.h ****       __glibcxx_function_requires(_InputIteratorConcept<_InputIterator>)
3206:/opt/gcc-arm-none-eabi/arm-none-eabi/include/c++/10.3.1/bits/stl_algo.h ****       __glibcxx_function_requires(_OutputIteratorConcept<_OutputIterator,
3207:/opt/gcc-arm-none-eabi/arm-none-eabi/include/c++/10.3.1/bits/stl_algo.h **** 	    typename iterator_traits<_InputIterator>::value_type>)
3208:/opt/gcc-arm-none-eabi/arm-none-eabi/include/c++/10.3.1/bits/stl_algo.h ****       __glibcxx_function_requires(_UnaryPredicateConcept<_Predicate,
3209:/opt/gcc-arm-none-eabi/arm-none-eabi/include/c++/10.3.1/bits/stl_algo.h **** 	    typename iterator_traits<_InputIterator>::value_type>)
3210:/opt/gcc-arm-none-eabi/arm-none-eabi/include/c++/10.3.1/bits/stl_algo.h ****       __glibcxx_requires_valid_range(__first, __last);
3211:/opt/gcc-arm-none-eabi/arm-none-eabi/include/c++/10.3.1/bits/stl_algo.h **** 
3212:/opt/gcc-arm-none-eabi/arm-none-eabi/include/c++/10.3.1/bits/stl_algo.h ****       return std::__replace_copy_if(__first, __last, __result,
3213:/opt/gcc-arm-none-eabi/arm-none-eabi/include/c++/10.3.1/bits/stl_algo.h **** 				__gnu_cxx::__ops::__pred_iter(__pred),
3214:/opt/gcc-arm-none-eabi/arm-none-eabi/include/c++/10.3.1/bits/stl_algo.h **** 					      __new_value);
3215:/opt/gcc-arm-none-eabi/arm-none-eabi/include/c++/10.3.1/bits/stl_algo.h ****     }
3216:/opt/gcc-arm-none-eabi/arm-none-eabi/include/c++/10.3.1/bits/stl_algo.h **** 
3217:/opt/gcc-arm-none-eabi/arm-none-eabi/include/c++/10.3.1/bits/stl_algo.h **** #if __cplusplus >= 201103L
3218:/opt/gcc-arm-none-eabi/arm-none-eabi/include/c++/10.3.1/bits/stl_algo.h ****   /**
3219:/opt/gcc-arm-none-eabi/arm-none-eabi/include/c++/10.3.1/bits/stl_algo.h ****    *  @brief  Determines whether the elements of a sequence are sorted.
3220:/opt/gcc-arm-none-eabi/arm-none-eabi/include/c++/10.3.1/bits/stl_algo.h ****    *  @ingroup sorting_algorithms
3221:/opt/gcc-arm-none-eabi/arm-none-eabi/include/c++/10.3.1/bits/stl_algo.h ****    *  @param  __first   An iterator.
3222:/opt/gcc-arm-none-eabi/arm-none-eabi/include/c++/10.3.1/bits/stl_algo.h ****    *  @param  __last    Another iterator.
3223:/opt/gcc-arm-none-eabi/arm-none-eabi/include/c++/10.3.1/bits/stl_algo.h ****    *  @return  True if the elements are sorted, false otherwise.
3224:/opt/gcc-arm-none-eabi/arm-none-eabi/include/c++/10.3.1/bits/stl_algo.h ****   */
3225:/opt/gcc-arm-none-eabi/arm-none-eabi/include/c++/10.3.1/bits/stl_algo.h ****   template<typename _ForwardIterator>
3226:/opt/gcc-arm-none-eabi/arm-none-eabi/include/c++/10.3.1/bits/stl_algo.h ****     _GLIBCXX20_CONSTEXPR
3227:/opt/gcc-arm-none-eabi/arm-none-eabi/include/c++/10.3.1/bits/stl_algo.h ****     inline bool
3228:/opt/gcc-arm-none-eabi/arm-none-eabi/include/c++/10.3.1/bits/stl_algo.h ****     is_sorted(_ForwardIterator __first, _ForwardIterator __last)
3229:/opt/gcc-arm-none-eabi/arm-none-eabi/include/c++/10.3.1/bits/stl_algo.h ****     { return std::is_sorted_until(__first, __last) == __last; }
3230:/opt/gcc-arm-none-eabi/arm-none-eabi/include/c++/10.3.1/bits/stl_algo.h **** 
3231:/opt/gcc-arm-none-eabi/arm-none-eabi/include/c++/10.3.1/bits/stl_algo.h ****   /**
3232:/opt/gcc-arm-none-eabi/arm-none-eabi/include/c++/10.3.1/bits/stl_algo.h ****    *  @brief  Determines whether the elements of a sequence are sorted
3233:/opt/gcc-arm-none-eabi/arm-none-eabi/include/c++/10.3.1/bits/stl_algo.h ****    *          according to a comparison functor.
3234:/opt/gcc-arm-none-eabi/arm-none-eabi/include/c++/10.3.1/bits/stl_algo.h ****    *  @ingroup sorting_algorithms
3235:/opt/gcc-arm-none-eabi/arm-none-eabi/include/c++/10.3.1/bits/stl_algo.h ****    *  @param  __first   An iterator.
3236:/opt/gcc-arm-none-eabi/arm-none-eabi/include/c++/10.3.1/bits/stl_algo.h ****    *  @param  __last    Another iterator.
3237:/opt/gcc-arm-none-eabi/arm-none-eabi/include/c++/10.3.1/bits/stl_algo.h ****    *  @param  __comp    A comparison functor.
3238:/opt/gcc-arm-none-eabi/arm-none-eabi/include/c++/10.3.1/bits/stl_algo.h ****    *  @return  True if the elements are sorted, false otherwise.
3239:/opt/gcc-arm-none-eabi/arm-none-eabi/include/c++/10.3.1/bits/stl_algo.h ****   */
3240:/opt/gcc-arm-none-eabi/arm-none-eabi/include/c++/10.3.1/bits/stl_algo.h ****   template<typename _ForwardIterator, typename _Compare>
3241:/opt/gcc-arm-none-eabi/arm-none-eabi/include/c++/10.3.1/bits/stl_algo.h ****     _GLIBCXX20_CONSTEXPR
3242:/opt/gcc-arm-none-eabi/arm-none-eabi/include/c++/10.3.1/bits/stl_algo.h ****     inline bool
3243:/opt/gcc-arm-none-eabi/arm-none-eabi/include/c++/10.3.1/bits/stl_algo.h ****     is_sorted(_ForwardIterator __first, _ForwardIterator __last,
3244:/opt/gcc-arm-none-eabi/arm-none-eabi/include/c++/10.3.1/bits/stl_algo.h **** 	      _Compare __comp)
3245:/opt/gcc-arm-none-eabi/arm-none-eabi/include/c++/10.3.1/bits/stl_algo.h ****     { return std::is_sorted_until(__first, __last, __comp) == __last; }
3246:/opt/gcc-arm-none-eabi/arm-none-eabi/include/c++/10.3.1/bits/stl_algo.h **** 
3247:/opt/gcc-arm-none-eabi/arm-none-eabi/include/c++/10.3.1/bits/stl_algo.h ****   template<typename _ForwardIterator, typename _Compare>
3248:/opt/gcc-arm-none-eabi/arm-none-eabi/include/c++/10.3.1/bits/stl_algo.h ****     _GLIBCXX20_CONSTEXPR
3249:/opt/gcc-arm-none-eabi/arm-none-eabi/include/c++/10.3.1/bits/stl_algo.h ****     _ForwardIterator
3250:/opt/gcc-arm-none-eabi/arm-none-eabi/include/c++/10.3.1/bits/stl_algo.h ****     __is_sorted_until(_ForwardIterator __first, _ForwardIterator __last,
3251:/opt/gcc-arm-none-eabi/arm-none-eabi/include/c++/10.3.1/bits/stl_algo.h **** 		      _Compare __comp)
3252:/opt/gcc-arm-none-eabi/arm-none-eabi/include/c++/10.3.1/bits/stl_algo.h ****     {
3253:/opt/gcc-arm-none-eabi/arm-none-eabi/include/c++/10.3.1/bits/stl_algo.h ****       if (__first == __last)
3254:/opt/gcc-arm-none-eabi/arm-none-eabi/include/c++/10.3.1/bits/stl_algo.h **** 	return __last;
3255:/opt/gcc-arm-none-eabi/arm-none-eabi/include/c++/10.3.1/bits/stl_algo.h **** 
3256:/opt/gcc-arm-none-eabi/arm-none-eabi/include/c++/10.3.1/bits/stl_algo.h ****       _ForwardIterator __next = __first;
3257:/opt/gcc-arm-none-eabi/arm-none-eabi/include/c++/10.3.1/bits/stl_algo.h ****       for (++__next; __next != __last; __first = __next, (void)++__next)
3258:/opt/gcc-arm-none-eabi/arm-none-eabi/include/c++/10.3.1/bits/stl_algo.h **** 	if (__comp(__next, __first))
3259:/opt/gcc-arm-none-eabi/arm-none-eabi/include/c++/10.3.1/bits/stl_algo.h **** 	  return __next;
3260:/opt/gcc-arm-none-eabi/arm-none-eabi/include/c++/10.3.1/bits/stl_algo.h ****       return __next;
ARM GAS  /tmp/ccxBL0ey.s 			page 120


3261:/opt/gcc-arm-none-eabi/arm-none-eabi/include/c++/10.3.1/bits/stl_algo.h ****     }
3262:/opt/gcc-arm-none-eabi/arm-none-eabi/include/c++/10.3.1/bits/stl_algo.h **** 
3263:/opt/gcc-arm-none-eabi/arm-none-eabi/include/c++/10.3.1/bits/stl_algo.h ****   /**
3264:/opt/gcc-arm-none-eabi/arm-none-eabi/include/c++/10.3.1/bits/stl_algo.h ****    *  @brief  Determines the end of a sorted sequence.
3265:/opt/gcc-arm-none-eabi/arm-none-eabi/include/c++/10.3.1/bits/stl_algo.h ****    *  @ingroup sorting_algorithms
3266:/opt/gcc-arm-none-eabi/arm-none-eabi/include/c++/10.3.1/bits/stl_algo.h ****    *  @param  __first   An iterator.
3267:/opt/gcc-arm-none-eabi/arm-none-eabi/include/c++/10.3.1/bits/stl_algo.h ****    *  @param  __last    Another iterator.
3268:/opt/gcc-arm-none-eabi/arm-none-eabi/include/c++/10.3.1/bits/stl_algo.h ****    *  @return  An iterator pointing to the last iterator i in [__first, __last)
3269:/opt/gcc-arm-none-eabi/arm-none-eabi/include/c++/10.3.1/bits/stl_algo.h ****    *           for which the range [__first, i) is sorted.
3270:/opt/gcc-arm-none-eabi/arm-none-eabi/include/c++/10.3.1/bits/stl_algo.h ****   */
3271:/opt/gcc-arm-none-eabi/arm-none-eabi/include/c++/10.3.1/bits/stl_algo.h ****   template<typename _ForwardIterator>
3272:/opt/gcc-arm-none-eabi/arm-none-eabi/include/c++/10.3.1/bits/stl_algo.h ****     _GLIBCXX20_CONSTEXPR
3273:/opt/gcc-arm-none-eabi/arm-none-eabi/include/c++/10.3.1/bits/stl_algo.h ****     inline _ForwardIterator
3274:/opt/gcc-arm-none-eabi/arm-none-eabi/include/c++/10.3.1/bits/stl_algo.h ****     is_sorted_until(_ForwardIterator __first, _ForwardIterator __last)
3275:/opt/gcc-arm-none-eabi/arm-none-eabi/include/c++/10.3.1/bits/stl_algo.h ****     {
3276:/opt/gcc-arm-none-eabi/arm-none-eabi/include/c++/10.3.1/bits/stl_algo.h ****       // concept requirements
3277:/opt/gcc-arm-none-eabi/arm-none-eabi/include/c++/10.3.1/bits/stl_algo.h ****       __glibcxx_function_requires(_ForwardIteratorConcept<_ForwardIterator>)
3278:/opt/gcc-arm-none-eabi/arm-none-eabi/include/c++/10.3.1/bits/stl_algo.h ****       __glibcxx_function_requires(_LessThanComparableConcept<
3279:/opt/gcc-arm-none-eabi/arm-none-eabi/include/c++/10.3.1/bits/stl_algo.h **** 	    typename iterator_traits<_ForwardIterator>::value_type>)
3280:/opt/gcc-arm-none-eabi/arm-none-eabi/include/c++/10.3.1/bits/stl_algo.h ****       __glibcxx_requires_valid_range(__first, __last);
3281:/opt/gcc-arm-none-eabi/arm-none-eabi/include/c++/10.3.1/bits/stl_algo.h ****       __glibcxx_requires_irreflexive(__first, __last);
3282:/opt/gcc-arm-none-eabi/arm-none-eabi/include/c++/10.3.1/bits/stl_algo.h **** 
3283:/opt/gcc-arm-none-eabi/arm-none-eabi/include/c++/10.3.1/bits/stl_algo.h ****       return std::__is_sorted_until(__first, __last,
3284:/opt/gcc-arm-none-eabi/arm-none-eabi/include/c++/10.3.1/bits/stl_algo.h **** 				    __gnu_cxx::__ops::__iter_less_iter());
3285:/opt/gcc-arm-none-eabi/arm-none-eabi/include/c++/10.3.1/bits/stl_algo.h ****     }
3286:/opt/gcc-arm-none-eabi/arm-none-eabi/include/c++/10.3.1/bits/stl_algo.h **** 
3287:/opt/gcc-arm-none-eabi/arm-none-eabi/include/c++/10.3.1/bits/stl_algo.h ****   /**
3288:/opt/gcc-arm-none-eabi/arm-none-eabi/include/c++/10.3.1/bits/stl_algo.h ****    *  @brief  Determines the end of a sorted sequence using comparison functor.
3289:/opt/gcc-arm-none-eabi/arm-none-eabi/include/c++/10.3.1/bits/stl_algo.h ****    *  @ingroup sorting_algorithms
3290:/opt/gcc-arm-none-eabi/arm-none-eabi/include/c++/10.3.1/bits/stl_algo.h ****    *  @param  __first   An iterator.
3291:/opt/gcc-arm-none-eabi/arm-none-eabi/include/c++/10.3.1/bits/stl_algo.h ****    *  @param  __last    Another iterator.
3292:/opt/gcc-arm-none-eabi/arm-none-eabi/include/c++/10.3.1/bits/stl_algo.h ****    *  @param  __comp    A comparison functor.
3293:/opt/gcc-arm-none-eabi/arm-none-eabi/include/c++/10.3.1/bits/stl_algo.h ****    *  @return  An iterator pointing to the last iterator i in [__first, __last)
3294:/opt/gcc-arm-none-eabi/arm-none-eabi/include/c++/10.3.1/bits/stl_algo.h ****    *           for which the range [__first, i) is sorted.
3295:/opt/gcc-arm-none-eabi/arm-none-eabi/include/c++/10.3.1/bits/stl_algo.h ****   */
3296:/opt/gcc-arm-none-eabi/arm-none-eabi/include/c++/10.3.1/bits/stl_algo.h ****   template<typename _ForwardIterator, typename _Compare>
3297:/opt/gcc-arm-none-eabi/arm-none-eabi/include/c++/10.3.1/bits/stl_algo.h ****     _GLIBCXX20_CONSTEXPR
3298:/opt/gcc-arm-none-eabi/arm-none-eabi/include/c++/10.3.1/bits/stl_algo.h ****     inline _ForwardIterator
3299:/opt/gcc-arm-none-eabi/arm-none-eabi/include/c++/10.3.1/bits/stl_algo.h ****     is_sorted_until(_ForwardIterator __first, _ForwardIterator __last,
3300:/opt/gcc-arm-none-eabi/arm-none-eabi/include/c++/10.3.1/bits/stl_algo.h **** 		    _Compare __comp)
3301:/opt/gcc-arm-none-eabi/arm-none-eabi/include/c++/10.3.1/bits/stl_algo.h ****     {
3302:/opt/gcc-arm-none-eabi/arm-none-eabi/include/c++/10.3.1/bits/stl_algo.h ****       // concept requirements
3303:/opt/gcc-arm-none-eabi/arm-none-eabi/include/c++/10.3.1/bits/stl_algo.h ****       __glibcxx_function_requires(_ForwardIteratorConcept<_ForwardIterator>)
3304:/opt/gcc-arm-none-eabi/arm-none-eabi/include/c++/10.3.1/bits/stl_algo.h ****       __glibcxx_function_requires(_BinaryPredicateConcept<_Compare,
3305:/opt/gcc-arm-none-eabi/arm-none-eabi/include/c++/10.3.1/bits/stl_algo.h **** 	    typename iterator_traits<_ForwardIterator>::value_type,
3306:/opt/gcc-arm-none-eabi/arm-none-eabi/include/c++/10.3.1/bits/stl_algo.h **** 	    typename iterator_traits<_ForwardIterator>::value_type>)
3307:/opt/gcc-arm-none-eabi/arm-none-eabi/include/c++/10.3.1/bits/stl_algo.h ****       __glibcxx_requires_valid_range(__first, __last);
3308:/opt/gcc-arm-none-eabi/arm-none-eabi/include/c++/10.3.1/bits/stl_algo.h ****       __glibcxx_requires_irreflexive_pred(__first, __last, __comp);
3309:/opt/gcc-arm-none-eabi/arm-none-eabi/include/c++/10.3.1/bits/stl_algo.h **** 
3310:/opt/gcc-arm-none-eabi/arm-none-eabi/include/c++/10.3.1/bits/stl_algo.h ****       return std::__is_sorted_until(__first, __last,
3311:/opt/gcc-arm-none-eabi/arm-none-eabi/include/c++/10.3.1/bits/stl_algo.h **** 				    __gnu_cxx::__ops::__iter_comp_iter(__comp));
3312:/opt/gcc-arm-none-eabi/arm-none-eabi/include/c++/10.3.1/bits/stl_algo.h ****     }
3313:/opt/gcc-arm-none-eabi/arm-none-eabi/include/c++/10.3.1/bits/stl_algo.h **** 
3314:/opt/gcc-arm-none-eabi/arm-none-eabi/include/c++/10.3.1/bits/stl_algo.h ****   /**
3315:/opt/gcc-arm-none-eabi/arm-none-eabi/include/c++/10.3.1/bits/stl_algo.h ****    *  @brief  Determines min and max at once as an ordered pair.
3316:/opt/gcc-arm-none-eabi/arm-none-eabi/include/c++/10.3.1/bits/stl_algo.h ****    *  @ingroup sorting_algorithms
3317:/opt/gcc-arm-none-eabi/arm-none-eabi/include/c++/10.3.1/bits/stl_algo.h ****    *  @param  __a  A thing of arbitrary type.
ARM GAS  /tmp/ccxBL0ey.s 			page 121


3318:/opt/gcc-arm-none-eabi/arm-none-eabi/include/c++/10.3.1/bits/stl_algo.h ****    *  @param  __b  Another thing of arbitrary type.
3319:/opt/gcc-arm-none-eabi/arm-none-eabi/include/c++/10.3.1/bits/stl_algo.h ****    *  @return A pair(__b, __a) if __b is smaller than __a, pair(__a,
3320:/opt/gcc-arm-none-eabi/arm-none-eabi/include/c++/10.3.1/bits/stl_algo.h ****    *  __b) otherwise.
3321:/opt/gcc-arm-none-eabi/arm-none-eabi/include/c++/10.3.1/bits/stl_algo.h ****   */
3322:/opt/gcc-arm-none-eabi/arm-none-eabi/include/c++/10.3.1/bits/stl_algo.h ****   template<typename _Tp>
3323:/opt/gcc-arm-none-eabi/arm-none-eabi/include/c++/10.3.1/bits/stl_algo.h ****     _GLIBCXX14_CONSTEXPR
3324:/opt/gcc-arm-none-eabi/arm-none-eabi/include/c++/10.3.1/bits/stl_algo.h ****     inline pair<const _Tp&, const _Tp&>
3325:/opt/gcc-arm-none-eabi/arm-none-eabi/include/c++/10.3.1/bits/stl_algo.h ****     minmax(const _Tp& __a, const _Tp& __b)
3326:/opt/gcc-arm-none-eabi/arm-none-eabi/include/c++/10.3.1/bits/stl_algo.h ****     {
3327:/opt/gcc-arm-none-eabi/arm-none-eabi/include/c++/10.3.1/bits/stl_algo.h ****       // concept requirements
3328:/opt/gcc-arm-none-eabi/arm-none-eabi/include/c++/10.3.1/bits/stl_algo.h ****       __glibcxx_function_requires(_LessThanComparableConcept<_Tp>)
3329:/opt/gcc-arm-none-eabi/arm-none-eabi/include/c++/10.3.1/bits/stl_algo.h **** 
3330:/opt/gcc-arm-none-eabi/arm-none-eabi/include/c++/10.3.1/bits/stl_algo.h ****       return __b < __a ? pair<const _Tp&, const _Tp&>(__b, __a)
3331:/opt/gcc-arm-none-eabi/arm-none-eabi/include/c++/10.3.1/bits/stl_algo.h **** 		       : pair<const _Tp&, const _Tp&>(__a, __b);
3332:/opt/gcc-arm-none-eabi/arm-none-eabi/include/c++/10.3.1/bits/stl_algo.h ****     }
3333:/opt/gcc-arm-none-eabi/arm-none-eabi/include/c++/10.3.1/bits/stl_algo.h **** 
3334:/opt/gcc-arm-none-eabi/arm-none-eabi/include/c++/10.3.1/bits/stl_algo.h ****   /**
3335:/opt/gcc-arm-none-eabi/arm-none-eabi/include/c++/10.3.1/bits/stl_algo.h ****    *  @brief  Determines min and max at once as an ordered pair.
3336:/opt/gcc-arm-none-eabi/arm-none-eabi/include/c++/10.3.1/bits/stl_algo.h ****    *  @ingroup sorting_algorithms
3337:/opt/gcc-arm-none-eabi/arm-none-eabi/include/c++/10.3.1/bits/stl_algo.h ****    *  @param  __a  A thing of arbitrary type.
3338:/opt/gcc-arm-none-eabi/arm-none-eabi/include/c++/10.3.1/bits/stl_algo.h ****    *  @param  __b  Another thing of arbitrary type.
3339:/opt/gcc-arm-none-eabi/arm-none-eabi/include/c++/10.3.1/bits/stl_algo.h ****    *  @param  __comp  A @link comparison_functors comparison functor @endlink.
3340:/opt/gcc-arm-none-eabi/arm-none-eabi/include/c++/10.3.1/bits/stl_algo.h ****    *  @return A pair(__b, __a) if __b is smaller than __a, pair(__a,
3341:/opt/gcc-arm-none-eabi/arm-none-eabi/include/c++/10.3.1/bits/stl_algo.h ****    *  __b) otherwise.
3342:/opt/gcc-arm-none-eabi/arm-none-eabi/include/c++/10.3.1/bits/stl_algo.h ****   */
3343:/opt/gcc-arm-none-eabi/arm-none-eabi/include/c++/10.3.1/bits/stl_algo.h ****   template<typename _Tp, typename _Compare>
3344:/opt/gcc-arm-none-eabi/arm-none-eabi/include/c++/10.3.1/bits/stl_algo.h ****     _GLIBCXX14_CONSTEXPR
3345:/opt/gcc-arm-none-eabi/arm-none-eabi/include/c++/10.3.1/bits/stl_algo.h ****     inline pair<const _Tp&, const _Tp&>
3346:/opt/gcc-arm-none-eabi/arm-none-eabi/include/c++/10.3.1/bits/stl_algo.h ****     minmax(const _Tp& __a, const _Tp& __b, _Compare __comp)
3347:/opt/gcc-arm-none-eabi/arm-none-eabi/include/c++/10.3.1/bits/stl_algo.h ****     {
3348:/opt/gcc-arm-none-eabi/arm-none-eabi/include/c++/10.3.1/bits/stl_algo.h ****       return __comp(__b, __a) ? pair<const _Tp&, const _Tp&>(__b, __a)
3349:/opt/gcc-arm-none-eabi/arm-none-eabi/include/c++/10.3.1/bits/stl_algo.h **** 			      : pair<const _Tp&, const _Tp&>(__a, __b);
3350:/opt/gcc-arm-none-eabi/arm-none-eabi/include/c++/10.3.1/bits/stl_algo.h ****     }
3351:/opt/gcc-arm-none-eabi/arm-none-eabi/include/c++/10.3.1/bits/stl_algo.h **** 
3352:/opt/gcc-arm-none-eabi/arm-none-eabi/include/c++/10.3.1/bits/stl_algo.h ****   template<typename _ForwardIterator, typename _Compare>
3353:/opt/gcc-arm-none-eabi/arm-none-eabi/include/c++/10.3.1/bits/stl_algo.h ****     _GLIBCXX14_CONSTEXPR
3354:/opt/gcc-arm-none-eabi/arm-none-eabi/include/c++/10.3.1/bits/stl_algo.h ****     pair<_ForwardIterator, _ForwardIterator>
3355:/opt/gcc-arm-none-eabi/arm-none-eabi/include/c++/10.3.1/bits/stl_algo.h ****     __minmax_element(_ForwardIterator __first, _ForwardIterator __last,
3356:/opt/gcc-arm-none-eabi/arm-none-eabi/include/c++/10.3.1/bits/stl_algo.h **** 		     _Compare __comp)
3357:/opt/gcc-arm-none-eabi/arm-none-eabi/include/c++/10.3.1/bits/stl_algo.h ****     {
3358:/opt/gcc-arm-none-eabi/arm-none-eabi/include/c++/10.3.1/bits/stl_algo.h ****       _ForwardIterator __next = __first;
3359:/opt/gcc-arm-none-eabi/arm-none-eabi/include/c++/10.3.1/bits/stl_algo.h ****       if (__first == __last
3360:/opt/gcc-arm-none-eabi/arm-none-eabi/include/c++/10.3.1/bits/stl_algo.h **** 	  || ++__next == __last)
3361:/opt/gcc-arm-none-eabi/arm-none-eabi/include/c++/10.3.1/bits/stl_algo.h **** 	return std::make_pair(__first, __first);
3362:/opt/gcc-arm-none-eabi/arm-none-eabi/include/c++/10.3.1/bits/stl_algo.h **** 
3363:/opt/gcc-arm-none-eabi/arm-none-eabi/include/c++/10.3.1/bits/stl_algo.h ****       _ForwardIterator __min{}, __max{};
3364:/opt/gcc-arm-none-eabi/arm-none-eabi/include/c++/10.3.1/bits/stl_algo.h ****       if (__comp(__next, __first))
3365:/opt/gcc-arm-none-eabi/arm-none-eabi/include/c++/10.3.1/bits/stl_algo.h **** 	{
3366:/opt/gcc-arm-none-eabi/arm-none-eabi/include/c++/10.3.1/bits/stl_algo.h **** 	  __min = __next;
3367:/opt/gcc-arm-none-eabi/arm-none-eabi/include/c++/10.3.1/bits/stl_algo.h **** 	  __max = __first;
3368:/opt/gcc-arm-none-eabi/arm-none-eabi/include/c++/10.3.1/bits/stl_algo.h **** 	}
3369:/opt/gcc-arm-none-eabi/arm-none-eabi/include/c++/10.3.1/bits/stl_algo.h ****       else
3370:/opt/gcc-arm-none-eabi/arm-none-eabi/include/c++/10.3.1/bits/stl_algo.h **** 	{
3371:/opt/gcc-arm-none-eabi/arm-none-eabi/include/c++/10.3.1/bits/stl_algo.h **** 	  __min = __first;
3372:/opt/gcc-arm-none-eabi/arm-none-eabi/include/c++/10.3.1/bits/stl_algo.h **** 	  __max = __next;
3373:/opt/gcc-arm-none-eabi/arm-none-eabi/include/c++/10.3.1/bits/stl_algo.h **** 	}
3374:/opt/gcc-arm-none-eabi/arm-none-eabi/include/c++/10.3.1/bits/stl_algo.h **** 
ARM GAS  /tmp/ccxBL0ey.s 			page 122


3375:/opt/gcc-arm-none-eabi/arm-none-eabi/include/c++/10.3.1/bits/stl_algo.h ****       __first = __next;
3376:/opt/gcc-arm-none-eabi/arm-none-eabi/include/c++/10.3.1/bits/stl_algo.h ****       ++__first;
3377:/opt/gcc-arm-none-eabi/arm-none-eabi/include/c++/10.3.1/bits/stl_algo.h **** 
3378:/opt/gcc-arm-none-eabi/arm-none-eabi/include/c++/10.3.1/bits/stl_algo.h ****       while (__first != __last)
3379:/opt/gcc-arm-none-eabi/arm-none-eabi/include/c++/10.3.1/bits/stl_algo.h **** 	{
3380:/opt/gcc-arm-none-eabi/arm-none-eabi/include/c++/10.3.1/bits/stl_algo.h **** 	  __next = __first;
3381:/opt/gcc-arm-none-eabi/arm-none-eabi/include/c++/10.3.1/bits/stl_algo.h **** 	  if (++__next == __last)
3382:/opt/gcc-arm-none-eabi/arm-none-eabi/include/c++/10.3.1/bits/stl_algo.h **** 	    {
3383:/opt/gcc-arm-none-eabi/arm-none-eabi/include/c++/10.3.1/bits/stl_algo.h **** 	      if (__comp(__first, __min))
3384:/opt/gcc-arm-none-eabi/arm-none-eabi/include/c++/10.3.1/bits/stl_algo.h **** 		__min = __first;
3385:/opt/gcc-arm-none-eabi/arm-none-eabi/include/c++/10.3.1/bits/stl_algo.h **** 	      else if (!__comp(__first, __max))
3386:/opt/gcc-arm-none-eabi/arm-none-eabi/include/c++/10.3.1/bits/stl_algo.h **** 		__max = __first;
3387:/opt/gcc-arm-none-eabi/arm-none-eabi/include/c++/10.3.1/bits/stl_algo.h **** 	      break;
3388:/opt/gcc-arm-none-eabi/arm-none-eabi/include/c++/10.3.1/bits/stl_algo.h **** 	    }
3389:/opt/gcc-arm-none-eabi/arm-none-eabi/include/c++/10.3.1/bits/stl_algo.h **** 
3390:/opt/gcc-arm-none-eabi/arm-none-eabi/include/c++/10.3.1/bits/stl_algo.h **** 	  if (__comp(__next, __first))
3391:/opt/gcc-arm-none-eabi/arm-none-eabi/include/c++/10.3.1/bits/stl_algo.h **** 	    {
3392:/opt/gcc-arm-none-eabi/arm-none-eabi/include/c++/10.3.1/bits/stl_algo.h **** 	      if (__comp(__next, __min))
3393:/opt/gcc-arm-none-eabi/arm-none-eabi/include/c++/10.3.1/bits/stl_algo.h **** 		__min = __next;
3394:/opt/gcc-arm-none-eabi/arm-none-eabi/include/c++/10.3.1/bits/stl_algo.h **** 	      if (!__comp(__first, __max))
3395:/opt/gcc-arm-none-eabi/arm-none-eabi/include/c++/10.3.1/bits/stl_algo.h **** 		__max = __first;
3396:/opt/gcc-arm-none-eabi/arm-none-eabi/include/c++/10.3.1/bits/stl_algo.h **** 	    }
3397:/opt/gcc-arm-none-eabi/arm-none-eabi/include/c++/10.3.1/bits/stl_algo.h **** 	  else
3398:/opt/gcc-arm-none-eabi/arm-none-eabi/include/c++/10.3.1/bits/stl_algo.h **** 	    {
3399:/opt/gcc-arm-none-eabi/arm-none-eabi/include/c++/10.3.1/bits/stl_algo.h **** 	      if (__comp(__first, __min))
3400:/opt/gcc-arm-none-eabi/arm-none-eabi/include/c++/10.3.1/bits/stl_algo.h **** 		__min = __first;
3401:/opt/gcc-arm-none-eabi/arm-none-eabi/include/c++/10.3.1/bits/stl_algo.h **** 	      if (!__comp(__next, __max))
3402:/opt/gcc-arm-none-eabi/arm-none-eabi/include/c++/10.3.1/bits/stl_algo.h **** 		__max = __next;
3403:/opt/gcc-arm-none-eabi/arm-none-eabi/include/c++/10.3.1/bits/stl_algo.h **** 	    }
3404:/opt/gcc-arm-none-eabi/arm-none-eabi/include/c++/10.3.1/bits/stl_algo.h **** 
3405:/opt/gcc-arm-none-eabi/arm-none-eabi/include/c++/10.3.1/bits/stl_algo.h **** 	  __first = __next;
3406:/opt/gcc-arm-none-eabi/arm-none-eabi/include/c++/10.3.1/bits/stl_algo.h **** 	  ++__first;
3407:/opt/gcc-arm-none-eabi/arm-none-eabi/include/c++/10.3.1/bits/stl_algo.h **** 	}
3408:/opt/gcc-arm-none-eabi/arm-none-eabi/include/c++/10.3.1/bits/stl_algo.h **** 
3409:/opt/gcc-arm-none-eabi/arm-none-eabi/include/c++/10.3.1/bits/stl_algo.h ****       return std::make_pair(__min, __max);
3410:/opt/gcc-arm-none-eabi/arm-none-eabi/include/c++/10.3.1/bits/stl_algo.h ****     }
3411:/opt/gcc-arm-none-eabi/arm-none-eabi/include/c++/10.3.1/bits/stl_algo.h **** 
3412:/opt/gcc-arm-none-eabi/arm-none-eabi/include/c++/10.3.1/bits/stl_algo.h ****   /**
3413:/opt/gcc-arm-none-eabi/arm-none-eabi/include/c++/10.3.1/bits/stl_algo.h ****    *  @brief  Return a pair of iterators pointing to the minimum and maximum
3414:/opt/gcc-arm-none-eabi/arm-none-eabi/include/c++/10.3.1/bits/stl_algo.h ****    *          elements in a range.
3415:/opt/gcc-arm-none-eabi/arm-none-eabi/include/c++/10.3.1/bits/stl_algo.h ****    *  @ingroup sorting_algorithms
3416:/opt/gcc-arm-none-eabi/arm-none-eabi/include/c++/10.3.1/bits/stl_algo.h ****    *  @param  __first  Start of range.
3417:/opt/gcc-arm-none-eabi/arm-none-eabi/include/c++/10.3.1/bits/stl_algo.h ****    *  @param  __last   End of range.
3418:/opt/gcc-arm-none-eabi/arm-none-eabi/include/c++/10.3.1/bits/stl_algo.h ****    *  @return  make_pair(m, M), where m is the first iterator i in 
3419:/opt/gcc-arm-none-eabi/arm-none-eabi/include/c++/10.3.1/bits/stl_algo.h ****    *           [__first, __last) such that no other element in the range is
3420:/opt/gcc-arm-none-eabi/arm-none-eabi/include/c++/10.3.1/bits/stl_algo.h ****    *           smaller, and where M is the last iterator i in [__first, __last)
3421:/opt/gcc-arm-none-eabi/arm-none-eabi/include/c++/10.3.1/bits/stl_algo.h ****    *           such that no other element in the range is larger.
3422:/opt/gcc-arm-none-eabi/arm-none-eabi/include/c++/10.3.1/bits/stl_algo.h ****   */
3423:/opt/gcc-arm-none-eabi/arm-none-eabi/include/c++/10.3.1/bits/stl_algo.h ****   template<typename _ForwardIterator>
3424:/opt/gcc-arm-none-eabi/arm-none-eabi/include/c++/10.3.1/bits/stl_algo.h ****     _GLIBCXX14_CONSTEXPR
3425:/opt/gcc-arm-none-eabi/arm-none-eabi/include/c++/10.3.1/bits/stl_algo.h ****     inline pair<_ForwardIterator, _ForwardIterator>
3426:/opt/gcc-arm-none-eabi/arm-none-eabi/include/c++/10.3.1/bits/stl_algo.h ****     minmax_element(_ForwardIterator __first, _ForwardIterator __last)
3427:/opt/gcc-arm-none-eabi/arm-none-eabi/include/c++/10.3.1/bits/stl_algo.h ****     {
3428:/opt/gcc-arm-none-eabi/arm-none-eabi/include/c++/10.3.1/bits/stl_algo.h ****       // concept requirements
3429:/opt/gcc-arm-none-eabi/arm-none-eabi/include/c++/10.3.1/bits/stl_algo.h ****       __glibcxx_function_requires(_ForwardIteratorConcept<_ForwardIterator>)
3430:/opt/gcc-arm-none-eabi/arm-none-eabi/include/c++/10.3.1/bits/stl_algo.h ****       __glibcxx_function_requires(_LessThanComparableConcept<
3431:/opt/gcc-arm-none-eabi/arm-none-eabi/include/c++/10.3.1/bits/stl_algo.h **** 	    typename iterator_traits<_ForwardIterator>::value_type>)
ARM GAS  /tmp/ccxBL0ey.s 			page 123


3432:/opt/gcc-arm-none-eabi/arm-none-eabi/include/c++/10.3.1/bits/stl_algo.h ****       __glibcxx_requires_valid_range(__first, __last);
3433:/opt/gcc-arm-none-eabi/arm-none-eabi/include/c++/10.3.1/bits/stl_algo.h ****       __glibcxx_requires_irreflexive(__first, __last);
3434:/opt/gcc-arm-none-eabi/arm-none-eabi/include/c++/10.3.1/bits/stl_algo.h **** 
3435:/opt/gcc-arm-none-eabi/arm-none-eabi/include/c++/10.3.1/bits/stl_algo.h ****       return std::__minmax_element(__first, __last,
3436:/opt/gcc-arm-none-eabi/arm-none-eabi/include/c++/10.3.1/bits/stl_algo.h **** 				   __gnu_cxx::__ops::__iter_less_iter());
3437:/opt/gcc-arm-none-eabi/arm-none-eabi/include/c++/10.3.1/bits/stl_algo.h ****     }
3438:/opt/gcc-arm-none-eabi/arm-none-eabi/include/c++/10.3.1/bits/stl_algo.h **** 
3439:/opt/gcc-arm-none-eabi/arm-none-eabi/include/c++/10.3.1/bits/stl_algo.h ****   /**
3440:/opt/gcc-arm-none-eabi/arm-none-eabi/include/c++/10.3.1/bits/stl_algo.h ****    *  @brief  Return a pair of iterators pointing to the minimum and maximum
3441:/opt/gcc-arm-none-eabi/arm-none-eabi/include/c++/10.3.1/bits/stl_algo.h ****    *          elements in a range.
3442:/opt/gcc-arm-none-eabi/arm-none-eabi/include/c++/10.3.1/bits/stl_algo.h ****    *  @ingroup sorting_algorithms
3443:/opt/gcc-arm-none-eabi/arm-none-eabi/include/c++/10.3.1/bits/stl_algo.h ****    *  @param  __first  Start of range.
3444:/opt/gcc-arm-none-eabi/arm-none-eabi/include/c++/10.3.1/bits/stl_algo.h ****    *  @param  __last   End of range.
3445:/opt/gcc-arm-none-eabi/arm-none-eabi/include/c++/10.3.1/bits/stl_algo.h ****    *  @param  __comp   Comparison functor.
3446:/opt/gcc-arm-none-eabi/arm-none-eabi/include/c++/10.3.1/bits/stl_algo.h ****    *  @return  make_pair(m, M), where m is the first iterator i in 
3447:/opt/gcc-arm-none-eabi/arm-none-eabi/include/c++/10.3.1/bits/stl_algo.h ****    *           [__first, __last) such that no other element in the range is
3448:/opt/gcc-arm-none-eabi/arm-none-eabi/include/c++/10.3.1/bits/stl_algo.h ****    *           smaller, and where M is the last iterator i in [__first, __last)
3449:/opt/gcc-arm-none-eabi/arm-none-eabi/include/c++/10.3.1/bits/stl_algo.h ****    *           such that no other element in the range is larger.
3450:/opt/gcc-arm-none-eabi/arm-none-eabi/include/c++/10.3.1/bits/stl_algo.h ****   */
3451:/opt/gcc-arm-none-eabi/arm-none-eabi/include/c++/10.3.1/bits/stl_algo.h ****   template<typename _ForwardIterator, typename _Compare>
3452:/opt/gcc-arm-none-eabi/arm-none-eabi/include/c++/10.3.1/bits/stl_algo.h ****     _GLIBCXX14_CONSTEXPR
3453:/opt/gcc-arm-none-eabi/arm-none-eabi/include/c++/10.3.1/bits/stl_algo.h ****     inline pair<_ForwardIterator, _ForwardIterator>
3454:/opt/gcc-arm-none-eabi/arm-none-eabi/include/c++/10.3.1/bits/stl_algo.h ****     minmax_element(_ForwardIterator __first, _ForwardIterator __last,
3455:/opt/gcc-arm-none-eabi/arm-none-eabi/include/c++/10.3.1/bits/stl_algo.h **** 		   _Compare __comp)
3456:/opt/gcc-arm-none-eabi/arm-none-eabi/include/c++/10.3.1/bits/stl_algo.h ****     {
3457:/opt/gcc-arm-none-eabi/arm-none-eabi/include/c++/10.3.1/bits/stl_algo.h ****       // concept requirements
3458:/opt/gcc-arm-none-eabi/arm-none-eabi/include/c++/10.3.1/bits/stl_algo.h ****       __glibcxx_function_requires(_ForwardIteratorConcept<_ForwardIterator>)
3459:/opt/gcc-arm-none-eabi/arm-none-eabi/include/c++/10.3.1/bits/stl_algo.h ****       __glibcxx_function_requires(_BinaryPredicateConcept<_Compare,
3460:/opt/gcc-arm-none-eabi/arm-none-eabi/include/c++/10.3.1/bits/stl_algo.h **** 	    typename iterator_traits<_ForwardIterator>::value_type,
3461:/opt/gcc-arm-none-eabi/arm-none-eabi/include/c++/10.3.1/bits/stl_algo.h **** 	    typename iterator_traits<_ForwardIterator>::value_type>)
3462:/opt/gcc-arm-none-eabi/arm-none-eabi/include/c++/10.3.1/bits/stl_algo.h ****       __glibcxx_requires_valid_range(__first, __last);
3463:/opt/gcc-arm-none-eabi/arm-none-eabi/include/c++/10.3.1/bits/stl_algo.h ****       __glibcxx_requires_irreflexive_pred(__first, __last, __comp);
3464:/opt/gcc-arm-none-eabi/arm-none-eabi/include/c++/10.3.1/bits/stl_algo.h **** 
3465:/opt/gcc-arm-none-eabi/arm-none-eabi/include/c++/10.3.1/bits/stl_algo.h ****       return std::__minmax_element(__first, __last,
3466:/opt/gcc-arm-none-eabi/arm-none-eabi/include/c++/10.3.1/bits/stl_algo.h **** 				   __gnu_cxx::__ops::__iter_comp_iter(__comp));
3467:/opt/gcc-arm-none-eabi/arm-none-eabi/include/c++/10.3.1/bits/stl_algo.h ****     }
3468:/opt/gcc-arm-none-eabi/arm-none-eabi/include/c++/10.3.1/bits/stl_algo.h **** 
3469:/opt/gcc-arm-none-eabi/arm-none-eabi/include/c++/10.3.1/bits/stl_algo.h ****   // N2722 + DR 915.
3470:/opt/gcc-arm-none-eabi/arm-none-eabi/include/c++/10.3.1/bits/stl_algo.h ****   template<typename _Tp>
3471:/opt/gcc-arm-none-eabi/arm-none-eabi/include/c++/10.3.1/bits/stl_algo.h ****     _GLIBCXX14_CONSTEXPR
3472:/opt/gcc-arm-none-eabi/arm-none-eabi/include/c++/10.3.1/bits/stl_algo.h ****     inline _Tp
3473:/opt/gcc-arm-none-eabi/arm-none-eabi/include/c++/10.3.1/bits/stl_algo.h ****     min(initializer_list<_Tp> __l)
3474:/opt/gcc-arm-none-eabi/arm-none-eabi/include/c++/10.3.1/bits/stl_algo.h ****     { return *std::min_element(__l.begin(), __l.end()); }
3475:/opt/gcc-arm-none-eabi/arm-none-eabi/include/c++/10.3.1/bits/stl_algo.h **** 
3476:/opt/gcc-arm-none-eabi/arm-none-eabi/include/c++/10.3.1/bits/stl_algo.h ****   template<typename _Tp, typename _Compare>
3477:/opt/gcc-arm-none-eabi/arm-none-eabi/include/c++/10.3.1/bits/stl_algo.h ****     _GLIBCXX14_CONSTEXPR
3478:/opt/gcc-arm-none-eabi/arm-none-eabi/include/c++/10.3.1/bits/stl_algo.h ****     inline _Tp
3479:/opt/gcc-arm-none-eabi/arm-none-eabi/include/c++/10.3.1/bits/stl_algo.h ****     min(initializer_list<_Tp> __l, _Compare __comp)
3480:/opt/gcc-arm-none-eabi/arm-none-eabi/include/c++/10.3.1/bits/stl_algo.h ****     { return *std::min_element(__l.begin(), __l.end(), __comp); }
3481:/opt/gcc-arm-none-eabi/arm-none-eabi/include/c++/10.3.1/bits/stl_algo.h **** 
3482:/opt/gcc-arm-none-eabi/arm-none-eabi/include/c++/10.3.1/bits/stl_algo.h ****   template<typename _Tp>
3483:/opt/gcc-arm-none-eabi/arm-none-eabi/include/c++/10.3.1/bits/stl_algo.h ****     _GLIBCXX14_CONSTEXPR
3484:/opt/gcc-arm-none-eabi/arm-none-eabi/include/c++/10.3.1/bits/stl_algo.h ****     inline _Tp
3485:/opt/gcc-arm-none-eabi/arm-none-eabi/include/c++/10.3.1/bits/stl_algo.h ****     max(initializer_list<_Tp> __l)
3486:/opt/gcc-arm-none-eabi/arm-none-eabi/include/c++/10.3.1/bits/stl_algo.h ****     { return *std::max_element(__l.begin(), __l.end()); }
3487:/opt/gcc-arm-none-eabi/arm-none-eabi/include/c++/10.3.1/bits/stl_algo.h **** 
3488:/opt/gcc-arm-none-eabi/arm-none-eabi/include/c++/10.3.1/bits/stl_algo.h ****   template<typename _Tp, typename _Compare>
ARM GAS  /tmp/ccxBL0ey.s 			page 124


3489:/opt/gcc-arm-none-eabi/arm-none-eabi/include/c++/10.3.1/bits/stl_algo.h ****     _GLIBCXX14_CONSTEXPR
3490:/opt/gcc-arm-none-eabi/arm-none-eabi/include/c++/10.3.1/bits/stl_algo.h ****     inline _Tp
3491:/opt/gcc-arm-none-eabi/arm-none-eabi/include/c++/10.3.1/bits/stl_algo.h ****     max(initializer_list<_Tp> __l, _Compare __comp)
3492:/opt/gcc-arm-none-eabi/arm-none-eabi/include/c++/10.3.1/bits/stl_algo.h ****     { return *std::max_element(__l.begin(), __l.end(), __comp); }
3493:/opt/gcc-arm-none-eabi/arm-none-eabi/include/c++/10.3.1/bits/stl_algo.h **** 
3494:/opt/gcc-arm-none-eabi/arm-none-eabi/include/c++/10.3.1/bits/stl_algo.h ****   template<typename _Tp>
3495:/opt/gcc-arm-none-eabi/arm-none-eabi/include/c++/10.3.1/bits/stl_algo.h ****     _GLIBCXX14_CONSTEXPR
3496:/opt/gcc-arm-none-eabi/arm-none-eabi/include/c++/10.3.1/bits/stl_algo.h ****     inline pair<_Tp, _Tp>
3497:/opt/gcc-arm-none-eabi/arm-none-eabi/include/c++/10.3.1/bits/stl_algo.h ****     minmax(initializer_list<_Tp> __l)
3498:/opt/gcc-arm-none-eabi/arm-none-eabi/include/c++/10.3.1/bits/stl_algo.h ****     {
3499:/opt/gcc-arm-none-eabi/arm-none-eabi/include/c++/10.3.1/bits/stl_algo.h ****       pair<const _Tp*, const _Tp*> __p =
3500:/opt/gcc-arm-none-eabi/arm-none-eabi/include/c++/10.3.1/bits/stl_algo.h **** 	std::minmax_element(__l.begin(), __l.end());
3501:/opt/gcc-arm-none-eabi/arm-none-eabi/include/c++/10.3.1/bits/stl_algo.h ****       return std::make_pair(*__p.first, *__p.second);
3502:/opt/gcc-arm-none-eabi/arm-none-eabi/include/c++/10.3.1/bits/stl_algo.h ****     }
3503:/opt/gcc-arm-none-eabi/arm-none-eabi/include/c++/10.3.1/bits/stl_algo.h **** 
3504:/opt/gcc-arm-none-eabi/arm-none-eabi/include/c++/10.3.1/bits/stl_algo.h ****   template<typename _Tp, typename _Compare>
3505:/opt/gcc-arm-none-eabi/arm-none-eabi/include/c++/10.3.1/bits/stl_algo.h ****     _GLIBCXX14_CONSTEXPR
3506:/opt/gcc-arm-none-eabi/arm-none-eabi/include/c++/10.3.1/bits/stl_algo.h ****     inline pair<_Tp, _Tp>
3507:/opt/gcc-arm-none-eabi/arm-none-eabi/include/c++/10.3.1/bits/stl_algo.h ****     minmax(initializer_list<_Tp> __l, _Compare __comp)
3508:/opt/gcc-arm-none-eabi/arm-none-eabi/include/c++/10.3.1/bits/stl_algo.h ****     {
3509:/opt/gcc-arm-none-eabi/arm-none-eabi/include/c++/10.3.1/bits/stl_algo.h ****       pair<const _Tp*, const _Tp*> __p =
3510:/opt/gcc-arm-none-eabi/arm-none-eabi/include/c++/10.3.1/bits/stl_algo.h **** 	std::minmax_element(__l.begin(), __l.end(), __comp);
3511:/opt/gcc-arm-none-eabi/arm-none-eabi/include/c++/10.3.1/bits/stl_algo.h ****       return std::make_pair(*__p.first, *__p.second);
3512:/opt/gcc-arm-none-eabi/arm-none-eabi/include/c++/10.3.1/bits/stl_algo.h ****     }
3513:/opt/gcc-arm-none-eabi/arm-none-eabi/include/c++/10.3.1/bits/stl_algo.h **** 
3514:/opt/gcc-arm-none-eabi/arm-none-eabi/include/c++/10.3.1/bits/stl_algo.h ****   /**
3515:/opt/gcc-arm-none-eabi/arm-none-eabi/include/c++/10.3.1/bits/stl_algo.h ****    *  @brief  Checks whether a permutation of the second sequence is equal
3516:/opt/gcc-arm-none-eabi/arm-none-eabi/include/c++/10.3.1/bits/stl_algo.h ****    *          to the first sequence.
3517:/opt/gcc-arm-none-eabi/arm-none-eabi/include/c++/10.3.1/bits/stl_algo.h ****    *  @ingroup non_mutating_algorithms
3518:/opt/gcc-arm-none-eabi/arm-none-eabi/include/c++/10.3.1/bits/stl_algo.h ****    *  @param  __first1  Start of first range.
3519:/opt/gcc-arm-none-eabi/arm-none-eabi/include/c++/10.3.1/bits/stl_algo.h ****    *  @param  __last1   End of first range.
3520:/opt/gcc-arm-none-eabi/arm-none-eabi/include/c++/10.3.1/bits/stl_algo.h ****    *  @param  __first2  Start of second range.
3521:/opt/gcc-arm-none-eabi/arm-none-eabi/include/c++/10.3.1/bits/stl_algo.h ****    *  @param  __pred    A binary predicate.
3522:/opt/gcc-arm-none-eabi/arm-none-eabi/include/c++/10.3.1/bits/stl_algo.h ****    *  @return true if there exists a permutation of the elements in
3523:/opt/gcc-arm-none-eabi/arm-none-eabi/include/c++/10.3.1/bits/stl_algo.h ****    *          the range [__first2, __first2 + (__last1 - __first1)),
3524:/opt/gcc-arm-none-eabi/arm-none-eabi/include/c++/10.3.1/bits/stl_algo.h ****    *          beginning with ForwardIterator2 begin, such that
3525:/opt/gcc-arm-none-eabi/arm-none-eabi/include/c++/10.3.1/bits/stl_algo.h ****    *          equal(__first1, __last1, __begin, __pred) returns true;
3526:/opt/gcc-arm-none-eabi/arm-none-eabi/include/c++/10.3.1/bits/stl_algo.h ****    *          otherwise, returns false.
3527:/opt/gcc-arm-none-eabi/arm-none-eabi/include/c++/10.3.1/bits/stl_algo.h ****   */
3528:/opt/gcc-arm-none-eabi/arm-none-eabi/include/c++/10.3.1/bits/stl_algo.h ****   template<typename _ForwardIterator1, typename _ForwardIterator2,
3529:/opt/gcc-arm-none-eabi/arm-none-eabi/include/c++/10.3.1/bits/stl_algo.h **** 	   typename _BinaryPredicate>
3530:/opt/gcc-arm-none-eabi/arm-none-eabi/include/c++/10.3.1/bits/stl_algo.h ****     _GLIBCXX20_CONSTEXPR
3531:/opt/gcc-arm-none-eabi/arm-none-eabi/include/c++/10.3.1/bits/stl_algo.h ****     inline bool
3532:/opt/gcc-arm-none-eabi/arm-none-eabi/include/c++/10.3.1/bits/stl_algo.h ****     is_permutation(_ForwardIterator1 __first1, _ForwardIterator1 __last1,
3533:/opt/gcc-arm-none-eabi/arm-none-eabi/include/c++/10.3.1/bits/stl_algo.h **** 		   _ForwardIterator2 __first2, _BinaryPredicate __pred)
3534:/opt/gcc-arm-none-eabi/arm-none-eabi/include/c++/10.3.1/bits/stl_algo.h ****     {
3535:/opt/gcc-arm-none-eabi/arm-none-eabi/include/c++/10.3.1/bits/stl_algo.h ****       // concept requirements
3536:/opt/gcc-arm-none-eabi/arm-none-eabi/include/c++/10.3.1/bits/stl_algo.h ****       __glibcxx_function_requires(_ForwardIteratorConcept<_ForwardIterator1>)
3537:/opt/gcc-arm-none-eabi/arm-none-eabi/include/c++/10.3.1/bits/stl_algo.h ****       __glibcxx_function_requires(_ForwardIteratorConcept<_ForwardIterator2>)
3538:/opt/gcc-arm-none-eabi/arm-none-eabi/include/c++/10.3.1/bits/stl_algo.h ****       __glibcxx_function_requires(_BinaryPredicateConcept<_BinaryPredicate,
3539:/opt/gcc-arm-none-eabi/arm-none-eabi/include/c++/10.3.1/bits/stl_algo.h **** 	    typename iterator_traits<_ForwardIterator1>::value_type,
3540:/opt/gcc-arm-none-eabi/arm-none-eabi/include/c++/10.3.1/bits/stl_algo.h **** 	    typename iterator_traits<_ForwardIterator2>::value_type>)
3541:/opt/gcc-arm-none-eabi/arm-none-eabi/include/c++/10.3.1/bits/stl_algo.h ****       __glibcxx_requires_valid_range(__first1, __last1);
3542:/opt/gcc-arm-none-eabi/arm-none-eabi/include/c++/10.3.1/bits/stl_algo.h **** 
3543:/opt/gcc-arm-none-eabi/arm-none-eabi/include/c++/10.3.1/bits/stl_algo.h ****       return std::__is_permutation(__first1, __last1, __first2,
3544:/opt/gcc-arm-none-eabi/arm-none-eabi/include/c++/10.3.1/bits/stl_algo.h **** 				   __gnu_cxx::__ops::__iter_comp_iter(__pred));
3545:/opt/gcc-arm-none-eabi/arm-none-eabi/include/c++/10.3.1/bits/stl_algo.h ****     }
ARM GAS  /tmp/ccxBL0ey.s 			page 125


3546:/opt/gcc-arm-none-eabi/arm-none-eabi/include/c++/10.3.1/bits/stl_algo.h **** 
3547:/opt/gcc-arm-none-eabi/arm-none-eabi/include/c++/10.3.1/bits/stl_algo.h **** #if __cplusplus > 201103L
3548:/opt/gcc-arm-none-eabi/arm-none-eabi/include/c++/10.3.1/bits/stl_algo.h ****   template<typename _ForwardIterator1, typename _ForwardIterator2,
3549:/opt/gcc-arm-none-eabi/arm-none-eabi/include/c++/10.3.1/bits/stl_algo.h **** 	   typename _BinaryPredicate>
3550:/opt/gcc-arm-none-eabi/arm-none-eabi/include/c++/10.3.1/bits/stl_algo.h ****     _GLIBCXX20_CONSTEXPR
3551:/opt/gcc-arm-none-eabi/arm-none-eabi/include/c++/10.3.1/bits/stl_algo.h ****     bool
3552:/opt/gcc-arm-none-eabi/arm-none-eabi/include/c++/10.3.1/bits/stl_algo.h ****     __is_permutation(_ForwardIterator1 __first1, _ForwardIterator1 __last1,
3553:/opt/gcc-arm-none-eabi/arm-none-eabi/include/c++/10.3.1/bits/stl_algo.h **** 		     _ForwardIterator2 __first2, _ForwardIterator2 __last2,
3554:/opt/gcc-arm-none-eabi/arm-none-eabi/include/c++/10.3.1/bits/stl_algo.h **** 		     _BinaryPredicate __pred)
3555:/opt/gcc-arm-none-eabi/arm-none-eabi/include/c++/10.3.1/bits/stl_algo.h ****     {
3556:/opt/gcc-arm-none-eabi/arm-none-eabi/include/c++/10.3.1/bits/stl_algo.h ****       using _Cat1
3557:/opt/gcc-arm-none-eabi/arm-none-eabi/include/c++/10.3.1/bits/stl_algo.h **** 	= typename iterator_traits<_ForwardIterator1>::iterator_category;
3558:/opt/gcc-arm-none-eabi/arm-none-eabi/include/c++/10.3.1/bits/stl_algo.h ****       using _Cat2
3559:/opt/gcc-arm-none-eabi/arm-none-eabi/include/c++/10.3.1/bits/stl_algo.h **** 	= typename iterator_traits<_ForwardIterator2>::iterator_category;
3560:/opt/gcc-arm-none-eabi/arm-none-eabi/include/c++/10.3.1/bits/stl_algo.h ****       using _It1_is_RA = is_same<_Cat1, random_access_iterator_tag>;
3561:/opt/gcc-arm-none-eabi/arm-none-eabi/include/c++/10.3.1/bits/stl_algo.h ****       using _It2_is_RA = is_same<_Cat2, random_access_iterator_tag>;
3562:/opt/gcc-arm-none-eabi/arm-none-eabi/include/c++/10.3.1/bits/stl_algo.h ****       constexpr bool __ra_iters = _It1_is_RA() && _It2_is_RA();
3563:/opt/gcc-arm-none-eabi/arm-none-eabi/include/c++/10.3.1/bits/stl_algo.h ****       if (__ra_iters)
3564:/opt/gcc-arm-none-eabi/arm-none-eabi/include/c++/10.3.1/bits/stl_algo.h **** 	{
3565:/opt/gcc-arm-none-eabi/arm-none-eabi/include/c++/10.3.1/bits/stl_algo.h **** 	  auto __d1 = std::distance(__first1, __last1);
3566:/opt/gcc-arm-none-eabi/arm-none-eabi/include/c++/10.3.1/bits/stl_algo.h **** 	  auto __d2 = std::distance(__first2, __last2);
3567:/opt/gcc-arm-none-eabi/arm-none-eabi/include/c++/10.3.1/bits/stl_algo.h **** 	  if (__d1 != __d2)
3568:/opt/gcc-arm-none-eabi/arm-none-eabi/include/c++/10.3.1/bits/stl_algo.h **** 	    return false;
3569:/opt/gcc-arm-none-eabi/arm-none-eabi/include/c++/10.3.1/bits/stl_algo.h **** 	}
3570:/opt/gcc-arm-none-eabi/arm-none-eabi/include/c++/10.3.1/bits/stl_algo.h **** 
3571:/opt/gcc-arm-none-eabi/arm-none-eabi/include/c++/10.3.1/bits/stl_algo.h ****       // Efficiently compare identical prefixes:  O(N) if sequences
3572:/opt/gcc-arm-none-eabi/arm-none-eabi/include/c++/10.3.1/bits/stl_algo.h ****       // have the same elements in the same order.
3573:/opt/gcc-arm-none-eabi/arm-none-eabi/include/c++/10.3.1/bits/stl_algo.h ****       for (; __first1 != __last1 && __first2 != __last2;
3574:/opt/gcc-arm-none-eabi/arm-none-eabi/include/c++/10.3.1/bits/stl_algo.h **** 	  ++__first1, (void)++__first2)
3575:/opt/gcc-arm-none-eabi/arm-none-eabi/include/c++/10.3.1/bits/stl_algo.h **** 	if (!__pred(__first1, __first2))
3576:/opt/gcc-arm-none-eabi/arm-none-eabi/include/c++/10.3.1/bits/stl_algo.h **** 	  break;
3577:/opt/gcc-arm-none-eabi/arm-none-eabi/include/c++/10.3.1/bits/stl_algo.h **** 
3578:/opt/gcc-arm-none-eabi/arm-none-eabi/include/c++/10.3.1/bits/stl_algo.h ****       if (__ra_iters)
3579:/opt/gcc-arm-none-eabi/arm-none-eabi/include/c++/10.3.1/bits/stl_algo.h **** 	{
3580:/opt/gcc-arm-none-eabi/arm-none-eabi/include/c++/10.3.1/bits/stl_algo.h **** 	  if (__first1 == __last1)
3581:/opt/gcc-arm-none-eabi/arm-none-eabi/include/c++/10.3.1/bits/stl_algo.h **** 	    return true;
3582:/opt/gcc-arm-none-eabi/arm-none-eabi/include/c++/10.3.1/bits/stl_algo.h **** 	}
3583:/opt/gcc-arm-none-eabi/arm-none-eabi/include/c++/10.3.1/bits/stl_algo.h ****       else
3584:/opt/gcc-arm-none-eabi/arm-none-eabi/include/c++/10.3.1/bits/stl_algo.h **** 	{
3585:/opt/gcc-arm-none-eabi/arm-none-eabi/include/c++/10.3.1/bits/stl_algo.h **** 	  auto __d1 = std::distance(__first1, __last1);
3586:/opt/gcc-arm-none-eabi/arm-none-eabi/include/c++/10.3.1/bits/stl_algo.h **** 	  auto __d2 = std::distance(__first2, __last2);
3587:/opt/gcc-arm-none-eabi/arm-none-eabi/include/c++/10.3.1/bits/stl_algo.h **** 	  if (__d1 == 0 && __d2 == 0)
3588:/opt/gcc-arm-none-eabi/arm-none-eabi/include/c++/10.3.1/bits/stl_algo.h **** 	    return true;
3589:/opt/gcc-arm-none-eabi/arm-none-eabi/include/c++/10.3.1/bits/stl_algo.h **** 	  if (__d1 != __d2)
3590:/opt/gcc-arm-none-eabi/arm-none-eabi/include/c++/10.3.1/bits/stl_algo.h **** 	    return false;
3591:/opt/gcc-arm-none-eabi/arm-none-eabi/include/c++/10.3.1/bits/stl_algo.h **** 	}
3592:/opt/gcc-arm-none-eabi/arm-none-eabi/include/c++/10.3.1/bits/stl_algo.h **** 
3593:/opt/gcc-arm-none-eabi/arm-none-eabi/include/c++/10.3.1/bits/stl_algo.h ****       for (_ForwardIterator1 __scan = __first1; __scan != __last1; ++__scan)
3594:/opt/gcc-arm-none-eabi/arm-none-eabi/include/c++/10.3.1/bits/stl_algo.h **** 	{
3595:/opt/gcc-arm-none-eabi/arm-none-eabi/include/c++/10.3.1/bits/stl_algo.h **** 	  if (__scan != std::__find_if(__first1, __scan,
3596:/opt/gcc-arm-none-eabi/arm-none-eabi/include/c++/10.3.1/bits/stl_algo.h **** 			__gnu_cxx::__ops::__iter_comp_iter(__pred, __scan)))
3597:/opt/gcc-arm-none-eabi/arm-none-eabi/include/c++/10.3.1/bits/stl_algo.h **** 	    continue; // We've seen this one before.
3598:/opt/gcc-arm-none-eabi/arm-none-eabi/include/c++/10.3.1/bits/stl_algo.h **** 
3599:/opt/gcc-arm-none-eabi/arm-none-eabi/include/c++/10.3.1/bits/stl_algo.h **** 	  auto __matches = std::__count_if(__first2, __last2,
3600:/opt/gcc-arm-none-eabi/arm-none-eabi/include/c++/10.3.1/bits/stl_algo.h **** 		__gnu_cxx::__ops::__iter_comp_iter(__pred, __scan));
3601:/opt/gcc-arm-none-eabi/arm-none-eabi/include/c++/10.3.1/bits/stl_algo.h **** 	  if (0 == __matches
3602:/opt/gcc-arm-none-eabi/arm-none-eabi/include/c++/10.3.1/bits/stl_algo.h **** 	      || std::__count_if(__scan, __last1,
ARM GAS  /tmp/ccxBL0ey.s 			page 126


3603:/opt/gcc-arm-none-eabi/arm-none-eabi/include/c++/10.3.1/bits/stl_algo.h **** 			__gnu_cxx::__ops::__iter_comp_iter(__pred, __scan))
3604:/opt/gcc-arm-none-eabi/arm-none-eabi/include/c++/10.3.1/bits/stl_algo.h **** 	      != __matches)
3605:/opt/gcc-arm-none-eabi/arm-none-eabi/include/c++/10.3.1/bits/stl_algo.h **** 	    return false;
3606:/opt/gcc-arm-none-eabi/arm-none-eabi/include/c++/10.3.1/bits/stl_algo.h **** 	}
3607:/opt/gcc-arm-none-eabi/arm-none-eabi/include/c++/10.3.1/bits/stl_algo.h ****       return true;
3608:/opt/gcc-arm-none-eabi/arm-none-eabi/include/c++/10.3.1/bits/stl_algo.h ****     }
3609:/opt/gcc-arm-none-eabi/arm-none-eabi/include/c++/10.3.1/bits/stl_algo.h **** 
3610:/opt/gcc-arm-none-eabi/arm-none-eabi/include/c++/10.3.1/bits/stl_algo.h ****   /**
3611:/opt/gcc-arm-none-eabi/arm-none-eabi/include/c++/10.3.1/bits/stl_algo.h ****    *  @brief  Checks whether a permutaion of the second sequence is equal
3612:/opt/gcc-arm-none-eabi/arm-none-eabi/include/c++/10.3.1/bits/stl_algo.h ****    *          to the first sequence.
3613:/opt/gcc-arm-none-eabi/arm-none-eabi/include/c++/10.3.1/bits/stl_algo.h ****    *  @ingroup non_mutating_algorithms
3614:/opt/gcc-arm-none-eabi/arm-none-eabi/include/c++/10.3.1/bits/stl_algo.h ****    *  @param  __first1  Start of first range.
3615:/opt/gcc-arm-none-eabi/arm-none-eabi/include/c++/10.3.1/bits/stl_algo.h ****    *  @param  __last1   End of first range.
3616:/opt/gcc-arm-none-eabi/arm-none-eabi/include/c++/10.3.1/bits/stl_algo.h ****    *  @param  __first2  Start of second range.
3617:/opt/gcc-arm-none-eabi/arm-none-eabi/include/c++/10.3.1/bits/stl_algo.h ****    *  @param  __last2   End of first range.
3618:/opt/gcc-arm-none-eabi/arm-none-eabi/include/c++/10.3.1/bits/stl_algo.h ****    *  @return true if there exists a permutation of the elements in the range
3619:/opt/gcc-arm-none-eabi/arm-none-eabi/include/c++/10.3.1/bits/stl_algo.h ****    *          [__first2, __last2), beginning with ForwardIterator2 begin,
3620:/opt/gcc-arm-none-eabi/arm-none-eabi/include/c++/10.3.1/bits/stl_algo.h ****    *          such that equal(__first1, __last1, begin) returns true;
3621:/opt/gcc-arm-none-eabi/arm-none-eabi/include/c++/10.3.1/bits/stl_algo.h ****    *          otherwise, returns false.
3622:/opt/gcc-arm-none-eabi/arm-none-eabi/include/c++/10.3.1/bits/stl_algo.h ****   */
3623:/opt/gcc-arm-none-eabi/arm-none-eabi/include/c++/10.3.1/bits/stl_algo.h ****   template<typename _ForwardIterator1, typename _ForwardIterator2>
3624:/opt/gcc-arm-none-eabi/arm-none-eabi/include/c++/10.3.1/bits/stl_algo.h ****     _GLIBCXX20_CONSTEXPR
3625:/opt/gcc-arm-none-eabi/arm-none-eabi/include/c++/10.3.1/bits/stl_algo.h ****     inline bool
3626:/opt/gcc-arm-none-eabi/arm-none-eabi/include/c++/10.3.1/bits/stl_algo.h ****     is_permutation(_ForwardIterator1 __first1, _ForwardIterator1 __last1,
3627:/opt/gcc-arm-none-eabi/arm-none-eabi/include/c++/10.3.1/bits/stl_algo.h **** 		   _ForwardIterator2 __first2, _ForwardIterator2 __last2)
3628:/opt/gcc-arm-none-eabi/arm-none-eabi/include/c++/10.3.1/bits/stl_algo.h ****     {
3629:/opt/gcc-arm-none-eabi/arm-none-eabi/include/c++/10.3.1/bits/stl_algo.h ****       __glibcxx_requires_valid_range(__first1, __last1);
3630:/opt/gcc-arm-none-eabi/arm-none-eabi/include/c++/10.3.1/bits/stl_algo.h ****       __glibcxx_requires_valid_range(__first2, __last2);
3631:/opt/gcc-arm-none-eabi/arm-none-eabi/include/c++/10.3.1/bits/stl_algo.h **** 
3632:/opt/gcc-arm-none-eabi/arm-none-eabi/include/c++/10.3.1/bits/stl_algo.h ****       return
3633:/opt/gcc-arm-none-eabi/arm-none-eabi/include/c++/10.3.1/bits/stl_algo.h **** 	std::__is_permutation(__first1, __last1, __first2, __last2,
3634:/opt/gcc-arm-none-eabi/arm-none-eabi/include/c++/10.3.1/bits/stl_algo.h **** 			      __gnu_cxx::__ops::__iter_equal_to_iter());
3635:/opt/gcc-arm-none-eabi/arm-none-eabi/include/c++/10.3.1/bits/stl_algo.h ****     }
3636:/opt/gcc-arm-none-eabi/arm-none-eabi/include/c++/10.3.1/bits/stl_algo.h **** 
3637:/opt/gcc-arm-none-eabi/arm-none-eabi/include/c++/10.3.1/bits/stl_algo.h ****   /**
3638:/opt/gcc-arm-none-eabi/arm-none-eabi/include/c++/10.3.1/bits/stl_algo.h ****    *  @brief  Checks whether a permutation of the second sequence is equal
3639:/opt/gcc-arm-none-eabi/arm-none-eabi/include/c++/10.3.1/bits/stl_algo.h ****    *          to the first sequence.
3640:/opt/gcc-arm-none-eabi/arm-none-eabi/include/c++/10.3.1/bits/stl_algo.h ****    *  @ingroup non_mutating_algorithms
3641:/opt/gcc-arm-none-eabi/arm-none-eabi/include/c++/10.3.1/bits/stl_algo.h ****    *  @param  __first1  Start of first range.
3642:/opt/gcc-arm-none-eabi/arm-none-eabi/include/c++/10.3.1/bits/stl_algo.h ****    *  @param  __last1   End of first range.
3643:/opt/gcc-arm-none-eabi/arm-none-eabi/include/c++/10.3.1/bits/stl_algo.h ****    *  @param  __first2  Start of second range.
3644:/opt/gcc-arm-none-eabi/arm-none-eabi/include/c++/10.3.1/bits/stl_algo.h ****    *  @param  __last2   End of first range.
3645:/opt/gcc-arm-none-eabi/arm-none-eabi/include/c++/10.3.1/bits/stl_algo.h ****    *  @param  __pred    A binary predicate.
3646:/opt/gcc-arm-none-eabi/arm-none-eabi/include/c++/10.3.1/bits/stl_algo.h ****    *  @return true if there exists a permutation of the elements in the range
3647:/opt/gcc-arm-none-eabi/arm-none-eabi/include/c++/10.3.1/bits/stl_algo.h ****    *          [__first2, __last2), beginning with ForwardIterator2 begin,
3648:/opt/gcc-arm-none-eabi/arm-none-eabi/include/c++/10.3.1/bits/stl_algo.h ****    *          such that equal(__first1, __last1, __begin, __pred) returns true;
3649:/opt/gcc-arm-none-eabi/arm-none-eabi/include/c++/10.3.1/bits/stl_algo.h ****    *          otherwise, returns false.
3650:/opt/gcc-arm-none-eabi/arm-none-eabi/include/c++/10.3.1/bits/stl_algo.h ****   */
3651:/opt/gcc-arm-none-eabi/arm-none-eabi/include/c++/10.3.1/bits/stl_algo.h ****   template<typename _ForwardIterator1, typename _ForwardIterator2,
3652:/opt/gcc-arm-none-eabi/arm-none-eabi/include/c++/10.3.1/bits/stl_algo.h **** 	   typename _BinaryPredicate>
3653:/opt/gcc-arm-none-eabi/arm-none-eabi/include/c++/10.3.1/bits/stl_algo.h ****     _GLIBCXX20_CONSTEXPR
3654:/opt/gcc-arm-none-eabi/arm-none-eabi/include/c++/10.3.1/bits/stl_algo.h ****     inline bool
3655:/opt/gcc-arm-none-eabi/arm-none-eabi/include/c++/10.3.1/bits/stl_algo.h ****     is_permutation(_ForwardIterator1 __first1, _ForwardIterator1 __last1,
3656:/opt/gcc-arm-none-eabi/arm-none-eabi/include/c++/10.3.1/bits/stl_algo.h **** 		   _ForwardIterator2 __first2, _ForwardIterator2 __last2,
3657:/opt/gcc-arm-none-eabi/arm-none-eabi/include/c++/10.3.1/bits/stl_algo.h **** 		   _BinaryPredicate __pred)
3658:/opt/gcc-arm-none-eabi/arm-none-eabi/include/c++/10.3.1/bits/stl_algo.h ****     {
3659:/opt/gcc-arm-none-eabi/arm-none-eabi/include/c++/10.3.1/bits/stl_algo.h ****       __glibcxx_requires_valid_range(__first1, __last1);
ARM GAS  /tmp/ccxBL0ey.s 			page 127


3660:/opt/gcc-arm-none-eabi/arm-none-eabi/include/c++/10.3.1/bits/stl_algo.h ****       __glibcxx_requires_valid_range(__first2, __last2);
3661:/opt/gcc-arm-none-eabi/arm-none-eabi/include/c++/10.3.1/bits/stl_algo.h **** 
3662:/opt/gcc-arm-none-eabi/arm-none-eabi/include/c++/10.3.1/bits/stl_algo.h ****       return std::__is_permutation(__first1, __last1, __first2, __last2,
3663:/opt/gcc-arm-none-eabi/arm-none-eabi/include/c++/10.3.1/bits/stl_algo.h **** 				   __gnu_cxx::__ops::__iter_comp_iter(__pred));
3664:/opt/gcc-arm-none-eabi/arm-none-eabi/include/c++/10.3.1/bits/stl_algo.h ****     }
3665:/opt/gcc-arm-none-eabi/arm-none-eabi/include/c++/10.3.1/bits/stl_algo.h **** 
3666:/opt/gcc-arm-none-eabi/arm-none-eabi/include/c++/10.3.1/bits/stl_algo.h **** #if __cplusplus > 201402L
3667:/opt/gcc-arm-none-eabi/arm-none-eabi/include/c++/10.3.1/bits/stl_algo.h **** 
3668:/opt/gcc-arm-none-eabi/arm-none-eabi/include/c++/10.3.1/bits/stl_algo.h **** #define __cpp_lib_clamp 201603
3669:/opt/gcc-arm-none-eabi/arm-none-eabi/include/c++/10.3.1/bits/stl_algo.h **** 
3670:/opt/gcc-arm-none-eabi/arm-none-eabi/include/c++/10.3.1/bits/stl_algo.h ****   /**
3671:/opt/gcc-arm-none-eabi/arm-none-eabi/include/c++/10.3.1/bits/stl_algo.h ****    *  @brief  Returns the value clamped between lo and hi.
3672:/opt/gcc-arm-none-eabi/arm-none-eabi/include/c++/10.3.1/bits/stl_algo.h ****    *  @ingroup sorting_algorithms
3673:/opt/gcc-arm-none-eabi/arm-none-eabi/include/c++/10.3.1/bits/stl_algo.h ****    *  @param  __val  A value of arbitrary type.
3674:/opt/gcc-arm-none-eabi/arm-none-eabi/include/c++/10.3.1/bits/stl_algo.h ****    *  @param  __lo   A lower limit of arbitrary type.
3675:/opt/gcc-arm-none-eabi/arm-none-eabi/include/c++/10.3.1/bits/stl_algo.h ****    *  @param  __hi   An upper limit of arbitrary type.
3676:/opt/gcc-arm-none-eabi/arm-none-eabi/include/c++/10.3.1/bits/stl_algo.h ****    *  @return max(__val, __lo) if __val < __hi or min(__val, __hi) otherwise.
3677:/opt/gcc-arm-none-eabi/arm-none-eabi/include/c++/10.3.1/bits/stl_algo.h ****    */
3678:/opt/gcc-arm-none-eabi/arm-none-eabi/include/c++/10.3.1/bits/stl_algo.h ****   template<typename _Tp>
3679:/opt/gcc-arm-none-eabi/arm-none-eabi/include/c++/10.3.1/bits/stl_algo.h ****     constexpr const _Tp&
3680:/opt/gcc-arm-none-eabi/arm-none-eabi/include/c++/10.3.1/bits/stl_algo.h ****     clamp(const _Tp& __val, const _Tp& __lo, const _Tp& __hi)
 1759              		.loc 8 3680 5 is_stmt 1 view .LVU445
 1760              	.LBB182:
3681:/opt/gcc-arm-none-eabi/arm-none-eabi/include/c++/10.3.1/bits/stl_algo.h ****     {
3682:/opt/gcc-arm-none-eabi/arm-none-eabi/include/c++/10.3.1/bits/stl_algo.h ****       __glibcxx_assert(!(__hi < __lo));
3683:/opt/gcc-arm-none-eabi/arm-none-eabi/include/c++/10.3.1/bits/stl_algo.h ****       return (__val < __lo) ? __lo : (__hi < __val) ? __hi : __val;
 1761              		.loc 8 3683 29 is_stmt 0 view .LVU446
 1762 00ea B5EEC07A 		vcmpe.f32	s14, #0
 1763 00ee F1EE10FA 		vmrs	APSR_nzcv, FPSCR
 1764 00f2 15D4     		bmi	.L126
 1765 00f4 05EE903A 		vmov	s11, r3
 1766 00f8 B4EEE57A 		vcmpe.f32	s14, s11
 1767 00fc F1EE10FA 		vmrs	APSR_nzcv, FPSCR
 1768 0100 1ADD     		ble	.L135
 1769 0102 05AB     		add	r3, sp, #20
 1770              	.LVL102:
 1771              		.loc 8 3683 29 view .LVU447
 1772 0104 0DE0     		b	.L116
 1773              	.LVL103:
 1774              	.L139:
 1775              		.loc 8 3683 29 view .LVU448
 1776              	.LBE182:
 1777              	.LBE181:
 337:MotorControl/low_level.cpp ****             return;
 1778              		.loc 2 337 13 is_stmt 1 view .LVU449
 337:MotorControl/low_level.cpp ****             return;
 1779              		.loc 2 337 35 is_stmt 0 view .LVU450
 1780 0106 8021     		movs	r1, #128
 1781 0108 A3F58040 		sub	r0, r3, #16384
 1782 010c FFF7FEFF 		bl	_ZN6ODrive17disarm_with_errorEN10ODriveIntf5ErrorE
 1783              	.LVL104:
 338:MotorControl/low_level.cpp ****         }
 1784              		.loc 2 338 13 is_stmt 1 view .LVU451
 1785 0110 49E0     		b	.L102
 1786              	.LVL105:
 1787              	.L125:
 1788              	.LBB185:
ARM GAS  /tmp/ccxBL0ey.s 			page 128


 1789              	.LBB180:
 260:/opt/gcc-arm-none-eabi/arm-none-eabi/include/c++/10.3.1/bits/stl_algobase.h ****       return __a;
 1790              		.loc 6 260 9 is_stmt 0 view .LVU452
 1791 0112 03AB     		add	r3, sp, #12
 1792              	.LVL106:
 260:/opt/gcc-arm-none-eabi/arm-none-eabi/include/c++/10.3.1/bits/stl_algobase.h ****       return __a;
 1793              		.loc 6 260 9 view .LVU453
 1794 0114 CEE7     		b	.L112
 1795              	.LVL107:
 1796              	.L140:
 260:/opt/gcc-arm-none-eabi/arm-none-eabi/include/c++/10.3.1/bits/stl_algobase.h ****       return __a;
 1797              		.loc 6 260 9 view .LVU454
 1798              	.LBE180:
 1799              	.LBE185:
 351:MotorControl/low_level.cpp ****             return;
 1800              		.loc 2 351 13 is_stmt 1 view .LVU455
 351:MotorControl/low_level.cpp ****             return;
 1801              		.loc 2 351 35 is_stmt 0 view .LVU456
 1802 0116 4021     		movs	r1, #64
 1803 0118 3248     		ldr	r0, .L144+28
 1804 011a FFF7FEFF 		bl	_ZN6ODrive17disarm_with_errorEN10ODriveIntf5ErrorE
 1805              	.LVL108:
 352:MotorControl/low_level.cpp ****         }
 1806              		.loc 2 352 13 is_stmt 1 view .LVU457
 1807 011e 42E0     		b	.L102
 1808              	.LVL109:
 1809              	.L126:
 1810              	.LBB186:
 1811              	.LBB183:
 1812              		.loc 8 3683 29 is_stmt 0 view .LVU458
 1813 0120 04AB     		add	r3, sp, #16
 1814              	.LVL110:
 1815              	.L116:
 1816              		.loc 8 3683 29 view .LVU459
 1817              	.LBE183:
 1818              	.LBE186:
 360:MotorControl/low_level.cpp **** 
 1819              		.loc 2 360 32 view .LVU460
 1820 0122 93ED007A 		vldr.32	s14, [r3]
 360:MotorControl/low_level.cpp **** 
 1821              		.loc 2 360 20 view .LVU461
 1822 0126 8DED017A 		vstr.32	s14, [sp, #4]
 364:MotorControl/low_level.cpp ****         Ibus_sum += brake_duty * vbus_voltage / odrv.config_.brake_resistance;
 1823              		.loc 2 364 9 is_stmt 1 view .LVU462
 364:MotorControl/low_level.cpp ****         Ibus_sum += brake_duty * vbus_voltage / odrv.config_.brake_resistance;
 1824              		.loc 2 364 36 is_stmt 0 view .LVU463
 1825 012a 66EE876A 		vmul.f32	s13, s13, s14
 364:MotorControl/low_level.cpp ****         Ibus_sum += brake_duty * vbus_voltage / odrv.config_.brake_resistance;
 1826              		.loc 2 364 23 view .LVU464
 1827 012e 86EE867A 		vdiv.f32	s14, s13, s12
 1828              	.LVL111:
 365:MotorControl/low_level.cpp ****     } else {
 1829              		.loc 2 365 9 is_stmt 1 view .LVU465
 365:MotorControl/low_level.cpp ****     } else {
 1830              		.loc 2 365 18 is_stmt 0 view .LVU466
 1831 0132 77EE877A 		vadd.f32	s15, s15, s14
 1832              	.LVL112:
ARM GAS  /tmp/ccxBL0ey.s 			page 129


 365:MotorControl/low_level.cpp ****     } else {
 1833              		.loc 2 365 18 view .LVU467
 1834 0136 03E0     		b	.L106
 1835              	.LVL113:
 1836              	.L135:
 1837              	.LBB187:
 1838              	.LBB184:
 1839              		.loc 8 3683 29 view .LVU468
 1840 0138 01AB     		add	r3, sp, #4
 1841              	.LVL114:
 1842              		.loc 8 3683 29 view .LVU469
 1843 013a F2E7     		b	.L116
 1844              	.LVL115:
 1845              	.L124:
 1846              		.loc 8 3683 29 view .LVU470
 1847              	.LBE184:
 1848              	.LBE187:
 334:MotorControl/low_level.cpp ****     if (odrv.config_.enable_brake_resistor) {
 1849              		.loc 2 334 11 view .LVU471
 1850 013c 9FED227A 		vldr.32	s14, .L144
 1851              	.LVL116:
 1852              	.L106:
 370:MotorControl/low_level.cpp ****     ibus_ += odrv.ibus_report_filter_k_ * (Ibus_sum - ibus_);
 1853              		.loc 2 370 5 is_stmt 1 view .LVU472
 370:MotorControl/low_level.cpp ****     ibus_ += odrv.ibus_report_filter_k_ * (Ibus_sum - ibus_);
 1854              		.loc 2 370 28 is_stmt 0 view .LVU473
 1855 0140 294B     		ldr	r3, .L144+32
 1856 0142 83ED007A 		vstr.32	s14, [r3]
 371:MotorControl/low_level.cpp **** 
 1857              		.loc 2 371 5 is_stmt 1 view .LVU474
 371:MotorControl/low_level.cpp **** 
 1858              		.loc 2 371 19 is_stmt 0 view .LVU475
 1859 0146 274B     		ldr	r3, .L144+28
 1860 0148 D3ED116A 		vldr.32	s13, [r3, #68]
 371:MotorControl/low_level.cpp **** 
 1861              		.loc 2 371 53 view .LVU476
 1862 014c 274A     		ldr	r2, .L144+36
 1863 014e 92ED007A 		vldr.32	s14, [r2]
 1864              	.LVL117:
 371:MotorControl/low_level.cpp **** 
 1865              		.loc 2 371 53 view .LVU477
 1866 0152 37EEC76A 		vsub.f32	s12, s15, s14
 371:MotorControl/low_level.cpp **** 
 1867              		.loc 2 371 41 view .LVU478
 1868 0156 66EE866A 		vmul.f32	s13, s13, s12
 371:MotorControl/low_level.cpp **** 
 1869              		.loc 2 371 11 view .LVU479
 1870 015a 37EE267A 		vadd.f32	s14, s14, s13
 1871 015e 82ED007A 		vstr.32	s14, [r2]
 373:MotorControl/low_level.cpp ****         odrv.disarm_with_error(ODrive::ERROR_DC_BUS_OVER_CURRENT);
 1872              		.loc 2 373 5 is_stmt 1 view .LVU480
 373:MotorControl/low_level.cpp ****         odrv.disarm_with_error(ODrive::ERROR_DC_BUS_OVER_CURRENT);
 1873              		.loc 2 373 33 is_stmt 0 view .LVU481
 1874 0162 03F58043 		add	r3, r3, #16384
 1875 0166 93ED707A 		vldr.32	s14, [r3, #448]
 373:MotorControl/low_level.cpp ****         odrv.disarm_with_error(ODrive::ERROR_DC_BUS_OVER_CURRENT);
 1876              		.loc 2 373 5 view .LVU482
ARM GAS  /tmp/ccxBL0ey.s 			page 130


 1877 016a B4EEE77A 		vcmpe.f32	s14, s15
 1878 016e F1EE10FA 		vmrs	APSR_nzcv, FPSCR
 1879 0172 1BD4     		bmi	.L141
 377:MotorControl/low_level.cpp ****         odrv.disarm_with_error(ODrive::ERROR_DC_BUS_OVER_REGEN_CURRENT);
 1880              		.loc 2 377 5 is_stmt 1 view .LVU483
 377:MotorControl/low_level.cpp ****         odrv.disarm_with_error(ODrive::ERROR_DC_BUS_OVER_REGEN_CURRENT);
 1881              		.loc 2 377 33 is_stmt 0 view .LVU484
 1882 0174 164B     		ldr	r3, .L144+8
 1883 0176 93ED717A 		vldr.32	s14, [r3, #452]
 377:MotorControl/low_level.cpp ****         odrv.disarm_with_error(ODrive::ERROR_DC_BUS_OVER_REGEN_CURRENT);
 1884              		.loc 2 377 5 view .LVU485
 1885 017a B4EEE77A 		vcmpe.f32	s14, s15
 1886 017e F1EE10FA 		vmrs	APSR_nzcv, FPSCR
 1887 0182 19DC     		bgt	.L142
 382:MotorControl/low_level.cpp ****     int low_off = high_on - TIM_APB1_DEADTIME_CLOCKS;
 1888              		.loc 2 382 5 is_stmt 1 view .LVU486
 382:MotorControl/low_level.cpp ****     int low_off = high_on - TIM_APB1_DEADTIME_CLOCKS;
 1889              		.loc 2 382 56 is_stmt 0 view .LVU487
 1890 0184 F7EE007A 		vmov.f32	s15, #1.0e+0
 1891              	.LVL118:
 382:MotorControl/low_level.cpp ****     int low_off = high_on - TIM_APB1_DEADTIME_CLOCKS;
 1892              		.loc 2 382 56 view .LVU488
 1893 0188 9DED017A 		vldr.32	s14, [sp, #4]
 1894 018c 77EEC77A 		vsub.f32	s15, s15, s14
 382:MotorControl/low_level.cpp ****     int low_off = high_on - TIM_APB1_DEADTIME_CLOCKS;
 1895              		.loc 2 382 9 view .LVU489
 1896 0190 B0EE677A 		vmov.f32	s14, s15
 1897 0194 BEEECA7A 		vcvt.s32.f32	s14, s14, #12
 1898 0198 17EE101A 		vmov	r1, s14	@ int
 1899              	.LVL119:
 383:MotorControl/low_level.cpp ****     if (low_off < 0) low_off = 0;
 1900              		.loc 2 383 5 is_stmt 1 view .LVU490
 384:MotorControl/low_level.cpp ****     safety_critical_apply_brake_resistor_timings(low_off, high_on);
 1901              		.loc 2 384 5 view .LVU491
 1902 019c B1F12800 		subs	r0, r1, #40
 1903              	.LVL120:
 384:MotorControl/low_level.cpp ****     safety_critical_apply_brake_resistor_timings(low_off, high_on);
 1904              		.loc 2 384 5 is_stmt 0 view .LVU492
 1905 01a0 10D4     		bmi	.L143
 1906              	.LVL121:
 1907              	.L122:
 385:MotorControl/low_level.cpp **** }
 1908              		.loc 2 385 5 is_stmt 1 view .LVU493
 385:MotorControl/low_level.cpp **** }
 1909              		.loc 2 385 49 is_stmt 0 view .LVU494
 1910 01a2 FFF7FEFF 		bl	safety_critical_apply_brake_resistor_timings
 1911              	.LVL122:
 1912              	.L102:
 386:MotorControl/low_level.cpp **** 
 1913              		.loc 2 386 1 view .LVU495
 1914 01a6 07B0     		add	sp, sp, #28
 1915              	.LCFI28:
 1916              		.cfi_remember_state
 1917              		.cfi_def_cfa_offset 4
 1918              		@ sp needed
 1919 01a8 5DF804FB 		ldr	pc, [sp], #4
 1920              	.LVL123:
ARM GAS  /tmp/ccxBL0ey.s 			page 131


 1921              	.L141:
 1922              	.LCFI29:
 1923              		.cfi_restore_state
 374:MotorControl/low_level.cpp ****         return;
 1924              		.loc 2 374 9 is_stmt 1 view .LVU496
 374:MotorControl/low_level.cpp ****         return;
 1925              		.loc 2 374 31 is_stmt 0 view .LVU497
 1926 01ac 1021     		movs	r1, #16
 1927 01ae A3F58040 		sub	r0, r3, #16384
 1928 01b2 FFF7FEFF 		bl	_ZN6ODrive17disarm_with_errorEN10ODriveIntf5ErrorE
 1929              	.LVL124:
 375:MotorControl/low_level.cpp ****     }
 1930              		.loc 2 375 9 is_stmt 1 view .LVU498
 1931 01b6 F6E7     		b	.L102
 1932              	.LVL125:
 1933              	.L142:
 378:MotorControl/low_level.cpp ****         return;
 1934              		.loc 2 378 9 view .LVU499
 378:MotorControl/low_level.cpp ****         return;
 1935              		.loc 2 378 31 is_stmt 0 view .LVU500
 1936 01b8 0821     		movs	r1, #8
 1937 01ba A3F58040 		sub	r0, r3, #16384
 1938 01be FFF7FEFF 		bl	_ZN6ODrive17disarm_with_errorEN10ODriveIntf5ErrorE
 1939              	.LVL126:
 379:MotorControl/low_level.cpp ****     }
 1940              		.loc 2 379 9 is_stmt 1 view .LVU501
 1941 01c2 F0E7     		b	.L102
 1942              	.LVL127:
 1943              	.L143:
 384:MotorControl/low_level.cpp ****     safety_critical_apply_brake_resistor_timings(low_off, high_on);
 1944              		.loc 2 384 30 is_stmt 0 view .LVU502
 1945 01c4 0020     		movs	r0, #0
 1946              	.LVL128:
 384:MotorControl/low_level.cpp ****     safety_critical_apply_brake_resistor_timings(low_off, high_on);
 1947              		.loc 2 384 30 view .LVU503
 1948 01c6 ECE7     		b	.L122
 1949              	.L145:
 1950              		.align	2
 1951              	.L144:
 1952 01c8 00000000 		.word	0
 1953 01cc 00000000 		.word	axes
 1954 01d0 00400000 		.word	odrv+16384
 1955 01d4 00000000 		.word	.LANCHOR2
 1956 01d8 3333733F 		.word	1064514355
 1957 01dc 00000000 		.word	.LANCHOR3
 1958 01e0 3333733F 		.word	1064514355
 1959 01e4 00000000 		.word	odrv
 1960 01e8 00000000 		.word	.LANCHOR4
 1961 01ec 00000000 		.word	.LANCHOR5
 1962              		.cfi_endproc
 1963              	.LFE5172:
 1964              		.fnend
 1966              		.section	.text.start_analog_thread,"ax",%progbits
 1967              		.align	1
 1968              		.global	start_analog_thread
 1969              		.syntax unified
 1970              		.thumb
ARM GAS  /tmp/ccxBL0ey.s 			page 132


 1971              		.thumb_func
 1973              	start_analog_thread:
 1974              		.fnstart
 1975              	.LFB5175:
 408:MotorControl/low_level.cpp ****     }
 409:MotorControl/low_level.cpp **** }
 410:MotorControl/low_level.cpp **** 
 411:MotorControl/low_level.cpp **** void start_analog_thread() {
 1976              		.loc 2 411 28 is_stmt 1 view -0
 1977              		.cfi_startproc
 1978              		@ args = 0, pretend = 0, frame = 24
 1979              		@ frame_needed = 0, uses_anonymous_args = 0
 1980 0000 10B5     		push	{r4, lr}
 1981              		.save {r4, lr}
 1982              	.LCFI30:
 1983              		.cfi_def_cfa_offset 8
 1984              		.cfi_offset 4, -8
 1985              		.cfi_offset 14, -4
 1986              		.pad #24
 1987 0002 86B0     		sub	sp, sp, #24
 1988              	.LCFI31:
 1989              		.cfi_def_cfa_offset 32
 412:MotorControl/low_level.cpp ****     osThreadDef(analog_thread_def, analog_polling_thread, osPriorityLow, 0, stack_size_analog_threa
 1990              		.loc 2 412 5 view .LVU505
 1991 0004 0DF1040C 		add	ip, sp, #4
 1992 0008 074C     		ldr	r4, .L148
 1993 000a 0FCC     		ldmia	r4!, {r0, r1, r2, r3}
 1994 000c ACE80F00 		stmia	ip!, {r0, r1, r2, r3}
 1995 0010 2368     		ldr	r3, [r4]
 1996 0012 CCF80030 		str	r3, [ip]
 413:MotorControl/low_level.cpp ****     analog_thread = osThreadCreate(osThread(analog_thread_def), NULL);
 1997              		.loc 2 413 5 view .LVU506
 1998              		.loc 2 413 35 is_stmt 0 view .LVU507
 1999 0016 0021     		movs	r1, #0
 2000 0018 01A8     		add	r0, sp, #4
 2001 001a FFF7FEFF 		bl	osThreadCreate
 2002              	.LVL129:
 2003              		.loc 2 413 19 view .LVU508
 2004 001e 034B     		ldr	r3, .L148+4
 2005 0020 1860     		str	r0, [r3]
 414:MotorControl/low_level.cpp **** }
 2006              		.loc 2 414 1 view .LVU509
 2007 0022 06B0     		add	sp, sp, #24
 2008              	.LCFI32:
 2009              		.cfi_def_cfa_offset 8
 2010              		@ sp needed
 2011 0024 10BD     		pop	{r4, pc}
 2012              	.L149:
 2013 0026 00BF     		.align	2
 2014              	.L148:
 2015 0028 00000000 		.word	.LANCHOR6
 2016 002c 00000000 		.word	.LANCHOR7
 2017              		.cfi_endproc
 2018              	.LFE5175:
 2019              		.fnend
 2021              		.global	adc_measurements_
 2022              		.global	analog_thread
ARM GAS  /tmp/ccxBL0ey.s 			page 133


 2023              		.global	brake_resistor_current
 2024              		.global	brake_resistor_saturated
 2025              		.global	brake_resistor_armed
 2026              		.global	ibus_
 2027              		.global	vbus_voltage
 2028              		.global	stack_size_analog_thread
 2029              		.global	adc_ref_voltage
 2030              		.global	adc_full_scale
 2031              		.section	.rodata
 2032              		.align	2
 2033              		.set	.LANCHOR6,. + 0
 2034              	.LC2:
 2035 0000 00000000 		.word	.LC0
 2036 0004 00000000 		.word	_ZL21analog_polling_threadPv
 2037 0008 FEFF     		.short	-2
 2038 000a 0000     		.space	2
 2039 000c 00000000 		.word	0
 2040 0010 00010000 		.word	256
 2041              		.section	.bss.adc_measurements_,"aw",%nobits
 2042              		.align	2
 2043              		.set	.LANCHOR1,. + 0
 2046              	adc_measurements_:
 2047 0000 00000000 		.space	32
 2047      00000000 
 2047      00000000 
 2047      00000000 
 2047      00000000 
 2048              		.section	.bss.analog_thread,"aw",%nobits
 2049              		.align	2
 2050              		.set	.LANCHOR7,. + 0
 2053              	analog_thread:
 2054 0000 00000000 		.space	4
 2055              		.section	.bss.brake_resistor_armed,"aw",%nobits
 2056              		.set	.LANCHOR0,. + 0
 2059              	brake_resistor_armed:
 2060 0000 00       		.space	1
 2061              		.section	.bss.brake_resistor_current,"aw",%nobits
 2062              		.align	2
 2063              		.set	.LANCHOR4,. + 0
 2066              	brake_resistor_current:
 2067 0000 00000000 		.space	4
 2068              		.section	.bss.brake_resistor_saturated,"aw",%nobits
 2069              		.set	.LANCHOR3,. + 0
 2072              	brake_resistor_saturated:
 2073 0000 00       		.space	1
 2074              		.section	.bss.ibus_,"aw",%nobits
 2075              		.align	2
 2076              		.set	.LANCHOR5,. + 0
 2079              	ibus_:
 2080 0000 00000000 		.space	4
 2081              		.section	.data.vbus_voltage,"aw"
 2082              		.align	2
 2083              		.set	.LANCHOR2,. + 0
 2086              	vbus_voltage:
 2087 0000 00004041 		.word	1094713344
 2088              		.section	.rodata.adc_full_scale,"a"
 2089              		.align	2
ARM GAS  /tmp/ccxBL0ey.s 			page 134


 2092              	adc_full_scale:
 2093 0000 00008045 		.word	1166016512
 2094              		.section	.rodata.adc_ref_voltage,"a"
 2095              		.align	2
 2098              	adc_ref_voltage:
 2099 0000 33335340 		.word	1079194419
 2100              		.section	.rodata.stack_size_analog_thread,"a"
 2101              		.align	2
 2104              	stack_size_analog_thread:
 2105 0000 00040000 		.word	1024
 2106              		.text
 2107              	.Letext0:
 2108              		.file 9 "/opt/gcc-arm-none-eabi/arm-none-eabi/include/machine/_default_types.h"
 2109              		.file 10 "/opt/gcc-arm-none-eabi/arm-none-eabi/include/sys/_stdint.h"
 2110              		.file 11 "/opt/gcc-arm-none-eabi/arm-none-eabi/include/stdint.h"
 2111              		.file 12 "ThirdParty/CMSIS/Device/ST/STM32F4xx/Include/stm32f405xx.h"
 2112              		.file 13 "ThirdParty/CMSIS/Device/ST/STM32F4xx/Include/stm32f4xx.h"
 2113              		.file 14 "/opt/gcc-arm-none-eabi/lib/gcc/arm-none-eabi/10.3.1/include/stddef.h"
 2114              		.file 15 "/opt/gcc-arm-none-eabi/lib/gcc/arm-none-eabi/10.3.1/include/stdarg.h"
 2115              		.file 16 "/opt/gcc-arm-none-eabi/arm-none-eabi/include/sys/_types.h"
 2116              		.file 17 "/opt/gcc-arm-none-eabi/arm-none-eabi/include/sys/reent.h"
 2117              		.file 18 "/opt/gcc-arm-none-eabi/arm-none-eabi/include/sys/lock.h"
 2118              		.file 19 "/opt/gcc-arm-none-eabi/arm-none-eabi/include/stdio.h"
 2119              		.file 20 "ThirdParty/STM32F4xx_HAL_Driver/Inc/stm32f4xx_hal_def.h"
 2120              		.file 21 "ThirdParty/STM32F4xx_HAL_Driver/Inc/stm32f4xx_hal_dma.h"
 2121              		.file 22 "ThirdParty/STM32F4xx_HAL_Driver/Inc/stm32f4xx_hal_adc.h"
 2122              		.file 23 "ThirdParty/STM32F4xx_HAL_Driver/Inc/stm32f4xx_hal_tim.h"
 2123              		.file 24 "/opt/gcc-arm-none-eabi/arm-none-eabi/include/c++/10.3.1/cstdlib"
 2124              		.file 25 "/opt/gcc-arm-none-eabi/arm-none-eabi/include/c++/10.3.1/bits/std_abs.h"
 2125              		.file 26 "/opt/gcc-arm-none-eabi/arm-none-eabi/include/c++/10.3.1/cmath"
 2126              		.file 27 "/opt/gcc-arm-none-eabi/arm-none-eabi/include/c++/10.3.1/type_traits"
 2127              		.file 28 "/opt/gcc-arm-none-eabi/arm-none-eabi/include/c++/10.3.1/arm-none-eabi/thumb/v7e-m+fp/har
 2128              		.file 29 "/opt/gcc-arm-none-eabi/arm-none-eabi/include/c++/10.3.1/debug/debug.h"
 2129              		.file 30 "/opt/gcc-arm-none-eabi/arm-none-eabi/include/c++/10.3.1/bits/stl_pair.h"
 2130              		.file 31 "/opt/gcc-arm-none-eabi/arm-none-eabi/include/c++/10.3.1/bits/exception_ptr.h"
 2131              		.file 32 "/opt/gcc-arm-none-eabi/arm-none-eabi/include/c++/10.3.1/bits/stl_iterator.h"
 2132              		.file 33 "/opt/gcc-arm-none-eabi/arm-none-eabi/include/c++/10.3.1/variant"
 2133              		.file 34 "/opt/gcc-arm-none-eabi/arm-none-eabi/include/c++/10.3.1/bits/enable_special_members.h"
 2134              		.file 35 "/opt/gcc-arm-none-eabi/arm-none-eabi/include/c++/10.3.1/optional"
 2135              		.file 36 "/opt/gcc-arm-none-eabi/arm-none-eabi/include/c++/10.3.1/bits/algorithmfwd.h"
 2136              		.file 37 "/opt/gcc-arm-none-eabi/arm-none-eabi/include/c++/10.3.1/functional"
 2137              		.file 38 "/opt/gcc-arm-none-eabi/arm-none-eabi/include/c++/10.3.1/cstring"
 2138              		.file 39 "/opt/gcc-arm-none-eabi/arm-none-eabi/include/c++/10.3.1/bits/parse_numbers.h"
 2139              		.file 40 "/opt/gcc-arm-none-eabi/arm-none-eabi/include/c++/10.3.1/cwchar"
 2140              		.file 41 "/opt/gcc-arm-none-eabi/arm-none-eabi/include/c++/10.3.1/clocale"
 2141              		.file 42 "/opt/gcc-arm-none-eabi/arm-none-eabi/include/c++/10.3.1/cstdint"
 2142              		.file 43 "/opt/gcc-arm-none-eabi/arm-none-eabi/include/c++/10.3.1/string_view"
 2143              		.file 44 "/opt/gcc-arm-none-eabi/arm-none-eabi/include/c++/10.3.1/bits/basic_string.h"
 2144              		.file 45 "/opt/gcc-arm-none-eabi/arm-none-eabi/include/c++/10.3.1/cstdio"
 2145              		.file 46 "/opt/gcc-arm-none-eabi/arm-none-eabi/include/c++/10.3.1/bits/predefined_ops.h"
 2146              		.file 47 "/opt/gcc-arm-none-eabi/arm-none-eabi/include/stdlib.h"
 2147              		.file 48 "/opt/gcc-arm-none-eabi/arm-none-eabi/include/c++/10.3.1/stdlib.h"
 2148              		.file 49 "ThirdParty/FreeRTOS/Source/include/task.h"
 2149              		.file 50 "ThirdParty/FreeRTOS/Source/CMSIS_RTOS/cmsis_os.h"
 2150              		.file 51 "/opt/gcc-arm-none-eabi/arm-none-eabi/include/math.h"
 2151              		.file 52 "/opt/gcc-arm-none-eabi/arm-none-eabi/include/c++/10.3.1/math.h"
 2152              		.file 53 "./Drivers/STM32/stm32_gpio.hpp"
ARM GAS  /tmp/ccxBL0ey.s 			page 135


 2153              		.file 54 "./autogen/interfaces.hpp"
 2154              		.file 55 "/opt/gcc-arm-none-eabi/arm-none-eabi/include/string.h"
 2155              		.file 56 "fibre-cpp/include/fibre/cpp_utils.hpp"
 2156              		.file 57 "fibre-cpp/include/fibre/callback.hpp"
 2157              		.file 58 "fibre-cpp/include/fibre/../../protocol.hpp"
 2158              		.file 59 "Board/v3/Inc/board.h"
 2159              		.file 60 "./MotorControl/component.hpp"
 2160              		.file 61 "./MotorControl/motor.hpp"
 2161              		.file 62 "/opt/gcc-arm-none-eabi/arm-none-eabi/include/c++/10.3.1/pstl/execution_defs.h"
 2162              		.file 63 "/opt/gcc-arm-none-eabi/arm-none-eabi/include/c++/10.3.1/bits/std_function.h"
 2163              		.file 64 "Board/v3/Inc/tim.h"
 2164              		.file 65 "Board/v3/Inc/adc.h"
 2165              		.file 66 "MotorControl/low_level.h"
 2166              		.file 67 "/opt/gcc-arm-none-eabi/arm-none-eabi/include/wchar.h"
 2167              		.file 68 "/opt/gcc-arm-none-eabi/arm-none-eabi/include/locale.h"
 2168              		.file 69 "<built-in>"
ARM GAS  /tmp/ccxBL0ey.s 			page 136


DEFINED SYMBOLS
                            *ABS*:0000000000000000 low_level.cpp
     /tmp/ccxBL0ey.s:17     .rodata.str1.4:0000000000000000 $d
     /tmp/ccxBL0ey.s:24     .text._ZL8get_gpioj:0000000000000000 $t
     /tmp/ccxBL0ey.s:29     .text._ZL8get_gpioj:0000000000000000 _ZL8get_gpioj
     /tmp/ccxBL0ey.s:68     .text._ZL8get_gpioj:000000000000001c $d
    .ARM.exidx.text._ZL8get_gpioj:0000000000000000 $d
     /tmp/ccxBL0ey.s:75     .text.safety_critical_arm_brake_resistor:0000000000000000 $t
     /tmp/ccxBL0ey.s:81     .text.safety_critical_arm_brake_resistor:0000000000000000 safety_critical_arm_brake_resistor
     /tmp/ccxBL0ey.s:256    .text.safety_critical_arm_brake_resistor:0000000000000048 $d
.ARM.exidx.text.safety_critical_arm_brake_resistor:0000000000000000 $d
     /tmp/ccxBL0ey.s:265    .text.safety_critical_disarm_brake_resistor:0000000000000000 $t
     /tmp/ccxBL0ey.s:271    .text.safety_critical_disarm_brake_resistor:0000000000000000 safety_critical_disarm_brake_resistor
     /tmp/ccxBL0ey.s:442    .text.safety_critical_disarm_brake_resistor:0000000000000048 $d
.ARM.exidx.text.safety_critical_disarm_brake_resistor:0000000000000000 $d
     /tmp/ccxBL0ey.s:451    .text.safety_critical_apply_brake_resistor_timings:0000000000000000 $t
     /tmp/ccxBL0ey.s:457    .text.safety_critical_apply_brake_resistor_timings:0000000000000000 safety_critical_apply_brake_resistor_timings
     /tmp/ccxBL0ey.s:631    .text.safety_critical_apply_brake_resistor_timings:0000000000000048 $d
.ARM.exidx.text.safety_critical_apply_brake_resistor_timings:0000000000000000 $d
     /tmp/ccxBL0ey.s:639    .text.start_adc_pwm:0000000000000000 $t
     /tmp/ccxBL0ey.s:645    .text.start_adc_pwm:0000000000000000 start_adc_pwm
     /tmp/ccxBL0ey.s:852    .text.start_adc_pwm:00000000000000e4 $d
    .ARM.exidx.text.start_adc_pwm:0000000000000000 $d
     /tmp/ccxBL0ey.s:866    .text.start_general_purpose_adc:0000000000000000 $t
     /tmp/ccxBL0ey.s:872    .text.start_general_purpose_adc:0000000000000000 start_general_purpose_adc
     /tmp/ccxBL0ey.s:1008   .text.start_general_purpose_adc:0000000000000070 $d
.ARM.exidx.text.start_general_purpose_adc:0000000000000000 $d
     /tmp/ccxBL0ey.s:1018   .text.channel_from_gpio:0000000000000000 $t
     /tmp/ccxBL0ey.s:1024   .text.channel_from_gpio:0000000000000000 channel_from_gpio
     /tmp/ccxBL0ey.s:1205   .text.channel_from_gpio:00000000000000c4 $d
.ARM.exidx.text.channel_from_gpio:0000000000000000 $d
     /tmp/ccxBL0ey.s:1214   .text.get_adc_relative_voltage_ch:0000000000000000 $t
     /tmp/ccxBL0ey.s:1220   .text.get_adc_relative_voltage_ch:0000000000000000 get_adc_relative_voltage_ch
     /tmp/ccxBL0ey.s:1251   .text.get_adc_relative_voltage_ch:0000000000000024 $d
.ARM.exidx.text.get_adc_relative_voltage_ch:0000000000000000 $d
     /tmp/ccxBL0ey.s:1259   .text.get_adc_relative_voltage:0000000000000000 $t
     /tmp/ccxBL0ey.s:1265   .text.get_adc_relative_voltage:0000000000000000 get_adc_relative_voltage
.ARM.exidx.text.get_adc_relative_voltage:0000000000000000 $d
     /tmp/ccxBL0ey.s:1302   .text.get_adc_voltage:0000000000000000 $t
     /tmp/ccxBL0ey.s:1308   .text.get_adc_voltage:0000000000000000 get_adc_voltage
     /tmp/ccxBL0ey.s:1340   .text.get_adc_voltage:0000000000000020 $d
  .ARM.exidx.text.get_adc_voltage:0000000000000000 $d
     /tmp/ccxBL0ey.s:1347   .text._ZL22update_analog_endpointPK12PWMMapping_ti:0000000000000000 $t
     /tmp/ccxBL0ey.s:1352   .text._ZL22update_analog_endpointPK12PWMMapping_ti:0000000000000000 _ZL22update_analog_endpointPK12PWMMapping_ti
     /tmp/ccxBL0ey.s:1418   .text._ZL22update_analog_endpointPK12PWMMapping_ti:000000000000003c $d
.ARM.exidx.text._ZL22update_analog_endpointPK12PWMMapping_ti:0000000000000000 $d
     /tmp/ccxBL0ey.s:1424   .text._ZL21analog_polling_threadPv:0000000000000000 $t
     /tmp/ccxBL0ey.s:1429   .text._ZL21analog_polling_threadPv:0000000000000000 _ZL21analog_polling_threadPv
     /tmp/ccxBL0ey.s:1504   .text._ZL21analog_polling_threadPv:000000000000003c $d
.ARM.exidx.text._ZL21analog_polling_threadPv:0000000000000000 $d
     /tmp/ccxBL0ey.s:1512   .text.vbus_sense_adc_cb:0000000000000000 $t
     /tmp/ccxBL0ey.s:1518   .text.vbus_sense_adc_cb:0000000000000000 vbus_sense_adc_cb
     /tmp/ccxBL0ey.s:1544   .text.vbus_sense_adc_cb:0000000000000018 $d
.ARM.exidx.text.vbus_sense_adc_cb:0000000000000000 $d
     /tmp/ccxBL0ey.s:1552   .text.update_brake_current:0000000000000000 $t
     /tmp/ccxBL0ey.s:1558   .text.update_brake_current:0000000000000000 update_brake_current
     /tmp/ccxBL0ey.s:1952   .text.update_brake_current:00000000000001c8 $d
ARM GAS  /tmp/ccxBL0ey.s 			page 137


.ARM.exidx.text.update_brake_current:0000000000000000 $d
     /tmp/ccxBL0ey.s:1967   .text.start_analog_thread:0000000000000000 $t
     /tmp/ccxBL0ey.s:1973   .text.start_analog_thread:0000000000000000 start_analog_thread
     /tmp/ccxBL0ey.s:2015   .text.start_analog_thread:0000000000000028 $d
.ARM.exidx.text.start_analog_thread:0000000000000000 $d
     /tmp/ccxBL0ey.s:2046   .bss.adc_measurements_:0000000000000000 adc_measurements_
     /tmp/ccxBL0ey.s:2053   .bss.analog_thread:0000000000000000 analog_thread
     /tmp/ccxBL0ey.s:2066   .bss.brake_resistor_current:0000000000000000 brake_resistor_current
     /tmp/ccxBL0ey.s:2072   .bss.brake_resistor_saturated:0000000000000000 brake_resistor_saturated
     /tmp/ccxBL0ey.s:2059   .bss.brake_resistor_armed:0000000000000000 brake_resistor_armed
     /tmp/ccxBL0ey.s:2079   .bss.ibus_:0000000000000000 ibus_
     /tmp/ccxBL0ey.s:2086   .data.vbus_voltage:0000000000000000 vbus_voltage
     /tmp/ccxBL0ey.s:2104   .rodata.stack_size_analog_thread:0000000000000000 stack_size_analog_thread
     /tmp/ccxBL0ey.s:2098   .rodata.adc_ref_voltage:0000000000000000 adc_ref_voltage
     /tmp/ccxBL0ey.s:2092   .rodata.adc_full_scale:0000000000000000 adc_full_scale
     /tmp/ccxBL0ey.s:2032   .rodata:0000000000000000 $d
     /tmp/ccxBL0ey.s:2042   .bss.adc_measurements_:0000000000000000 $d
     /tmp/ccxBL0ey.s:2049   .bss.analog_thread:0000000000000000 $d
     /tmp/ccxBL0ey.s:2060   .bss.brake_resistor_armed:0000000000000000 $d
     /tmp/ccxBL0ey.s:2062   .bss.brake_resistor_current:0000000000000000 $d
     /tmp/ccxBL0ey.s:2073   .bss.brake_resistor_saturated:0000000000000000 $d
     /tmp/ccxBL0ey.s:2075   .bss.ibus_:0000000000000000 $d
     /tmp/ccxBL0ey.s:2082   .data.vbus_voltage:0000000000000000 $d
     /tmp/ccxBL0ey.s:2089   .rodata.adc_full_scale:0000000000000000 $d
     /tmp/ccxBL0ey.s:2095   .rodata.adc_ref_voltage:0000000000000000 $d
     /tmp/ccxBL0ey.s:2101   .rodata.stack_size_analog_thread:0000000000000000 $d

UNDEFINED SYMBOLS
gpios
axes
htim2
_ZN5Motor6disarmEPb
__aeabi_unwind_cpp_pr0
_ZN6ODrive17disarm_with_errorEN10ODriveIntf5ErrorE
odrv
osDelay
_Z12start_timersv
HAL_TIM_PWM_Start
motors
hadc1
hadc2
hadc3
HAL_ADC_Init
HAL_ADC_ConfigChannel
HAL_ADC_Start_DMA
_ZN5fibre23set_endpoint_from_floatE14endpoint_ref_tf
_ZN5fibre21is_endpoint_ref_validE14endpoint_ref_t
osThreadCreate
