ARM GAS  /tmp/ccHdxmpw.s 			page 1


   1              		.cpu cortex-m4
   2              		.arch armv7e-m
   3              		.fpu fpv4-sp-d16
   4              		.eabi_attribute 27, 1
   5              		.eabi_attribute 28, 1
   6              		.eabi_attribute 20, 1
   7              		.eabi_attribute 21, 1
   8              		.eabi_attribute 23, 3
   9              		.eabi_attribute 24, 1
  10              		.eabi_attribute 25, 1
  11              		.eabi_attribute 26, 1
  12              		.eabi_attribute 30, 1
  13              		.eabi_attribute 34, 1
  14              		.eabi_attribute 18, 4
  15              		.file	"stm32f4xx_hal_flash_ex.c"
  16              		.text
  17              	.Ltext0:
  18              		.cfi_sections	.debug_frame
  19              		.section	.text.FLASH_MassErase,"ax",%progbits
  20              		.align	1
  21              		.syntax unified
  22              		.thumb
  23              		.thumb_func
  25              	FLASH_MassErase:
  26              	.LVL0:
  27              	.LFB137:
  28              		.file 1 "ThirdParty/STM32F4xx_HAL_Driver/Src/stm32f4xx_hal_flash_ex.c"
   1:ThirdParty/STM32F4xx_HAL_Driver/Src/stm32f4xx_hal_flash_ex.c **** /**
   2:ThirdParty/STM32F4xx_HAL_Driver/Src/stm32f4xx_hal_flash_ex.c ****   ******************************************************************************
   3:ThirdParty/STM32F4xx_HAL_Driver/Src/stm32f4xx_hal_flash_ex.c ****   * @file    stm32f4xx_hal_flash_ex.c
   4:ThirdParty/STM32F4xx_HAL_Driver/Src/stm32f4xx_hal_flash_ex.c ****   * @author  MCD Application Team
   5:ThirdParty/STM32F4xx_HAL_Driver/Src/stm32f4xx_hal_flash_ex.c ****   * @brief   Extended FLASH HAL module driver.
   6:ThirdParty/STM32F4xx_HAL_Driver/Src/stm32f4xx_hal_flash_ex.c ****   *          This file provides firmware functions to manage the following 
   7:ThirdParty/STM32F4xx_HAL_Driver/Src/stm32f4xx_hal_flash_ex.c ****   *          functionalities of the FLASH extension peripheral:
   8:ThirdParty/STM32F4xx_HAL_Driver/Src/stm32f4xx_hal_flash_ex.c ****   *           + Extended programming operations functions
   9:ThirdParty/STM32F4xx_HAL_Driver/Src/stm32f4xx_hal_flash_ex.c ****   *  
  10:ThirdParty/STM32F4xx_HAL_Driver/Src/stm32f4xx_hal_flash_ex.c ****   @verbatim
  11:ThirdParty/STM32F4xx_HAL_Driver/Src/stm32f4xx_hal_flash_ex.c ****   ==============================================================================
  12:ThirdParty/STM32F4xx_HAL_Driver/Src/stm32f4xx_hal_flash_ex.c ****                    ##### Flash Extension features #####
  13:ThirdParty/STM32F4xx_HAL_Driver/Src/stm32f4xx_hal_flash_ex.c ****   ==============================================================================
  14:ThirdParty/STM32F4xx_HAL_Driver/Src/stm32f4xx_hal_flash_ex.c ****            
  15:ThirdParty/STM32F4xx_HAL_Driver/Src/stm32f4xx_hal_flash_ex.c ****   [..] Comparing to other previous devices, the FLASH interface for STM32F427xx/437xx and 
  16:ThirdParty/STM32F4xx_HAL_Driver/Src/stm32f4xx_hal_flash_ex.c ****        STM32F429xx/439xx devices contains the following additional features 
  17:ThirdParty/STM32F4xx_HAL_Driver/Src/stm32f4xx_hal_flash_ex.c ****        
  18:ThirdParty/STM32F4xx_HAL_Driver/Src/stm32f4xx_hal_flash_ex.c ****        (+) Capacity up to 2 Mbyte with dual bank architecture supporting read-while-write
  19:ThirdParty/STM32F4xx_HAL_Driver/Src/stm32f4xx_hal_flash_ex.c ****            capability (RWW)
  20:ThirdParty/STM32F4xx_HAL_Driver/Src/stm32f4xx_hal_flash_ex.c ****        (+) Dual bank memory organization       
  21:ThirdParty/STM32F4xx_HAL_Driver/Src/stm32f4xx_hal_flash_ex.c ****        (+) PCROP protection for all banks
  22:ThirdParty/STM32F4xx_HAL_Driver/Src/stm32f4xx_hal_flash_ex.c ****    
  23:ThirdParty/STM32F4xx_HAL_Driver/Src/stm32f4xx_hal_flash_ex.c ****                       ##### How to use this driver #####
  24:ThirdParty/STM32F4xx_HAL_Driver/Src/stm32f4xx_hal_flash_ex.c ****   ==============================================================================
  25:ThirdParty/STM32F4xx_HAL_Driver/Src/stm32f4xx_hal_flash_ex.c ****   [..] This driver provides functions to configure and program the FLASH memory 
  26:ThirdParty/STM32F4xx_HAL_Driver/Src/stm32f4xx_hal_flash_ex.c ****        of all STM32F427xx/437xx, STM32F429xx/439xx, STM32F469xx/479xx and STM32F446xx 
  27:ThirdParty/STM32F4xx_HAL_Driver/Src/stm32f4xx_hal_flash_ex.c ****        devices. It includes
  28:ThirdParty/STM32F4xx_HAL_Driver/Src/stm32f4xx_hal_flash_ex.c ****       (#) FLASH Memory Erase functions: 
  29:ThirdParty/STM32F4xx_HAL_Driver/Src/stm32f4xx_hal_flash_ex.c ****            (++) Lock and Unlock the FLASH interface using HAL_FLASH_Unlock() and 
  30:ThirdParty/STM32F4xx_HAL_Driver/Src/stm32f4xx_hal_flash_ex.c ****                 HAL_FLASH_Lock() functions
ARM GAS  /tmp/ccHdxmpw.s 			page 2


  31:ThirdParty/STM32F4xx_HAL_Driver/Src/stm32f4xx_hal_flash_ex.c ****            (++) Erase function: Erase sector, erase all sectors
  32:ThirdParty/STM32F4xx_HAL_Driver/Src/stm32f4xx_hal_flash_ex.c ****            (++) There are two modes of erase :
  33:ThirdParty/STM32F4xx_HAL_Driver/Src/stm32f4xx_hal_flash_ex.c ****              (+++) Polling Mode using HAL_FLASHEx_Erase()
  34:ThirdParty/STM32F4xx_HAL_Driver/Src/stm32f4xx_hal_flash_ex.c ****              (+++) Interrupt Mode using HAL_FLASHEx_Erase_IT()
  35:ThirdParty/STM32F4xx_HAL_Driver/Src/stm32f4xx_hal_flash_ex.c ****              
  36:ThirdParty/STM32F4xx_HAL_Driver/Src/stm32f4xx_hal_flash_ex.c ****       (#) Option Bytes Programming functions: Use HAL_FLASHEx_OBProgram() to :
  37:ThirdParty/STM32F4xx_HAL_Driver/Src/stm32f4xx_hal_flash_ex.c ****            (++) Set/Reset the write protection
  38:ThirdParty/STM32F4xx_HAL_Driver/Src/stm32f4xx_hal_flash_ex.c ****            (++) Set the Read protection Level
  39:ThirdParty/STM32F4xx_HAL_Driver/Src/stm32f4xx_hal_flash_ex.c ****            (++) Set the BOR level
  40:ThirdParty/STM32F4xx_HAL_Driver/Src/stm32f4xx_hal_flash_ex.c ****            (++) Program the user Option Bytes
  41:ThirdParty/STM32F4xx_HAL_Driver/Src/stm32f4xx_hal_flash_ex.c ****       (#) Advanced Option Bytes Programming functions: Use HAL_FLASHEx_AdvOBProgram() to :  
  42:ThirdParty/STM32F4xx_HAL_Driver/Src/stm32f4xx_hal_flash_ex.c ****        (++) Extended space (bank 2) erase function
  43:ThirdParty/STM32F4xx_HAL_Driver/Src/stm32f4xx_hal_flash_ex.c ****        (++) Full FLASH space (2 Mo) erase (bank 1 and bank 2)
  44:ThirdParty/STM32F4xx_HAL_Driver/Src/stm32f4xx_hal_flash_ex.c ****        (++) Dual Boot activation
  45:ThirdParty/STM32F4xx_HAL_Driver/Src/stm32f4xx_hal_flash_ex.c ****        (++) Write protection configuration for bank 2
  46:ThirdParty/STM32F4xx_HAL_Driver/Src/stm32f4xx_hal_flash_ex.c ****        (++) PCROP protection configuration and control for both banks
  47:ThirdParty/STM32F4xx_HAL_Driver/Src/stm32f4xx_hal_flash_ex.c ****   
  48:ThirdParty/STM32F4xx_HAL_Driver/Src/stm32f4xx_hal_flash_ex.c ****   @endverbatim
  49:ThirdParty/STM32F4xx_HAL_Driver/Src/stm32f4xx_hal_flash_ex.c ****   ******************************************************************************
  50:ThirdParty/STM32F4xx_HAL_Driver/Src/stm32f4xx_hal_flash_ex.c ****   * @attention
  51:ThirdParty/STM32F4xx_HAL_Driver/Src/stm32f4xx_hal_flash_ex.c ****   *
  52:ThirdParty/STM32F4xx_HAL_Driver/Src/stm32f4xx_hal_flash_ex.c ****   * <h2><center>&copy; COPYRIGHT(c) 2017 STMicroelectronics</center></h2>
  53:ThirdParty/STM32F4xx_HAL_Driver/Src/stm32f4xx_hal_flash_ex.c ****   *
  54:ThirdParty/STM32F4xx_HAL_Driver/Src/stm32f4xx_hal_flash_ex.c ****   * Redistribution and use in source and binary forms, with or without modification,
  55:ThirdParty/STM32F4xx_HAL_Driver/Src/stm32f4xx_hal_flash_ex.c ****   * are permitted provided that the following conditions are met:
  56:ThirdParty/STM32F4xx_HAL_Driver/Src/stm32f4xx_hal_flash_ex.c ****   *   1. Redistributions of source code must retain the above copyright notice,
  57:ThirdParty/STM32F4xx_HAL_Driver/Src/stm32f4xx_hal_flash_ex.c ****   *      this list of conditions and the following disclaimer.
  58:ThirdParty/STM32F4xx_HAL_Driver/Src/stm32f4xx_hal_flash_ex.c ****   *   2. Redistributions in binary form must reproduce the above copyright notice,
  59:ThirdParty/STM32F4xx_HAL_Driver/Src/stm32f4xx_hal_flash_ex.c ****   *      this list of conditions and the following disclaimer in the documentation
  60:ThirdParty/STM32F4xx_HAL_Driver/Src/stm32f4xx_hal_flash_ex.c ****   *      and/or other materials provided with the distribution.
  61:ThirdParty/STM32F4xx_HAL_Driver/Src/stm32f4xx_hal_flash_ex.c ****   *   3. Neither the name of STMicroelectronics nor the names of its contributors
  62:ThirdParty/STM32F4xx_HAL_Driver/Src/stm32f4xx_hal_flash_ex.c ****   *      may be used to endorse or promote products derived from this software
  63:ThirdParty/STM32F4xx_HAL_Driver/Src/stm32f4xx_hal_flash_ex.c ****   *      without specific prior written permission.
  64:ThirdParty/STM32F4xx_HAL_Driver/Src/stm32f4xx_hal_flash_ex.c ****   *
  65:ThirdParty/STM32F4xx_HAL_Driver/Src/stm32f4xx_hal_flash_ex.c ****   * THIS SOFTWARE IS PROVIDED BY THE COPYRIGHT HOLDERS AND CONTRIBUTORS "AS IS"
  66:ThirdParty/STM32F4xx_HAL_Driver/Src/stm32f4xx_hal_flash_ex.c ****   * AND ANY EXPRESS OR IMPLIED WARRANTIES, INCLUDING, BUT NOT LIMITED TO, THE
  67:ThirdParty/STM32F4xx_HAL_Driver/Src/stm32f4xx_hal_flash_ex.c ****   * IMPLIED WARRANTIES OF MERCHANTABILITY AND FITNESS FOR A PARTICULAR PURPOSE ARE
  68:ThirdParty/STM32F4xx_HAL_Driver/Src/stm32f4xx_hal_flash_ex.c ****   * DISCLAIMED. IN NO EVENT SHALL THE COPYRIGHT HOLDER OR CONTRIBUTORS BE LIABLE
  69:ThirdParty/STM32F4xx_HAL_Driver/Src/stm32f4xx_hal_flash_ex.c ****   * FOR ANY DIRECT, INDIRECT, INCIDENTAL, SPECIAL, EXEMPLARY, OR CONSEQUENTIAL
  70:ThirdParty/STM32F4xx_HAL_Driver/Src/stm32f4xx_hal_flash_ex.c ****   * DAMAGES (INCLUDING, BUT NOT LIMITED TO, PROCUREMENT OF SUBSTITUTE GOODS OR
  71:ThirdParty/STM32F4xx_HAL_Driver/Src/stm32f4xx_hal_flash_ex.c ****   * SERVICES; LOSS OF USE, DATA, OR PROFITS; OR BUSINESS INTERRUPTION) HOWEVER
  72:ThirdParty/STM32F4xx_HAL_Driver/Src/stm32f4xx_hal_flash_ex.c ****   * CAUSED AND ON ANY THEORY OF LIABILITY, WHETHER IN CONTRACT, STRICT LIABILITY,
  73:ThirdParty/STM32F4xx_HAL_Driver/Src/stm32f4xx_hal_flash_ex.c ****   * OR TORT (INCLUDING NEGLIGENCE OR OTHERWISE) ARISING IN ANY WAY OUT OF THE USE
  74:ThirdParty/STM32F4xx_HAL_Driver/Src/stm32f4xx_hal_flash_ex.c ****   * OF THIS SOFTWARE, EVEN IF ADVISED OF THE POSSIBILITY OF SUCH DAMAGE.
  75:ThirdParty/STM32F4xx_HAL_Driver/Src/stm32f4xx_hal_flash_ex.c ****   *
  76:ThirdParty/STM32F4xx_HAL_Driver/Src/stm32f4xx_hal_flash_ex.c ****   ******************************************************************************
  77:ThirdParty/STM32F4xx_HAL_Driver/Src/stm32f4xx_hal_flash_ex.c ****   */ 
  78:ThirdParty/STM32F4xx_HAL_Driver/Src/stm32f4xx_hal_flash_ex.c **** 
  79:ThirdParty/STM32F4xx_HAL_Driver/Src/stm32f4xx_hal_flash_ex.c **** /* Includes ------------------------------------------------------------------*/
  80:ThirdParty/STM32F4xx_HAL_Driver/Src/stm32f4xx_hal_flash_ex.c **** #include "stm32f4xx_hal.h"
  81:ThirdParty/STM32F4xx_HAL_Driver/Src/stm32f4xx_hal_flash_ex.c **** 
  82:ThirdParty/STM32F4xx_HAL_Driver/Src/stm32f4xx_hal_flash_ex.c **** /** @addtogroup STM32F4xx_HAL_Driver
  83:ThirdParty/STM32F4xx_HAL_Driver/Src/stm32f4xx_hal_flash_ex.c ****   * @{
  84:ThirdParty/STM32F4xx_HAL_Driver/Src/stm32f4xx_hal_flash_ex.c ****   */
  85:ThirdParty/STM32F4xx_HAL_Driver/Src/stm32f4xx_hal_flash_ex.c **** 
  86:ThirdParty/STM32F4xx_HAL_Driver/Src/stm32f4xx_hal_flash_ex.c **** /** @defgroup FLASHEx FLASHEx
  87:ThirdParty/STM32F4xx_HAL_Driver/Src/stm32f4xx_hal_flash_ex.c ****   * @brief FLASH HAL Extension module driver
ARM GAS  /tmp/ccHdxmpw.s 			page 3


  88:ThirdParty/STM32F4xx_HAL_Driver/Src/stm32f4xx_hal_flash_ex.c ****   * @{
  89:ThirdParty/STM32F4xx_HAL_Driver/Src/stm32f4xx_hal_flash_ex.c ****   */
  90:ThirdParty/STM32F4xx_HAL_Driver/Src/stm32f4xx_hal_flash_ex.c **** 
  91:ThirdParty/STM32F4xx_HAL_Driver/Src/stm32f4xx_hal_flash_ex.c **** #ifdef HAL_FLASH_MODULE_ENABLED
  92:ThirdParty/STM32F4xx_HAL_Driver/Src/stm32f4xx_hal_flash_ex.c **** 
  93:ThirdParty/STM32F4xx_HAL_Driver/Src/stm32f4xx_hal_flash_ex.c **** /* Private typedef -----------------------------------------------------------*/
  94:ThirdParty/STM32F4xx_HAL_Driver/Src/stm32f4xx_hal_flash_ex.c **** /* Private define ------------------------------------------------------------*/
  95:ThirdParty/STM32F4xx_HAL_Driver/Src/stm32f4xx_hal_flash_ex.c **** /** @addtogroup FLASHEx_Private_Constants
  96:ThirdParty/STM32F4xx_HAL_Driver/Src/stm32f4xx_hal_flash_ex.c ****   * @{
  97:ThirdParty/STM32F4xx_HAL_Driver/Src/stm32f4xx_hal_flash_ex.c ****   */    
  98:ThirdParty/STM32F4xx_HAL_Driver/Src/stm32f4xx_hal_flash_ex.c **** #define FLASH_TIMEOUT_VALUE       50000U /* 50 s */
  99:ThirdParty/STM32F4xx_HAL_Driver/Src/stm32f4xx_hal_flash_ex.c **** /**
 100:ThirdParty/STM32F4xx_HAL_Driver/Src/stm32f4xx_hal_flash_ex.c ****   * @}
 101:ThirdParty/STM32F4xx_HAL_Driver/Src/stm32f4xx_hal_flash_ex.c ****   */
 102:ThirdParty/STM32F4xx_HAL_Driver/Src/stm32f4xx_hal_flash_ex.c ****     
 103:ThirdParty/STM32F4xx_HAL_Driver/Src/stm32f4xx_hal_flash_ex.c **** /* Private macro -------------------------------------------------------------*/
 104:ThirdParty/STM32F4xx_HAL_Driver/Src/stm32f4xx_hal_flash_ex.c **** /* Private variables ---------------------------------------------------------*/
 105:ThirdParty/STM32F4xx_HAL_Driver/Src/stm32f4xx_hal_flash_ex.c **** /** @addtogroup FLASHEx_Private_Variables
 106:ThirdParty/STM32F4xx_HAL_Driver/Src/stm32f4xx_hal_flash_ex.c ****   * @{
 107:ThirdParty/STM32F4xx_HAL_Driver/Src/stm32f4xx_hal_flash_ex.c ****   */    
 108:ThirdParty/STM32F4xx_HAL_Driver/Src/stm32f4xx_hal_flash_ex.c **** extern FLASH_ProcessTypeDef pFlash;
 109:ThirdParty/STM32F4xx_HAL_Driver/Src/stm32f4xx_hal_flash_ex.c **** /**
 110:ThirdParty/STM32F4xx_HAL_Driver/Src/stm32f4xx_hal_flash_ex.c ****   * @}
 111:ThirdParty/STM32F4xx_HAL_Driver/Src/stm32f4xx_hal_flash_ex.c ****   */
 112:ThirdParty/STM32F4xx_HAL_Driver/Src/stm32f4xx_hal_flash_ex.c **** 
 113:ThirdParty/STM32F4xx_HAL_Driver/Src/stm32f4xx_hal_flash_ex.c **** /* Private function prototypes -----------------------------------------------*/
 114:ThirdParty/STM32F4xx_HAL_Driver/Src/stm32f4xx_hal_flash_ex.c **** /** @addtogroup FLASHEx_Private_Functions
 115:ThirdParty/STM32F4xx_HAL_Driver/Src/stm32f4xx_hal_flash_ex.c ****   * @{
 116:ThirdParty/STM32F4xx_HAL_Driver/Src/stm32f4xx_hal_flash_ex.c ****   */
 117:ThirdParty/STM32F4xx_HAL_Driver/Src/stm32f4xx_hal_flash_ex.c **** /* Option bytes control */
 118:ThirdParty/STM32F4xx_HAL_Driver/Src/stm32f4xx_hal_flash_ex.c **** static void               FLASH_MassErase(uint8_t VoltageRange, uint32_t Banks);
 119:ThirdParty/STM32F4xx_HAL_Driver/Src/stm32f4xx_hal_flash_ex.c **** static HAL_StatusTypeDef  FLASH_OB_EnableWRP(uint32_t WRPSector, uint32_t Banks);
 120:ThirdParty/STM32F4xx_HAL_Driver/Src/stm32f4xx_hal_flash_ex.c **** static HAL_StatusTypeDef  FLASH_OB_DisableWRP(uint32_t WRPSector, uint32_t Banks);
 121:ThirdParty/STM32F4xx_HAL_Driver/Src/stm32f4xx_hal_flash_ex.c **** static HAL_StatusTypeDef  FLASH_OB_RDP_LevelConfig(uint8_t Level);
 122:ThirdParty/STM32F4xx_HAL_Driver/Src/stm32f4xx_hal_flash_ex.c **** static HAL_StatusTypeDef  FLASH_OB_UserConfig(uint8_t Iwdg, uint8_t Stop, uint8_t Stdby);
 123:ThirdParty/STM32F4xx_HAL_Driver/Src/stm32f4xx_hal_flash_ex.c **** static HAL_StatusTypeDef  FLASH_OB_BOR_LevelConfig(uint8_t Level);
 124:ThirdParty/STM32F4xx_HAL_Driver/Src/stm32f4xx_hal_flash_ex.c **** static uint8_t            FLASH_OB_GetUser(void);
 125:ThirdParty/STM32F4xx_HAL_Driver/Src/stm32f4xx_hal_flash_ex.c **** static uint16_t           FLASH_OB_GetWRP(void);
 126:ThirdParty/STM32F4xx_HAL_Driver/Src/stm32f4xx_hal_flash_ex.c **** static uint8_t            FLASH_OB_GetRDP(void);
 127:ThirdParty/STM32F4xx_HAL_Driver/Src/stm32f4xx_hal_flash_ex.c **** static uint8_t            FLASH_OB_GetBOR(void);
 128:ThirdParty/STM32F4xx_HAL_Driver/Src/stm32f4xx_hal_flash_ex.c **** 
 129:ThirdParty/STM32F4xx_HAL_Driver/Src/stm32f4xx_hal_flash_ex.c **** #if defined(STM32F401xC) || defined(STM32F401xE) || defined(STM32F410Tx) || defined(STM32F410Cx) ||
 130:ThirdParty/STM32F4xx_HAL_Driver/Src/stm32f4xx_hal_flash_ex.c ****     defined(STM32F446xx) || defined(STM32F412Zx) || defined(STM32F412Vx) || defined(STM32F412Rx) ||
 131:ThirdParty/STM32F4xx_HAL_Driver/Src/stm32f4xx_hal_flash_ex.c ****     defined(STM32F423xx)
 132:ThirdParty/STM32F4xx_HAL_Driver/Src/stm32f4xx_hal_flash_ex.c **** static HAL_StatusTypeDef  FLASH_OB_EnablePCROP(uint32_t Sector);
 133:ThirdParty/STM32F4xx_HAL_Driver/Src/stm32f4xx_hal_flash_ex.c **** static HAL_StatusTypeDef  FLASH_OB_DisablePCROP(uint32_t Sector);
 134:ThirdParty/STM32F4xx_HAL_Driver/Src/stm32f4xx_hal_flash_ex.c **** #endif /* STM32F401xC || STM32F401xE || STM32F410xx || STM32F411xE || STM32F446xx || STM32F412Zx ||
 135:ThirdParty/STM32F4xx_HAL_Driver/Src/stm32f4xx_hal_flash_ex.c ****           STM32F413xx || STM32F423xx */
 136:ThirdParty/STM32F4xx_HAL_Driver/Src/stm32f4xx_hal_flash_ex.c **** 
 137:ThirdParty/STM32F4xx_HAL_Driver/Src/stm32f4xx_hal_flash_ex.c **** #if defined(STM32F427xx) || defined(STM32F437xx) || defined(STM32F429xx)|| defined(STM32F439xx) || 
 138:ThirdParty/STM32F4xx_HAL_Driver/Src/stm32f4xx_hal_flash_ex.c **** static HAL_StatusTypeDef FLASH_OB_EnablePCROP(uint32_t SectorBank1, uint32_t SectorBank2, uint32_t 
 139:ThirdParty/STM32F4xx_HAL_Driver/Src/stm32f4xx_hal_flash_ex.c **** static HAL_StatusTypeDef FLASH_OB_DisablePCROP(uint32_t SectorBank1, uint32_t SectorBank2, uint32_t
 140:ThirdParty/STM32F4xx_HAL_Driver/Src/stm32f4xx_hal_flash_ex.c **** static HAL_StatusTypeDef FLASH_OB_BootConfig(uint8_t BootConfig);
 141:ThirdParty/STM32F4xx_HAL_Driver/Src/stm32f4xx_hal_flash_ex.c **** #endif /* STM32F427xx || STM32F437xx || STM32F429xx || STM32F439xx || STM32F469xx || STM32F479xx */
 142:ThirdParty/STM32F4xx_HAL_Driver/Src/stm32f4xx_hal_flash_ex.c **** 
 143:ThirdParty/STM32F4xx_HAL_Driver/Src/stm32f4xx_hal_flash_ex.c **** extern HAL_StatusTypeDef         FLASH_WaitForLastOperation(uint32_t Timeout);
 144:ThirdParty/STM32F4xx_HAL_Driver/Src/stm32f4xx_hal_flash_ex.c **** /**
ARM GAS  /tmp/ccHdxmpw.s 			page 4


 145:ThirdParty/STM32F4xx_HAL_Driver/Src/stm32f4xx_hal_flash_ex.c ****   * @}
 146:ThirdParty/STM32F4xx_HAL_Driver/Src/stm32f4xx_hal_flash_ex.c ****   */
 147:ThirdParty/STM32F4xx_HAL_Driver/Src/stm32f4xx_hal_flash_ex.c **** 
 148:ThirdParty/STM32F4xx_HAL_Driver/Src/stm32f4xx_hal_flash_ex.c **** /* Exported functions --------------------------------------------------------*/
 149:ThirdParty/STM32F4xx_HAL_Driver/Src/stm32f4xx_hal_flash_ex.c **** /** @defgroup FLASHEx_Exported_Functions FLASHEx Exported Functions
 150:ThirdParty/STM32F4xx_HAL_Driver/Src/stm32f4xx_hal_flash_ex.c ****   * @{
 151:ThirdParty/STM32F4xx_HAL_Driver/Src/stm32f4xx_hal_flash_ex.c ****   */
 152:ThirdParty/STM32F4xx_HAL_Driver/Src/stm32f4xx_hal_flash_ex.c **** 
 153:ThirdParty/STM32F4xx_HAL_Driver/Src/stm32f4xx_hal_flash_ex.c **** /** @defgroup FLASHEx_Exported_Functions_Group1 Extended IO operation functions
 154:ThirdParty/STM32F4xx_HAL_Driver/Src/stm32f4xx_hal_flash_ex.c ****  *  @brief   Extended IO operation functions 
 155:ThirdParty/STM32F4xx_HAL_Driver/Src/stm32f4xx_hal_flash_ex.c ****  *
 156:ThirdParty/STM32F4xx_HAL_Driver/Src/stm32f4xx_hal_flash_ex.c **** @verbatim   
 157:ThirdParty/STM32F4xx_HAL_Driver/Src/stm32f4xx_hal_flash_ex.c ****  ===============================================================================
 158:ThirdParty/STM32F4xx_HAL_Driver/Src/stm32f4xx_hal_flash_ex.c ****                 ##### Extended programming operation functions #####
 159:ThirdParty/STM32F4xx_HAL_Driver/Src/stm32f4xx_hal_flash_ex.c ****  ===============================================================================  
 160:ThirdParty/STM32F4xx_HAL_Driver/Src/stm32f4xx_hal_flash_ex.c ****     [..]
 161:ThirdParty/STM32F4xx_HAL_Driver/Src/stm32f4xx_hal_flash_ex.c ****     This subsection provides a set of functions allowing to manage the Extension FLASH 
 162:ThirdParty/STM32F4xx_HAL_Driver/Src/stm32f4xx_hal_flash_ex.c ****     programming operations.
 163:ThirdParty/STM32F4xx_HAL_Driver/Src/stm32f4xx_hal_flash_ex.c **** 
 164:ThirdParty/STM32F4xx_HAL_Driver/Src/stm32f4xx_hal_flash_ex.c **** @endverbatim
 165:ThirdParty/STM32F4xx_HAL_Driver/Src/stm32f4xx_hal_flash_ex.c ****   * @{
 166:ThirdParty/STM32F4xx_HAL_Driver/Src/stm32f4xx_hal_flash_ex.c ****   */
 167:ThirdParty/STM32F4xx_HAL_Driver/Src/stm32f4xx_hal_flash_ex.c **** /**
 168:ThirdParty/STM32F4xx_HAL_Driver/Src/stm32f4xx_hal_flash_ex.c ****   * @brief  Perform a mass erase or erase the specified FLASH memory sectors 
 169:ThirdParty/STM32F4xx_HAL_Driver/Src/stm32f4xx_hal_flash_ex.c ****   * @param[in]  pEraseInit pointer to an FLASH_EraseInitTypeDef structure that
 170:ThirdParty/STM32F4xx_HAL_Driver/Src/stm32f4xx_hal_flash_ex.c ****   *         contains the configuration information for the erasing.
 171:ThirdParty/STM32F4xx_HAL_Driver/Src/stm32f4xx_hal_flash_ex.c ****   * 
 172:ThirdParty/STM32F4xx_HAL_Driver/Src/stm32f4xx_hal_flash_ex.c ****   * @param[out]  SectorError pointer to variable  that
 173:ThirdParty/STM32F4xx_HAL_Driver/Src/stm32f4xx_hal_flash_ex.c ****   *         contains the configuration information on faulty sector in case of error 
 174:ThirdParty/STM32F4xx_HAL_Driver/Src/stm32f4xx_hal_flash_ex.c ****   *         (0xFFFFFFFFU means that all the sectors have been correctly erased)
 175:ThirdParty/STM32F4xx_HAL_Driver/Src/stm32f4xx_hal_flash_ex.c ****   * 
 176:ThirdParty/STM32F4xx_HAL_Driver/Src/stm32f4xx_hal_flash_ex.c ****   * @retval HAL Status
 177:ThirdParty/STM32F4xx_HAL_Driver/Src/stm32f4xx_hal_flash_ex.c ****   */
 178:ThirdParty/STM32F4xx_HAL_Driver/Src/stm32f4xx_hal_flash_ex.c **** HAL_StatusTypeDef HAL_FLASHEx_Erase(FLASH_EraseInitTypeDef *pEraseInit, uint32_t *SectorError)
 179:ThirdParty/STM32F4xx_HAL_Driver/Src/stm32f4xx_hal_flash_ex.c **** {
 180:ThirdParty/STM32F4xx_HAL_Driver/Src/stm32f4xx_hal_flash_ex.c ****   HAL_StatusTypeDef status = HAL_ERROR;
 181:ThirdParty/STM32F4xx_HAL_Driver/Src/stm32f4xx_hal_flash_ex.c ****   uint32_t index = 0U;
 182:ThirdParty/STM32F4xx_HAL_Driver/Src/stm32f4xx_hal_flash_ex.c ****   
 183:ThirdParty/STM32F4xx_HAL_Driver/Src/stm32f4xx_hal_flash_ex.c ****   /* Process Locked */
 184:ThirdParty/STM32F4xx_HAL_Driver/Src/stm32f4xx_hal_flash_ex.c ****   __HAL_LOCK(&pFlash);
 185:ThirdParty/STM32F4xx_HAL_Driver/Src/stm32f4xx_hal_flash_ex.c **** 
 186:ThirdParty/STM32F4xx_HAL_Driver/Src/stm32f4xx_hal_flash_ex.c ****   /* Check the parameters */
 187:ThirdParty/STM32F4xx_HAL_Driver/Src/stm32f4xx_hal_flash_ex.c ****   assert_param(IS_FLASH_TYPEERASE(pEraseInit->TypeErase));
 188:ThirdParty/STM32F4xx_HAL_Driver/Src/stm32f4xx_hal_flash_ex.c **** 
 189:ThirdParty/STM32F4xx_HAL_Driver/Src/stm32f4xx_hal_flash_ex.c ****   /* Wait for last operation to be completed */
 190:ThirdParty/STM32F4xx_HAL_Driver/Src/stm32f4xx_hal_flash_ex.c ****   status = FLASH_WaitForLastOperation((uint32_t)FLASH_TIMEOUT_VALUE);
 191:ThirdParty/STM32F4xx_HAL_Driver/Src/stm32f4xx_hal_flash_ex.c **** 
 192:ThirdParty/STM32F4xx_HAL_Driver/Src/stm32f4xx_hal_flash_ex.c ****   if(status == HAL_OK)
 193:ThirdParty/STM32F4xx_HAL_Driver/Src/stm32f4xx_hal_flash_ex.c ****   {
 194:ThirdParty/STM32F4xx_HAL_Driver/Src/stm32f4xx_hal_flash_ex.c ****     /*Initialization of SectorError variable*/
 195:ThirdParty/STM32F4xx_HAL_Driver/Src/stm32f4xx_hal_flash_ex.c ****     *SectorError = 0xFFFFFFFFU;
 196:ThirdParty/STM32F4xx_HAL_Driver/Src/stm32f4xx_hal_flash_ex.c ****     
 197:ThirdParty/STM32F4xx_HAL_Driver/Src/stm32f4xx_hal_flash_ex.c ****     if(pEraseInit->TypeErase == FLASH_TYPEERASE_MASSERASE)
 198:ThirdParty/STM32F4xx_HAL_Driver/Src/stm32f4xx_hal_flash_ex.c ****     {
 199:ThirdParty/STM32F4xx_HAL_Driver/Src/stm32f4xx_hal_flash_ex.c ****       /*Mass erase to be done*/
 200:ThirdParty/STM32F4xx_HAL_Driver/Src/stm32f4xx_hal_flash_ex.c ****       FLASH_MassErase((uint8_t) pEraseInit->VoltageRange, pEraseInit->Banks);
 201:ThirdParty/STM32F4xx_HAL_Driver/Src/stm32f4xx_hal_flash_ex.c **** 
ARM GAS  /tmp/ccHdxmpw.s 			page 5


 202:ThirdParty/STM32F4xx_HAL_Driver/Src/stm32f4xx_hal_flash_ex.c ****       /* Wait for last operation to be completed */
 203:ThirdParty/STM32F4xx_HAL_Driver/Src/stm32f4xx_hal_flash_ex.c ****       status = FLASH_WaitForLastOperation((uint32_t)FLASH_TIMEOUT_VALUE);
 204:ThirdParty/STM32F4xx_HAL_Driver/Src/stm32f4xx_hal_flash_ex.c ****       
 205:ThirdParty/STM32F4xx_HAL_Driver/Src/stm32f4xx_hal_flash_ex.c ****       /* if the erase operation is completed, disable the MER Bit */
 206:ThirdParty/STM32F4xx_HAL_Driver/Src/stm32f4xx_hal_flash_ex.c ****       FLASH->CR &= (~FLASH_MER_BIT);
 207:ThirdParty/STM32F4xx_HAL_Driver/Src/stm32f4xx_hal_flash_ex.c ****     }
 208:ThirdParty/STM32F4xx_HAL_Driver/Src/stm32f4xx_hal_flash_ex.c ****     else
 209:ThirdParty/STM32F4xx_HAL_Driver/Src/stm32f4xx_hal_flash_ex.c ****     {
 210:ThirdParty/STM32F4xx_HAL_Driver/Src/stm32f4xx_hal_flash_ex.c ****       /* Check the parameters */
 211:ThirdParty/STM32F4xx_HAL_Driver/Src/stm32f4xx_hal_flash_ex.c ****       assert_param(IS_FLASH_NBSECTORS(pEraseInit->NbSectors + pEraseInit->Sector));
 212:ThirdParty/STM32F4xx_HAL_Driver/Src/stm32f4xx_hal_flash_ex.c **** 
 213:ThirdParty/STM32F4xx_HAL_Driver/Src/stm32f4xx_hal_flash_ex.c ****       /* Erase by sector by sector to be done*/
 214:ThirdParty/STM32F4xx_HAL_Driver/Src/stm32f4xx_hal_flash_ex.c ****       for(index = pEraseInit->Sector; index < (pEraseInit->NbSectors + pEraseInit->Sector); index++
 215:ThirdParty/STM32F4xx_HAL_Driver/Src/stm32f4xx_hal_flash_ex.c ****       {
 216:ThirdParty/STM32F4xx_HAL_Driver/Src/stm32f4xx_hal_flash_ex.c ****         FLASH_Erase_Sector(index, (uint8_t) pEraseInit->VoltageRange);
 217:ThirdParty/STM32F4xx_HAL_Driver/Src/stm32f4xx_hal_flash_ex.c **** 
 218:ThirdParty/STM32F4xx_HAL_Driver/Src/stm32f4xx_hal_flash_ex.c ****         /* Wait for last operation to be completed */
 219:ThirdParty/STM32F4xx_HAL_Driver/Src/stm32f4xx_hal_flash_ex.c ****         status = FLASH_WaitForLastOperation((uint32_t)FLASH_TIMEOUT_VALUE);
 220:ThirdParty/STM32F4xx_HAL_Driver/Src/stm32f4xx_hal_flash_ex.c ****         
 221:ThirdParty/STM32F4xx_HAL_Driver/Src/stm32f4xx_hal_flash_ex.c ****         /* If the erase operation is completed, disable the SER and SNB Bits */
 222:ThirdParty/STM32F4xx_HAL_Driver/Src/stm32f4xx_hal_flash_ex.c ****         CLEAR_BIT(FLASH->CR, (FLASH_CR_SER | FLASH_CR_SNB));
 223:ThirdParty/STM32F4xx_HAL_Driver/Src/stm32f4xx_hal_flash_ex.c **** 
 224:ThirdParty/STM32F4xx_HAL_Driver/Src/stm32f4xx_hal_flash_ex.c ****         if(status != HAL_OK) 
 225:ThirdParty/STM32F4xx_HAL_Driver/Src/stm32f4xx_hal_flash_ex.c ****         {
 226:ThirdParty/STM32F4xx_HAL_Driver/Src/stm32f4xx_hal_flash_ex.c ****           /* In case of error, stop erase procedure and return the faulty sector*/
 227:ThirdParty/STM32F4xx_HAL_Driver/Src/stm32f4xx_hal_flash_ex.c ****           *SectorError = index;
 228:ThirdParty/STM32F4xx_HAL_Driver/Src/stm32f4xx_hal_flash_ex.c ****           break;
 229:ThirdParty/STM32F4xx_HAL_Driver/Src/stm32f4xx_hal_flash_ex.c ****         }
 230:ThirdParty/STM32F4xx_HAL_Driver/Src/stm32f4xx_hal_flash_ex.c ****       }
 231:ThirdParty/STM32F4xx_HAL_Driver/Src/stm32f4xx_hal_flash_ex.c ****     }
 232:ThirdParty/STM32F4xx_HAL_Driver/Src/stm32f4xx_hal_flash_ex.c ****     /* Flush the caches to be sure of the data consistency */
 233:ThirdParty/STM32F4xx_HAL_Driver/Src/stm32f4xx_hal_flash_ex.c ****     FLASH_FlushCaches();    
 234:ThirdParty/STM32F4xx_HAL_Driver/Src/stm32f4xx_hal_flash_ex.c ****   }
 235:ThirdParty/STM32F4xx_HAL_Driver/Src/stm32f4xx_hal_flash_ex.c **** 
 236:ThirdParty/STM32F4xx_HAL_Driver/Src/stm32f4xx_hal_flash_ex.c ****   /* Process Unlocked */
 237:ThirdParty/STM32F4xx_HAL_Driver/Src/stm32f4xx_hal_flash_ex.c ****   __HAL_UNLOCK(&pFlash);
 238:ThirdParty/STM32F4xx_HAL_Driver/Src/stm32f4xx_hal_flash_ex.c **** 
 239:ThirdParty/STM32F4xx_HAL_Driver/Src/stm32f4xx_hal_flash_ex.c ****   return status;
 240:ThirdParty/STM32F4xx_HAL_Driver/Src/stm32f4xx_hal_flash_ex.c **** }
 241:ThirdParty/STM32F4xx_HAL_Driver/Src/stm32f4xx_hal_flash_ex.c **** 
 242:ThirdParty/STM32F4xx_HAL_Driver/Src/stm32f4xx_hal_flash_ex.c **** /**
 243:ThirdParty/STM32F4xx_HAL_Driver/Src/stm32f4xx_hal_flash_ex.c ****   * @brief  Perform a mass erase or erase the specified FLASH memory sectors  with interrupt enable
 244:ThirdParty/STM32F4xx_HAL_Driver/Src/stm32f4xx_hal_flash_ex.c ****   * @param  pEraseInit pointer to an FLASH_EraseInitTypeDef structure that
 245:ThirdParty/STM32F4xx_HAL_Driver/Src/stm32f4xx_hal_flash_ex.c ****   *         contains the configuration information for the erasing.
 246:ThirdParty/STM32F4xx_HAL_Driver/Src/stm32f4xx_hal_flash_ex.c ****   * 
 247:ThirdParty/STM32F4xx_HAL_Driver/Src/stm32f4xx_hal_flash_ex.c ****   * @retval HAL Status
 248:ThirdParty/STM32F4xx_HAL_Driver/Src/stm32f4xx_hal_flash_ex.c ****   */
 249:ThirdParty/STM32F4xx_HAL_Driver/Src/stm32f4xx_hal_flash_ex.c **** HAL_StatusTypeDef HAL_FLASHEx_Erase_IT(FLASH_EraseInitTypeDef *pEraseInit)
 250:ThirdParty/STM32F4xx_HAL_Driver/Src/stm32f4xx_hal_flash_ex.c **** {
 251:ThirdParty/STM32F4xx_HAL_Driver/Src/stm32f4xx_hal_flash_ex.c ****   HAL_StatusTypeDef status = HAL_OK;
 252:ThirdParty/STM32F4xx_HAL_Driver/Src/stm32f4xx_hal_flash_ex.c **** 
 253:ThirdParty/STM32F4xx_HAL_Driver/Src/stm32f4xx_hal_flash_ex.c ****   /* Process Locked */
 254:ThirdParty/STM32F4xx_HAL_Driver/Src/stm32f4xx_hal_flash_ex.c ****   __HAL_LOCK(&pFlash);
 255:ThirdParty/STM32F4xx_HAL_Driver/Src/stm32f4xx_hal_flash_ex.c **** 
 256:ThirdParty/STM32F4xx_HAL_Driver/Src/stm32f4xx_hal_flash_ex.c ****   /* Check the parameters */
 257:ThirdParty/STM32F4xx_HAL_Driver/Src/stm32f4xx_hal_flash_ex.c ****   assert_param(IS_FLASH_TYPEERASE(pEraseInit->TypeErase));
 258:ThirdParty/STM32F4xx_HAL_Driver/Src/stm32f4xx_hal_flash_ex.c **** 
ARM GAS  /tmp/ccHdxmpw.s 			page 6


 259:ThirdParty/STM32F4xx_HAL_Driver/Src/stm32f4xx_hal_flash_ex.c ****   /* Enable End of FLASH Operation interrupt */
 260:ThirdParty/STM32F4xx_HAL_Driver/Src/stm32f4xx_hal_flash_ex.c ****   __HAL_FLASH_ENABLE_IT(FLASH_IT_EOP);
 261:ThirdParty/STM32F4xx_HAL_Driver/Src/stm32f4xx_hal_flash_ex.c ****   
 262:ThirdParty/STM32F4xx_HAL_Driver/Src/stm32f4xx_hal_flash_ex.c ****   /* Enable Error source interrupt */
 263:ThirdParty/STM32F4xx_HAL_Driver/Src/stm32f4xx_hal_flash_ex.c ****   __HAL_FLASH_ENABLE_IT(FLASH_IT_ERR);
 264:ThirdParty/STM32F4xx_HAL_Driver/Src/stm32f4xx_hal_flash_ex.c ****   
 265:ThirdParty/STM32F4xx_HAL_Driver/Src/stm32f4xx_hal_flash_ex.c ****   /* Clear pending flags (if any) */  
 266:ThirdParty/STM32F4xx_HAL_Driver/Src/stm32f4xx_hal_flash_ex.c ****   __HAL_FLASH_CLEAR_FLAG(FLASH_FLAG_EOP    | FLASH_FLAG_OPERR | FLASH_FLAG_WRPERR |\
 267:ThirdParty/STM32F4xx_HAL_Driver/Src/stm32f4xx_hal_flash_ex.c ****                          FLASH_FLAG_PGAERR | FLASH_FLAG_PGPERR| FLASH_FLAG_PGSERR);  
 268:ThirdParty/STM32F4xx_HAL_Driver/Src/stm32f4xx_hal_flash_ex.c ****   
 269:ThirdParty/STM32F4xx_HAL_Driver/Src/stm32f4xx_hal_flash_ex.c ****   if(pEraseInit->TypeErase == FLASH_TYPEERASE_MASSERASE)
 270:ThirdParty/STM32F4xx_HAL_Driver/Src/stm32f4xx_hal_flash_ex.c ****   {
 271:ThirdParty/STM32F4xx_HAL_Driver/Src/stm32f4xx_hal_flash_ex.c ****     /*Mass erase to be done*/
 272:ThirdParty/STM32F4xx_HAL_Driver/Src/stm32f4xx_hal_flash_ex.c ****     pFlash.ProcedureOnGoing = FLASH_PROC_MASSERASE;
 273:ThirdParty/STM32F4xx_HAL_Driver/Src/stm32f4xx_hal_flash_ex.c ****     pFlash.Bank = pEraseInit->Banks;
 274:ThirdParty/STM32F4xx_HAL_Driver/Src/stm32f4xx_hal_flash_ex.c ****     FLASH_MassErase((uint8_t) pEraseInit->VoltageRange, pEraseInit->Banks);
 275:ThirdParty/STM32F4xx_HAL_Driver/Src/stm32f4xx_hal_flash_ex.c ****   }
 276:ThirdParty/STM32F4xx_HAL_Driver/Src/stm32f4xx_hal_flash_ex.c ****   else
 277:ThirdParty/STM32F4xx_HAL_Driver/Src/stm32f4xx_hal_flash_ex.c ****   {
 278:ThirdParty/STM32F4xx_HAL_Driver/Src/stm32f4xx_hal_flash_ex.c ****     /* Erase by sector to be done*/
 279:ThirdParty/STM32F4xx_HAL_Driver/Src/stm32f4xx_hal_flash_ex.c **** 
 280:ThirdParty/STM32F4xx_HAL_Driver/Src/stm32f4xx_hal_flash_ex.c ****     /* Check the parameters */
 281:ThirdParty/STM32F4xx_HAL_Driver/Src/stm32f4xx_hal_flash_ex.c ****     assert_param(IS_FLASH_NBSECTORS(pEraseInit->NbSectors + pEraseInit->Sector));
 282:ThirdParty/STM32F4xx_HAL_Driver/Src/stm32f4xx_hal_flash_ex.c **** 
 283:ThirdParty/STM32F4xx_HAL_Driver/Src/stm32f4xx_hal_flash_ex.c ****     pFlash.ProcedureOnGoing = FLASH_PROC_SECTERASE;
 284:ThirdParty/STM32F4xx_HAL_Driver/Src/stm32f4xx_hal_flash_ex.c ****     pFlash.NbSectorsToErase = pEraseInit->NbSectors;
 285:ThirdParty/STM32F4xx_HAL_Driver/Src/stm32f4xx_hal_flash_ex.c ****     pFlash.Sector = pEraseInit->Sector;
 286:ThirdParty/STM32F4xx_HAL_Driver/Src/stm32f4xx_hal_flash_ex.c ****     pFlash.VoltageForErase = (uint8_t)pEraseInit->VoltageRange;
 287:ThirdParty/STM32F4xx_HAL_Driver/Src/stm32f4xx_hal_flash_ex.c **** 
 288:ThirdParty/STM32F4xx_HAL_Driver/Src/stm32f4xx_hal_flash_ex.c ****     /*Erase 1st sector and wait for IT*/
 289:ThirdParty/STM32F4xx_HAL_Driver/Src/stm32f4xx_hal_flash_ex.c ****     FLASH_Erase_Sector(pEraseInit->Sector, pEraseInit->VoltageRange);
 290:ThirdParty/STM32F4xx_HAL_Driver/Src/stm32f4xx_hal_flash_ex.c ****   }
 291:ThirdParty/STM32F4xx_HAL_Driver/Src/stm32f4xx_hal_flash_ex.c **** 
 292:ThirdParty/STM32F4xx_HAL_Driver/Src/stm32f4xx_hal_flash_ex.c ****   return status;
 293:ThirdParty/STM32F4xx_HAL_Driver/Src/stm32f4xx_hal_flash_ex.c **** }
 294:ThirdParty/STM32F4xx_HAL_Driver/Src/stm32f4xx_hal_flash_ex.c **** 
 295:ThirdParty/STM32F4xx_HAL_Driver/Src/stm32f4xx_hal_flash_ex.c **** /**
 296:ThirdParty/STM32F4xx_HAL_Driver/Src/stm32f4xx_hal_flash_ex.c ****   * @brief   Program option bytes
 297:ThirdParty/STM32F4xx_HAL_Driver/Src/stm32f4xx_hal_flash_ex.c ****   * @param  pOBInit pointer to an FLASH_OBInitStruct structure that
 298:ThirdParty/STM32F4xx_HAL_Driver/Src/stm32f4xx_hal_flash_ex.c ****   *         contains the configuration information for the programming.
 299:ThirdParty/STM32F4xx_HAL_Driver/Src/stm32f4xx_hal_flash_ex.c ****   * 
 300:ThirdParty/STM32F4xx_HAL_Driver/Src/stm32f4xx_hal_flash_ex.c ****   * @retval HAL Status
 301:ThirdParty/STM32F4xx_HAL_Driver/Src/stm32f4xx_hal_flash_ex.c ****   */
 302:ThirdParty/STM32F4xx_HAL_Driver/Src/stm32f4xx_hal_flash_ex.c **** HAL_StatusTypeDef HAL_FLASHEx_OBProgram(FLASH_OBProgramInitTypeDef *pOBInit)
 303:ThirdParty/STM32F4xx_HAL_Driver/Src/stm32f4xx_hal_flash_ex.c **** {
 304:ThirdParty/STM32F4xx_HAL_Driver/Src/stm32f4xx_hal_flash_ex.c ****   HAL_StatusTypeDef status = HAL_ERROR;
 305:ThirdParty/STM32F4xx_HAL_Driver/Src/stm32f4xx_hal_flash_ex.c ****   
 306:ThirdParty/STM32F4xx_HAL_Driver/Src/stm32f4xx_hal_flash_ex.c ****   /* Process Locked */
 307:ThirdParty/STM32F4xx_HAL_Driver/Src/stm32f4xx_hal_flash_ex.c ****   __HAL_LOCK(&pFlash);
 308:ThirdParty/STM32F4xx_HAL_Driver/Src/stm32f4xx_hal_flash_ex.c **** 
 309:ThirdParty/STM32F4xx_HAL_Driver/Src/stm32f4xx_hal_flash_ex.c ****   /* Check the parameters */
 310:ThirdParty/STM32F4xx_HAL_Driver/Src/stm32f4xx_hal_flash_ex.c ****   assert_param(IS_OPTIONBYTE(pOBInit->OptionType));
 311:ThirdParty/STM32F4xx_HAL_Driver/Src/stm32f4xx_hal_flash_ex.c **** 
 312:ThirdParty/STM32F4xx_HAL_Driver/Src/stm32f4xx_hal_flash_ex.c ****   /*Write protection configuration*/
 313:ThirdParty/STM32F4xx_HAL_Driver/Src/stm32f4xx_hal_flash_ex.c ****   if((pOBInit->OptionType & OPTIONBYTE_WRP) == OPTIONBYTE_WRP)
 314:ThirdParty/STM32F4xx_HAL_Driver/Src/stm32f4xx_hal_flash_ex.c ****   {
 315:ThirdParty/STM32F4xx_HAL_Driver/Src/stm32f4xx_hal_flash_ex.c ****     assert_param(IS_WRPSTATE(pOBInit->WRPState));
ARM GAS  /tmp/ccHdxmpw.s 			page 7


 316:ThirdParty/STM32F4xx_HAL_Driver/Src/stm32f4xx_hal_flash_ex.c ****     if(pOBInit->WRPState == OB_WRPSTATE_ENABLE)
 317:ThirdParty/STM32F4xx_HAL_Driver/Src/stm32f4xx_hal_flash_ex.c ****     {
 318:ThirdParty/STM32F4xx_HAL_Driver/Src/stm32f4xx_hal_flash_ex.c ****       /*Enable of Write protection on the selected Sector*/
 319:ThirdParty/STM32F4xx_HAL_Driver/Src/stm32f4xx_hal_flash_ex.c ****       status = FLASH_OB_EnableWRP(pOBInit->WRPSector, pOBInit->Banks);
 320:ThirdParty/STM32F4xx_HAL_Driver/Src/stm32f4xx_hal_flash_ex.c ****     }
 321:ThirdParty/STM32F4xx_HAL_Driver/Src/stm32f4xx_hal_flash_ex.c ****     else
 322:ThirdParty/STM32F4xx_HAL_Driver/Src/stm32f4xx_hal_flash_ex.c ****     {
 323:ThirdParty/STM32F4xx_HAL_Driver/Src/stm32f4xx_hal_flash_ex.c ****       /*Disable of Write protection on the selected Sector*/
 324:ThirdParty/STM32F4xx_HAL_Driver/Src/stm32f4xx_hal_flash_ex.c ****       status = FLASH_OB_DisableWRP(pOBInit->WRPSector, pOBInit->Banks);
 325:ThirdParty/STM32F4xx_HAL_Driver/Src/stm32f4xx_hal_flash_ex.c ****     }
 326:ThirdParty/STM32F4xx_HAL_Driver/Src/stm32f4xx_hal_flash_ex.c ****   }
 327:ThirdParty/STM32F4xx_HAL_Driver/Src/stm32f4xx_hal_flash_ex.c **** 
 328:ThirdParty/STM32F4xx_HAL_Driver/Src/stm32f4xx_hal_flash_ex.c ****   /*Read protection configuration*/
 329:ThirdParty/STM32F4xx_HAL_Driver/Src/stm32f4xx_hal_flash_ex.c ****   if((pOBInit->OptionType & OPTIONBYTE_RDP) == OPTIONBYTE_RDP)
 330:ThirdParty/STM32F4xx_HAL_Driver/Src/stm32f4xx_hal_flash_ex.c ****   {
 331:ThirdParty/STM32F4xx_HAL_Driver/Src/stm32f4xx_hal_flash_ex.c ****     status = FLASH_OB_RDP_LevelConfig(pOBInit->RDPLevel);
 332:ThirdParty/STM32F4xx_HAL_Driver/Src/stm32f4xx_hal_flash_ex.c ****   }
 333:ThirdParty/STM32F4xx_HAL_Driver/Src/stm32f4xx_hal_flash_ex.c **** 
 334:ThirdParty/STM32F4xx_HAL_Driver/Src/stm32f4xx_hal_flash_ex.c ****   /*USER  configuration*/
 335:ThirdParty/STM32F4xx_HAL_Driver/Src/stm32f4xx_hal_flash_ex.c ****   if((pOBInit->OptionType & OPTIONBYTE_USER) == OPTIONBYTE_USER)
 336:ThirdParty/STM32F4xx_HAL_Driver/Src/stm32f4xx_hal_flash_ex.c ****   {
 337:ThirdParty/STM32F4xx_HAL_Driver/Src/stm32f4xx_hal_flash_ex.c ****     status = FLASH_OB_UserConfig(pOBInit->USERConfig&OB_IWDG_SW, 
 338:ThirdParty/STM32F4xx_HAL_Driver/Src/stm32f4xx_hal_flash_ex.c ****                                      pOBInit->USERConfig&OB_STOP_NO_RST,
 339:ThirdParty/STM32F4xx_HAL_Driver/Src/stm32f4xx_hal_flash_ex.c ****                                      pOBInit->USERConfig&OB_STDBY_NO_RST);
 340:ThirdParty/STM32F4xx_HAL_Driver/Src/stm32f4xx_hal_flash_ex.c ****   }
 341:ThirdParty/STM32F4xx_HAL_Driver/Src/stm32f4xx_hal_flash_ex.c **** 
 342:ThirdParty/STM32F4xx_HAL_Driver/Src/stm32f4xx_hal_flash_ex.c ****   /*BOR Level  configuration*/
 343:ThirdParty/STM32F4xx_HAL_Driver/Src/stm32f4xx_hal_flash_ex.c ****   if((pOBInit->OptionType & OPTIONBYTE_BOR) == OPTIONBYTE_BOR)
 344:ThirdParty/STM32F4xx_HAL_Driver/Src/stm32f4xx_hal_flash_ex.c ****   {
 345:ThirdParty/STM32F4xx_HAL_Driver/Src/stm32f4xx_hal_flash_ex.c ****     status = FLASH_OB_BOR_LevelConfig(pOBInit->BORLevel);
 346:ThirdParty/STM32F4xx_HAL_Driver/Src/stm32f4xx_hal_flash_ex.c ****   }
 347:ThirdParty/STM32F4xx_HAL_Driver/Src/stm32f4xx_hal_flash_ex.c **** 
 348:ThirdParty/STM32F4xx_HAL_Driver/Src/stm32f4xx_hal_flash_ex.c ****   /* Process Unlocked */
 349:ThirdParty/STM32F4xx_HAL_Driver/Src/stm32f4xx_hal_flash_ex.c ****   __HAL_UNLOCK(&pFlash);
 350:ThirdParty/STM32F4xx_HAL_Driver/Src/stm32f4xx_hal_flash_ex.c **** 
 351:ThirdParty/STM32F4xx_HAL_Driver/Src/stm32f4xx_hal_flash_ex.c ****   return status;
 352:ThirdParty/STM32F4xx_HAL_Driver/Src/stm32f4xx_hal_flash_ex.c **** }
 353:ThirdParty/STM32F4xx_HAL_Driver/Src/stm32f4xx_hal_flash_ex.c **** 
 354:ThirdParty/STM32F4xx_HAL_Driver/Src/stm32f4xx_hal_flash_ex.c **** /**
 355:ThirdParty/STM32F4xx_HAL_Driver/Src/stm32f4xx_hal_flash_ex.c ****   * @brief   Get the Option byte configuration
 356:ThirdParty/STM32F4xx_HAL_Driver/Src/stm32f4xx_hal_flash_ex.c ****   * @param  pOBInit pointer to an FLASH_OBInitStruct structure that
 357:ThirdParty/STM32F4xx_HAL_Driver/Src/stm32f4xx_hal_flash_ex.c ****   *         contains the configuration information for the programming.
 358:ThirdParty/STM32F4xx_HAL_Driver/Src/stm32f4xx_hal_flash_ex.c ****   * 
 359:ThirdParty/STM32F4xx_HAL_Driver/Src/stm32f4xx_hal_flash_ex.c ****   * @retval None
 360:ThirdParty/STM32F4xx_HAL_Driver/Src/stm32f4xx_hal_flash_ex.c ****   */
 361:ThirdParty/STM32F4xx_HAL_Driver/Src/stm32f4xx_hal_flash_ex.c **** void HAL_FLASHEx_OBGetConfig(FLASH_OBProgramInitTypeDef *pOBInit)
 362:ThirdParty/STM32F4xx_HAL_Driver/Src/stm32f4xx_hal_flash_ex.c **** {
 363:ThirdParty/STM32F4xx_HAL_Driver/Src/stm32f4xx_hal_flash_ex.c ****   pOBInit->OptionType = OPTIONBYTE_WRP | OPTIONBYTE_RDP | OPTIONBYTE_USER | OPTIONBYTE_BOR;
 364:ThirdParty/STM32F4xx_HAL_Driver/Src/stm32f4xx_hal_flash_ex.c **** 
 365:ThirdParty/STM32F4xx_HAL_Driver/Src/stm32f4xx_hal_flash_ex.c ****   /*Get WRP*/
 366:ThirdParty/STM32F4xx_HAL_Driver/Src/stm32f4xx_hal_flash_ex.c ****   pOBInit->WRPSector = (uint32_t)FLASH_OB_GetWRP();
 367:ThirdParty/STM32F4xx_HAL_Driver/Src/stm32f4xx_hal_flash_ex.c **** 
 368:ThirdParty/STM32F4xx_HAL_Driver/Src/stm32f4xx_hal_flash_ex.c ****   /*Get RDP Level*/
 369:ThirdParty/STM32F4xx_HAL_Driver/Src/stm32f4xx_hal_flash_ex.c ****   pOBInit->RDPLevel = (uint32_t)FLASH_OB_GetRDP();
 370:ThirdParty/STM32F4xx_HAL_Driver/Src/stm32f4xx_hal_flash_ex.c **** 
 371:ThirdParty/STM32F4xx_HAL_Driver/Src/stm32f4xx_hal_flash_ex.c ****   /*Get USER*/
 372:ThirdParty/STM32F4xx_HAL_Driver/Src/stm32f4xx_hal_flash_ex.c ****   pOBInit->USERConfig = (uint8_t)FLASH_OB_GetUser();
ARM GAS  /tmp/ccHdxmpw.s 			page 8


 373:ThirdParty/STM32F4xx_HAL_Driver/Src/stm32f4xx_hal_flash_ex.c **** 
 374:ThirdParty/STM32F4xx_HAL_Driver/Src/stm32f4xx_hal_flash_ex.c ****   /*Get BOR Level*/
 375:ThirdParty/STM32F4xx_HAL_Driver/Src/stm32f4xx_hal_flash_ex.c ****   pOBInit->BORLevel = (uint32_t)FLASH_OB_GetBOR();
 376:ThirdParty/STM32F4xx_HAL_Driver/Src/stm32f4xx_hal_flash_ex.c **** }
 377:ThirdParty/STM32F4xx_HAL_Driver/Src/stm32f4xx_hal_flash_ex.c **** 
 378:ThirdParty/STM32F4xx_HAL_Driver/Src/stm32f4xx_hal_flash_ex.c **** #if defined(STM32F427xx) || defined(STM32F437xx) || defined(STM32F429xx) || defined(STM32F439xx) ||
 379:ThirdParty/STM32F4xx_HAL_Driver/Src/stm32f4xx_hal_flash_ex.c ****     defined(STM32F401xC) || defined(STM32F401xE) || defined(STM32F410Tx) || defined(STM32F410Cx) ||
 380:ThirdParty/STM32F4xx_HAL_Driver/Src/stm32f4xx_hal_flash_ex.c ****     defined(STM32F410Rx) || defined(STM32F411xE) || defined(STM32F446xx) || defined(STM32F469xx) ||
 381:ThirdParty/STM32F4xx_HAL_Driver/Src/stm32f4xx_hal_flash_ex.c ****     defined(STM32F479xx) || defined(STM32F412Zx) || defined(STM32F412Vx) || defined(STM32F412Rx) ||
 382:ThirdParty/STM32F4xx_HAL_Driver/Src/stm32f4xx_hal_flash_ex.c ****     defined(STM32F412Cx) || defined(STM32F413xx) || defined(STM32F423xx)
 383:ThirdParty/STM32F4xx_HAL_Driver/Src/stm32f4xx_hal_flash_ex.c **** /**
 384:ThirdParty/STM32F4xx_HAL_Driver/Src/stm32f4xx_hal_flash_ex.c ****   * @brief   Program option bytes
 385:ThirdParty/STM32F4xx_HAL_Driver/Src/stm32f4xx_hal_flash_ex.c ****   * @param  pAdvOBInit pointer to an FLASH_AdvOBProgramInitTypeDef structure that
 386:ThirdParty/STM32F4xx_HAL_Driver/Src/stm32f4xx_hal_flash_ex.c ****   *         contains the configuration information for the programming.
 387:ThirdParty/STM32F4xx_HAL_Driver/Src/stm32f4xx_hal_flash_ex.c ****   * 
 388:ThirdParty/STM32F4xx_HAL_Driver/Src/stm32f4xx_hal_flash_ex.c ****   * @retval HAL Status
 389:ThirdParty/STM32F4xx_HAL_Driver/Src/stm32f4xx_hal_flash_ex.c ****   */
 390:ThirdParty/STM32F4xx_HAL_Driver/Src/stm32f4xx_hal_flash_ex.c **** HAL_StatusTypeDef HAL_FLASHEx_AdvOBProgram (FLASH_AdvOBProgramInitTypeDef *pAdvOBInit)
 391:ThirdParty/STM32F4xx_HAL_Driver/Src/stm32f4xx_hal_flash_ex.c **** {
 392:ThirdParty/STM32F4xx_HAL_Driver/Src/stm32f4xx_hal_flash_ex.c ****   HAL_StatusTypeDef status = HAL_ERROR;
 393:ThirdParty/STM32F4xx_HAL_Driver/Src/stm32f4xx_hal_flash_ex.c ****   
 394:ThirdParty/STM32F4xx_HAL_Driver/Src/stm32f4xx_hal_flash_ex.c ****   /* Check the parameters */
 395:ThirdParty/STM32F4xx_HAL_Driver/Src/stm32f4xx_hal_flash_ex.c ****   assert_param(IS_OBEX(pAdvOBInit->OptionType));
 396:ThirdParty/STM32F4xx_HAL_Driver/Src/stm32f4xx_hal_flash_ex.c **** 
 397:ThirdParty/STM32F4xx_HAL_Driver/Src/stm32f4xx_hal_flash_ex.c ****   /*Program PCROP option byte*/
 398:ThirdParty/STM32F4xx_HAL_Driver/Src/stm32f4xx_hal_flash_ex.c ****   if(((pAdvOBInit->OptionType) & OPTIONBYTE_PCROP) == OPTIONBYTE_PCROP)
 399:ThirdParty/STM32F4xx_HAL_Driver/Src/stm32f4xx_hal_flash_ex.c ****   {
 400:ThirdParty/STM32F4xx_HAL_Driver/Src/stm32f4xx_hal_flash_ex.c ****     /* Check the parameters */
 401:ThirdParty/STM32F4xx_HAL_Driver/Src/stm32f4xx_hal_flash_ex.c ****     assert_param(IS_PCROPSTATE(pAdvOBInit->PCROPState));
 402:ThirdParty/STM32F4xx_HAL_Driver/Src/stm32f4xx_hal_flash_ex.c ****     if((pAdvOBInit->PCROPState) == OB_PCROP_STATE_ENABLE)
 403:ThirdParty/STM32F4xx_HAL_Driver/Src/stm32f4xx_hal_flash_ex.c ****     {
 404:ThirdParty/STM32F4xx_HAL_Driver/Src/stm32f4xx_hal_flash_ex.c ****       /*Enable of Write protection on the selected Sector*/
 405:ThirdParty/STM32F4xx_HAL_Driver/Src/stm32f4xx_hal_flash_ex.c **** #if defined(STM32F401xC) || defined(STM32F401xE) || defined(STM32F410Tx) || defined(STM32F410Cx) ||
 406:ThirdParty/STM32F4xx_HAL_Driver/Src/stm32f4xx_hal_flash_ex.c ****     defined(STM32F411xE) || defined(STM32F446xx) || defined(STM32F412Zx) || defined(STM32F412Vx) ||
 407:ThirdParty/STM32F4xx_HAL_Driver/Src/stm32f4xx_hal_flash_ex.c ****     defined(STM32F412Cx) || defined(STM32F413xx) || defined(STM32F423xx)
 408:ThirdParty/STM32F4xx_HAL_Driver/Src/stm32f4xx_hal_flash_ex.c ****       status = FLASH_OB_EnablePCROP(pAdvOBInit->Sectors);
 409:ThirdParty/STM32F4xx_HAL_Driver/Src/stm32f4xx_hal_flash_ex.c **** #else  /* STM32F427xx || STM32F437xx || STM32F429xx|| STM32F439xx || STM32F469xx || STM32F479xx */
 410:ThirdParty/STM32F4xx_HAL_Driver/Src/stm32f4xx_hal_flash_ex.c ****       status = FLASH_OB_EnablePCROP(pAdvOBInit->SectorsBank1, pAdvOBInit->SectorsBank2, pAdvOBInit-
 411:ThirdParty/STM32F4xx_HAL_Driver/Src/stm32f4xx_hal_flash_ex.c **** #endif /* STM32F401xC || STM32F401xE || STM32F410xx || STM32F411xE || STM32F446xx || STM32F412Zx ||
 412:ThirdParty/STM32F4xx_HAL_Driver/Src/stm32f4xx_hal_flash_ex.c ****           STM32F413xx || STM32F423xx */
 413:ThirdParty/STM32F4xx_HAL_Driver/Src/stm32f4xx_hal_flash_ex.c ****     }
 414:ThirdParty/STM32F4xx_HAL_Driver/Src/stm32f4xx_hal_flash_ex.c ****     else
 415:ThirdParty/STM32F4xx_HAL_Driver/Src/stm32f4xx_hal_flash_ex.c ****     {
 416:ThirdParty/STM32F4xx_HAL_Driver/Src/stm32f4xx_hal_flash_ex.c ****       /*Disable of Write protection on the selected Sector*/
 417:ThirdParty/STM32F4xx_HAL_Driver/Src/stm32f4xx_hal_flash_ex.c **** #if defined(STM32F401xC) || defined(STM32F401xE) || defined(STM32F410Tx) || defined(STM32F410Cx) ||
 418:ThirdParty/STM32F4xx_HAL_Driver/Src/stm32f4xx_hal_flash_ex.c ****     defined(STM32F411xE) || defined(STM32F446xx) || defined(STM32F412Zx) || defined(STM32F412Vx) ||
 419:ThirdParty/STM32F4xx_HAL_Driver/Src/stm32f4xx_hal_flash_ex.c ****     defined(STM32F412Cx) || defined(STM32F413xx) || defined(STM32F423xx)
 420:ThirdParty/STM32F4xx_HAL_Driver/Src/stm32f4xx_hal_flash_ex.c ****       status = FLASH_OB_DisablePCROP(pAdvOBInit->Sectors);
 421:ThirdParty/STM32F4xx_HAL_Driver/Src/stm32f4xx_hal_flash_ex.c **** #else /* STM32F427xx || STM32F437xx || STM32F429xx|| STM32F439xx || STM32F469xx || STM32F479xx */
 422:ThirdParty/STM32F4xx_HAL_Driver/Src/stm32f4xx_hal_flash_ex.c ****       status = FLASH_OB_DisablePCROP(pAdvOBInit->SectorsBank1, pAdvOBInit->SectorsBank2, pAdvOBInit
 423:ThirdParty/STM32F4xx_HAL_Driver/Src/stm32f4xx_hal_flash_ex.c **** #endif /* STM32F401xC || STM32F401xE || STM32F410xx || STM32F411xE || STM32F446xx || STM32F412Zx ||
 424:ThirdParty/STM32F4xx_HAL_Driver/Src/stm32f4xx_hal_flash_ex.c ****           STM32F413xx || STM32F423xx */
 425:ThirdParty/STM32F4xx_HAL_Driver/Src/stm32f4xx_hal_flash_ex.c ****     }
 426:ThirdParty/STM32F4xx_HAL_Driver/Src/stm32f4xx_hal_flash_ex.c ****   }
 427:ThirdParty/STM32F4xx_HAL_Driver/Src/stm32f4xx_hal_flash_ex.c ****    
 428:ThirdParty/STM32F4xx_HAL_Driver/Src/stm32f4xx_hal_flash_ex.c **** #if defined(STM32F427xx) || defined(STM32F437xx) || defined(STM32F429xx) || defined(STM32F439xx) ||
 429:ThirdParty/STM32F4xx_HAL_Driver/Src/stm32f4xx_hal_flash_ex.c ****   /*Program BOOT config option byte*/
ARM GAS  /tmp/ccHdxmpw.s 			page 9


 430:ThirdParty/STM32F4xx_HAL_Driver/Src/stm32f4xx_hal_flash_ex.c ****   if(((pAdvOBInit->OptionType) & OPTIONBYTE_BOOTCONFIG) == OPTIONBYTE_BOOTCONFIG)
 431:ThirdParty/STM32F4xx_HAL_Driver/Src/stm32f4xx_hal_flash_ex.c ****   {
 432:ThirdParty/STM32F4xx_HAL_Driver/Src/stm32f4xx_hal_flash_ex.c ****     status = FLASH_OB_BootConfig(pAdvOBInit->BootConfig);
 433:ThirdParty/STM32F4xx_HAL_Driver/Src/stm32f4xx_hal_flash_ex.c ****   }
 434:ThirdParty/STM32F4xx_HAL_Driver/Src/stm32f4xx_hal_flash_ex.c **** #endif /* STM32F427xx || STM32F437xx || STM32F429xx || STM32F439xx || STM32F469xx || STM32F479xx */
 435:ThirdParty/STM32F4xx_HAL_Driver/Src/stm32f4xx_hal_flash_ex.c **** 
 436:ThirdParty/STM32F4xx_HAL_Driver/Src/stm32f4xx_hal_flash_ex.c ****   return status;
 437:ThirdParty/STM32F4xx_HAL_Driver/Src/stm32f4xx_hal_flash_ex.c **** }
 438:ThirdParty/STM32F4xx_HAL_Driver/Src/stm32f4xx_hal_flash_ex.c **** 
 439:ThirdParty/STM32F4xx_HAL_Driver/Src/stm32f4xx_hal_flash_ex.c **** /**
 440:ThirdParty/STM32F4xx_HAL_Driver/Src/stm32f4xx_hal_flash_ex.c ****   * @brief   Get the OBEX byte configuration
 441:ThirdParty/STM32F4xx_HAL_Driver/Src/stm32f4xx_hal_flash_ex.c ****   * @param  pAdvOBInit pointer to an FLASH_AdvOBProgramInitTypeDef structure that
 442:ThirdParty/STM32F4xx_HAL_Driver/Src/stm32f4xx_hal_flash_ex.c ****   *         contains the configuration information for the programming.
 443:ThirdParty/STM32F4xx_HAL_Driver/Src/stm32f4xx_hal_flash_ex.c ****   * 
 444:ThirdParty/STM32F4xx_HAL_Driver/Src/stm32f4xx_hal_flash_ex.c ****   * @retval None
 445:ThirdParty/STM32F4xx_HAL_Driver/Src/stm32f4xx_hal_flash_ex.c ****   */
 446:ThirdParty/STM32F4xx_HAL_Driver/Src/stm32f4xx_hal_flash_ex.c **** void HAL_FLASHEx_AdvOBGetConfig(FLASH_AdvOBProgramInitTypeDef *pAdvOBInit)
 447:ThirdParty/STM32F4xx_HAL_Driver/Src/stm32f4xx_hal_flash_ex.c **** {
 448:ThirdParty/STM32F4xx_HAL_Driver/Src/stm32f4xx_hal_flash_ex.c **** #if defined(STM32F401xC) || defined(STM32F401xE) || defined(STM32F410Tx) || defined(STM32F410Cx) ||
 449:ThirdParty/STM32F4xx_HAL_Driver/Src/stm32f4xx_hal_flash_ex.c ****     defined(STM32F411xE) || defined(STM32F446xx) || defined(STM32F412Zx) || defined(STM32F412Vx) ||
 450:ThirdParty/STM32F4xx_HAL_Driver/Src/stm32f4xx_hal_flash_ex.c ****     defined(STM32F412Cx) || defined(STM32F413xx) || defined(STM32F423xx)
 451:ThirdParty/STM32F4xx_HAL_Driver/Src/stm32f4xx_hal_flash_ex.c ****   /*Get Sector*/
 452:ThirdParty/STM32F4xx_HAL_Driver/Src/stm32f4xx_hal_flash_ex.c ****   pAdvOBInit->Sectors = (*(__IO uint16_t *)(OPTCR_BYTE2_ADDRESS));
 453:ThirdParty/STM32F4xx_HAL_Driver/Src/stm32f4xx_hal_flash_ex.c **** #else  /* STM32F427xx || STM32F437xx || STM32F429xx|| STM32F439xx || STM32F469xx || STM32F479xx */
 454:ThirdParty/STM32F4xx_HAL_Driver/Src/stm32f4xx_hal_flash_ex.c ****   /*Get Sector for Bank1*/
 455:ThirdParty/STM32F4xx_HAL_Driver/Src/stm32f4xx_hal_flash_ex.c ****   pAdvOBInit->SectorsBank1 = (*(__IO uint16_t *)(OPTCR_BYTE2_ADDRESS));
 456:ThirdParty/STM32F4xx_HAL_Driver/Src/stm32f4xx_hal_flash_ex.c **** 
 457:ThirdParty/STM32F4xx_HAL_Driver/Src/stm32f4xx_hal_flash_ex.c ****   /*Get Sector for Bank2*/
 458:ThirdParty/STM32F4xx_HAL_Driver/Src/stm32f4xx_hal_flash_ex.c ****   pAdvOBInit->SectorsBank2 = (*(__IO uint16_t *)(OPTCR1_BYTE2_ADDRESS));
 459:ThirdParty/STM32F4xx_HAL_Driver/Src/stm32f4xx_hal_flash_ex.c **** 
 460:ThirdParty/STM32F4xx_HAL_Driver/Src/stm32f4xx_hal_flash_ex.c ****   /*Get Boot config OB*/
 461:ThirdParty/STM32F4xx_HAL_Driver/Src/stm32f4xx_hal_flash_ex.c ****   pAdvOBInit->BootConfig = *(__IO uint8_t *)OPTCR_BYTE0_ADDRESS;
 462:ThirdParty/STM32F4xx_HAL_Driver/Src/stm32f4xx_hal_flash_ex.c **** #endif /* STM32F401xC || STM32F401xE || STM32F410xx || STM32F411xE || STM32F446xx || STM32F412Zx ||
 463:ThirdParty/STM32F4xx_HAL_Driver/Src/stm32f4xx_hal_flash_ex.c ****           STM32F413xx || STM32F423xx */
 464:ThirdParty/STM32F4xx_HAL_Driver/Src/stm32f4xx_hal_flash_ex.c **** }
 465:ThirdParty/STM32F4xx_HAL_Driver/Src/stm32f4xx_hal_flash_ex.c **** 
 466:ThirdParty/STM32F4xx_HAL_Driver/Src/stm32f4xx_hal_flash_ex.c **** /**
 467:ThirdParty/STM32F4xx_HAL_Driver/Src/stm32f4xx_hal_flash_ex.c ****   * @brief  Select the Protection Mode 
 468:ThirdParty/STM32F4xx_HAL_Driver/Src/stm32f4xx_hal_flash_ex.c ****   * 
 469:ThirdParty/STM32F4xx_HAL_Driver/Src/stm32f4xx_hal_flash_ex.c ****   * @note   After PCROP activated Option Byte modification NOT POSSIBLE! excepted 
 470:ThirdParty/STM32F4xx_HAL_Driver/Src/stm32f4xx_hal_flash_ex.c ****   *         Global Read Out Protection modification (from level1 to level0) 
 471:ThirdParty/STM32F4xx_HAL_Driver/Src/stm32f4xx_hal_flash_ex.c ****   * @note   Once SPRMOD bit is active unprotection of a protected sector is not possible 
 472:ThirdParty/STM32F4xx_HAL_Driver/Src/stm32f4xx_hal_flash_ex.c ****   * @note   Read a protected sector will set RDERR Flag and write a protected sector will set WRPER
 473:ThirdParty/STM32F4xx_HAL_Driver/Src/stm32f4xx_hal_flash_ex.c ****   * @note   This function can be used only for STM32F42xxx/STM32F43xxx/STM32F401xx/STM32F411xx/STM3
 474:ThirdParty/STM32F4xx_HAL_Driver/Src/stm32f4xx_hal_flash_ex.c ****   *         STM32F469xx/STM32F479xx/STM32F412xx/STM32F413xx devices.
 475:ThirdParty/STM32F4xx_HAL_Driver/Src/stm32f4xx_hal_flash_ex.c ****   * 
 476:ThirdParty/STM32F4xx_HAL_Driver/Src/stm32f4xx_hal_flash_ex.c ****   * @retval HAL Status
 477:ThirdParty/STM32F4xx_HAL_Driver/Src/stm32f4xx_hal_flash_ex.c ****   */
 478:ThirdParty/STM32F4xx_HAL_Driver/Src/stm32f4xx_hal_flash_ex.c **** HAL_StatusTypeDef HAL_FLASHEx_OB_SelectPCROP(void)
 479:ThirdParty/STM32F4xx_HAL_Driver/Src/stm32f4xx_hal_flash_ex.c **** {
 480:ThirdParty/STM32F4xx_HAL_Driver/Src/stm32f4xx_hal_flash_ex.c ****   uint8_t optiontmp = 0xFF;
 481:ThirdParty/STM32F4xx_HAL_Driver/Src/stm32f4xx_hal_flash_ex.c **** 
 482:ThirdParty/STM32F4xx_HAL_Driver/Src/stm32f4xx_hal_flash_ex.c ****   /* Mask SPRMOD bit */
 483:ThirdParty/STM32F4xx_HAL_Driver/Src/stm32f4xx_hal_flash_ex.c ****   optiontmp =  (uint8_t)((*(__IO uint8_t *)OPTCR_BYTE3_ADDRESS) & (uint8_t)0x7F); 
 484:ThirdParty/STM32F4xx_HAL_Driver/Src/stm32f4xx_hal_flash_ex.c ****   
 485:ThirdParty/STM32F4xx_HAL_Driver/Src/stm32f4xx_hal_flash_ex.c ****   /* Update Option Byte */
 486:ThirdParty/STM32F4xx_HAL_Driver/Src/stm32f4xx_hal_flash_ex.c ****   *(__IO uint8_t *)OPTCR_BYTE3_ADDRESS = (uint8_t)(OB_PCROP_SELECTED | optiontmp); 
ARM GAS  /tmp/ccHdxmpw.s 			page 10


 487:ThirdParty/STM32F4xx_HAL_Driver/Src/stm32f4xx_hal_flash_ex.c ****   
 488:ThirdParty/STM32F4xx_HAL_Driver/Src/stm32f4xx_hal_flash_ex.c ****   return HAL_OK;
 489:ThirdParty/STM32F4xx_HAL_Driver/Src/stm32f4xx_hal_flash_ex.c **** }
 490:ThirdParty/STM32F4xx_HAL_Driver/Src/stm32f4xx_hal_flash_ex.c **** 
 491:ThirdParty/STM32F4xx_HAL_Driver/Src/stm32f4xx_hal_flash_ex.c **** /**
 492:ThirdParty/STM32F4xx_HAL_Driver/Src/stm32f4xx_hal_flash_ex.c ****   * @brief  Deselect the Protection Mode 
 493:ThirdParty/STM32F4xx_HAL_Driver/Src/stm32f4xx_hal_flash_ex.c ****   * 
 494:ThirdParty/STM32F4xx_HAL_Driver/Src/stm32f4xx_hal_flash_ex.c ****   * @note   After PCROP activated Option Byte modification NOT POSSIBLE! excepted 
 495:ThirdParty/STM32F4xx_HAL_Driver/Src/stm32f4xx_hal_flash_ex.c ****   *         Global Read Out Protection modification (from level1 to level0) 
 496:ThirdParty/STM32F4xx_HAL_Driver/Src/stm32f4xx_hal_flash_ex.c ****   * @note   Once SPRMOD bit is active unprotection of a protected sector is not possible 
 497:ThirdParty/STM32F4xx_HAL_Driver/Src/stm32f4xx_hal_flash_ex.c ****   * @note   Read a protected sector will set RDERR Flag and write a protected sector will set WRPER
 498:ThirdParty/STM32F4xx_HAL_Driver/Src/stm32f4xx_hal_flash_ex.c ****   * @note   This function can be used only for STM32F42xxx/STM32F43xxx/STM32F401xx/STM32F411xx/STM3
 499:ThirdParty/STM32F4xx_HAL_Driver/Src/stm32f4xx_hal_flash_ex.c ****   *         STM32F469xx/STM32F479xx/STM32F412xx/STM32F413xx devices.
 500:ThirdParty/STM32F4xx_HAL_Driver/Src/stm32f4xx_hal_flash_ex.c ****   * 
 501:ThirdParty/STM32F4xx_HAL_Driver/Src/stm32f4xx_hal_flash_ex.c ****   * @retval HAL Status
 502:ThirdParty/STM32F4xx_HAL_Driver/Src/stm32f4xx_hal_flash_ex.c ****   */
 503:ThirdParty/STM32F4xx_HAL_Driver/Src/stm32f4xx_hal_flash_ex.c **** HAL_StatusTypeDef HAL_FLASHEx_OB_DeSelectPCROP(void)
 504:ThirdParty/STM32F4xx_HAL_Driver/Src/stm32f4xx_hal_flash_ex.c **** {
 505:ThirdParty/STM32F4xx_HAL_Driver/Src/stm32f4xx_hal_flash_ex.c ****   uint8_t optiontmp = 0xFF;
 506:ThirdParty/STM32F4xx_HAL_Driver/Src/stm32f4xx_hal_flash_ex.c ****   
 507:ThirdParty/STM32F4xx_HAL_Driver/Src/stm32f4xx_hal_flash_ex.c ****   /* Mask SPRMOD bit */
 508:ThirdParty/STM32F4xx_HAL_Driver/Src/stm32f4xx_hal_flash_ex.c ****   optiontmp =  (uint8_t)((*(__IO uint8_t *)OPTCR_BYTE3_ADDRESS) & (uint8_t)0x7F); 
 509:ThirdParty/STM32F4xx_HAL_Driver/Src/stm32f4xx_hal_flash_ex.c ****   
 510:ThirdParty/STM32F4xx_HAL_Driver/Src/stm32f4xx_hal_flash_ex.c ****   /* Update Option Byte */
 511:ThirdParty/STM32F4xx_HAL_Driver/Src/stm32f4xx_hal_flash_ex.c ****   *(__IO uint8_t *)OPTCR_BYTE3_ADDRESS = (uint8_t)(OB_PCROP_DESELECTED | optiontmp);  
 512:ThirdParty/STM32F4xx_HAL_Driver/Src/stm32f4xx_hal_flash_ex.c ****   
 513:ThirdParty/STM32F4xx_HAL_Driver/Src/stm32f4xx_hal_flash_ex.c ****   return HAL_OK;
 514:ThirdParty/STM32F4xx_HAL_Driver/Src/stm32f4xx_hal_flash_ex.c **** }
 515:ThirdParty/STM32F4xx_HAL_Driver/Src/stm32f4xx_hal_flash_ex.c **** #endif /* STM32F427xx || STM32F437xx || STM32F429xx || STM32F439xx || STM32F401xC || STM32F401xE ||
 516:ThirdParty/STM32F4xx_HAL_Driver/Src/stm32f4xx_hal_flash_ex.c ****           STM32F411xE || STM32F469xx || STM32F479xx || STM32F412Zx || STM32F412Vx || STM32F412Rx ||
 517:ThirdParty/STM32F4xx_HAL_Driver/Src/stm32f4xx_hal_flash_ex.c ****           STM32F413xx || STM32F423xx */
 518:ThirdParty/STM32F4xx_HAL_Driver/Src/stm32f4xx_hal_flash_ex.c **** 
 519:ThirdParty/STM32F4xx_HAL_Driver/Src/stm32f4xx_hal_flash_ex.c **** #if defined(STM32F427xx) || defined(STM32F437xx) || defined(STM32F429xx)|| defined(STM32F439xx) || 
 520:ThirdParty/STM32F4xx_HAL_Driver/Src/stm32f4xx_hal_flash_ex.c **** /**
 521:ThirdParty/STM32F4xx_HAL_Driver/Src/stm32f4xx_hal_flash_ex.c ****   * @brief  Returns the FLASH Write Protection Option Bytes value for Bank 2
 522:ThirdParty/STM32F4xx_HAL_Driver/Src/stm32f4xx_hal_flash_ex.c ****   * @note   This function can be used only for STM32F42xxx/STM32F43xxx/STM32F469xx/STM32F479xx devi
 523:ThirdParty/STM32F4xx_HAL_Driver/Src/stm32f4xx_hal_flash_ex.c ****   * @retval The FLASH Write Protection  Option Bytes value
 524:ThirdParty/STM32F4xx_HAL_Driver/Src/stm32f4xx_hal_flash_ex.c ****   */
 525:ThirdParty/STM32F4xx_HAL_Driver/Src/stm32f4xx_hal_flash_ex.c **** uint16_t HAL_FLASHEx_OB_GetBank2WRP(void)
 526:ThirdParty/STM32F4xx_HAL_Driver/Src/stm32f4xx_hal_flash_ex.c **** {                            
 527:ThirdParty/STM32F4xx_HAL_Driver/Src/stm32f4xx_hal_flash_ex.c ****   /* Return the FLASH write protection Register value */
 528:ThirdParty/STM32F4xx_HAL_Driver/Src/stm32f4xx_hal_flash_ex.c ****   return (*(__IO uint16_t *)(OPTCR1_BYTE2_ADDRESS));
 529:ThirdParty/STM32F4xx_HAL_Driver/Src/stm32f4xx_hal_flash_ex.c **** }
 530:ThirdParty/STM32F4xx_HAL_Driver/Src/stm32f4xx_hal_flash_ex.c **** #endif /* STM32F427xx || STM32F437xx || STM32F429xx || STM32F439xx || STM32F469xx || STM32F479xx */
 531:ThirdParty/STM32F4xx_HAL_Driver/Src/stm32f4xx_hal_flash_ex.c **** 
 532:ThirdParty/STM32F4xx_HAL_Driver/Src/stm32f4xx_hal_flash_ex.c **** /**
 533:ThirdParty/STM32F4xx_HAL_Driver/Src/stm32f4xx_hal_flash_ex.c ****   * @}
 534:ThirdParty/STM32F4xx_HAL_Driver/Src/stm32f4xx_hal_flash_ex.c ****   */
 535:ThirdParty/STM32F4xx_HAL_Driver/Src/stm32f4xx_hal_flash_ex.c ****   
 536:ThirdParty/STM32F4xx_HAL_Driver/Src/stm32f4xx_hal_flash_ex.c **** #if defined(STM32F427xx) || defined(STM32F437xx) || defined(STM32F429xx) || defined(STM32F439xx) ||
 537:ThirdParty/STM32F4xx_HAL_Driver/Src/stm32f4xx_hal_flash_ex.c **** /**
 538:ThirdParty/STM32F4xx_HAL_Driver/Src/stm32f4xx_hal_flash_ex.c ****   * @brief  Full erase of FLASH memory sectors 
 539:ThirdParty/STM32F4xx_HAL_Driver/Src/stm32f4xx_hal_flash_ex.c ****   * @param  VoltageRange The device voltage range which defines the erase parallelism.  
 540:ThirdParty/STM32F4xx_HAL_Driver/Src/stm32f4xx_hal_flash_ex.c ****   *          This parameter can be one of the following values:
 541:ThirdParty/STM32F4xx_HAL_Driver/Src/stm32f4xx_hal_flash_ex.c ****   *            @arg FLASH_VOLTAGE_RANGE_1: when the device voltage range is 1.8V to 2.1V, 
 542:ThirdParty/STM32F4xx_HAL_Driver/Src/stm32f4xx_hal_flash_ex.c ****   *                                  the operation will be done by byte (8-bit) 
 543:ThirdParty/STM32F4xx_HAL_Driver/Src/stm32f4xx_hal_flash_ex.c ****   *            @arg FLASH_VOLTAGE_RANGE_2: when the device voltage range is 2.1V to 2.7V,
ARM GAS  /tmp/ccHdxmpw.s 			page 11


 544:ThirdParty/STM32F4xx_HAL_Driver/Src/stm32f4xx_hal_flash_ex.c ****   *                                  the operation will be done by half word (16-bit)
 545:ThirdParty/STM32F4xx_HAL_Driver/Src/stm32f4xx_hal_flash_ex.c ****   *            @arg FLASH_VOLTAGE_RANGE_3: when the device voltage range is 2.7V to 3.6V,
 546:ThirdParty/STM32F4xx_HAL_Driver/Src/stm32f4xx_hal_flash_ex.c ****   *                                  the operation will be done by word (32-bit)
 547:ThirdParty/STM32F4xx_HAL_Driver/Src/stm32f4xx_hal_flash_ex.c ****   *            @arg FLASH_VOLTAGE_RANGE_4: when the device voltage range is 2.7V to 3.6V + External
 548:ThirdParty/STM32F4xx_HAL_Driver/Src/stm32f4xx_hal_flash_ex.c ****   *                                  the operation will be done by double word (64-bit)
 549:ThirdParty/STM32F4xx_HAL_Driver/Src/stm32f4xx_hal_flash_ex.c ****   * 
 550:ThirdParty/STM32F4xx_HAL_Driver/Src/stm32f4xx_hal_flash_ex.c ****   * @param  Banks Banks to be erased
 551:ThirdParty/STM32F4xx_HAL_Driver/Src/stm32f4xx_hal_flash_ex.c ****   *          This parameter can be one of the following values:
 552:ThirdParty/STM32F4xx_HAL_Driver/Src/stm32f4xx_hal_flash_ex.c ****   *            @arg FLASH_BANK_1: Bank1 to be erased
 553:ThirdParty/STM32F4xx_HAL_Driver/Src/stm32f4xx_hal_flash_ex.c ****   *            @arg FLASH_BANK_2: Bank2 to be erased
 554:ThirdParty/STM32F4xx_HAL_Driver/Src/stm32f4xx_hal_flash_ex.c ****   *            @arg FLASH_BANK_BOTH: Bank1 and Bank2 to be erased
 555:ThirdParty/STM32F4xx_HAL_Driver/Src/stm32f4xx_hal_flash_ex.c ****   *
 556:ThirdParty/STM32F4xx_HAL_Driver/Src/stm32f4xx_hal_flash_ex.c ****   * @retval HAL Status
 557:ThirdParty/STM32F4xx_HAL_Driver/Src/stm32f4xx_hal_flash_ex.c ****   */
 558:ThirdParty/STM32F4xx_HAL_Driver/Src/stm32f4xx_hal_flash_ex.c **** static void FLASH_MassErase(uint8_t VoltageRange, uint32_t Banks)
 559:ThirdParty/STM32F4xx_HAL_Driver/Src/stm32f4xx_hal_flash_ex.c **** {
 560:ThirdParty/STM32F4xx_HAL_Driver/Src/stm32f4xx_hal_flash_ex.c ****   /* Check the parameters */
 561:ThirdParty/STM32F4xx_HAL_Driver/Src/stm32f4xx_hal_flash_ex.c ****   assert_param(IS_VOLTAGERANGE(VoltageRange));
 562:ThirdParty/STM32F4xx_HAL_Driver/Src/stm32f4xx_hal_flash_ex.c ****   assert_param(IS_FLASH_BANK(Banks));
 563:ThirdParty/STM32F4xx_HAL_Driver/Src/stm32f4xx_hal_flash_ex.c **** 
 564:ThirdParty/STM32F4xx_HAL_Driver/Src/stm32f4xx_hal_flash_ex.c ****   /* if the previous operation is completed, proceed to erase all sectors */
 565:ThirdParty/STM32F4xx_HAL_Driver/Src/stm32f4xx_hal_flash_ex.c ****   CLEAR_BIT(FLASH->CR, FLASH_CR_PSIZE);
 566:ThirdParty/STM32F4xx_HAL_Driver/Src/stm32f4xx_hal_flash_ex.c **** 
 567:ThirdParty/STM32F4xx_HAL_Driver/Src/stm32f4xx_hal_flash_ex.c ****   if(Banks == FLASH_BANK_BOTH)
 568:ThirdParty/STM32F4xx_HAL_Driver/Src/stm32f4xx_hal_flash_ex.c ****   {
 569:ThirdParty/STM32F4xx_HAL_Driver/Src/stm32f4xx_hal_flash_ex.c ****     /* bank1 & bank2 will be erased*/
 570:ThirdParty/STM32F4xx_HAL_Driver/Src/stm32f4xx_hal_flash_ex.c ****     FLASH->CR |= FLASH_MER_BIT;
 571:ThirdParty/STM32F4xx_HAL_Driver/Src/stm32f4xx_hal_flash_ex.c ****   }
 572:ThirdParty/STM32F4xx_HAL_Driver/Src/stm32f4xx_hal_flash_ex.c ****   else if(Banks == FLASH_BANK_1)
 573:ThirdParty/STM32F4xx_HAL_Driver/Src/stm32f4xx_hal_flash_ex.c ****   {
 574:ThirdParty/STM32F4xx_HAL_Driver/Src/stm32f4xx_hal_flash_ex.c ****     /*Only bank1 will be erased*/
 575:ThirdParty/STM32F4xx_HAL_Driver/Src/stm32f4xx_hal_flash_ex.c ****     FLASH->CR |= FLASH_CR_MER1;
 576:ThirdParty/STM32F4xx_HAL_Driver/Src/stm32f4xx_hal_flash_ex.c ****   }
 577:ThirdParty/STM32F4xx_HAL_Driver/Src/stm32f4xx_hal_flash_ex.c ****   else
 578:ThirdParty/STM32F4xx_HAL_Driver/Src/stm32f4xx_hal_flash_ex.c ****   {
 579:ThirdParty/STM32F4xx_HAL_Driver/Src/stm32f4xx_hal_flash_ex.c ****     /*Only bank2 will be erased*/
 580:ThirdParty/STM32F4xx_HAL_Driver/Src/stm32f4xx_hal_flash_ex.c ****     FLASH->CR |= FLASH_CR_MER2;
 581:ThirdParty/STM32F4xx_HAL_Driver/Src/stm32f4xx_hal_flash_ex.c ****   }
 582:ThirdParty/STM32F4xx_HAL_Driver/Src/stm32f4xx_hal_flash_ex.c ****   FLASH->CR |= FLASH_CR_STRT | ((uint32_t)VoltageRange <<8U);
 583:ThirdParty/STM32F4xx_HAL_Driver/Src/stm32f4xx_hal_flash_ex.c **** }
 584:ThirdParty/STM32F4xx_HAL_Driver/Src/stm32f4xx_hal_flash_ex.c **** 
 585:ThirdParty/STM32F4xx_HAL_Driver/Src/stm32f4xx_hal_flash_ex.c **** /**
 586:ThirdParty/STM32F4xx_HAL_Driver/Src/stm32f4xx_hal_flash_ex.c ****   * @brief  Erase the specified FLASH memory sector
 587:ThirdParty/STM32F4xx_HAL_Driver/Src/stm32f4xx_hal_flash_ex.c ****   * @param  Sector FLASH sector to erase
 588:ThirdParty/STM32F4xx_HAL_Driver/Src/stm32f4xx_hal_flash_ex.c ****   *         The value of this parameter depend on device used within the same series      
 589:ThirdParty/STM32F4xx_HAL_Driver/Src/stm32f4xx_hal_flash_ex.c ****   * @param  VoltageRange The device voltage range which defines the erase parallelism.  
 590:ThirdParty/STM32F4xx_HAL_Driver/Src/stm32f4xx_hal_flash_ex.c ****   *          This parameter can be one of the following values:
 591:ThirdParty/STM32F4xx_HAL_Driver/Src/stm32f4xx_hal_flash_ex.c ****   *            @arg FLASH_VOLTAGE_RANGE_1: when the device voltage range is 1.8V to 2.1V, 
 592:ThirdParty/STM32F4xx_HAL_Driver/Src/stm32f4xx_hal_flash_ex.c ****   *                                  the operation will be done by byte (8-bit) 
 593:ThirdParty/STM32F4xx_HAL_Driver/Src/stm32f4xx_hal_flash_ex.c ****   *            @arg FLASH_VOLTAGE_RANGE_2: when the device voltage range is 2.1V to 2.7V,
 594:ThirdParty/STM32F4xx_HAL_Driver/Src/stm32f4xx_hal_flash_ex.c ****   *                                  the operation will be done by half word (16-bit)
 595:ThirdParty/STM32F4xx_HAL_Driver/Src/stm32f4xx_hal_flash_ex.c ****   *            @arg FLASH_VOLTAGE_RANGE_3: when the device voltage range is 2.7V to 3.6V,
 596:ThirdParty/STM32F4xx_HAL_Driver/Src/stm32f4xx_hal_flash_ex.c ****   *                                  the operation will be done by word (32-bit)
 597:ThirdParty/STM32F4xx_HAL_Driver/Src/stm32f4xx_hal_flash_ex.c ****   *            @arg FLASH_VOLTAGE_RANGE_4: when the device voltage range is 2.7V to 3.6V + External
 598:ThirdParty/STM32F4xx_HAL_Driver/Src/stm32f4xx_hal_flash_ex.c ****   *                                  the operation will be done by double word (64-bit)
 599:ThirdParty/STM32F4xx_HAL_Driver/Src/stm32f4xx_hal_flash_ex.c ****   * 
 600:ThirdParty/STM32F4xx_HAL_Driver/Src/stm32f4xx_hal_flash_ex.c ****   * @retval None
ARM GAS  /tmp/ccHdxmpw.s 			page 12


 601:ThirdParty/STM32F4xx_HAL_Driver/Src/stm32f4xx_hal_flash_ex.c ****   */
 602:ThirdParty/STM32F4xx_HAL_Driver/Src/stm32f4xx_hal_flash_ex.c **** void FLASH_Erase_Sector(uint32_t Sector, uint8_t VoltageRange)
 603:ThirdParty/STM32F4xx_HAL_Driver/Src/stm32f4xx_hal_flash_ex.c **** {
 604:ThirdParty/STM32F4xx_HAL_Driver/Src/stm32f4xx_hal_flash_ex.c ****   uint32_t tmp_psize = 0U;
 605:ThirdParty/STM32F4xx_HAL_Driver/Src/stm32f4xx_hal_flash_ex.c **** 
 606:ThirdParty/STM32F4xx_HAL_Driver/Src/stm32f4xx_hal_flash_ex.c ****   /* Check the parameters */
 607:ThirdParty/STM32F4xx_HAL_Driver/Src/stm32f4xx_hal_flash_ex.c ****   assert_param(IS_FLASH_SECTOR(Sector));
 608:ThirdParty/STM32F4xx_HAL_Driver/Src/stm32f4xx_hal_flash_ex.c ****   assert_param(IS_VOLTAGERANGE(VoltageRange));
 609:ThirdParty/STM32F4xx_HAL_Driver/Src/stm32f4xx_hal_flash_ex.c ****   
 610:ThirdParty/STM32F4xx_HAL_Driver/Src/stm32f4xx_hal_flash_ex.c ****   if(VoltageRange == FLASH_VOLTAGE_RANGE_1)
 611:ThirdParty/STM32F4xx_HAL_Driver/Src/stm32f4xx_hal_flash_ex.c ****   {
 612:ThirdParty/STM32F4xx_HAL_Driver/Src/stm32f4xx_hal_flash_ex.c ****      tmp_psize = FLASH_PSIZE_BYTE;
 613:ThirdParty/STM32F4xx_HAL_Driver/Src/stm32f4xx_hal_flash_ex.c ****   }
 614:ThirdParty/STM32F4xx_HAL_Driver/Src/stm32f4xx_hal_flash_ex.c ****   else if(VoltageRange == FLASH_VOLTAGE_RANGE_2)
 615:ThirdParty/STM32F4xx_HAL_Driver/Src/stm32f4xx_hal_flash_ex.c ****   {
 616:ThirdParty/STM32F4xx_HAL_Driver/Src/stm32f4xx_hal_flash_ex.c ****     tmp_psize = FLASH_PSIZE_HALF_WORD;
 617:ThirdParty/STM32F4xx_HAL_Driver/Src/stm32f4xx_hal_flash_ex.c ****   }
 618:ThirdParty/STM32F4xx_HAL_Driver/Src/stm32f4xx_hal_flash_ex.c ****   else if(VoltageRange == FLASH_VOLTAGE_RANGE_3)
 619:ThirdParty/STM32F4xx_HAL_Driver/Src/stm32f4xx_hal_flash_ex.c ****   {
 620:ThirdParty/STM32F4xx_HAL_Driver/Src/stm32f4xx_hal_flash_ex.c ****     tmp_psize = FLASH_PSIZE_WORD;
 621:ThirdParty/STM32F4xx_HAL_Driver/Src/stm32f4xx_hal_flash_ex.c ****   }
 622:ThirdParty/STM32F4xx_HAL_Driver/Src/stm32f4xx_hal_flash_ex.c ****   else
 623:ThirdParty/STM32F4xx_HAL_Driver/Src/stm32f4xx_hal_flash_ex.c ****   {
 624:ThirdParty/STM32F4xx_HAL_Driver/Src/stm32f4xx_hal_flash_ex.c ****     tmp_psize = FLASH_PSIZE_DOUBLE_WORD;
 625:ThirdParty/STM32F4xx_HAL_Driver/Src/stm32f4xx_hal_flash_ex.c ****   }
 626:ThirdParty/STM32F4xx_HAL_Driver/Src/stm32f4xx_hal_flash_ex.c **** 
 627:ThirdParty/STM32F4xx_HAL_Driver/Src/stm32f4xx_hal_flash_ex.c ****   /* Need to add offset of 4 when sector higher than FLASH_SECTOR_11 */
 628:ThirdParty/STM32F4xx_HAL_Driver/Src/stm32f4xx_hal_flash_ex.c ****   if(Sector > FLASH_SECTOR_11) 
 629:ThirdParty/STM32F4xx_HAL_Driver/Src/stm32f4xx_hal_flash_ex.c ****   {
 630:ThirdParty/STM32F4xx_HAL_Driver/Src/stm32f4xx_hal_flash_ex.c ****     Sector += 4U;
 631:ThirdParty/STM32F4xx_HAL_Driver/Src/stm32f4xx_hal_flash_ex.c ****   }
 632:ThirdParty/STM32F4xx_HAL_Driver/Src/stm32f4xx_hal_flash_ex.c ****   /* If the previous operation is completed, proceed to erase the sector */
 633:ThirdParty/STM32F4xx_HAL_Driver/Src/stm32f4xx_hal_flash_ex.c ****   CLEAR_BIT(FLASH->CR, FLASH_CR_PSIZE);
 634:ThirdParty/STM32F4xx_HAL_Driver/Src/stm32f4xx_hal_flash_ex.c ****   FLASH->CR |= tmp_psize;
 635:ThirdParty/STM32F4xx_HAL_Driver/Src/stm32f4xx_hal_flash_ex.c ****   CLEAR_BIT(FLASH->CR, FLASH_CR_SNB);
 636:ThirdParty/STM32F4xx_HAL_Driver/Src/stm32f4xx_hal_flash_ex.c ****   FLASH->CR |= FLASH_CR_SER | (Sector << FLASH_CR_SNB_Pos);
 637:ThirdParty/STM32F4xx_HAL_Driver/Src/stm32f4xx_hal_flash_ex.c ****   FLASH->CR |= FLASH_CR_STRT;
 638:ThirdParty/STM32F4xx_HAL_Driver/Src/stm32f4xx_hal_flash_ex.c **** }
 639:ThirdParty/STM32F4xx_HAL_Driver/Src/stm32f4xx_hal_flash_ex.c **** 
 640:ThirdParty/STM32F4xx_HAL_Driver/Src/stm32f4xx_hal_flash_ex.c **** /**
 641:ThirdParty/STM32F4xx_HAL_Driver/Src/stm32f4xx_hal_flash_ex.c ****   * @brief  Enable the write protection of the desired bank1 or bank 2 sectors
 642:ThirdParty/STM32F4xx_HAL_Driver/Src/stm32f4xx_hal_flash_ex.c ****   *
 643:ThirdParty/STM32F4xx_HAL_Driver/Src/stm32f4xx_hal_flash_ex.c ****   * @note   When the memory read protection level is selected (RDP level = 1), 
 644:ThirdParty/STM32F4xx_HAL_Driver/Src/stm32f4xx_hal_flash_ex.c ****   *         it is not possible to program or erase the flash sector i if CortexM4  
 645:ThirdParty/STM32F4xx_HAL_Driver/Src/stm32f4xx_hal_flash_ex.c ****   *         debug features are connected or boot code is executed in RAM, even if nWRPi = 1 
 646:ThirdParty/STM32F4xx_HAL_Driver/Src/stm32f4xx_hal_flash_ex.c ****   * @note   Active value of nWRPi bits is inverted when PCROP mode is active (SPRMOD =1).   
 647:ThirdParty/STM32F4xx_HAL_Driver/Src/stm32f4xx_hal_flash_ex.c ****   * 
 648:ThirdParty/STM32F4xx_HAL_Driver/Src/stm32f4xx_hal_flash_ex.c ****   * @param  WRPSector specifies the sector(s) to be write protected.
 649:ThirdParty/STM32F4xx_HAL_Driver/Src/stm32f4xx_hal_flash_ex.c ****   *          This parameter can be one of the following values:
 650:ThirdParty/STM32F4xx_HAL_Driver/Src/stm32f4xx_hal_flash_ex.c ****   *            @arg WRPSector: A value between OB_WRP_SECTOR_0 and OB_WRP_SECTOR_23
 651:ThirdParty/STM32F4xx_HAL_Driver/Src/stm32f4xx_hal_flash_ex.c ****   *            @arg OB_WRP_SECTOR_All
 652:ThirdParty/STM32F4xx_HAL_Driver/Src/stm32f4xx_hal_flash_ex.c ****   * @note   BANK2 starts from OB_WRP_SECTOR_12
 653:ThirdParty/STM32F4xx_HAL_Driver/Src/stm32f4xx_hal_flash_ex.c ****   *
 654:ThirdParty/STM32F4xx_HAL_Driver/Src/stm32f4xx_hal_flash_ex.c ****   * @param  Banks Enable write protection on all the sectors for the specific bank
 655:ThirdParty/STM32F4xx_HAL_Driver/Src/stm32f4xx_hal_flash_ex.c ****   *          This parameter can be one of the following values:
 656:ThirdParty/STM32F4xx_HAL_Driver/Src/stm32f4xx_hal_flash_ex.c ****   *            @arg FLASH_BANK_1: WRP on all sectors of bank1
 657:ThirdParty/STM32F4xx_HAL_Driver/Src/stm32f4xx_hal_flash_ex.c ****   *            @arg FLASH_BANK_2: WRP on all sectors of bank2
ARM GAS  /tmp/ccHdxmpw.s 			page 13


 658:ThirdParty/STM32F4xx_HAL_Driver/Src/stm32f4xx_hal_flash_ex.c ****   *            @arg FLASH_BANK_BOTH: WRP on all sectors of bank1 & bank2
 659:ThirdParty/STM32F4xx_HAL_Driver/Src/stm32f4xx_hal_flash_ex.c ****   *
 660:ThirdParty/STM32F4xx_HAL_Driver/Src/stm32f4xx_hal_flash_ex.c ****   * @retval HAL FLASH State   
 661:ThirdParty/STM32F4xx_HAL_Driver/Src/stm32f4xx_hal_flash_ex.c ****   */
 662:ThirdParty/STM32F4xx_HAL_Driver/Src/stm32f4xx_hal_flash_ex.c **** static HAL_StatusTypeDef FLASH_OB_EnableWRP(uint32_t WRPSector, uint32_t Banks)
 663:ThirdParty/STM32F4xx_HAL_Driver/Src/stm32f4xx_hal_flash_ex.c **** {
 664:ThirdParty/STM32F4xx_HAL_Driver/Src/stm32f4xx_hal_flash_ex.c ****   HAL_StatusTypeDef status = HAL_OK;
 665:ThirdParty/STM32F4xx_HAL_Driver/Src/stm32f4xx_hal_flash_ex.c ****   
 666:ThirdParty/STM32F4xx_HAL_Driver/Src/stm32f4xx_hal_flash_ex.c ****   /* Check the parameters */
 667:ThirdParty/STM32F4xx_HAL_Driver/Src/stm32f4xx_hal_flash_ex.c ****   assert_param(IS_OB_WRP_SECTOR(WRPSector));
 668:ThirdParty/STM32F4xx_HAL_Driver/Src/stm32f4xx_hal_flash_ex.c ****   assert_param(IS_FLASH_BANK(Banks));
 669:ThirdParty/STM32F4xx_HAL_Driver/Src/stm32f4xx_hal_flash_ex.c ****     
 670:ThirdParty/STM32F4xx_HAL_Driver/Src/stm32f4xx_hal_flash_ex.c ****   /* Wait for last operation to be completed */
 671:ThirdParty/STM32F4xx_HAL_Driver/Src/stm32f4xx_hal_flash_ex.c ****   status = FLASH_WaitForLastOperation((uint32_t)FLASH_TIMEOUT_VALUE);
 672:ThirdParty/STM32F4xx_HAL_Driver/Src/stm32f4xx_hal_flash_ex.c **** 
 673:ThirdParty/STM32F4xx_HAL_Driver/Src/stm32f4xx_hal_flash_ex.c ****   if(status == HAL_OK)
 674:ThirdParty/STM32F4xx_HAL_Driver/Src/stm32f4xx_hal_flash_ex.c ****   {
 675:ThirdParty/STM32F4xx_HAL_Driver/Src/stm32f4xx_hal_flash_ex.c ****     if(((WRPSector == OB_WRP_SECTOR_All) && ((Banks == FLASH_BANK_1) || (Banks == FLASH_BANK_BOTH))
 676:ThirdParty/STM32F4xx_HAL_Driver/Src/stm32f4xx_hal_flash_ex.c ****          (WRPSector < OB_WRP_SECTOR_12))
 677:ThirdParty/STM32F4xx_HAL_Driver/Src/stm32f4xx_hal_flash_ex.c ****     {
 678:ThirdParty/STM32F4xx_HAL_Driver/Src/stm32f4xx_hal_flash_ex.c ****        if(WRPSector == OB_WRP_SECTOR_All)
 679:ThirdParty/STM32F4xx_HAL_Driver/Src/stm32f4xx_hal_flash_ex.c ****        {
 680:ThirdParty/STM32F4xx_HAL_Driver/Src/stm32f4xx_hal_flash_ex.c ****           /*Write protection on all sector of BANK1*/
 681:ThirdParty/STM32F4xx_HAL_Driver/Src/stm32f4xx_hal_flash_ex.c ****           *(__IO uint16_t*)OPTCR_BYTE2_ADDRESS &= (~(WRPSector>>12));  
 682:ThirdParty/STM32F4xx_HAL_Driver/Src/stm32f4xx_hal_flash_ex.c ****        }
 683:ThirdParty/STM32F4xx_HAL_Driver/Src/stm32f4xx_hal_flash_ex.c ****        else
 684:ThirdParty/STM32F4xx_HAL_Driver/Src/stm32f4xx_hal_flash_ex.c ****        {
 685:ThirdParty/STM32F4xx_HAL_Driver/Src/stm32f4xx_hal_flash_ex.c ****           /*Write protection done on sectors of BANK1*/
 686:ThirdParty/STM32F4xx_HAL_Driver/Src/stm32f4xx_hal_flash_ex.c ****           *(__IO uint16_t*)OPTCR_BYTE2_ADDRESS &= (~WRPSector);  
 687:ThirdParty/STM32F4xx_HAL_Driver/Src/stm32f4xx_hal_flash_ex.c ****        }
 688:ThirdParty/STM32F4xx_HAL_Driver/Src/stm32f4xx_hal_flash_ex.c ****     }
 689:ThirdParty/STM32F4xx_HAL_Driver/Src/stm32f4xx_hal_flash_ex.c ****     else 
 690:ThirdParty/STM32F4xx_HAL_Driver/Src/stm32f4xx_hal_flash_ex.c ****     {
 691:ThirdParty/STM32F4xx_HAL_Driver/Src/stm32f4xx_hal_flash_ex.c ****       /*Write protection done on sectors of BANK2*/
 692:ThirdParty/STM32F4xx_HAL_Driver/Src/stm32f4xx_hal_flash_ex.c ****       *(__IO uint16_t*)OPTCR1_BYTE2_ADDRESS &= (~(WRPSector>>12));  
 693:ThirdParty/STM32F4xx_HAL_Driver/Src/stm32f4xx_hal_flash_ex.c ****     }
 694:ThirdParty/STM32F4xx_HAL_Driver/Src/stm32f4xx_hal_flash_ex.c **** 
 695:ThirdParty/STM32F4xx_HAL_Driver/Src/stm32f4xx_hal_flash_ex.c ****     /*Write protection on all sector of BANK2*/
 696:ThirdParty/STM32F4xx_HAL_Driver/Src/stm32f4xx_hal_flash_ex.c ****     if((WRPSector == OB_WRP_SECTOR_All) && (Banks == FLASH_BANK_BOTH))
 697:ThirdParty/STM32F4xx_HAL_Driver/Src/stm32f4xx_hal_flash_ex.c ****     {
 698:ThirdParty/STM32F4xx_HAL_Driver/Src/stm32f4xx_hal_flash_ex.c ****       /* Wait for last operation to be completed */
 699:ThirdParty/STM32F4xx_HAL_Driver/Src/stm32f4xx_hal_flash_ex.c ****       status = FLASH_WaitForLastOperation((uint32_t)FLASH_TIMEOUT_VALUE);
 700:ThirdParty/STM32F4xx_HAL_Driver/Src/stm32f4xx_hal_flash_ex.c ****       
 701:ThirdParty/STM32F4xx_HAL_Driver/Src/stm32f4xx_hal_flash_ex.c ****       if(status == HAL_OK)
 702:ThirdParty/STM32F4xx_HAL_Driver/Src/stm32f4xx_hal_flash_ex.c ****       { 
 703:ThirdParty/STM32F4xx_HAL_Driver/Src/stm32f4xx_hal_flash_ex.c ****         *(__IO uint16_t*)OPTCR1_BYTE2_ADDRESS &= (~(WRPSector>>12));  
 704:ThirdParty/STM32F4xx_HAL_Driver/Src/stm32f4xx_hal_flash_ex.c ****       }
 705:ThirdParty/STM32F4xx_HAL_Driver/Src/stm32f4xx_hal_flash_ex.c ****     }
 706:ThirdParty/STM32F4xx_HAL_Driver/Src/stm32f4xx_hal_flash_ex.c ****     
 707:ThirdParty/STM32F4xx_HAL_Driver/Src/stm32f4xx_hal_flash_ex.c ****   }
 708:ThirdParty/STM32F4xx_HAL_Driver/Src/stm32f4xx_hal_flash_ex.c ****   return status;
 709:ThirdParty/STM32F4xx_HAL_Driver/Src/stm32f4xx_hal_flash_ex.c **** }
 710:ThirdParty/STM32F4xx_HAL_Driver/Src/stm32f4xx_hal_flash_ex.c **** 
 711:ThirdParty/STM32F4xx_HAL_Driver/Src/stm32f4xx_hal_flash_ex.c **** /**
 712:ThirdParty/STM32F4xx_HAL_Driver/Src/stm32f4xx_hal_flash_ex.c ****   * @brief  Disable the write protection of the desired bank1 or bank 2 sectors
 713:ThirdParty/STM32F4xx_HAL_Driver/Src/stm32f4xx_hal_flash_ex.c ****   *
 714:ThirdParty/STM32F4xx_HAL_Driver/Src/stm32f4xx_hal_flash_ex.c ****   * @note   When the memory read protection level is selected (RDP level = 1), 
ARM GAS  /tmp/ccHdxmpw.s 			page 14


 715:ThirdParty/STM32F4xx_HAL_Driver/Src/stm32f4xx_hal_flash_ex.c ****   *         it is not possible to program or erase the flash sector i if CortexM4  
 716:ThirdParty/STM32F4xx_HAL_Driver/Src/stm32f4xx_hal_flash_ex.c ****   *         debug features are connected or boot code is executed in RAM, even if nWRPi = 1 
 717:ThirdParty/STM32F4xx_HAL_Driver/Src/stm32f4xx_hal_flash_ex.c ****   * @note   Active value of nWRPi bits is inverted when PCROP mode is active (SPRMOD =1).   
 718:ThirdParty/STM32F4xx_HAL_Driver/Src/stm32f4xx_hal_flash_ex.c ****   * 
 719:ThirdParty/STM32F4xx_HAL_Driver/Src/stm32f4xx_hal_flash_ex.c ****   * @param  WRPSector specifies the sector(s) to be write protected.
 720:ThirdParty/STM32F4xx_HAL_Driver/Src/stm32f4xx_hal_flash_ex.c ****   *          This parameter can be one of the following values:
 721:ThirdParty/STM32F4xx_HAL_Driver/Src/stm32f4xx_hal_flash_ex.c ****   *            @arg WRPSector: A value between OB_WRP_SECTOR_0 and OB_WRP_SECTOR_23
 722:ThirdParty/STM32F4xx_HAL_Driver/Src/stm32f4xx_hal_flash_ex.c ****   *            @arg OB_WRP_Sector_All
 723:ThirdParty/STM32F4xx_HAL_Driver/Src/stm32f4xx_hal_flash_ex.c ****   * @note   BANK2 starts from OB_WRP_SECTOR_12
 724:ThirdParty/STM32F4xx_HAL_Driver/Src/stm32f4xx_hal_flash_ex.c ****   *
 725:ThirdParty/STM32F4xx_HAL_Driver/Src/stm32f4xx_hal_flash_ex.c ****   * @param  Banks Disable write protection on all the sectors for the specific bank
 726:ThirdParty/STM32F4xx_HAL_Driver/Src/stm32f4xx_hal_flash_ex.c ****   *          This parameter can be one of the following values:
 727:ThirdParty/STM32F4xx_HAL_Driver/Src/stm32f4xx_hal_flash_ex.c ****   *            @arg FLASH_BANK_1: Bank1 to be erased
 728:ThirdParty/STM32F4xx_HAL_Driver/Src/stm32f4xx_hal_flash_ex.c ****   *            @arg FLASH_BANK_2: Bank2 to be erased
 729:ThirdParty/STM32F4xx_HAL_Driver/Src/stm32f4xx_hal_flash_ex.c ****   *            @arg FLASH_BANK_BOTH: Bank1 and Bank2 to be erased
 730:ThirdParty/STM32F4xx_HAL_Driver/Src/stm32f4xx_hal_flash_ex.c ****   *
 731:ThirdParty/STM32F4xx_HAL_Driver/Src/stm32f4xx_hal_flash_ex.c ****   * @retval HAL Status   
 732:ThirdParty/STM32F4xx_HAL_Driver/Src/stm32f4xx_hal_flash_ex.c ****   */
 733:ThirdParty/STM32F4xx_HAL_Driver/Src/stm32f4xx_hal_flash_ex.c **** static HAL_StatusTypeDef FLASH_OB_DisableWRP(uint32_t WRPSector, uint32_t Banks)
 734:ThirdParty/STM32F4xx_HAL_Driver/Src/stm32f4xx_hal_flash_ex.c **** {
 735:ThirdParty/STM32F4xx_HAL_Driver/Src/stm32f4xx_hal_flash_ex.c ****   HAL_StatusTypeDef status = HAL_OK;
 736:ThirdParty/STM32F4xx_HAL_Driver/Src/stm32f4xx_hal_flash_ex.c ****   
 737:ThirdParty/STM32F4xx_HAL_Driver/Src/stm32f4xx_hal_flash_ex.c ****   /* Check the parameters */
 738:ThirdParty/STM32F4xx_HAL_Driver/Src/stm32f4xx_hal_flash_ex.c ****   assert_param(IS_OB_WRP_SECTOR(WRPSector));
 739:ThirdParty/STM32F4xx_HAL_Driver/Src/stm32f4xx_hal_flash_ex.c ****   assert_param(IS_FLASH_BANK(Banks));
 740:ThirdParty/STM32F4xx_HAL_Driver/Src/stm32f4xx_hal_flash_ex.c ****     
 741:ThirdParty/STM32F4xx_HAL_Driver/Src/stm32f4xx_hal_flash_ex.c ****   /* Wait for last operation to be completed */
 742:ThirdParty/STM32F4xx_HAL_Driver/Src/stm32f4xx_hal_flash_ex.c ****   status = FLASH_WaitForLastOperation((uint32_t)FLASH_TIMEOUT_VALUE);
 743:ThirdParty/STM32F4xx_HAL_Driver/Src/stm32f4xx_hal_flash_ex.c **** 
 744:ThirdParty/STM32F4xx_HAL_Driver/Src/stm32f4xx_hal_flash_ex.c ****   if(status == HAL_OK)
 745:ThirdParty/STM32F4xx_HAL_Driver/Src/stm32f4xx_hal_flash_ex.c ****   {
 746:ThirdParty/STM32F4xx_HAL_Driver/Src/stm32f4xx_hal_flash_ex.c ****     if(((WRPSector == OB_WRP_SECTOR_All) && ((Banks == FLASH_BANK_1) || (Banks == FLASH_BANK_BOTH))
 747:ThirdParty/STM32F4xx_HAL_Driver/Src/stm32f4xx_hal_flash_ex.c ****          (WRPSector < OB_WRP_SECTOR_12))
 748:ThirdParty/STM32F4xx_HAL_Driver/Src/stm32f4xx_hal_flash_ex.c ****     {
 749:ThirdParty/STM32F4xx_HAL_Driver/Src/stm32f4xx_hal_flash_ex.c ****        if(WRPSector == OB_WRP_SECTOR_All)
 750:ThirdParty/STM32F4xx_HAL_Driver/Src/stm32f4xx_hal_flash_ex.c ****        {
 751:ThirdParty/STM32F4xx_HAL_Driver/Src/stm32f4xx_hal_flash_ex.c ****           /*Write protection on all sector of BANK1*/
 752:ThirdParty/STM32F4xx_HAL_Driver/Src/stm32f4xx_hal_flash_ex.c ****           *(__IO uint16_t*)OPTCR_BYTE2_ADDRESS |= (uint16_t)(WRPSector>>12); 
 753:ThirdParty/STM32F4xx_HAL_Driver/Src/stm32f4xx_hal_flash_ex.c ****        }
 754:ThirdParty/STM32F4xx_HAL_Driver/Src/stm32f4xx_hal_flash_ex.c ****        else
 755:ThirdParty/STM32F4xx_HAL_Driver/Src/stm32f4xx_hal_flash_ex.c ****        {
 756:ThirdParty/STM32F4xx_HAL_Driver/Src/stm32f4xx_hal_flash_ex.c ****           /*Write protection done on sectors of BANK1*/
 757:ThirdParty/STM32F4xx_HAL_Driver/Src/stm32f4xx_hal_flash_ex.c ****           *(__IO uint16_t*)OPTCR_BYTE2_ADDRESS |= (uint16_t)WRPSector; 
 758:ThirdParty/STM32F4xx_HAL_Driver/Src/stm32f4xx_hal_flash_ex.c ****        }
 759:ThirdParty/STM32F4xx_HAL_Driver/Src/stm32f4xx_hal_flash_ex.c ****     }
 760:ThirdParty/STM32F4xx_HAL_Driver/Src/stm32f4xx_hal_flash_ex.c ****     else 
 761:ThirdParty/STM32F4xx_HAL_Driver/Src/stm32f4xx_hal_flash_ex.c ****     {
 762:ThirdParty/STM32F4xx_HAL_Driver/Src/stm32f4xx_hal_flash_ex.c ****       /*Write protection done on sectors of BANK2*/
 763:ThirdParty/STM32F4xx_HAL_Driver/Src/stm32f4xx_hal_flash_ex.c ****       *(__IO uint16_t*)OPTCR1_BYTE2_ADDRESS |= (uint16_t)(WRPSector>>12); 
 764:ThirdParty/STM32F4xx_HAL_Driver/Src/stm32f4xx_hal_flash_ex.c ****     }
 765:ThirdParty/STM32F4xx_HAL_Driver/Src/stm32f4xx_hal_flash_ex.c **** 
 766:ThirdParty/STM32F4xx_HAL_Driver/Src/stm32f4xx_hal_flash_ex.c ****     /*Write protection on all sector  of BANK2*/
 767:ThirdParty/STM32F4xx_HAL_Driver/Src/stm32f4xx_hal_flash_ex.c ****     if((WRPSector == OB_WRP_SECTOR_All) && (Banks == FLASH_BANK_BOTH))
 768:ThirdParty/STM32F4xx_HAL_Driver/Src/stm32f4xx_hal_flash_ex.c ****     {
 769:ThirdParty/STM32F4xx_HAL_Driver/Src/stm32f4xx_hal_flash_ex.c ****       /* Wait for last operation to be completed */
 770:ThirdParty/STM32F4xx_HAL_Driver/Src/stm32f4xx_hal_flash_ex.c ****       status = FLASH_WaitForLastOperation((uint32_t)FLASH_TIMEOUT_VALUE);
 771:ThirdParty/STM32F4xx_HAL_Driver/Src/stm32f4xx_hal_flash_ex.c ****       
ARM GAS  /tmp/ccHdxmpw.s 			page 15


 772:ThirdParty/STM32F4xx_HAL_Driver/Src/stm32f4xx_hal_flash_ex.c ****       if(status == HAL_OK)
 773:ThirdParty/STM32F4xx_HAL_Driver/Src/stm32f4xx_hal_flash_ex.c ****       { 
 774:ThirdParty/STM32F4xx_HAL_Driver/Src/stm32f4xx_hal_flash_ex.c ****         *(__IO uint16_t*)OPTCR1_BYTE2_ADDRESS |= (uint16_t)(WRPSector>>12); 
 775:ThirdParty/STM32F4xx_HAL_Driver/Src/stm32f4xx_hal_flash_ex.c ****       }
 776:ThirdParty/STM32F4xx_HAL_Driver/Src/stm32f4xx_hal_flash_ex.c ****     }
 777:ThirdParty/STM32F4xx_HAL_Driver/Src/stm32f4xx_hal_flash_ex.c ****     
 778:ThirdParty/STM32F4xx_HAL_Driver/Src/stm32f4xx_hal_flash_ex.c ****   }
 779:ThirdParty/STM32F4xx_HAL_Driver/Src/stm32f4xx_hal_flash_ex.c **** 
 780:ThirdParty/STM32F4xx_HAL_Driver/Src/stm32f4xx_hal_flash_ex.c ****   return status;
 781:ThirdParty/STM32F4xx_HAL_Driver/Src/stm32f4xx_hal_flash_ex.c **** }
 782:ThirdParty/STM32F4xx_HAL_Driver/Src/stm32f4xx_hal_flash_ex.c **** 
 783:ThirdParty/STM32F4xx_HAL_Driver/Src/stm32f4xx_hal_flash_ex.c **** /**
 784:ThirdParty/STM32F4xx_HAL_Driver/Src/stm32f4xx_hal_flash_ex.c ****   * @brief  Configure the Dual Bank Boot.
 785:ThirdParty/STM32F4xx_HAL_Driver/Src/stm32f4xx_hal_flash_ex.c ****   *   
 786:ThirdParty/STM32F4xx_HAL_Driver/Src/stm32f4xx_hal_flash_ex.c ****   * @note   This function can be used only for STM32F42xxx/43xxx devices.
 787:ThirdParty/STM32F4xx_HAL_Driver/Src/stm32f4xx_hal_flash_ex.c ****   *      
 788:ThirdParty/STM32F4xx_HAL_Driver/Src/stm32f4xx_hal_flash_ex.c ****   * @param  BootConfig specifies the Dual Bank Boot Option byte.
 789:ThirdParty/STM32F4xx_HAL_Driver/Src/stm32f4xx_hal_flash_ex.c ****   *          This parameter can be one of the following values:
 790:ThirdParty/STM32F4xx_HAL_Driver/Src/stm32f4xx_hal_flash_ex.c ****   *            @arg OB_Dual_BootEnabled: Dual Bank Boot Enable
 791:ThirdParty/STM32F4xx_HAL_Driver/Src/stm32f4xx_hal_flash_ex.c ****   *            @arg OB_Dual_BootDisabled: Dual Bank Boot Disabled
 792:ThirdParty/STM32F4xx_HAL_Driver/Src/stm32f4xx_hal_flash_ex.c ****   * @retval None
 793:ThirdParty/STM32F4xx_HAL_Driver/Src/stm32f4xx_hal_flash_ex.c ****   */
 794:ThirdParty/STM32F4xx_HAL_Driver/Src/stm32f4xx_hal_flash_ex.c **** static HAL_StatusTypeDef FLASH_OB_BootConfig(uint8_t BootConfig)
 795:ThirdParty/STM32F4xx_HAL_Driver/Src/stm32f4xx_hal_flash_ex.c **** {
 796:ThirdParty/STM32F4xx_HAL_Driver/Src/stm32f4xx_hal_flash_ex.c ****   HAL_StatusTypeDef status = HAL_OK;
 797:ThirdParty/STM32F4xx_HAL_Driver/Src/stm32f4xx_hal_flash_ex.c **** 
 798:ThirdParty/STM32F4xx_HAL_Driver/Src/stm32f4xx_hal_flash_ex.c ****   /* Check the parameters */
 799:ThirdParty/STM32F4xx_HAL_Driver/Src/stm32f4xx_hal_flash_ex.c ****   assert_param(IS_OB_BOOT(BootConfig));
 800:ThirdParty/STM32F4xx_HAL_Driver/Src/stm32f4xx_hal_flash_ex.c **** 
 801:ThirdParty/STM32F4xx_HAL_Driver/Src/stm32f4xx_hal_flash_ex.c ****   /* Wait for last operation to be completed */  
 802:ThirdParty/STM32F4xx_HAL_Driver/Src/stm32f4xx_hal_flash_ex.c ****   status = FLASH_WaitForLastOperation((uint32_t)FLASH_TIMEOUT_VALUE);
 803:ThirdParty/STM32F4xx_HAL_Driver/Src/stm32f4xx_hal_flash_ex.c **** 
 804:ThirdParty/STM32F4xx_HAL_Driver/Src/stm32f4xx_hal_flash_ex.c ****   if(status == HAL_OK)
 805:ThirdParty/STM32F4xx_HAL_Driver/Src/stm32f4xx_hal_flash_ex.c ****   { 
 806:ThirdParty/STM32F4xx_HAL_Driver/Src/stm32f4xx_hal_flash_ex.c ****     /* Set Dual Bank Boot */
 807:ThirdParty/STM32F4xx_HAL_Driver/Src/stm32f4xx_hal_flash_ex.c ****     *(__IO uint8_t *)OPTCR_BYTE0_ADDRESS &= (~FLASH_OPTCR_BFB2);
 808:ThirdParty/STM32F4xx_HAL_Driver/Src/stm32f4xx_hal_flash_ex.c ****     *(__IO uint8_t *)OPTCR_BYTE0_ADDRESS |= BootConfig;
 809:ThirdParty/STM32F4xx_HAL_Driver/Src/stm32f4xx_hal_flash_ex.c ****   }
 810:ThirdParty/STM32F4xx_HAL_Driver/Src/stm32f4xx_hal_flash_ex.c ****   
 811:ThirdParty/STM32F4xx_HAL_Driver/Src/stm32f4xx_hal_flash_ex.c ****   return status;
 812:ThirdParty/STM32F4xx_HAL_Driver/Src/stm32f4xx_hal_flash_ex.c **** }
 813:ThirdParty/STM32F4xx_HAL_Driver/Src/stm32f4xx_hal_flash_ex.c **** 
 814:ThirdParty/STM32F4xx_HAL_Driver/Src/stm32f4xx_hal_flash_ex.c **** /**
 815:ThirdParty/STM32F4xx_HAL_Driver/Src/stm32f4xx_hal_flash_ex.c ****   * @brief  Enable the read/write protection (PCROP) of the desired 
 816:ThirdParty/STM32F4xx_HAL_Driver/Src/stm32f4xx_hal_flash_ex.c ****   *         sectors of Bank 1 and/or Bank 2.
 817:ThirdParty/STM32F4xx_HAL_Driver/Src/stm32f4xx_hal_flash_ex.c ****   * @note   This function can be used only for STM32F42xxx/43xxx devices.
 818:ThirdParty/STM32F4xx_HAL_Driver/Src/stm32f4xx_hal_flash_ex.c ****   * @param  SectorBank1 Specifies the sector(s) to be read/write protected or unprotected for bank1
 819:ThirdParty/STM32F4xx_HAL_Driver/Src/stm32f4xx_hal_flash_ex.c ****   *          This parameter can be one of the following values:
 820:ThirdParty/STM32F4xx_HAL_Driver/Src/stm32f4xx_hal_flash_ex.c ****   *            @arg OB_PCROP: A value between OB_PCROP_SECTOR_0 and OB_PCROP_SECTOR_11
 821:ThirdParty/STM32F4xx_HAL_Driver/Src/stm32f4xx_hal_flash_ex.c ****   *            @arg OB_PCROP_SECTOR__All                         
 822:ThirdParty/STM32F4xx_HAL_Driver/Src/stm32f4xx_hal_flash_ex.c ****   * @param  SectorBank2 Specifies the sector(s) to be read/write protected or unprotected for bank2
 823:ThirdParty/STM32F4xx_HAL_Driver/Src/stm32f4xx_hal_flash_ex.c ****   *          This parameter can be one of the following values:
 824:ThirdParty/STM32F4xx_HAL_Driver/Src/stm32f4xx_hal_flash_ex.c ****   *            @arg OB_PCROP: A value between OB_PCROP_SECTOR_12 and OB_PCROP_SECTOR_23
 825:ThirdParty/STM32F4xx_HAL_Driver/Src/stm32f4xx_hal_flash_ex.c ****   *            @arg OB_PCROP_SECTOR__All                         
 826:ThirdParty/STM32F4xx_HAL_Driver/Src/stm32f4xx_hal_flash_ex.c ****   * @param  Banks Enable PCROP protection on all the sectors for the specific bank
 827:ThirdParty/STM32F4xx_HAL_Driver/Src/stm32f4xx_hal_flash_ex.c ****   *          This parameter can be one of the following values:
 828:ThirdParty/STM32F4xx_HAL_Driver/Src/stm32f4xx_hal_flash_ex.c ****   *            @arg FLASH_BANK_1: WRP on all sectors of bank1
ARM GAS  /tmp/ccHdxmpw.s 			page 16


 829:ThirdParty/STM32F4xx_HAL_Driver/Src/stm32f4xx_hal_flash_ex.c ****   *            @arg FLASH_BANK_2: WRP on all sectors of bank2
 830:ThirdParty/STM32F4xx_HAL_Driver/Src/stm32f4xx_hal_flash_ex.c ****   *            @arg FLASH_BANK_BOTH: WRP on all sectors of bank1 & bank2
 831:ThirdParty/STM32F4xx_HAL_Driver/Src/stm32f4xx_hal_flash_ex.c ****   *
 832:ThirdParty/STM32F4xx_HAL_Driver/Src/stm32f4xx_hal_flash_ex.c ****   * @retval HAL Status  
 833:ThirdParty/STM32F4xx_HAL_Driver/Src/stm32f4xx_hal_flash_ex.c ****   */
 834:ThirdParty/STM32F4xx_HAL_Driver/Src/stm32f4xx_hal_flash_ex.c **** static HAL_StatusTypeDef FLASH_OB_EnablePCROP(uint32_t SectorBank1, uint32_t SectorBank2, uint32_t 
 835:ThirdParty/STM32F4xx_HAL_Driver/Src/stm32f4xx_hal_flash_ex.c **** {
 836:ThirdParty/STM32F4xx_HAL_Driver/Src/stm32f4xx_hal_flash_ex.c ****   HAL_StatusTypeDef status = HAL_OK;
 837:ThirdParty/STM32F4xx_HAL_Driver/Src/stm32f4xx_hal_flash_ex.c ****   
 838:ThirdParty/STM32F4xx_HAL_Driver/Src/stm32f4xx_hal_flash_ex.c ****   assert_param(IS_FLASH_BANK(Banks));
 839:ThirdParty/STM32F4xx_HAL_Driver/Src/stm32f4xx_hal_flash_ex.c ****     
 840:ThirdParty/STM32F4xx_HAL_Driver/Src/stm32f4xx_hal_flash_ex.c ****   /* Wait for last operation to be completed */
 841:ThirdParty/STM32F4xx_HAL_Driver/Src/stm32f4xx_hal_flash_ex.c ****   status = FLASH_WaitForLastOperation((uint32_t)FLASH_TIMEOUT_VALUE);
 842:ThirdParty/STM32F4xx_HAL_Driver/Src/stm32f4xx_hal_flash_ex.c **** 
 843:ThirdParty/STM32F4xx_HAL_Driver/Src/stm32f4xx_hal_flash_ex.c ****   if(status == HAL_OK)
 844:ThirdParty/STM32F4xx_HAL_Driver/Src/stm32f4xx_hal_flash_ex.c ****   {
 845:ThirdParty/STM32F4xx_HAL_Driver/Src/stm32f4xx_hal_flash_ex.c ****     if((Banks == FLASH_BANK_1) || (Banks == FLASH_BANK_BOTH))
 846:ThirdParty/STM32F4xx_HAL_Driver/Src/stm32f4xx_hal_flash_ex.c ****     {
 847:ThirdParty/STM32F4xx_HAL_Driver/Src/stm32f4xx_hal_flash_ex.c ****       assert_param(IS_OB_PCROP(SectorBank1));
 848:ThirdParty/STM32F4xx_HAL_Driver/Src/stm32f4xx_hal_flash_ex.c ****       /*Write protection done on sectors of BANK1*/
 849:ThirdParty/STM32F4xx_HAL_Driver/Src/stm32f4xx_hal_flash_ex.c ****       *(__IO uint16_t*)OPTCR_BYTE2_ADDRESS |= (uint16_t)SectorBank1; 
 850:ThirdParty/STM32F4xx_HAL_Driver/Src/stm32f4xx_hal_flash_ex.c ****     }
 851:ThirdParty/STM32F4xx_HAL_Driver/Src/stm32f4xx_hal_flash_ex.c ****     else 
 852:ThirdParty/STM32F4xx_HAL_Driver/Src/stm32f4xx_hal_flash_ex.c ****     {
 853:ThirdParty/STM32F4xx_HAL_Driver/Src/stm32f4xx_hal_flash_ex.c ****       assert_param(IS_OB_PCROP(SectorBank2));
 854:ThirdParty/STM32F4xx_HAL_Driver/Src/stm32f4xx_hal_flash_ex.c ****       /*Write protection done on sectors of BANK2*/
 855:ThirdParty/STM32F4xx_HAL_Driver/Src/stm32f4xx_hal_flash_ex.c ****       *(__IO uint16_t*)OPTCR1_BYTE2_ADDRESS |= (uint16_t)SectorBank2; 
 856:ThirdParty/STM32F4xx_HAL_Driver/Src/stm32f4xx_hal_flash_ex.c ****     }
 857:ThirdParty/STM32F4xx_HAL_Driver/Src/stm32f4xx_hal_flash_ex.c **** 
 858:ThirdParty/STM32F4xx_HAL_Driver/Src/stm32f4xx_hal_flash_ex.c ****     /*Write protection on all sector  of BANK2*/
 859:ThirdParty/STM32F4xx_HAL_Driver/Src/stm32f4xx_hal_flash_ex.c ****     if(Banks == FLASH_BANK_BOTH)
 860:ThirdParty/STM32F4xx_HAL_Driver/Src/stm32f4xx_hal_flash_ex.c ****     {
 861:ThirdParty/STM32F4xx_HAL_Driver/Src/stm32f4xx_hal_flash_ex.c ****       assert_param(IS_OB_PCROP(SectorBank2));
 862:ThirdParty/STM32F4xx_HAL_Driver/Src/stm32f4xx_hal_flash_ex.c ****       /* Wait for last operation to be completed */
 863:ThirdParty/STM32F4xx_HAL_Driver/Src/stm32f4xx_hal_flash_ex.c ****       status = FLASH_WaitForLastOperation((uint32_t)FLASH_TIMEOUT_VALUE);
 864:ThirdParty/STM32F4xx_HAL_Driver/Src/stm32f4xx_hal_flash_ex.c ****       
 865:ThirdParty/STM32F4xx_HAL_Driver/Src/stm32f4xx_hal_flash_ex.c ****       if(status == HAL_OK)
 866:ThirdParty/STM32F4xx_HAL_Driver/Src/stm32f4xx_hal_flash_ex.c ****       { 
 867:ThirdParty/STM32F4xx_HAL_Driver/Src/stm32f4xx_hal_flash_ex.c ****         /*Write protection done on sectors of BANK2*/
 868:ThirdParty/STM32F4xx_HAL_Driver/Src/stm32f4xx_hal_flash_ex.c ****         *(__IO uint16_t*)OPTCR1_BYTE2_ADDRESS |= (uint16_t)SectorBank2; 
 869:ThirdParty/STM32F4xx_HAL_Driver/Src/stm32f4xx_hal_flash_ex.c ****       }
 870:ThirdParty/STM32F4xx_HAL_Driver/Src/stm32f4xx_hal_flash_ex.c ****     }
 871:ThirdParty/STM32F4xx_HAL_Driver/Src/stm32f4xx_hal_flash_ex.c ****     
 872:ThirdParty/STM32F4xx_HAL_Driver/Src/stm32f4xx_hal_flash_ex.c ****   }
 873:ThirdParty/STM32F4xx_HAL_Driver/Src/stm32f4xx_hal_flash_ex.c **** 
 874:ThirdParty/STM32F4xx_HAL_Driver/Src/stm32f4xx_hal_flash_ex.c ****   return status;
 875:ThirdParty/STM32F4xx_HAL_Driver/Src/stm32f4xx_hal_flash_ex.c **** }
 876:ThirdParty/STM32F4xx_HAL_Driver/Src/stm32f4xx_hal_flash_ex.c **** 
 877:ThirdParty/STM32F4xx_HAL_Driver/Src/stm32f4xx_hal_flash_ex.c **** 
 878:ThirdParty/STM32F4xx_HAL_Driver/Src/stm32f4xx_hal_flash_ex.c **** /**
 879:ThirdParty/STM32F4xx_HAL_Driver/Src/stm32f4xx_hal_flash_ex.c ****   * @brief  Disable the read/write protection (PCROP) of the desired 
 880:ThirdParty/STM32F4xx_HAL_Driver/Src/stm32f4xx_hal_flash_ex.c ****   *         sectors  of Bank 1 and/or Bank 2.
 881:ThirdParty/STM32F4xx_HAL_Driver/Src/stm32f4xx_hal_flash_ex.c ****   * @note   This function can be used only for STM32F42xxx/43xxx devices.
 882:ThirdParty/STM32F4xx_HAL_Driver/Src/stm32f4xx_hal_flash_ex.c ****   * @param  SectorBank1 specifies the sector(s) to be read/write protected or unprotected for bank1
 883:ThirdParty/STM32F4xx_HAL_Driver/Src/stm32f4xx_hal_flash_ex.c ****   *          This parameter can be one of the following values:
 884:ThirdParty/STM32F4xx_HAL_Driver/Src/stm32f4xx_hal_flash_ex.c ****   *            @arg OB_PCROP: A value between OB_PCROP_SECTOR_0 and OB_PCROP_SECTOR_11
 885:ThirdParty/STM32F4xx_HAL_Driver/Src/stm32f4xx_hal_flash_ex.c ****   *            @arg OB_PCROP_SECTOR__All                         
ARM GAS  /tmp/ccHdxmpw.s 			page 17


 886:ThirdParty/STM32F4xx_HAL_Driver/Src/stm32f4xx_hal_flash_ex.c ****   * @param  SectorBank2 Specifies the sector(s) to be read/write protected or unprotected for bank2
 887:ThirdParty/STM32F4xx_HAL_Driver/Src/stm32f4xx_hal_flash_ex.c ****   *          This parameter can be one of the following values:
 888:ThirdParty/STM32F4xx_HAL_Driver/Src/stm32f4xx_hal_flash_ex.c ****   *            @arg OB_PCROP: A value between OB_PCROP_SECTOR_12 and OB_PCROP_SECTOR_23
 889:ThirdParty/STM32F4xx_HAL_Driver/Src/stm32f4xx_hal_flash_ex.c ****   *            @arg OB_PCROP_SECTOR__All                         
 890:ThirdParty/STM32F4xx_HAL_Driver/Src/stm32f4xx_hal_flash_ex.c ****   * @param  Banks Disable PCROP protection on all the sectors for the specific bank
 891:ThirdParty/STM32F4xx_HAL_Driver/Src/stm32f4xx_hal_flash_ex.c ****   *          This parameter can be one of the following values:
 892:ThirdParty/STM32F4xx_HAL_Driver/Src/stm32f4xx_hal_flash_ex.c ****   *            @arg FLASH_BANK_1: WRP on all sectors of bank1
 893:ThirdParty/STM32F4xx_HAL_Driver/Src/stm32f4xx_hal_flash_ex.c ****   *            @arg FLASH_BANK_2: WRP on all sectors of bank2
 894:ThirdParty/STM32F4xx_HAL_Driver/Src/stm32f4xx_hal_flash_ex.c ****   *            @arg FLASH_BANK_BOTH: WRP on all sectors of bank1 & bank2
 895:ThirdParty/STM32F4xx_HAL_Driver/Src/stm32f4xx_hal_flash_ex.c ****   *
 896:ThirdParty/STM32F4xx_HAL_Driver/Src/stm32f4xx_hal_flash_ex.c ****   * @retval HAL Status  
 897:ThirdParty/STM32F4xx_HAL_Driver/Src/stm32f4xx_hal_flash_ex.c ****   */
 898:ThirdParty/STM32F4xx_HAL_Driver/Src/stm32f4xx_hal_flash_ex.c **** static HAL_StatusTypeDef FLASH_OB_DisablePCROP(uint32_t SectorBank1, uint32_t SectorBank2, uint32_t
 899:ThirdParty/STM32F4xx_HAL_Driver/Src/stm32f4xx_hal_flash_ex.c **** {  
 900:ThirdParty/STM32F4xx_HAL_Driver/Src/stm32f4xx_hal_flash_ex.c ****   HAL_StatusTypeDef status = HAL_OK;
 901:ThirdParty/STM32F4xx_HAL_Driver/Src/stm32f4xx_hal_flash_ex.c ****   
 902:ThirdParty/STM32F4xx_HAL_Driver/Src/stm32f4xx_hal_flash_ex.c ****   /* Check the parameters */
 903:ThirdParty/STM32F4xx_HAL_Driver/Src/stm32f4xx_hal_flash_ex.c ****   assert_param(IS_FLASH_BANK(Banks));
 904:ThirdParty/STM32F4xx_HAL_Driver/Src/stm32f4xx_hal_flash_ex.c ****     
 905:ThirdParty/STM32F4xx_HAL_Driver/Src/stm32f4xx_hal_flash_ex.c ****   /* Wait for last operation to be completed */
 906:ThirdParty/STM32F4xx_HAL_Driver/Src/stm32f4xx_hal_flash_ex.c ****   status = FLASH_WaitForLastOperation((uint32_t)FLASH_TIMEOUT_VALUE);
 907:ThirdParty/STM32F4xx_HAL_Driver/Src/stm32f4xx_hal_flash_ex.c **** 
 908:ThirdParty/STM32F4xx_HAL_Driver/Src/stm32f4xx_hal_flash_ex.c ****   if(status == HAL_OK)
 909:ThirdParty/STM32F4xx_HAL_Driver/Src/stm32f4xx_hal_flash_ex.c ****   {
 910:ThirdParty/STM32F4xx_HAL_Driver/Src/stm32f4xx_hal_flash_ex.c ****     if((Banks == FLASH_BANK_1) || (Banks == FLASH_BANK_BOTH))
 911:ThirdParty/STM32F4xx_HAL_Driver/Src/stm32f4xx_hal_flash_ex.c ****     {
 912:ThirdParty/STM32F4xx_HAL_Driver/Src/stm32f4xx_hal_flash_ex.c ****       assert_param(IS_OB_PCROP(SectorBank1));
 913:ThirdParty/STM32F4xx_HAL_Driver/Src/stm32f4xx_hal_flash_ex.c ****       /*Write protection done on sectors of BANK1*/
 914:ThirdParty/STM32F4xx_HAL_Driver/Src/stm32f4xx_hal_flash_ex.c ****       *(__IO uint16_t*)OPTCR_BYTE2_ADDRESS &= (~SectorBank1); 
 915:ThirdParty/STM32F4xx_HAL_Driver/Src/stm32f4xx_hal_flash_ex.c ****     }
 916:ThirdParty/STM32F4xx_HAL_Driver/Src/stm32f4xx_hal_flash_ex.c ****     else 
 917:ThirdParty/STM32F4xx_HAL_Driver/Src/stm32f4xx_hal_flash_ex.c ****     {
 918:ThirdParty/STM32F4xx_HAL_Driver/Src/stm32f4xx_hal_flash_ex.c ****       /*Write protection done on sectors of BANK2*/
 919:ThirdParty/STM32F4xx_HAL_Driver/Src/stm32f4xx_hal_flash_ex.c ****       assert_param(IS_OB_PCROP(SectorBank2));
 920:ThirdParty/STM32F4xx_HAL_Driver/Src/stm32f4xx_hal_flash_ex.c ****       *(__IO uint16_t*)OPTCR1_BYTE2_ADDRESS &= (~SectorBank2); 
 921:ThirdParty/STM32F4xx_HAL_Driver/Src/stm32f4xx_hal_flash_ex.c ****     }
 922:ThirdParty/STM32F4xx_HAL_Driver/Src/stm32f4xx_hal_flash_ex.c **** 
 923:ThirdParty/STM32F4xx_HAL_Driver/Src/stm32f4xx_hal_flash_ex.c ****     /*Write protection on all sector  of BANK2*/
 924:ThirdParty/STM32F4xx_HAL_Driver/Src/stm32f4xx_hal_flash_ex.c ****     if(Banks == FLASH_BANK_BOTH)
 925:ThirdParty/STM32F4xx_HAL_Driver/Src/stm32f4xx_hal_flash_ex.c ****     {
 926:ThirdParty/STM32F4xx_HAL_Driver/Src/stm32f4xx_hal_flash_ex.c ****       assert_param(IS_OB_PCROP(SectorBank2));
 927:ThirdParty/STM32F4xx_HAL_Driver/Src/stm32f4xx_hal_flash_ex.c ****      /* Wait for last operation to be completed */
 928:ThirdParty/STM32F4xx_HAL_Driver/Src/stm32f4xx_hal_flash_ex.c ****       status = FLASH_WaitForLastOperation((uint32_t)FLASH_TIMEOUT_VALUE);
 929:ThirdParty/STM32F4xx_HAL_Driver/Src/stm32f4xx_hal_flash_ex.c ****       
 930:ThirdParty/STM32F4xx_HAL_Driver/Src/stm32f4xx_hal_flash_ex.c ****       if(status == HAL_OK)
 931:ThirdParty/STM32F4xx_HAL_Driver/Src/stm32f4xx_hal_flash_ex.c ****       { 
 932:ThirdParty/STM32F4xx_HAL_Driver/Src/stm32f4xx_hal_flash_ex.c ****         /*Write protection done on sectors of BANK2*/
 933:ThirdParty/STM32F4xx_HAL_Driver/Src/stm32f4xx_hal_flash_ex.c ****         *(__IO uint16_t*)OPTCR1_BYTE2_ADDRESS &= (~SectorBank2); 
 934:ThirdParty/STM32F4xx_HAL_Driver/Src/stm32f4xx_hal_flash_ex.c ****       }
 935:ThirdParty/STM32F4xx_HAL_Driver/Src/stm32f4xx_hal_flash_ex.c ****     }
 936:ThirdParty/STM32F4xx_HAL_Driver/Src/stm32f4xx_hal_flash_ex.c ****     
 937:ThirdParty/STM32F4xx_HAL_Driver/Src/stm32f4xx_hal_flash_ex.c ****   }
 938:ThirdParty/STM32F4xx_HAL_Driver/Src/stm32f4xx_hal_flash_ex.c ****   
 939:ThirdParty/STM32F4xx_HAL_Driver/Src/stm32f4xx_hal_flash_ex.c ****   return status;
 940:ThirdParty/STM32F4xx_HAL_Driver/Src/stm32f4xx_hal_flash_ex.c **** 
 941:ThirdParty/STM32F4xx_HAL_Driver/Src/stm32f4xx_hal_flash_ex.c **** }
 942:ThirdParty/STM32F4xx_HAL_Driver/Src/stm32f4xx_hal_flash_ex.c **** 
ARM GAS  /tmp/ccHdxmpw.s 			page 18


 943:ThirdParty/STM32F4xx_HAL_Driver/Src/stm32f4xx_hal_flash_ex.c **** #endif /* STM32F427xx || STM32F437xx || STM32F429xx || STM32F439xx || STM32F469xx || STM32F479xx */
 944:ThirdParty/STM32F4xx_HAL_Driver/Src/stm32f4xx_hal_flash_ex.c **** 
 945:ThirdParty/STM32F4xx_HAL_Driver/Src/stm32f4xx_hal_flash_ex.c **** #if defined(STM32F405xx) || defined(STM32F415xx) || defined(STM32F407xx) || defined(STM32F417xx) ||
 946:ThirdParty/STM32F4xx_HAL_Driver/Src/stm32f4xx_hal_flash_ex.c ****     defined(STM32F401xC) || defined(STM32F401xE) || defined(STM32F410Tx) || defined(STM32F410Cx) ||
 947:ThirdParty/STM32F4xx_HAL_Driver/Src/stm32f4xx_hal_flash_ex.c ****     defined(STM32F410Rx) || defined(STM32F411xE) || defined(STM32F446xx) || defined(STM32F412Zx) ||
 948:ThirdParty/STM32F4xx_HAL_Driver/Src/stm32f4xx_hal_flash_ex.c ****     defined(STM32F412Vx) || defined(STM32F412Rx) || defined(STM32F412Cx) || defined(STM32F413xx) ||
 949:ThirdParty/STM32F4xx_HAL_Driver/Src/stm32f4xx_hal_flash_ex.c ****     defined(STM32F423xx)
 950:ThirdParty/STM32F4xx_HAL_Driver/Src/stm32f4xx_hal_flash_ex.c **** /**
 951:ThirdParty/STM32F4xx_HAL_Driver/Src/stm32f4xx_hal_flash_ex.c ****   * @brief  Mass erase of FLASH memory
 952:ThirdParty/STM32F4xx_HAL_Driver/Src/stm32f4xx_hal_flash_ex.c ****   * @param  VoltageRange The device voltage range which defines the erase parallelism.  
 953:ThirdParty/STM32F4xx_HAL_Driver/Src/stm32f4xx_hal_flash_ex.c ****   *          This parameter can be one of the following values:
 954:ThirdParty/STM32F4xx_HAL_Driver/Src/stm32f4xx_hal_flash_ex.c ****   *            @arg FLASH_VOLTAGE_RANGE_1: when the device voltage range is 1.8V to 2.1V, 
 955:ThirdParty/STM32F4xx_HAL_Driver/Src/stm32f4xx_hal_flash_ex.c ****   *                                  the operation will be done by byte (8-bit) 
 956:ThirdParty/STM32F4xx_HAL_Driver/Src/stm32f4xx_hal_flash_ex.c ****   *            @arg FLASH_VOLTAGE_RANGE_2: when the device voltage range is 2.1V to 2.7V,
 957:ThirdParty/STM32F4xx_HAL_Driver/Src/stm32f4xx_hal_flash_ex.c ****   *                                  the operation will be done by half word (16-bit)
 958:ThirdParty/STM32F4xx_HAL_Driver/Src/stm32f4xx_hal_flash_ex.c ****   *            @arg FLASH_VOLTAGE_RANGE_3: when the device voltage range is 2.7V to 3.6V,
 959:ThirdParty/STM32F4xx_HAL_Driver/Src/stm32f4xx_hal_flash_ex.c ****   *                                  the operation will be done by word (32-bit)
 960:ThirdParty/STM32F4xx_HAL_Driver/Src/stm32f4xx_hal_flash_ex.c ****   *            @arg FLASH_VOLTAGE_RANGE_4: when the device voltage range is 2.7V to 3.6V + External
 961:ThirdParty/STM32F4xx_HAL_Driver/Src/stm32f4xx_hal_flash_ex.c ****   *                                  the operation will be done by double word (64-bit)
 962:ThirdParty/STM32F4xx_HAL_Driver/Src/stm32f4xx_hal_flash_ex.c ****   * 
 963:ThirdParty/STM32F4xx_HAL_Driver/Src/stm32f4xx_hal_flash_ex.c ****   * @param  Banks Banks to be erased
 964:ThirdParty/STM32F4xx_HAL_Driver/Src/stm32f4xx_hal_flash_ex.c ****   *          This parameter can be one of the following values:
 965:ThirdParty/STM32F4xx_HAL_Driver/Src/stm32f4xx_hal_flash_ex.c ****   *            @arg FLASH_BANK_1: Bank1 to be erased
 966:ThirdParty/STM32F4xx_HAL_Driver/Src/stm32f4xx_hal_flash_ex.c ****   *
 967:ThirdParty/STM32F4xx_HAL_Driver/Src/stm32f4xx_hal_flash_ex.c ****   * @retval None
 968:ThirdParty/STM32F4xx_HAL_Driver/Src/stm32f4xx_hal_flash_ex.c ****   */
 969:ThirdParty/STM32F4xx_HAL_Driver/Src/stm32f4xx_hal_flash_ex.c **** static void FLASH_MassErase(uint8_t VoltageRange, uint32_t Banks)
 970:ThirdParty/STM32F4xx_HAL_Driver/Src/stm32f4xx_hal_flash_ex.c **** {
  29              		.loc 1 970 1 view -0
  30              		.cfi_startproc
  31              		@ args = 0, pretend = 0, frame = 0
  32              		@ frame_needed = 0, uses_anonymous_args = 0
  33              		@ link register save eliminated.
 971:ThirdParty/STM32F4xx_HAL_Driver/Src/stm32f4xx_hal_flash_ex.c ****   /* Check the parameters */
 972:ThirdParty/STM32F4xx_HAL_Driver/Src/stm32f4xx_hal_flash_ex.c ****   assert_param(IS_VOLTAGERANGE(VoltageRange));
  34              		.loc 1 972 3 view .LVU1
 973:ThirdParty/STM32F4xx_HAL_Driver/Src/stm32f4xx_hal_flash_ex.c ****   assert_param(IS_FLASH_BANK(Banks));
  35              		.loc 1 973 3 view .LVU2
 974:ThirdParty/STM32F4xx_HAL_Driver/Src/stm32f4xx_hal_flash_ex.c ****   
 975:ThirdParty/STM32F4xx_HAL_Driver/Src/stm32f4xx_hal_flash_ex.c ****   /* If the previous operation is completed, proceed to erase all sectors */
 976:ThirdParty/STM32F4xx_HAL_Driver/Src/stm32f4xx_hal_flash_ex.c ****   CLEAR_BIT(FLASH->CR, FLASH_CR_PSIZE);
  36              		.loc 1 976 3 view .LVU3
  37 0000 074B     		ldr	r3, .L2
  38 0002 1969     		ldr	r1, [r3, #16]
  39              	.LVL1:
  40              		.loc 1 976 3 is_stmt 0 view .LVU4
  41 0004 21F44071 		bic	r1, r1, #768
  42 0008 1961     		str	r1, [r3, #16]
 977:ThirdParty/STM32F4xx_HAL_Driver/Src/stm32f4xx_hal_flash_ex.c ****   FLASH->CR |= FLASH_CR_MER;
  43              		.loc 1 977 3 is_stmt 1 view .LVU5
  44              		.loc 1 977 13 is_stmt 0 view .LVU6
  45 000a 1969     		ldr	r1, [r3, #16]
  46 000c 41F00401 		orr	r1, r1, #4
  47 0010 1961     		str	r1, [r3, #16]
 978:ThirdParty/STM32F4xx_HAL_Driver/Src/stm32f4xx_hal_flash_ex.c ****   FLASH->CR |= FLASH_CR_STRT | ((uint32_t)VoltageRange <<8U);
  48              		.loc 1 978 3 is_stmt 1 view .LVU7
  49              		.loc 1 978 13 is_stmt 0 view .LVU8
ARM GAS  /tmp/ccHdxmpw.s 			page 19


  50 0012 1A69     		ldr	r2, [r3, #16]
  51 0014 42EA0022 		orr	r2, r2, r0, lsl #8
  52 0018 42F48032 		orr	r2, r2, #65536
  53 001c 1A61     		str	r2, [r3, #16]
 979:ThirdParty/STM32F4xx_HAL_Driver/Src/stm32f4xx_hal_flash_ex.c **** }
  54              		.loc 1 979 1 view .LVU9
  55 001e 7047     		bx	lr
  56              	.L3:
  57              		.align	2
  58              	.L2:
  59 0020 003C0240 		.word	1073888256
  60              		.cfi_endproc
  61              	.LFE137:
  63              		.section	.text.FLASH_OB_BOR_LevelConfig,"ax",%progbits
  64              		.align	1
  65              		.syntax unified
  66              		.thumb
  67              		.thumb_func
  69              	FLASH_OB_BOR_LevelConfig:
  70              	.LVL2:
  71              	.LFB143:
 980:ThirdParty/STM32F4xx_HAL_Driver/Src/stm32f4xx_hal_flash_ex.c **** 
 981:ThirdParty/STM32F4xx_HAL_Driver/Src/stm32f4xx_hal_flash_ex.c **** /**
 982:ThirdParty/STM32F4xx_HAL_Driver/Src/stm32f4xx_hal_flash_ex.c ****   * @brief  Erase the specified FLASH memory sector
 983:ThirdParty/STM32F4xx_HAL_Driver/Src/stm32f4xx_hal_flash_ex.c ****   * @param  Sector FLASH sector to erase
 984:ThirdParty/STM32F4xx_HAL_Driver/Src/stm32f4xx_hal_flash_ex.c ****   *         The value of this parameter depend on device used within the same series      
 985:ThirdParty/STM32F4xx_HAL_Driver/Src/stm32f4xx_hal_flash_ex.c ****   * @param  VoltageRange The device voltage range which defines the erase parallelism.  
 986:ThirdParty/STM32F4xx_HAL_Driver/Src/stm32f4xx_hal_flash_ex.c ****   *          This parameter can be one of the following values:
 987:ThirdParty/STM32F4xx_HAL_Driver/Src/stm32f4xx_hal_flash_ex.c ****   *            @arg FLASH_VOLTAGE_RANGE_1: when the device voltage range is 1.8V to 2.1V, 
 988:ThirdParty/STM32F4xx_HAL_Driver/Src/stm32f4xx_hal_flash_ex.c ****   *                                  the operation will be done by byte (8-bit) 
 989:ThirdParty/STM32F4xx_HAL_Driver/Src/stm32f4xx_hal_flash_ex.c ****   *            @arg FLASH_VOLTAGE_RANGE_2: when the device voltage range is 2.1V to 2.7V,
 990:ThirdParty/STM32F4xx_HAL_Driver/Src/stm32f4xx_hal_flash_ex.c ****   *                                  the operation will be done by half word (16-bit)
 991:ThirdParty/STM32F4xx_HAL_Driver/Src/stm32f4xx_hal_flash_ex.c ****   *            @arg FLASH_VOLTAGE_RANGE_3: when the device voltage range is 2.7V to 3.6V,
 992:ThirdParty/STM32F4xx_HAL_Driver/Src/stm32f4xx_hal_flash_ex.c ****   *                                  the operation will be done by word (32-bit)
 993:ThirdParty/STM32F4xx_HAL_Driver/Src/stm32f4xx_hal_flash_ex.c ****   *            @arg FLASH_VOLTAGE_RANGE_4: when the device voltage range is 2.7V to 3.6V + External
 994:ThirdParty/STM32F4xx_HAL_Driver/Src/stm32f4xx_hal_flash_ex.c ****   *                                  the operation will be done by double word (64-bit)
 995:ThirdParty/STM32F4xx_HAL_Driver/Src/stm32f4xx_hal_flash_ex.c ****   * 
 996:ThirdParty/STM32F4xx_HAL_Driver/Src/stm32f4xx_hal_flash_ex.c ****   * @retval None
 997:ThirdParty/STM32F4xx_HAL_Driver/Src/stm32f4xx_hal_flash_ex.c ****   */
 998:ThirdParty/STM32F4xx_HAL_Driver/Src/stm32f4xx_hal_flash_ex.c **** void FLASH_Erase_Sector(uint32_t Sector, uint8_t VoltageRange)
 999:ThirdParty/STM32F4xx_HAL_Driver/Src/stm32f4xx_hal_flash_ex.c **** {
1000:ThirdParty/STM32F4xx_HAL_Driver/Src/stm32f4xx_hal_flash_ex.c ****   uint32_t tmp_psize = 0U;
1001:ThirdParty/STM32F4xx_HAL_Driver/Src/stm32f4xx_hal_flash_ex.c **** 
1002:ThirdParty/STM32F4xx_HAL_Driver/Src/stm32f4xx_hal_flash_ex.c ****   /* Check the parameters */
1003:ThirdParty/STM32F4xx_HAL_Driver/Src/stm32f4xx_hal_flash_ex.c ****   assert_param(IS_FLASH_SECTOR(Sector));
1004:ThirdParty/STM32F4xx_HAL_Driver/Src/stm32f4xx_hal_flash_ex.c ****   assert_param(IS_VOLTAGERANGE(VoltageRange));
1005:ThirdParty/STM32F4xx_HAL_Driver/Src/stm32f4xx_hal_flash_ex.c ****   
1006:ThirdParty/STM32F4xx_HAL_Driver/Src/stm32f4xx_hal_flash_ex.c ****   if(VoltageRange == FLASH_VOLTAGE_RANGE_1)
1007:ThirdParty/STM32F4xx_HAL_Driver/Src/stm32f4xx_hal_flash_ex.c ****   {
1008:ThirdParty/STM32F4xx_HAL_Driver/Src/stm32f4xx_hal_flash_ex.c ****      tmp_psize = FLASH_PSIZE_BYTE;
1009:ThirdParty/STM32F4xx_HAL_Driver/Src/stm32f4xx_hal_flash_ex.c ****   }
1010:ThirdParty/STM32F4xx_HAL_Driver/Src/stm32f4xx_hal_flash_ex.c ****   else if(VoltageRange == FLASH_VOLTAGE_RANGE_2)
1011:ThirdParty/STM32F4xx_HAL_Driver/Src/stm32f4xx_hal_flash_ex.c ****   {
1012:ThirdParty/STM32F4xx_HAL_Driver/Src/stm32f4xx_hal_flash_ex.c ****     tmp_psize = FLASH_PSIZE_HALF_WORD;
1013:ThirdParty/STM32F4xx_HAL_Driver/Src/stm32f4xx_hal_flash_ex.c ****   }
1014:ThirdParty/STM32F4xx_HAL_Driver/Src/stm32f4xx_hal_flash_ex.c ****   else if(VoltageRange == FLASH_VOLTAGE_RANGE_3)
1015:ThirdParty/STM32F4xx_HAL_Driver/Src/stm32f4xx_hal_flash_ex.c ****   {
ARM GAS  /tmp/ccHdxmpw.s 			page 20


1016:ThirdParty/STM32F4xx_HAL_Driver/Src/stm32f4xx_hal_flash_ex.c ****     tmp_psize = FLASH_PSIZE_WORD;
1017:ThirdParty/STM32F4xx_HAL_Driver/Src/stm32f4xx_hal_flash_ex.c ****   }
1018:ThirdParty/STM32F4xx_HAL_Driver/Src/stm32f4xx_hal_flash_ex.c ****   else
1019:ThirdParty/STM32F4xx_HAL_Driver/Src/stm32f4xx_hal_flash_ex.c ****   {
1020:ThirdParty/STM32F4xx_HAL_Driver/Src/stm32f4xx_hal_flash_ex.c ****     tmp_psize = FLASH_PSIZE_DOUBLE_WORD;
1021:ThirdParty/STM32F4xx_HAL_Driver/Src/stm32f4xx_hal_flash_ex.c ****   }
1022:ThirdParty/STM32F4xx_HAL_Driver/Src/stm32f4xx_hal_flash_ex.c **** 
1023:ThirdParty/STM32F4xx_HAL_Driver/Src/stm32f4xx_hal_flash_ex.c ****   /* If the previous operation is completed, proceed to erase the sector */
1024:ThirdParty/STM32F4xx_HAL_Driver/Src/stm32f4xx_hal_flash_ex.c ****   CLEAR_BIT(FLASH->CR, FLASH_CR_PSIZE);
1025:ThirdParty/STM32F4xx_HAL_Driver/Src/stm32f4xx_hal_flash_ex.c ****   FLASH->CR |= tmp_psize;
1026:ThirdParty/STM32F4xx_HAL_Driver/Src/stm32f4xx_hal_flash_ex.c ****   CLEAR_BIT(FLASH->CR, FLASH_CR_SNB);
1027:ThirdParty/STM32F4xx_HAL_Driver/Src/stm32f4xx_hal_flash_ex.c ****   FLASH->CR |= FLASH_CR_SER | (Sector << FLASH_CR_SNB_Pos);
1028:ThirdParty/STM32F4xx_HAL_Driver/Src/stm32f4xx_hal_flash_ex.c ****   FLASH->CR |= FLASH_CR_STRT;
1029:ThirdParty/STM32F4xx_HAL_Driver/Src/stm32f4xx_hal_flash_ex.c **** }
1030:ThirdParty/STM32F4xx_HAL_Driver/Src/stm32f4xx_hal_flash_ex.c **** 
1031:ThirdParty/STM32F4xx_HAL_Driver/Src/stm32f4xx_hal_flash_ex.c **** /**
1032:ThirdParty/STM32F4xx_HAL_Driver/Src/stm32f4xx_hal_flash_ex.c ****   * @brief  Enable the write protection of the desired bank 1 sectors
1033:ThirdParty/STM32F4xx_HAL_Driver/Src/stm32f4xx_hal_flash_ex.c ****   *
1034:ThirdParty/STM32F4xx_HAL_Driver/Src/stm32f4xx_hal_flash_ex.c ****   * @note   When the memory read protection level is selected (RDP level = 1), 
1035:ThirdParty/STM32F4xx_HAL_Driver/Src/stm32f4xx_hal_flash_ex.c ****   *         it is not possible to program or erase the flash sector i if CortexM4  
1036:ThirdParty/STM32F4xx_HAL_Driver/Src/stm32f4xx_hal_flash_ex.c ****   *         debug features are connected or boot code is executed in RAM, even if nWRPi = 1 
1037:ThirdParty/STM32F4xx_HAL_Driver/Src/stm32f4xx_hal_flash_ex.c ****   * @note   Active value of nWRPi bits is inverted when PCROP mode is active (SPRMOD =1).   
1038:ThirdParty/STM32F4xx_HAL_Driver/Src/stm32f4xx_hal_flash_ex.c ****   * 
1039:ThirdParty/STM32F4xx_HAL_Driver/Src/stm32f4xx_hal_flash_ex.c ****   * @param  WRPSector specifies the sector(s) to be write protected.
1040:ThirdParty/STM32F4xx_HAL_Driver/Src/stm32f4xx_hal_flash_ex.c ****   *         The value of this parameter depend on device used within the same series 
1041:ThirdParty/STM32F4xx_HAL_Driver/Src/stm32f4xx_hal_flash_ex.c ****   * 
1042:ThirdParty/STM32F4xx_HAL_Driver/Src/stm32f4xx_hal_flash_ex.c ****   * @param  Banks Enable write protection on all the sectors for the specific bank
1043:ThirdParty/STM32F4xx_HAL_Driver/Src/stm32f4xx_hal_flash_ex.c ****   *          This parameter can be one of the following values:
1044:ThirdParty/STM32F4xx_HAL_Driver/Src/stm32f4xx_hal_flash_ex.c ****   *            @arg FLASH_BANK_1: WRP on all sectors of bank1
1045:ThirdParty/STM32F4xx_HAL_Driver/Src/stm32f4xx_hal_flash_ex.c ****   *
1046:ThirdParty/STM32F4xx_HAL_Driver/Src/stm32f4xx_hal_flash_ex.c ****   * @retval HAL Status 
1047:ThirdParty/STM32F4xx_HAL_Driver/Src/stm32f4xx_hal_flash_ex.c ****   */
1048:ThirdParty/STM32F4xx_HAL_Driver/Src/stm32f4xx_hal_flash_ex.c **** static HAL_StatusTypeDef FLASH_OB_EnableWRP(uint32_t WRPSector, uint32_t Banks)
1049:ThirdParty/STM32F4xx_HAL_Driver/Src/stm32f4xx_hal_flash_ex.c **** {
1050:ThirdParty/STM32F4xx_HAL_Driver/Src/stm32f4xx_hal_flash_ex.c ****   HAL_StatusTypeDef status = HAL_OK;
1051:ThirdParty/STM32F4xx_HAL_Driver/Src/stm32f4xx_hal_flash_ex.c ****   
1052:ThirdParty/STM32F4xx_HAL_Driver/Src/stm32f4xx_hal_flash_ex.c ****   /* Check the parameters */
1053:ThirdParty/STM32F4xx_HAL_Driver/Src/stm32f4xx_hal_flash_ex.c ****   assert_param(IS_OB_WRP_SECTOR(WRPSector));
1054:ThirdParty/STM32F4xx_HAL_Driver/Src/stm32f4xx_hal_flash_ex.c ****   assert_param(IS_FLASH_BANK(Banks));
1055:ThirdParty/STM32F4xx_HAL_Driver/Src/stm32f4xx_hal_flash_ex.c ****     
1056:ThirdParty/STM32F4xx_HAL_Driver/Src/stm32f4xx_hal_flash_ex.c ****   /* Wait for last operation to be completed */
1057:ThirdParty/STM32F4xx_HAL_Driver/Src/stm32f4xx_hal_flash_ex.c ****   status = FLASH_WaitForLastOperation((uint32_t)FLASH_TIMEOUT_VALUE);
1058:ThirdParty/STM32F4xx_HAL_Driver/Src/stm32f4xx_hal_flash_ex.c **** 
1059:ThirdParty/STM32F4xx_HAL_Driver/Src/stm32f4xx_hal_flash_ex.c ****   if(status == HAL_OK)
1060:ThirdParty/STM32F4xx_HAL_Driver/Src/stm32f4xx_hal_flash_ex.c ****   { 
1061:ThirdParty/STM32F4xx_HAL_Driver/Src/stm32f4xx_hal_flash_ex.c ****     *(__IO uint16_t*)OPTCR_BYTE2_ADDRESS &= (~WRPSector);  
1062:ThirdParty/STM32F4xx_HAL_Driver/Src/stm32f4xx_hal_flash_ex.c ****   }
1063:ThirdParty/STM32F4xx_HAL_Driver/Src/stm32f4xx_hal_flash_ex.c ****   
1064:ThirdParty/STM32F4xx_HAL_Driver/Src/stm32f4xx_hal_flash_ex.c ****   return status;
1065:ThirdParty/STM32F4xx_HAL_Driver/Src/stm32f4xx_hal_flash_ex.c **** }
1066:ThirdParty/STM32F4xx_HAL_Driver/Src/stm32f4xx_hal_flash_ex.c **** 
1067:ThirdParty/STM32F4xx_HAL_Driver/Src/stm32f4xx_hal_flash_ex.c **** /**
1068:ThirdParty/STM32F4xx_HAL_Driver/Src/stm32f4xx_hal_flash_ex.c ****   * @brief  Disable the write protection of the desired bank 1 sectors
1069:ThirdParty/STM32F4xx_HAL_Driver/Src/stm32f4xx_hal_flash_ex.c ****   *
1070:ThirdParty/STM32F4xx_HAL_Driver/Src/stm32f4xx_hal_flash_ex.c ****   * @note   When the memory read protection level is selected (RDP level = 1), 
1071:ThirdParty/STM32F4xx_HAL_Driver/Src/stm32f4xx_hal_flash_ex.c ****   *         it is not possible to program or erase the flash sector i if CortexM4  
1072:ThirdParty/STM32F4xx_HAL_Driver/Src/stm32f4xx_hal_flash_ex.c ****   *         debug features are connected or boot code is executed in RAM, even if nWRPi = 1 
ARM GAS  /tmp/ccHdxmpw.s 			page 21


1073:ThirdParty/STM32F4xx_HAL_Driver/Src/stm32f4xx_hal_flash_ex.c ****   * @note   Active value of nWRPi bits is inverted when PCROP mode is active (SPRMOD =1).   
1074:ThirdParty/STM32F4xx_HAL_Driver/Src/stm32f4xx_hal_flash_ex.c ****   * 
1075:ThirdParty/STM32F4xx_HAL_Driver/Src/stm32f4xx_hal_flash_ex.c ****   * @param  WRPSector specifies the sector(s) to be write protected.
1076:ThirdParty/STM32F4xx_HAL_Driver/Src/stm32f4xx_hal_flash_ex.c ****   *         The value of this parameter depend on device used within the same series 
1077:ThirdParty/STM32F4xx_HAL_Driver/Src/stm32f4xx_hal_flash_ex.c ****   * 
1078:ThirdParty/STM32F4xx_HAL_Driver/Src/stm32f4xx_hal_flash_ex.c ****   * @param  Banks Enable write protection on all the sectors for the specific bank
1079:ThirdParty/STM32F4xx_HAL_Driver/Src/stm32f4xx_hal_flash_ex.c ****   *          This parameter can be one of the following values:
1080:ThirdParty/STM32F4xx_HAL_Driver/Src/stm32f4xx_hal_flash_ex.c ****   *            @arg FLASH_BANK_1: WRP on all sectors of bank1
1081:ThirdParty/STM32F4xx_HAL_Driver/Src/stm32f4xx_hal_flash_ex.c ****   *
1082:ThirdParty/STM32F4xx_HAL_Driver/Src/stm32f4xx_hal_flash_ex.c ****   * @retval HAL Status 
1083:ThirdParty/STM32F4xx_HAL_Driver/Src/stm32f4xx_hal_flash_ex.c ****   */
1084:ThirdParty/STM32F4xx_HAL_Driver/Src/stm32f4xx_hal_flash_ex.c **** static HAL_StatusTypeDef FLASH_OB_DisableWRP(uint32_t WRPSector, uint32_t Banks)
1085:ThirdParty/STM32F4xx_HAL_Driver/Src/stm32f4xx_hal_flash_ex.c **** {
1086:ThirdParty/STM32F4xx_HAL_Driver/Src/stm32f4xx_hal_flash_ex.c ****   HAL_StatusTypeDef status = HAL_OK;
1087:ThirdParty/STM32F4xx_HAL_Driver/Src/stm32f4xx_hal_flash_ex.c ****   
1088:ThirdParty/STM32F4xx_HAL_Driver/Src/stm32f4xx_hal_flash_ex.c ****   /* Check the parameters */
1089:ThirdParty/STM32F4xx_HAL_Driver/Src/stm32f4xx_hal_flash_ex.c ****   assert_param(IS_OB_WRP_SECTOR(WRPSector));
1090:ThirdParty/STM32F4xx_HAL_Driver/Src/stm32f4xx_hal_flash_ex.c ****   assert_param(IS_FLASH_BANK(Banks));
1091:ThirdParty/STM32F4xx_HAL_Driver/Src/stm32f4xx_hal_flash_ex.c ****     
1092:ThirdParty/STM32F4xx_HAL_Driver/Src/stm32f4xx_hal_flash_ex.c ****   /* Wait for last operation to be completed */
1093:ThirdParty/STM32F4xx_HAL_Driver/Src/stm32f4xx_hal_flash_ex.c ****   status = FLASH_WaitForLastOperation((uint32_t)FLASH_TIMEOUT_VALUE);
1094:ThirdParty/STM32F4xx_HAL_Driver/Src/stm32f4xx_hal_flash_ex.c **** 
1095:ThirdParty/STM32F4xx_HAL_Driver/Src/stm32f4xx_hal_flash_ex.c ****   if(status == HAL_OK)
1096:ThirdParty/STM32F4xx_HAL_Driver/Src/stm32f4xx_hal_flash_ex.c ****   { 
1097:ThirdParty/STM32F4xx_HAL_Driver/Src/stm32f4xx_hal_flash_ex.c ****     *(__IO uint16_t*)OPTCR_BYTE2_ADDRESS |= (uint16_t)WRPSector; 
1098:ThirdParty/STM32F4xx_HAL_Driver/Src/stm32f4xx_hal_flash_ex.c ****   }
1099:ThirdParty/STM32F4xx_HAL_Driver/Src/stm32f4xx_hal_flash_ex.c ****   
1100:ThirdParty/STM32F4xx_HAL_Driver/Src/stm32f4xx_hal_flash_ex.c ****   return status;
1101:ThirdParty/STM32F4xx_HAL_Driver/Src/stm32f4xx_hal_flash_ex.c **** }
1102:ThirdParty/STM32F4xx_HAL_Driver/Src/stm32f4xx_hal_flash_ex.c **** #endif /* STM32F40xxx || STM32F41xxx || STM32F401xx || STM32F410xx || STM32F411xE || STM32F446xx ||
1103:ThirdParty/STM32F4xx_HAL_Driver/Src/stm32f4xx_hal_flash_ex.c ****           STM32F413xx || STM32F423xx */
1104:ThirdParty/STM32F4xx_HAL_Driver/Src/stm32f4xx_hal_flash_ex.c **** 
1105:ThirdParty/STM32F4xx_HAL_Driver/Src/stm32f4xx_hal_flash_ex.c **** #if defined(STM32F401xC) || defined(STM32F401xE) || defined(STM32F410Tx) || defined(STM32F410Cx) ||
1106:ThirdParty/STM32F4xx_HAL_Driver/Src/stm32f4xx_hal_flash_ex.c ****     defined(STM32F411xE) || defined(STM32F446xx) || defined(STM32F412Zx) || defined(STM32F412Vx) ||
1107:ThirdParty/STM32F4xx_HAL_Driver/Src/stm32f4xx_hal_flash_ex.c ****     defined(STM32F412Cx) || defined(STM32F413xx) || defined(STM32F423xx)
1108:ThirdParty/STM32F4xx_HAL_Driver/Src/stm32f4xx_hal_flash_ex.c **** /**
1109:ThirdParty/STM32F4xx_HAL_Driver/Src/stm32f4xx_hal_flash_ex.c ****   * @brief  Enable the read/write protection (PCROP) of the desired sectors.
1110:ThirdParty/STM32F4xx_HAL_Driver/Src/stm32f4xx_hal_flash_ex.c ****   * @note   This function can be used only for STM32F401xx devices.
1111:ThirdParty/STM32F4xx_HAL_Driver/Src/stm32f4xx_hal_flash_ex.c ****   * @param  Sector specifies the sector(s) to be read/write protected or unprotected.
1112:ThirdParty/STM32F4xx_HAL_Driver/Src/stm32f4xx_hal_flash_ex.c ****   *          This parameter can be one of the following values:
1113:ThirdParty/STM32F4xx_HAL_Driver/Src/stm32f4xx_hal_flash_ex.c ****   *            @arg OB_PCROP: A value between OB_PCROP_Sector0 and OB_PCROP_Sector5
1114:ThirdParty/STM32F4xx_HAL_Driver/Src/stm32f4xx_hal_flash_ex.c ****   *            @arg OB_PCROP_Sector_All                         
1115:ThirdParty/STM32F4xx_HAL_Driver/Src/stm32f4xx_hal_flash_ex.c ****   * @retval HAL Status  
1116:ThirdParty/STM32F4xx_HAL_Driver/Src/stm32f4xx_hal_flash_ex.c ****   */
1117:ThirdParty/STM32F4xx_HAL_Driver/Src/stm32f4xx_hal_flash_ex.c **** static HAL_StatusTypeDef FLASH_OB_EnablePCROP(uint32_t Sector)
1118:ThirdParty/STM32F4xx_HAL_Driver/Src/stm32f4xx_hal_flash_ex.c **** {
1119:ThirdParty/STM32F4xx_HAL_Driver/Src/stm32f4xx_hal_flash_ex.c ****   HAL_StatusTypeDef status = HAL_OK;
1120:ThirdParty/STM32F4xx_HAL_Driver/Src/stm32f4xx_hal_flash_ex.c ****   
1121:ThirdParty/STM32F4xx_HAL_Driver/Src/stm32f4xx_hal_flash_ex.c ****   /* Check the parameters */
1122:ThirdParty/STM32F4xx_HAL_Driver/Src/stm32f4xx_hal_flash_ex.c ****   assert_param(IS_OB_PCROP(Sector));
1123:ThirdParty/STM32F4xx_HAL_Driver/Src/stm32f4xx_hal_flash_ex.c ****     
1124:ThirdParty/STM32F4xx_HAL_Driver/Src/stm32f4xx_hal_flash_ex.c ****   /* Wait for last operation to be completed */  
1125:ThirdParty/STM32F4xx_HAL_Driver/Src/stm32f4xx_hal_flash_ex.c ****   status = FLASH_WaitForLastOperation((uint32_t)FLASH_TIMEOUT_VALUE);
1126:ThirdParty/STM32F4xx_HAL_Driver/Src/stm32f4xx_hal_flash_ex.c **** 
1127:ThirdParty/STM32F4xx_HAL_Driver/Src/stm32f4xx_hal_flash_ex.c ****   if(status == HAL_OK)
1128:ThirdParty/STM32F4xx_HAL_Driver/Src/stm32f4xx_hal_flash_ex.c ****   { 
1129:ThirdParty/STM32F4xx_HAL_Driver/Src/stm32f4xx_hal_flash_ex.c ****     *(__IO uint16_t*)OPTCR_BYTE2_ADDRESS |= (uint16_t)Sector;
ARM GAS  /tmp/ccHdxmpw.s 			page 22


1130:ThirdParty/STM32F4xx_HAL_Driver/Src/stm32f4xx_hal_flash_ex.c ****   }
1131:ThirdParty/STM32F4xx_HAL_Driver/Src/stm32f4xx_hal_flash_ex.c ****   
1132:ThirdParty/STM32F4xx_HAL_Driver/Src/stm32f4xx_hal_flash_ex.c ****   return status;
1133:ThirdParty/STM32F4xx_HAL_Driver/Src/stm32f4xx_hal_flash_ex.c **** }
1134:ThirdParty/STM32F4xx_HAL_Driver/Src/stm32f4xx_hal_flash_ex.c **** 
1135:ThirdParty/STM32F4xx_HAL_Driver/Src/stm32f4xx_hal_flash_ex.c **** 
1136:ThirdParty/STM32F4xx_HAL_Driver/Src/stm32f4xx_hal_flash_ex.c **** /**
1137:ThirdParty/STM32F4xx_HAL_Driver/Src/stm32f4xx_hal_flash_ex.c ****   * @brief  Disable the read/write protection (PCROP) of the desired sectors.
1138:ThirdParty/STM32F4xx_HAL_Driver/Src/stm32f4xx_hal_flash_ex.c ****   * @note   This function can be used only for STM32F401xx devices.
1139:ThirdParty/STM32F4xx_HAL_Driver/Src/stm32f4xx_hal_flash_ex.c ****   * @param  Sector specifies the sector(s) to be read/write protected or unprotected.
1140:ThirdParty/STM32F4xx_HAL_Driver/Src/stm32f4xx_hal_flash_ex.c ****   *          This parameter can be one of the following values:
1141:ThirdParty/STM32F4xx_HAL_Driver/Src/stm32f4xx_hal_flash_ex.c ****   *            @arg OB_PCROP: A value between OB_PCROP_Sector0 and OB_PCROP_Sector5
1142:ThirdParty/STM32F4xx_HAL_Driver/Src/stm32f4xx_hal_flash_ex.c ****   *            @arg OB_PCROP_Sector_All                         
1143:ThirdParty/STM32F4xx_HAL_Driver/Src/stm32f4xx_hal_flash_ex.c ****   * @retval HAL Status  
1144:ThirdParty/STM32F4xx_HAL_Driver/Src/stm32f4xx_hal_flash_ex.c ****   */
1145:ThirdParty/STM32F4xx_HAL_Driver/Src/stm32f4xx_hal_flash_ex.c **** static HAL_StatusTypeDef FLASH_OB_DisablePCROP(uint32_t Sector)
1146:ThirdParty/STM32F4xx_HAL_Driver/Src/stm32f4xx_hal_flash_ex.c **** {  
1147:ThirdParty/STM32F4xx_HAL_Driver/Src/stm32f4xx_hal_flash_ex.c ****   HAL_StatusTypeDef status = HAL_OK;
1148:ThirdParty/STM32F4xx_HAL_Driver/Src/stm32f4xx_hal_flash_ex.c ****   
1149:ThirdParty/STM32F4xx_HAL_Driver/Src/stm32f4xx_hal_flash_ex.c ****   /* Check the parameters */
1150:ThirdParty/STM32F4xx_HAL_Driver/Src/stm32f4xx_hal_flash_ex.c ****   assert_param(IS_OB_PCROP(Sector));
1151:ThirdParty/STM32F4xx_HAL_Driver/Src/stm32f4xx_hal_flash_ex.c ****     
1152:ThirdParty/STM32F4xx_HAL_Driver/Src/stm32f4xx_hal_flash_ex.c ****   /* Wait for last operation to be completed */  
1153:ThirdParty/STM32F4xx_HAL_Driver/Src/stm32f4xx_hal_flash_ex.c ****   status = FLASH_WaitForLastOperation((uint32_t)FLASH_TIMEOUT_VALUE);
1154:ThirdParty/STM32F4xx_HAL_Driver/Src/stm32f4xx_hal_flash_ex.c **** 
1155:ThirdParty/STM32F4xx_HAL_Driver/Src/stm32f4xx_hal_flash_ex.c ****   if(status == HAL_OK)
1156:ThirdParty/STM32F4xx_HAL_Driver/Src/stm32f4xx_hal_flash_ex.c ****   { 
1157:ThirdParty/STM32F4xx_HAL_Driver/Src/stm32f4xx_hal_flash_ex.c ****     *(__IO uint16_t*)OPTCR_BYTE2_ADDRESS &= (~Sector);
1158:ThirdParty/STM32F4xx_HAL_Driver/Src/stm32f4xx_hal_flash_ex.c ****   }
1159:ThirdParty/STM32F4xx_HAL_Driver/Src/stm32f4xx_hal_flash_ex.c ****   
1160:ThirdParty/STM32F4xx_HAL_Driver/Src/stm32f4xx_hal_flash_ex.c ****   return status;
1161:ThirdParty/STM32F4xx_HAL_Driver/Src/stm32f4xx_hal_flash_ex.c **** 
1162:ThirdParty/STM32F4xx_HAL_Driver/Src/stm32f4xx_hal_flash_ex.c **** }
1163:ThirdParty/STM32F4xx_HAL_Driver/Src/stm32f4xx_hal_flash_ex.c **** #endif /* STM32F401xC || STM32F401xE || STM32F411xE || STM32F446xx || STM32F412Zx || STM32F412Vx ||
1164:ThirdParty/STM32F4xx_HAL_Driver/Src/stm32f4xx_hal_flash_ex.c ****           STM32F413xx || STM32F423xx */
1165:ThirdParty/STM32F4xx_HAL_Driver/Src/stm32f4xx_hal_flash_ex.c **** 
1166:ThirdParty/STM32F4xx_HAL_Driver/Src/stm32f4xx_hal_flash_ex.c **** /**
1167:ThirdParty/STM32F4xx_HAL_Driver/Src/stm32f4xx_hal_flash_ex.c ****   * @brief  Set the read protection level.
1168:ThirdParty/STM32F4xx_HAL_Driver/Src/stm32f4xx_hal_flash_ex.c ****   * @param  Level specifies the read protection level.
1169:ThirdParty/STM32F4xx_HAL_Driver/Src/stm32f4xx_hal_flash_ex.c ****   *          This parameter can be one of the following values:
1170:ThirdParty/STM32F4xx_HAL_Driver/Src/stm32f4xx_hal_flash_ex.c ****   *            @arg OB_RDP_LEVEL_0: No protection
1171:ThirdParty/STM32F4xx_HAL_Driver/Src/stm32f4xx_hal_flash_ex.c ****   *            @arg OB_RDP_LEVEL_1: Read protection of the memory
1172:ThirdParty/STM32F4xx_HAL_Driver/Src/stm32f4xx_hal_flash_ex.c ****   *            @arg OB_RDP_LEVEL_2: Full chip protection
1173:ThirdParty/STM32F4xx_HAL_Driver/Src/stm32f4xx_hal_flash_ex.c ****   *   
1174:ThirdParty/STM32F4xx_HAL_Driver/Src/stm32f4xx_hal_flash_ex.c ****   * @note WARNING: When enabling OB_RDP level 2 it's no more possible to go back to level 1 or 0
1175:ThirdParty/STM32F4xx_HAL_Driver/Src/stm32f4xx_hal_flash_ex.c ****   *    
1176:ThirdParty/STM32F4xx_HAL_Driver/Src/stm32f4xx_hal_flash_ex.c ****   * @retval HAL Status
1177:ThirdParty/STM32F4xx_HAL_Driver/Src/stm32f4xx_hal_flash_ex.c ****   */
1178:ThirdParty/STM32F4xx_HAL_Driver/Src/stm32f4xx_hal_flash_ex.c **** static HAL_StatusTypeDef FLASH_OB_RDP_LevelConfig(uint8_t Level)
1179:ThirdParty/STM32F4xx_HAL_Driver/Src/stm32f4xx_hal_flash_ex.c **** {
1180:ThirdParty/STM32F4xx_HAL_Driver/Src/stm32f4xx_hal_flash_ex.c ****   HAL_StatusTypeDef status = HAL_OK;
1181:ThirdParty/STM32F4xx_HAL_Driver/Src/stm32f4xx_hal_flash_ex.c ****   
1182:ThirdParty/STM32F4xx_HAL_Driver/Src/stm32f4xx_hal_flash_ex.c ****   /* Check the parameters */
1183:ThirdParty/STM32F4xx_HAL_Driver/Src/stm32f4xx_hal_flash_ex.c ****   assert_param(IS_OB_RDP_LEVEL(Level));
1184:ThirdParty/STM32F4xx_HAL_Driver/Src/stm32f4xx_hal_flash_ex.c ****     
1185:ThirdParty/STM32F4xx_HAL_Driver/Src/stm32f4xx_hal_flash_ex.c ****   /* Wait for last operation to be completed */
1186:ThirdParty/STM32F4xx_HAL_Driver/Src/stm32f4xx_hal_flash_ex.c ****   status = FLASH_WaitForLastOperation((uint32_t)FLASH_TIMEOUT_VALUE);
ARM GAS  /tmp/ccHdxmpw.s 			page 23


1187:ThirdParty/STM32F4xx_HAL_Driver/Src/stm32f4xx_hal_flash_ex.c **** 
1188:ThirdParty/STM32F4xx_HAL_Driver/Src/stm32f4xx_hal_flash_ex.c ****   if(status == HAL_OK)
1189:ThirdParty/STM32F4xx_HAL_Driver/Src/stm32f4xx_hal_flash_ex.c ****   { 
1190:ThirdParty/STM32F4xx_HAL_Driver/Src/stm32f4xx_hal_flash_ex.c ****     *(__IO uint8_t*)OPTCR_BYTE1_ADDRESS = Level;
1191:ThirdParty/STM32F4xx_HAL_Driver/Src/stm32f4xx_hal_flash_ex.c ****   }
1192:ThirdParty/STM32F4xx_HAL_Driver/Src/stm32f4xx_hal_flash_ex.c ****   
1193:ThirdParty/STM32F4xx_HAL_Driver/Src/stm32f4xx_hal_flash_ex.c ****   return status;
1194:ThirdParty/STM32F4xx_HAL_Driver/Src/stm32f4xx_hal_flash_ex.c **** }
1195:ThirdParty/STM32F4xx_HAL_Driver/Src/stm32f4xx_hal_flash_ex.c **** 
1196:ThirdParty/STM32F4xx_HAL_Driver/Src/stm32f4xx_hal_flash_ex.c **** /**
1197:ThirdParty/STM32F4xx_HAL_Driver/Src/stm32f4xx_hal_flash_ex.c ****   * @brief  Program the FLASH User Option Byte: IWDG_SW / RST_STOP / RST_STDBY.    
1198:ThirdParty/STM32F4xx_HAL_Driver/Src/stm32f4xx_hal_flash_ex.c ****   * @param  Iwdg Selects the IWDG mode
1199:ThirdParty/STM32F4xx_HAL_Driver/Src/stm32f4xx_hal_flash_ex.c ****   *          This parameter can be one of the following values:
1200:ThirdParty/STM32F4xx_HAL_Driver/Src/stm32f4xx_hal_flash_ex.c ****   *            @arg OB_IWDG_SW: Software IWDG selected
1201:ThirdParty/STM32F4xx_HAL_Driver/Src/stm32f4xx_hal_flash_ex.c ****   *            @arg OB_IWDG_HW: Hardware IWDG selected
1202:ThirdParty/STM32F4xx_HAL_Driver/Src/stm32f4xx_hal_flash_ex.c ****   * @param  Stop Reset event when entering STOP mode.
1203:ThirdParty/STM32F4xx_HAL_Driver/Src/stm32f4xx_hal_flash_ex.c ****   *          This parameter  can be one of the following values:
1204:ThirdParty/STM32F4xx_HAL_Driver/Src/stm32f4xx_hal_flash_ex.c ****   *            @arg OB_STOP_NO_RST: No reset generated when entering in STOP
1205:ThirdParty/STM32F4xx_HAL_Driver/Src/stm32f4xx_hal_flash_ex.c ****   *            @arg OB_STOP_RST: Reset generated when entering in STOP
1206:ThirdParty/STM32F4xx_HAL_Driver/Src/stm32f4xx_hal_flash_ex.c ****   * @param  Stdby Reset event when entering Standby mode.
1207:ThirdParty/STM32F4xx_HAL_Driver/Src/stm32f4xx_hal_flash_ex.c ****   *          This parameter  can be one of the following values:
1208:ThirdParty/STM32F4xx_HAL_Driver/Src/stm32f4xx_hal_flash_ex.c ****   *            @arg OB_STDBY_NO_RST: No reset generated when entering in STANDBY
1209:ThirdParty/STM32F4xx_HAL_Driver/Src/stm32f4xx_hal_flash_ex.c ****   *            @arg OB_STDBY_RST: Reset generated when entering in STANDBY
1210:ThirdParty/STM32F4xx_HAL_Driver/Src/stm32f4xx_hal_flash_ex.c ****   * @retval HAL Status
1211:ThirdParty/STM32F4xx_HAL_Driver/Src/stm32f4xx_hal_flash_ex.c ****   */
1212:ThirdParty/STM32F4xx_HAL_Driver/Src/stm32f4xx_hal_flash_ex.c **** static HAL_StatusTypeDef FLASH_OB_UserConfig(uint8_t Iwdg, uint8_t Stop, uint8_t Stdby)
1213:ThirdParty/STM32F4xx_HAL_Driver/Src/stm32f4xx_hal_flash_ex.c **** {
1214:ThirdParty/STM32F4xx_HAL_Driver/Src/stm32f4xx_hal_flash_ex.c ****   uint8_t optiontmp = 0xFF;
1215:ThirdParty/STM32F4xx_HAL_Driver/Src/stm32f4xx_hal_flash_ex.c ****   HAL_StatusTypeDef status = HAL_OK;
1216:ThirdParty/STM32F4xx_HAL_Driver/Src/stm32f4xx_hal_flash_ex.c **** 
1217:ThirdParty/STM32F4xx_HAL_Driver/Src/stm32f4xx_hal_flash_ex.c ****   /* Check the parameters */
1218:ThirdParty/STM32F4xx_HAL_Driver/Src/stm32f4xx_hal_flash_ex.c ****   assert_param(IS_OB_IWDG_SOURCE(Iwdg));
1219:ThirdParty/STM32F4xx_HAL_Driver/Src/stm32f4xx_hal_flash_ex.c ****   assert_param(IS_OB_STOP_SOURCE(Stop));
1220:ThirdParty/STM32F4xx_HAL_Driver/Src/stm32f4xx_hal_flash_ex.c ****   assert_param(IS_OB_STDBY_SOURCE(Stdby));
1221:ThirdParty/STM32F4xx_HAL_Driver/Src/stm32f4xx_hal_flash_ex.c **** 
1222:ThirdParty/STM32F4xx_HAL_Driver/Src/stm32f4xx_hal_flash_ex.c ****   /* Wait for last operation to be completed */
1223:ThirdParty/STM32F4xx_HAL_Driver/Src/stm32f4xx_hal_flash_ex.c ****   status = FLASH_WaitForLastOperation((uint32_t)FLASH_TIMEOUT_VALUE);
1224:ThirdParty/STM32F4xx_HAL_Driver/Src/stm32f4xx_hal_flash_ex.c ****   
1225:ThirdParty/STM32F4xx_HAL_Driver/Src/stm32f4xx_hal_flash_ex.c ****   if(status == HAL_OK)
1226:ThirdParty/STM32F4xx_HAL_Driver/Src/stm32f4xx_hal_flash_ex.c ****   {     
1227:ThirdParty/STM32F4xx_HAL_Driver/Src/stm32f4xx_hal_flash_ex.c ****     /* Mask OPTLOCK, OPTSTRT, BOR_LEV and BFB2 bits */
1228:ThirdParty/STM32F4xx_HAL_Driver/Src/stm32f4xx_hal_flash_ex.c ****     optiontmp =  (uint8_t)((*(__IO uint8_t *)OPTCR_BYTE0_ADDRESS) & (uint8_t)0x1F);
1229:ThirdParty/STM32F4xx_HAL_Driver/Src/stm32f4xx_hal_flash_ex.c **** 
1230:ThirdParty/STM32F4xx_HAL_Driver/Src/stm32f4xx_hal_flash_ex.c ****     /* Update User Option Byte */
1231:ThirdParty/STM32F4xx_HAL_Driver/Src/stm32f4xx_hal_flash_ex.c ****     *(__IO uint8_t *)OPTCR_BYTE0_ADDRESS = Iwdg | (uint8_t)(Stdby | (uint8_t)(Stop | ((uint8_t)opti
1232:ThirdParty/STM32F4xx_HAL_Driver/Src/stm32f4xx_hal_flash_ex.c ****   }
1233:ThirdParty/STM32F4xx_HAL_Driver/Src/stm32f4xx_hal_flash_ex.c ****   
1234:ThirdParty/STM32F4xx_HAL_Driver/Src/stm32f4xx_hal_flash_ex.c ****   return status; 
1235:ThirdParty/STM32F4xx_HAL_Driver/Src/stm32f4xx_hal_flash_ex.c **** }
1236:ThirdParty/STM32F4xx_HAL_Driver/Src/stm32f4xx_hal_flash_ex.c **** 
1237:ThirdParty/STM32F4xx_HAL_Driver/Src/stm32f4xx_hal_flash_ex.c **** /**
1238:ThirdParty/STM32F4xx_HAL_Driver/Src/stm32f4xx_hal_flash_ex.c ****   * @brief  Set the BOR Level. 
1239:ThirdParty/STM32F4xx_HAL_Driver/Src/stm32f4xx_hal_flash_ex.c ****   * @param  Level specifies the Option Bytes BOR Reset Level.
1240:ThirdParty/STM32F4xx_HAL_Driver/Src/stm32f4xx_hal_flash_ex.c ****   *          This parameter can be one of the following values:
1241:ThirdParty/STM32F4xx_HAL_Driver/Src/stm32f4xx_hal_flash_ex.c ****   *            @arg OB_BOR_LEVEL3: Supply voltage ranges from 2.7 to 3.6 V
1242:ThirdParty/STM32F4xx_HAL_Driver/Src/stm32f4xx_hal_flash_ex.c ****   *            @arg OB_BOR_LEVEL2: Supply voltage ranges from 2.4 to 2.7 V
1243:ThirdParty/STM32F4xx_HAL_Driver/Src/stm32f4xx_hal_flash_ex.c ****   *            @arg OB_BOR_LEVEL1: Supply voltage ranges from 2.1 to 2.4 V
ARM GAS  /tmp/ccHdxmpw.s 			page 24


1244:ThirdParty/STM32F4xx_HAL_Driver/Src/stm32f4xx_hal_flash_ex.c ****   *            @arg OB_BOR_OFF: Supply voltage ranges from 1.62 to 2.1 V
1245:ThirdParty/STM32F4xx_HAL_Driver/Src/stm32f4xx_hal_flash_ex.c ****   * @retval HAL Status
1246:ThirdParty/STM32F4xx_HAL_Driver/Src/stm32f4xx_hal_flash_ex.c ****   */
1247:ThirdParty/STM32F4xx_HAL_Driver/Src/stm32f4xx_hal_flash_ex.c **** static HAL_StatusTypeDef FLASH_OB_BOR_LevelConfig(uint8_t Level)
1248:ThirdParty/STM32F4xx_HAL_Driver/Src/stm32f4xx_hal_flash_ex.c **** {
  72              		.loc 1 1248 1 is_stmt 1 view -0
  73              		.cfi_startproc
  74              		@ args = 0, pretend = 0, frame = 0
  75              		@ frame_needed = 0, uses_anonymous_args = 0
  76              		@ link register save eliminated.
1249:ThirdParty/STM32F4xx_HAL_Driver/Src/stm32f4xx_hal_flash_ex.c ****   /* Check the parameters */
1250:ThirdParty/STM32F4xx_HAL_Driver/Src/stm32f4xx_hal_flash_ex.c ****   assert_param(IS_OB_BOR_LEVEL(Level));
  77              		.loc 1 1250 3 view .LVU11
1251:ThirdParty/STM32F4xx_HAL_Driver/Src/stm32f4xx_hal_flash_ex.c **** 
1252:ThirdParty/STM32F4xx_HAL_Driver/Src/stm32f4xx_hal_flash_ex.c ****   /* Set the BOR Level */
1253:ThirdParty/STM32F4xx_HAL_Driver/Src/stm32f4xx_hal_flash_ex.c ****   *(__IO uint8_t *)OPTCR_BYTE0_ADDRESS &= (~FLASH_OPTCR_BOR_LEV);
  78              		.loc 1 1253 3 view .LVU12
  79              		.loc 1 1253 40 is_stmt 0 view .LVU13
  80 0000 044B     		ldr	r3, .L5
  81 0002 197D     		ldrb	r1, [r3, #20]	@ zero_extendqisi2
  82 0004 01F0F301 		and	r1, r1, #243
  83 0008 1975     		strb	r1, [r3, #20]
1254:ThirdParty/STM32F4xx_HAL_Driver/Src/stm32f4xx_hal_flash_ex.c ****   *(__IO uint8_t *)OPTCR_BYTE0_ADDRESS |= Level;
  84              		.loc 1 1254 3 is_stmt 1 view .LVU14
  85              		.loc 1 1254 40 is_stmt 0 view .LVU15
  86 000a 1A7D     		ldrb	r2, [r3, #20]	@ zero_extendqisi2
  87 000c 0243     		orrs	r2, r2, r0
  88 000e 1A75     		strb	r2, [r3, #20]
1255:ThirdParty/STM32F4xx_HAL_Driver/Src/stm32f4xx_hal_flash_ex.c ****   
1256:ThirdParty/STM32F4xx_HAL_Driver/Src/stm32f4xx_hal_flash_ex.c ****   return HAL_OK;
  89              		.loc 1 1256 3 is_stmt 1 view .LVU16
1257:ThirdParty/STM32F4xx_HAL_Driver/Src/stm32f4xx_hal_flash_ex.c ****   
1258:ThirdParty/STM32F4xx_HAL_Driver/Src/stm32f4xx_hal_flash_ex.c **** }
  90              		.loc 1 1258 1 is_stmt 0 view .LVU17
  91 0010 0020     		movs	r0, #0
  92              	.LVL3:
  93              		.loc 1 1258 1 view .LVU18
  94 0012 7047     		bx	lr
  95              	.L6:
  96              		.align	2
  97              	.L5:
  98 0014 003C0240 		.word	1073888256
  99              		.cfi_endproc
 100              	.LFE143:
 102              		.section	.text.FLASH_OB_GetUser,"ax",%progbits
 103              		.align	1
 104              		.syntax unified
 105              		.thumb
 106              		.thumb_func
 108              	FLASH_OB_GetUser:
 109              	.LFB144:
1259:ThirdParty/STM32F4xx_HAL_Driver/Src/stm32f4xx_hal_flash_ex.c **** 
1260:ThirdParty/STM32F4xx_HAL_Driver/Src/stm32f4xx_hal_flash_ex.c **** /**
1261:ThirdParty/STM32F4xx_HAL_Driver/Src/stm32f4xx_hal_flash_ex.c ****   * @brief  Return the FLASH User Option Byte value.
1262:ThirdParty/STM32F4xx_HAL_Driver/Src/stm32f4xx_hal_flash_ex.c ****   * @retval uint8_t FLASH User Option Bytes values: IWDG_SW(Bit0), RST_STOP(Bit1)
1263:ThirdParty/STM32F4xx_HAL_Driver/Src/stm32f4xx_hal_flash_ex.c ****   *         and RST_STDBY(Bit2).
1264:ThirdParty/STM32F4xx_HAL_Driver/Src/stm32f4xx_hal_flash_ex.c ****   */
ARM GAS  /tmp/ccHdxmpw.s 			page 25


1265:ThirdParty/STM32F4xx_HAL_Driver/Src/stm32f4xx_hal_flash_ex.c **** static uint8_t FLASH_OB_GetUser(void)
1266:ThirdParty/STM32F4xx_HAL_Driver/Src/stm32f4xx_hal_flash_ex.c **** {
 110              		.loc 1 1266 1 is_stmt 1 view -0
 111              		.cfi_startproc
 112              		@ args = 0, pretend = 0, frame = 0
 113              		@ frame_needed = 0, uses_anonymous_args = 0
 114              		@ link register save eliminated.
1267:ThirdParty/STM32F4xx_HAL_Driver/Src/stm32f4xx_hal_flash_ex.c ****   /* Return the User Option Byte */
1268:ThirdParty/STM32F4xx_HAL_Driver/Src/stm32f4xx_hal_flash_ex.c ****   return ((uint8_t)(FLASH->OPTCR & 0xE0));
 115              		.loc 1 1268 3 view .LVU20
 116              		.loc 1 1268 26 is_stmt 0 view .LVU21
 117 0000 024B     		ldr	r3, .L8
 118 0002 5869     		ldr	r0, [r3, #20]
1269:ThirdParty/STM32F4xx_HAL_Driver/Src/stm32f4xx_hal_flash_ex.c **** }
 119              		.loc 1 1269 1 view .LVU22
 120 0004 00F0E000 		and	r0, r0, #224
 121 0008 7047     		bx	lr
 122              	.L9:
 123 000a 00BF     		.align	2
 124              	.L8:
 125 000c 003C0240 		.word	1073888256
 126              		.cfi_endproc
 127              	.LFE144:
 129              		.section	.text.FLASH_OB_GetWRP,"ax",%progbits
 130              		.align	1
 131              		.syntax unified
 132              		.thumb
 133              		.thumb_func
 135              	FLASH_OB_GetWRP:
 136              	.LFB145:
1270:ThirdParty/STM32F4xx_HAL_Driver/Src/stm32f4xx_hal_flash_ex.c **** 
1271:ThirdParty/STM32F4xx_HAL_Driver/Src/stm32f4xx_hal_flash_ex.c **** /**
1272:ThirdParty/STM32F4xx_HAL_Driver/Src/stm32f4xx_hal_flash_ex.c ****   * @brief  Return the FLASH Write Protection Option Bytes value.
1273:ThirdParty/STM32F4xx_HAL_Driver/Src/stm32f4xx_hal_flash_ex.c ****   * @retval uint16_t FLASH Write Protection Option Bytes value
1274:ThirdParty/STM32F4xx_HAL_Driver/Src/stm32f4xx_hal_flash_ex.c ****   */
1275:ThirdParty/STM32F4xx_HAL_Driver/Src/stm32f4xx_hal_flash_ex.c **** static uint16_t FLASH_OB_GetWRP(void)
1276:ThirdParty/STM32F4xx_HAL_Driver/Src/stm32f4xx_hal_flash_ex.c **** {
 137              		.loc 1 1276 1 is_stmt 1 view -0
 138              		.cfi_startproc
 139              		@ args = 0, pretend = 0, frame = 0
 140              		@ frame_needed = 0, uses_anonymous_args = 0
 141              		@ link register save eliminated.
1277:ThirdParty/STM32F4xx_HAL_Driver/Src/stm32f4xx_hal_flash_ex.c ****   /* Return the FLASH write protection Register value */
1278:ThirdParty/STM32F4xx_HAL_Driver/Src/stm32f4xx_hal_flash_ex.c ****   return (*(__IO uint16_t *)(OPTCR_BYTE2_ADDRESS));
 142              		.loc 1 1278 3 view .LVU24
 143              		.loc 1 1278 11 is_stmt 0 view .LVU25
 144 0000 014B     		ldr	r3, .L11
 145 0002 D88A     		ldrh	r0, [r3, #22]
1279:ThirdParty/STM32F4xx_HAL_Driver/Src/stm32f4xx_hal_flash_ex.c **** }
 146              		.loc 1 1279 1 view .LVU26
 147 0004 80B2     		uxth	r0, r0
 148 0006 7047     		bx	lr
 149              	.L12:
 150              		.align	2
 151              	.L11:
 152 0008 003C0240 		.word	1073888256
 153              		.cfi_endproc
ARM GAS  /tmp/ccHdxmpw.s 			page 26


 154              	.LFE145:
 156              		.section	.text.FLASH_OB_GetRDP,"ax",%progbits
 157              		.align	1
 158              		.syntax unified
 159              		.thumb
 160              		.thumb_func
 162              	FLASH_OB_GetRDP:
 163              	.LFB146:
1280:ThirdParty/STM32F4xx_HAL_Driver/Src/stm32f4xx_hal_flash_ex.c **** 
1281:ThirdParty/STM32F4xx_HAL_Driver/Src/stm32f4xx_hal_flash_ex.c **** /**
1282:ThirdParty/STM32F4xx_HAL_Driver/Src/stm32f4xx_hal_flash_ex.c ****   * @brief  Returns the FLASH Read Protection level.
1283:ThirdParty/STM32F4xx_HAL_Driver/Src/stm32f4xx_hal_flash_ex.c ****   * @retval FLASH ReadOut Protection Status:
1284:ThirdParty/STM32F4xx_HAL_Driver/Src/stm32f4xx_hal_flash_ex.c ****   *         This parameter can be one of the following values:
1285:ThirdParty/STM32F4xx_HAL_Driver/Src/stm32f4xx_hal_flash_ex.c ****   *            @arg OB_RDP_LEVEL_0: No protection
1286:ThirdParty/STM32F4xx_HAL_Driver/Src/stm32f4xx_hal_flash_ex.c ****   *            @arg OB_RDP_LEVEL_1: Read protection of the memory
1287:ThirdParty/STM32F4xx_HAL_Driver/Src/stm32f4xx_hal_flash_ex.c ****   *            @arg OB_RDP_LEVEL_2: Full chip protection
1288:ThirdParty/STM32F4xx_HAL_Driver/Src/stm32f4xx_hal_flash_ex.c ****   */
1289:ThirdParty/STM32F4xx_HAL_Driver/Src/stm32f4xx_hal_flash_ex.c **** static uint8_t FLASH_OB_GetRDP(void)
1290:ThirdParty/STM32F4xx_HAL_Driver/Src/stm32f4xx_hal_flash_ex.c **** {
 164              		.loc 1 1290 1 is_stmt 1 view -0
 165              		.cfi_startproc
 166              		@ args = 0, pretend = 0, frame = 0
 167              		@ frame_needed = 0, uses_anonymous_args = 0
 168              		@ link register save eliminated.
1291:ThirdParty/STM32F4xx_HAL_Driver/Src/stm32f4xx_hal_flash_ex.c ****   uint8_t readstatus = OB_RDP_LEVEL_0;
 169              		.loc 1 1291 3 view .LVU28
 170              	.LVL4:
1292:ThirdParty/STM32F4xx_HAL_Driver/Src/stm32f4xx_hal_flash_ex.c **** 
1293:ThirdParty/STM32F4xx_HAL_Driver/Src/stm32f4xx_hal_flash_ex.c ****   if((*(__IO uint8_t*)(OPTCR_BYTE1_ADDRESS) == (uint8_t)OB_RDP_LEVEL_2))
 171              		.loc 1 1293 3 view .LVU29
 172              		.loc 1 1293 7 is_stmt 0 view .LVU30
 173 0000 054B     		ldr	r3, .L16
 174 0002 587D     		ldrb	r0, [r3, #21]	@ zero_extendqisi2
 175 0004 C0B2     		uxtb	r0, r0
 176              		.loc 1 1293 5 view .LVU31
 177 0006 CC28     		cmp	r0, #204
 178 0008 04D0     		beq	.L14
1294:ThirdParty/STM32F4xx_HAL_Driver/Src/stm32f4xx_hal_flash_ex.c ****   {
1295:ThirdParty/STM32F4xx_HAL_Driver/Src/stm32f4xx_hal_flash_ex.c ****     readstatus = OB_RDP_LEVEL_2;
1296:ThirdParty/STM32F4xx_HAL_Driver/Src/stm32f4xx_hal_flash_ex.c ****   }
1297:ThirdParty/STM32F4xx_HAL_Driver/Src/stm32f4xx_hal_flash_ex.c ****   else if((*(__IO uint8_t*)(OPTCR_BYTE1_ADDRESS) == (uint8_t)OB_RDP_LEVEL_1))
 179              		.loc 1 1297 8 is_stmt 1 view .LVU32
 180              		.loc 1 1297 12 is_stmt 0 view .LVU33
 181 000a 587D     		ldrb	r0, [r3, #21]	@ zero_extendqisi2
 182 000c C0B2     		uxtb	r0, r0
 183              		.loc 1 1297 10 view .LVU34
 184 000e 5528     		cmp	r0, #85
 185 0010 00D0     		beq	.L14
1298:ThirdParty/STM32F4xx_HAL_Driver/Src/stm32f4xx_hal_flash_ex.c ****   {
1299:ThirdParty/STM32F4xx_HAL_Driver/Src/stm32f4xx_hal_flash_ex.c ****     readstatus = OB_RDP_LEVEL_1;
1300:ThirdParty/STM32F4xx_HAL_Driver/Src/stm32f4xx_hal_flash_ex.c ****   }
1301:ThirdParty/STM32F4xx_HAL_Driver/Src/stm32f4xx_hal_flash_ex.c ****   else 
1302:ThirdParty/STM32F4xx_HAL_Driver/Src/stm32f4xx_hal_flash_ex.c ****   {
1303:ThirdParty/STM32F4xx_HAL_Driver/Src/stm32f4xx_hal_flash_ex.c ****     readstatus = OB_RDP_LEVEL_0;
 186              		.loc 1 1303 16 view .LVU35
 187 0012 AA20     		movs	r0, #170
 188              	.L14:
ARM GAS  /tmp/ccHdxmpw.s 			page 27


 189              	.LVL5:
1304:ThirdParty/STM32F4xx_HAL_Driver/Src/stm32f4xx_hal_flash_ex.c ****   }
1305:ThirdParty/STM32F4xx_HAL_Driver/Src/stm32f4xx_hal_flash_ex.c **** 
1306:ThirdParty/STM32F4xx_HAL_Driver/Src/stm32f4xx_hal_flash_ex.c ****   return readstatus;
 190              		.loc 1 1306 3 is_stmt 1 view .LVU36
1307:ThirdParty/STM32F4xx_HAL_Driver/Src/stm32f4xx_hal_flash_ex.c **** }
 191              		.loc 1 1307 1 is_stmt 0 view .LVU37
 192 0014 7047     		bx	lr
 193              	.L17:
 194 0016 00BF     		.align	2
 195              	.L16:
 196 0018 003C0240 		.word	1073888256
 197              		.cfi_endproc
 198              	.LFE146:
 200              		.section	.text.FLASH_OB_GetBOR,"ax",%progbits
 201              		.align	1
 202              		.syntax unified
 203              		.thumb
 204              		.thumb_func
 206              	FLASH_OB_GetBOR:
 207              	.LFB147:
1308:ThirdParty/STM32F4xx_HAL_Driver/Src/stm32f4xx_hal_flash_ex.c **** 
1309:ThirdParty/STM32F4xx_HAL_Driver/Src/stm32f4xx_hal_flash_ex.c **** /**
1310:ThirdParty/STM32F4xx_HAL_Driver/Src/stm32f4xx_hal_flash_ex.c ****   * @brief  Returns the FLASH BOR level.
1311:ThirdParty/STM32F4xx_HAL_Driver/Src/stm32f4xx_hal_flash_ex.c ****   * @retval uint8_t The FLASH BOR level:
1312:ThirdParty/STM32F4xx_HAL_Driver/Src/stm32f4xx_hal_flash_ex.c ****   *           - OB_BOR_LEVEL3: Supply voltage ranges from 2.7 to 3.6 V
1313:ThirdParty/STM32F4xx_HAL_Driver/Src/stm32f4xx_hal_flash_ex.c ****   *           - OB_BOR_LEVEL2: Supply voltage ranges from 2.4 to 2.7 V
1314:ThirdParty/STM32F4xx_HAL_Driver/Src/stm32f4xx_hal_flash_ex.c ****   *           - OB_BOR_LEVEL1: Supply voltage ranges from 2.1 to 2.4 V
1315:ThirdParty/STM32F4xx_HAL_Driver/Src/stm32f4xx_hal_flash_ex.c ****   *           - OB_BOR_OFF   : Supply voltage ranges from 1.62 to 2.1 V  
1316:ThirdParty/STM32F4xx_HAL_Driver/Src/stm32f4xx_hal_flash_ex.c ****   */
1317:ThirdParty/STM32F4xx_HAL_Driver/Src/stm32f4xx_hal_flash_ex.c **** static uint8_t FLASH_OB_GetBOR(void)
1318:ThirdParty/STM32F4xx_HAL_Driver/Src/stm32f4xx_hal_flash_ex.c **** {
 208              		.loc 1 1318 1 is_stmt 1 view -0
 209              		.cfi_startproc
 210              		@ args = 0, pretend = 0, frame = 0
 211              		@ frame_needed = 0, uses_anonymous_args = 0
 212              		@ link register save eliminated.
1319:ThirdParty/STM32F4xx_HAL_Driver/Src/stm32f4xx_hal_flash_ex.c ****   /* Return the FLASH BOR level */
1320:ThirdParty/STM32F4xx_HAL_Driver/Src/stm32f4xx_hal_flash_ex.c ****   return (uint8_t)(*(__IO uint8_t *)(OPTCR_BYTE0_ADDRESS) & (uint8_t)0x0C);
 213              		.loc 1 1320 3 view .LVU39
 214              		.loc 1 1320 10 is_stmt 0 view .LVU40
 215 0000 024B     		ldr	r3, .L19
 216 0002 187D     		ldrb	r0, [r3, #20]	@ zero_extendqisi2
1321:ThirdParty/STM32F4xx_HAL_Driver/Src/stm32f4xx_hal_flash_ex.c **** }
 217              		.loc 1 1321 1 view .LVU41
 218 0004 00F00C00 		and	r0, r0, #12
 219 0008 7047     		bx	lr
 220              	.L20:
 221 000a 00BF     		.align	2
 222              	.L19:
 223 000c 003C0240 		.word	1073888256
 224              		.cfi_endproc
 225              	.LFE147:
 227              		.section	.text.FLASH_OB_EnableWRP,"ax",%progbits
 228              		.align	1
 229              		.syntax unified
 230              		.thumb
ARM GAS  /tmp/ccHdxmpw.s 			page 28


 231              		.thumb_func
 233              	FLASH_OB_EnableWRP:
 234              	.LVL6:
 235              	.LFB139:
1049:ThirdParty/STM32F4xx_HAL_Driver/Src/stm32f4xx_hal_flash_ex.c ****   HAL_StatusTypeDef status = HAL_OK;
 236              		.loc 1 1049 1 is_stmt 1 view -0
 237              		.cfi_startproc
 238              		@ args = 0, pretend = 0, frame = 0
 239              		@ frame_needed = 0, uses_anonymous_args = 0
1049:ThirdParty/STM32F4xx_HAL_Driver/Src/stm32f4xx_hal_flash_ex.c ****   HAL_StatusTypeDef status = HAL_OK;
 240              		.loc 1 1049 1 is_stmt 0 view .LVU43
 241 0000 10B5     		push	{r4, lr}
 242              	.LCFI0:
 243              		.cfi_def_cfa_offset 8
 244              		.cfi_offset 4, -8
 245              		.cfi_offset 14, -4
 246 0002 0446     		mov	r4, r0
1050:ThirdParty/STM32F4xx_HAL_Driver/Src/stm32f4xx_hal_flash_ex.c ****   
 247              		.loc 1 1050 3 is_stmt 1 view .LVU44
 248              	.LVL7:
1053:ThirdParty/STM32F4xx_HAL_Driver/Src/stm32f4xx_hal_flash_ex.c ****   assert_param(IS_FLASH_BANK(Banks));
 249              		.loc 1 1053 3 view .LVU45
1054:ThirdParty/STM32F4xx_HAL_Driver/Src/stm32f4xx_hal_flash_ex.c ****     
 250              		.loc 1 1054 3 view .LVU46
1057:ThirdParty/STM32F4xx_HAL_Driver/Src/stm32f4xx_hal_flash_ex.c **** 
 251              		.loc 1 1057 3 view .LVU47
1057:ThirdParty/STM32F4xx_HAL_Driver/Src/stm32f4xx_hal_flash_ex.c **** 
 252              		.loc 1 1057 12 is_stmt 0 view .LVU48
 253 0004 4CF25030 		movw	r0, #50000
 254              	.LVL8:
1057:ThirdParty/STM32F4xx_HAL_Driver/Src/stm32f4xx_hal_flash_ex.c **** 
 255              		.loc 1 1057 12 view .LVU49
 256 0008 FFF7FEFF 		bl	FLASH_WaitForLastOperation
 257              	.LVL9:
1059:ThirdParty/STM32F4xx_HAL_Driver/Src/stm32f4xx_hal_flash_ex.c ****   { 
 258              		.loc 1 1059 3 is_stmt 1 view .LVU50
1059:ThirdParty/STM32F4xx_HAL_Driver/Src/stm32f4xx_hal_flash_ex.c ****   { 
 259              		.loc 1 1059 5 is_stmt 0 view .LVU51
 260 000c 28B9     		cbnz	r0, .L22
1061:ThirdParty/STM32F4xx_HAL_Driver/Src/stm32f4xx_hal_flash_ex.c ****   }
 261              		.loc 1 1061 5 is_stmt 1 view .LVU52
1061:ThirdParty/STM32F4xx_HAL_Driver/Src/stm32f4xx_hal_flash_ex.c ****   }
 262              		.loc 1 1061 42 is_stmt 0 view .LVU53
 263 000e 034A     		ldr	r2, .L24
 264 0010 D38A     		ldrh	r3, [r2, #22]
 265 0012 9BB2     		uxth	r3, r3
 266 0014 23EA0404 		bic	r4, r3, r4
 267              	.LVL10:
1061:ThirdParty/STM32F4xx_HAL_Driver/Src/stm32f4xx_hal_flash_ex.c ****   }
 268              		.loc 1 1061 42 view .LVU54
 269 0018 D482     		strh	r4, [r2, #22]	@ movhi
 270              	.L22:
1064:ThirdParty/STM32F4xx_HAL_Driver/Src/stm32f4xx_hal_flash_ex.c **** }
 271              		.loc 1 1064 3 is_stmt 1 view .LVU55
1065:ThirdParty/STM32F4xx_HAL_Driver/Src/stm32f4xx_hal_flash_ex.c **** 
 272              		.loc 1 1065 1 is_stmt 0 view .LVU56
 273 001a 10BD     		pop	{r4, pc}
ARM GAS  /tmp/ccHdxmpw.s 			page 29


 274              	.L25:
 275              		.align	2
 276              	.L24:
 277 001c 003C0240 		.word	1073888256
 278              		.cfi_endproc
 279              	.LFE139:
 281              		.section	.text.FLASH_OB_DisableWRP,"ax",%progbits
 282              		.align	1
 283              		.syntax unified
 284              		.thumb
 285              		.thumb_func
 287              	FLASH_OB_DisableWRP:
 288              	.LVL11:
 289              	.LFB140:
1085:ThirdParty/STM32F4xx_HAL_Driver/Src/stm32f4xx_hal_flash_ex.c ****   HAL_StatusTypeDef status = HAL_OK;
 290              		.loc 1 1085 1 is_stmt 1 view -0
 291              		.cfi_startproc
 292              		@ args = 0, pretend = 0, frame = 0
 293              		@ frame_needed = 0, uses_anonymous_args = 0
1085:ThirdParty/STM32F4xx_HAL_Driver/Src/stm32f4xx_hal_flash_ex.c ****   HAL_StatusTypeDef status = HAL_OK;
 294              		.loc 1 1085 1 is_stmt 0 view .LVU58
 295 0000 10B5     		push	{r4, lr}
 296              	.LCFI1:
 297              		.cfi_def_cfa_offset 8
 298              		.cfi_offset 4, -8
 299              		.cfi_offset 14, -4
 300 0002 0446     		mov	r4, r0
1086:ThirdParty/STM32F4xx_HAL_Driver/Src/stm32f4xx_hal_flash_ex.c ****   
 301              		.loc 1 1086 3 is_stmt 1 view .LVU59
 302              	.LVL12:
1089:ThirdParty/STM32F4xx_HAL_Driver/Src/stm32f4xx_hal_flash_ex.c ****   assert_param(IS_FLASH_BANK(Banks));
 303              		.loc 1 1089 3 view .LVU60
1090:ThirdParty/STM32F4xx_HAL_Driver/Src/stm32f4xx_hal_flash_ex.c ****     
 304              		.loc 1 1090 3 view .LVU61
1093:ThirdParty/STM32F4xx_HAL_Driver/Src/stm32f4xx_hal_flash_ex.c **** 
 305              		.loc 1 1093 3 view .LVU62
1093:ThirdParty/STM32F4xx_HAL_Driver/Src/stm32f4xx_hal_flash_ex.c **** 
 306              		.loc 1 1093 12 is_stmt 0 view .LVU63
 307 0004 4CF25030 		movw	r0, #50000
 308              	.LVL13:
1093:ThirdParty/STM32F4xx_HAL_Driver/Src/stm32f4xx_hal_flash_ex.c **** 
 309              		.loc 1 1093 12 view .LVU64
 310 0008 FFF7FEFF 		bl	FLASH_WaitForLastOperation
 311              	.LVL14:
1095:ThirdParty/STM32F4xx_HAL_Driver/Src/stm32f4xx_hal_flash_ex.c ****   { 
 312              		.loc 1 1095 3 is_stmt 1 view .LVU65
1095:ThirdParty/STM32F4xx_HAL_Driver/Src/stm32f4xx_hal_flash_ex.c ****   { 
 313              		.loc 1 1095 5 is_stmt 0 view .LVU66
 314 000c 28B9     		cbnz	r0, .L27
1097:ThirdParty/STM32F4xx_HAL_Driver/Src/stm32f4xx_hal_flash_ex.c ****   }
 315              		.loc 1 1097 5 is_stmt 1 view .LVU67
1097:ThirdParty/STM32F4xx_HAL_Driver/Src/stm32f4xx_hal_flash_ex.c ****   }
 316              		.loc 1 1097 42 is_stmt 0 view .LVU68
 317 000e 034A     		ldr	r2, .L29
 318 0010 D38A     		ldrh	r3, [r2, #22]
 319 0012 9BB2     		uxth	r3, r3
1097:ThirdParty/STM32F4xx_HAL_Driver/Src/stm32f4xx_hal_flash_ex.c ****   }
ARM GAS  /tmp/ccHdxmpw.s 			page 30


 320              		.loc 1 1097 45 view .LVU69
 321 0014 A4B2     		uxth	r4, r4
 322              	.LVL15:
1097:ThirdParty/STM32F4xx_HAL_Driver/Src/stm32f4xx_hal_flash_ex.c ****   }
 323              		.loc 1 1097 42 view .LVU70
 324 0016 1C43     		orrs	r4, r4, r3
 325 0018 D482     		strh	r4, [r2, #22]	@ movhi
 326              	.L27:
1100:ThirdParty/STM32F4xx_HAL_Driver/Src/stm32f4xx_hal_flash_ex.c **** }
 327              		.loc 1 1100 3 is_stmt 1 view .LVU71
1101:ThirdParty/STM32F4xx_HAL_Driver/Src/stm32f4xx_hal_flash_ex.c **** #endif /* STM32F40xxx || STM32F41xxx || STM32F401xx || STM32F410xx || STM32F411xE || STM32F446xx ||
 328              		.loc 1 1101 1 is_stmt 0 view .LVU72
 329 001a 10BD     		pop	{r4, pc}
 330              	.L30:
 331              		.align	2
 332              	.L29:
 333 001c 003C0240 		.word	1073888256
 334              		.cfi_endproc
 335              	.LFE140:
 337              		.section	.text.FLASH_OB_RDP_LevelConfig,"ax",%progbits
 338              		.align	1
 339              		.syntax unified
 340              		.thumb
 341              		.thumb_func
 343              	FLASH_OB_RDP_LevelConfig:
 344              	.LVL16:
 345              	.LFB141:
1179:ThirdParty/STM32F4xx_HAL_Driver/Src/stm32f4xx_hal_flash_ex.c ****   HAL_StatusTypeDef status = HAL_OK;
 346              		.loc 1 1179 1 is_stmt 1 view -0
 347              		.cfi_startproc
 348              		@ args = 0, pretend = 0, frame = 0
 349              		@ frame_needed = 0, uses_anonymous_args = 0
1179:ThirdParty/STM32F4xx_HAL_Driver/Src/stm32f4xx_hal_flash_ex.c ****   HAL_StatusTypeDef status = HAL_OK;
 350              		.loc 1 1179 1 is_stmt 0 view .LVU74
 351 0000 10B5     		push	{r4, lr}
 352              	.LCFI2:
 353              		.cfi_def_cfa_offset 8
 354              		.cfi_offset 4, -8
 355              		.cfi_offset 14, -4
 356 0002 0446     		mov	r4, r0
1180:ThirdParty/STM32F4xx_HAL_Driver/Src/stm32f4xx_hal_flash_ex.c ****   
 357              		.loc 1 1180 3 is_stmt 1 view .LVU75
 358              	.LVL17:
1183:ThirdParty/STM32F4xx_HAL_Driver/Src/stm32f4xx_hal_flash_ex.c ****     
 359              		.loc 1 1183 3 view .LVU76
1186:ThirdParty/STM32F4xx_HAL_Driver/Src/stm32f4xx_hal_flash_ex.c **** 
 360              		.loc 1 1186 3 view .LVU77
1186:ThirdParty/STM32F4xx_HAL_Driver/Src/stm32f4xx_hal_flash_ex.c **** 
 361              		.loc 1 1186 12 is_stmt 0 view .LVU78
 362 0004 4CF25030 		movw	r0, #50000
 363              	.LVL18:
1186:ThirdParty/STM32F4xx_HAL_Driver/Src/stm32f4xx_hal_flash_ex.c **** 
 364              		.loc 1 1186 12 view .LVU79
 365 0008 FFF7FEFF 		bl	FLASH_WaitForLastOperation
 366              	.LVL19:
1188:ThirdParty/STM32F4xx_HAL_Driver/Src/stm32f4xx_hal_flash_ex.c ****   { 
 367              		.loc 1 1188 3 is_stmt 1 view .LVU80
ARM GAS  /tmp/ccHdxmpw.s 			page 31


1188:ThirdParty/STM32F4xx_HAL_Driver/Src/stm32f4xx_hal_flash_ex.c ****   { 
 368              		.loc 1 1188 5 is_stmt 0 view .LVU81
 369 000c 08B9     		cbnz	r0, .L32
1190:ThirdParty/STM32F4xx_HAL_Driver/Src/stm32f4xx_hal_flash_ex.c ****   }
 370              		.loc 1 1190 5 is_stmt 1 view .LVU82
1190:ThirdParty/STM32F4xx_HAL_Driver/Src/stm32f4xx_hal_flash_ex.c ****   }
 371              		.loc 1 1190 41 is_stmt 0 view .LVU83
 372 000e 014B     		ldr	r3, .L34
 373 0010 5C75     		strb	r4, [r3, #21]
 374              	.L32:
1193:ThirdParty/STM32F4xx_HAL_Driver/Src/stm32f4xx_hal_flash_ex.c **** }
 375              		.loc 1 1193 3 is_stmt 1 view .LVU84
1194:ThirdParty/STM32F4xx_HAL_Driver/Src/stm32f4xx_hal_flash_ex.c **** 
 376              		.loc 1 1194 1 is_stmt 0 view .LVU85
 377 0012 10BD     		pop	{r4, pc}
 378              	.L35:
 379              		.align	2
 380              	.L34:
 381 0014 003C0240 		.word	1073888256
 382              		.cfi_endproc
 383              	.LFE141:
 385              		.section	.text.FLASH_OB_UserConfig,"ax",%progbits
 386              		.align	1
 387              		.syntax unified
 388              		.thumb
 389              		.thumb_func
 391              	FLASH_OB_UserConfig:
 392              	.LVL20:
 393              	.LFB142:
1213:ThirdParty/STM32F4xx_HAL_Driver/Src/stm32f4xx_hal_flash_ex.c ****   uint8_t optiontmp = 0xFF;
 394              		.loc 1 1213 1 is_stmt 1 view -0
 395              		.cfi_startproc
 396              		@ args = 0, pretend = 0, frame = 0
 397              		@ frame_needed = 0, uses_anonymous_args = 0
1213:ThirdParty/STM32F4xx_HAL_Driver/Src/stm32f4xx_hal_flash_ex.c ****   uint8_t optiontmp = 0xFF;
 398              		.loc 1 1213 1 is_stmt 0 view .LVU87
 399 0000 F8B5     		push	{r3, r4, r5, r6, r7, lr}
 400              	.LCFI3:
 401              		.cfi_def_cfa_offset 24
 402              		.cfi_offset 3, -24
 403              		.cfi_offset 4, -20
 404              		.cfi_offset 5, -16
 405              		.cfi_offset 6, -12
 406              		.cfi_offset 7, -8
 407              		.cfi_offset 14, -4
 408 0002 0446     		mov	r4, r0
 409 0004 0E46     		mov	r6, r1
 410 0006 1546     		mov	r5, r2
1214:ThirdParty/STM32F4xx_HAL_Driver/Src/stm32f4xx_hal_flash_ex.c ****   HAL_StatusTypeDef status = HAL_OK;
 411              		.loc 1 1214 3 is_stmt 1 view .LVU88
 412              	.LVL21:
1215:ThirdParty/STM32F4xx_HAL_Driver/Src/stm32f4xx_hal_flash_ex.c **** 
 413              		.loc 1 1215 3 view .LVU89
1218:ThirdParty/STM32F4xx_HAL_Driver/Src/stm32f4xx_hal_flash_ex.c ****   assert_param(IS_OB_STOP_SOURCE(Stop));
 414              		.loc 1 1218 3 view .LVU90
1219:ThirdParty/STM32F4xx_HAL_Driver/Src/stm32f4xx_hal_flash_ex.c ****   assert_param(IS_OB_STDBY_SOURCE(Stdby));
 415              		.loc 1 1219 3 view .LVU91
ARM GAS  /tmp/ccHdxmpw.s 			page 32


1220:ThirdParty/STM32F4xx_HAL_Driver/Src/stm32f4xx_hal_flash_ex.c **** 
 416              		.loc 1 1220 3 view .LVU92
1223:ThirdParty/STM32F4xx_HAL_Driver/Src/stm32f4xx_hal_flash_ex.c ****   
 417              		.loc 1 1223 3 view .LVU93
1223:ThirdParty/STM32F4xx_HAL_Driver/Src/stm32f4xx_hal_flash_ex.c ****   
 418              		.loc 1 1223 12 is_stmt 0 view .LVU94
 419 0008 4CF25030 		movw	r0, #50000
 420              	.LVL22:
1223:ThirdParty/STM32F4xx_HAL_Driver/Src/stm32f4xx_hal_flash_ex.c ****   
 421              		.loc 1 1223 12 view .LVU95
 422 000c FFF7FEFF 		bl	FLASH_WaitForLastOperation
 423              	.LVL23:
1225:ThirdParty/STM32F4xx_HAL_Driver/Src/stm32f4xx_hal_flash_ex.c ****   {     
 424              		.loc 1 1225 3 is_stmt 1 view .LVU96
1225:ThirdParty/STM32F4xx_HAL_Driver/Src/stm32f4xx_hal_flash_ex.c ****   {     
 425              		.loc 1 1225 5 is_stmt 0 view .LVU97
 426 0010 48B9     		cbnz	r0, .L37
1228:ThirdParty/STM32F4xx_HAL_Driver/Src/stm32f4xx_hal_flash_ex.c **** 
 427              		.loc 1 1228 5 is_stmt 1 view .LVU98
1228:ThirdParty/STM32F4xx_HAL_Driver/Src/stm32f4xx_hal_flash_ex.c **** 
 428              		.loc 1 1228 67 is_stmt 0 view .LVU99
 429 0012 054F     		ldr	r7, .L39
 430 0014 3B7D     		ldrb	r3, [r7, #20]	@ zero_extendqisi2
1228:ThirdParty/STM32F4xx_HAL_Driver/Src/stm32f4xx_hal_flash_ex.c **** 
 431              		.loc 1 1228 15 view .LVU100
 432 0016 03F01F03 		and	r3, r3, #31
 433              	.LVL24:
1231:ThirdParty/STM32F4xx_HAL_Driver/Src/stm32f4xx_hal_flash_ex.c ****   }
 434              		.loc 1 1231 5 is_stmt 1 view .LVU101
1231:ThirdParty/STM32F4xx_HAL_Driver/Src/stm32f4xx_hal_flash_ex.c ****   }
 435              		.loc 1 1231 69 is_stmt 0 view .LVU102
 436 001a 43EA0601 		orr	r1, r3, r6
1231:ThirdParty/STM32F4xx_HAL_Driver/Src/stm32f4xx_hal_flash_ex.c ****   }
 437              		.loc 1 1231 51 view .LVU103
 438 001e 41EA0502 		orr	r2, r1, r5
1231:ThirdParty/STM32F4xx_HAL_Driver/Src/stm32f4xx_hal_flash_ex.c ****   }
 439              		.loc 1 1231 42 view .LVU104
 440 0022 2243     		orrs	r2, r2, r4
 441 0024 3A75     		strb	r2, [r7, #20]
 442              	.LVL25:
 443              	.L37:
1234:ThirdParty/STM32F4xx_HAL_Driver/Src/stm32f4xx_hal_flash_ex.c **** }
 444              		.loc 1 1234 3 is_stmt 1 view .LVU105
1235:ThirdParty/STM32F4xx_HAL_Driver/Src/stm32f4xx_hal_flash_ex.c **** 
 445              		.loc 1 1235 1 is_stmt 0 view .LVU106
 446 0026 F8BD     		pop	{r3, r4, r5, r6, r7, pc}
 447              	.L40:
 448              		.align	2
 449              	.L39:
 450 0028 003C0240 		.word	1073888256
 451              		.cfi_endproc
 452              	.LFE142:
 454              		.section	.text.HAL_FLASHEx_OBProgram,"ax",%progbits
 455              		.align	1
 456              		.global	HAL_FLASHEx_OBProgram
 457              		.syntax unified
 458              		.thumb
ARM GAS  /tmp/ccHdxmpw.s 			page 33


 459              		.thumb_func
 461              	HAL_FLASHEx_OBProgram:
 462              	.LVL26:
 463              	.LFB135:
 303:ThirdParty/STM32F4xx_HAL_Driver/Src/stm32f4xx_hal_flash_ex.c ****   HAL_StatusTypeDef status = HAL_ERROR;
 464              		.loc 1 303 1 is_stmt 1 view -0
 465              		.cfi_startproc
 466              		@ args = 0, pretend = 0, frame = 0
 467              		@ frame_needed = 0, uses_anonymous_args = 0
 304:ThirdParty/STM32F4xx_HAL_Driver/Src/stm32f4xx_hal_flash_ex.c ****   
 468              		.loc 1 304 3 view .LVU108
 307:ThirdParty/STM32F4xx_HAL_Driver/Src/stm32f4xx_hal_flash_ex.c **** 
 469              		.loc 1 307 3 view .LVU109
 307:ThirdParty/STM32F4xx_HAL_Driver/Src/stm32f4xx_hal_flash_ex.c **** 
 470              		.loc 1 307 3 view .LVU110
 471 0000 1F4B     		ldr	r3, .L58
 472 0002 1B7E     		ldrb	r3, [r3, #24]	@ zero_extendqisi2
 473 0004 012B     		cmp	r3, #1
 474 0006 38D0     		beq	.L48
 303:ThirdParty/STM32F4xx_HAL_Driver/Src/stm32f4xx_hal_flash_ex.c ****   HAL_StatusTypeDef status = HAL_ERROR;
 475              		.loc 1 303 1 is_stmt 0 discriminator 2 view .LVU111
 476 0008 10B5     		push	{r4, lr}
 477              	.LCFI4:
 478              		.cfi_def_cfa_offset 8
 479              		.cfi_offset 4, -8
 480              		.cfi_offset 14, -4
 481 000a 0446     		mov	r4, r0
 307:ThirdParty/STM32F4xx_HAL_Driver/Src/stm32f4xx_hal_flash_ex.c **** 
 482              		.loc 1 307 3 is_stmt 1 discriminator 2 view .LVU112
 483 000c 1C4B     		ldr	r3, .L58
 484 000e 0122     		movs	r2, #1
 485 0010 1A76     		strb	r2, [r3, #24]
 307:ThirdParty/STM32F4xx_HAL_Driver/Src/stm32f4xx_hal_flash_ex.c **** 
 486              		.loc 1 307 3 discriminator 2 view .LVU113
 310:ThirdParty/STM32F4xx_HAL_Driver/Src/stm32f4xx_hal_flash_ex.c **** 
 487              		.loc 1 310 3 discriminator 2 view .LVU114
 313:ThirdParty/STM32F4xx_HAL_Driver/Src/stm32f4xx_hal_flash_ex.c ****   {
 488              		.loc 1 313 3 discriminator 2 view .LVU115
 313:ThirdParty/STM32F4xx_HAL_Driver/Src/stm32f4xx_hal_flash_ex.c ****   {
 489              		.loc 1 313 14 is_stmt 0 discriminator 2 view .LVU116
 490 0012 0368     		ldr	r3, [r0]
 313:ThirdParty/STM32F4xx_HAL_Driver/Src/stm32f4xx_hal_flash_ex.c ****   {
 491              		.loc 1 313 5 discriminator 2 view .LVU117
 492 0014 13F0010F 		tst	r3, #1
 493 0018 0CD0     		beq	.L49
 315:ThirdParty/STM32F4xx_HAL_Driver/Src/stm32f4xx_hal_flash_ex.c ****     if(pOBInit->WRPState == OB_WRPSTATE_ENABLE)
 494              		.loc 1 315 5 is_stmt 1 view .LVU118
 316:ThirdParty/STM32F4xx_HAL_Driver/Src/stm32f4xx_hal_flash_ex.c ****     {
 495              		.loc 1 316 5 view .LVU119
 316:ThirdParty/STM32F4xx_HAL_Driver/Src/stm32f4xx_hal_flash_ex.c ****     {
 496              		.loc 1 316 15 is_stmt 0 view .LVU120
 497 001a 4368     		ldr	r3, [r0, #4]
 316:ThirdParty/STM32F4xx_HAL_Driver/Src/stm32f4xx_hal_flash_ex.c ****     {
 498              		.loc 1 316 7 view .LVU121
 499 001c 9342     		cmp	r3, r2
 500 001e 04D0     		beq	.L54
 324:ThirdParty/STM32F4xx_HAL_Driver/Src/stm32f4xx_hal_flash_ex.c ****     }
ARM GAS  /tmp/ccHdxmpw.s 			page 34


 501              		.loc 1 324 7 is_stmt 1 view .LVU122
 324:ThirdParty/STM32F4xx_HAL_Driver/Src/stm32f4xx_hal_flash_ex.c ****     }
 502              		.loc 1 324 16 is_stmt 0 view .LVU123
 503 0020 C168     		ldr	r1, [r0, #12]
 504 0022 8068     		ldr	r0, [r0, #8]
 505              	.LVL27:
 324:ThirdParty/STM32F4xx_HAL_Driver/Src/stm32f4xx_hal_flash_ex.c ****     }
 506              		.loc 1 324 16 view .LVU124
 507 0024 FFF7FEFF 		bl	FLASH_OB_DisableWRP
 508              	.LVL28:
 324:ThirdParty/STM32F4xx_HAL_Driver/Src/stm32f4xx_hal_flash_ex.c ****     }
 509              		.loc 1 324 16 view .LVU125
 510 0028 05E0     		b	.L43
 511              	.LVL29:
 512              	.L54:
 319:ThirdParty/STM32F4xx_HAL_Driver/Src/stm32f4xx_hal_flash_ex.c ****     }
 513              		.loc 1 319 7 is_stmt 1 view .LVU126
 319:ThirdParty/STM32F4xx_HAL_Driver/Src/stm32f4xx_hal_flash_ex.c ****     }
 514              		.loc 1 319 16 is_stmt 0 view .LVU127
 515 002a C168     		ldr	r1, [r0, #12]
 516 002c 8068     		ldr	r0, [r0, #8]
 517              	.LVL30:
 319:ThirdParty/STM32F4xx_HAL_Driver/Src/stm32f4xx_hal_flash_ex.c ****     }
 518              		.loc 1 319 16 view .LVU128
 519 002e FFF7FEFF 		bl	FLASH_OB_EnableWRP
 520              	.LVL31:
 319:ThirdParty/STM32F4xx_HAL_Driver/Src/stm32f4xx_hal_flash_ex.c ****     }
 521              		.loc 1 319 16 view .LVU129
 522 0032 00E0     		b	.L43
 523              	.LVL32:
 524              	.L49:
 304:ThirdParty/STM32F4xx_HAL_Driver/Src/stm32f4xx_hal_flash_ex.c ****   
 525              		.loc 1 304 21 view .LVU130
 526 0034 0120     		movs	r0, #1
 527              	.LVL33:
 528              	.L43:
 329:ThirdParty/STM32F4xx_HAL_Driver/Src/stm32f4xx_hal_flash_ex.c ****   {
 529              		.loc 1 329 3 is_stmt 1 view .LVU131
 329:ThirdParty/STM32F4xx_HAL_Driver/Src/stm32f4xx_hal_flash_ex.c ****   {
 530              		.loc 1 329 14 is_stmt 0 view .LVU132
 531 0036 2368     		ldr	r3, [r4]
 329:ThirdParty/STM32F4xx_HAL_Driver/Src/stm32f4xx_hal_flash_ex.c ****   {
 532              		.loc 1 329 5 view .LVU133
 533 0038 13F0020F 		tst	r3, #2
 534 003c 0BD1     		bne	.L55
 535              	.L45:
 335:ThirdParty/STM32F4xx_HAL_Driver/Src/stm32f4xx_hal_flash_ex.c ****   {
 536              		.loc 1 335 3 is_stmt 1 view .LVU134
 335:ThirdParty/STM32F4xx_HAL_Driver/Src/stm32f4xx_hal_flash_ex.c ****   {
 537              		.loc 1 335 14 is_stmt 0 view .LVU135
 538 003e 2368     		ldr	r3, [r4]
 335:ThirdParty/STM32F4xx_HAL_Driver/Src/stm32f4xx_hal_flash_ex.c ****   {
 539              		.loc 1 335 5 view .LVU136
 540 0040 13F0040F 		tst	r3, #4
 541 0044 0BD1     		bne	.L56
 542              	.L46:
 343:ThirdParty/STM32F4xx_HAL_Driver/Src/stm32f4xx_hal_flash_ex.c ****   {
ARM GAS  /tmp/ccHdxmpw.s 			page 35


 543              		.loc 1 343 3 is_stmt 1 view .LVU137
 343:ThirdParty/STM32F4xx_HAL_Driver/Src/stm32f4xx_hal_flash_ex.c ****   {
 544              		.loc 1 343 14 is_stmt 0 view .LVU138
 545 0046 2368     		ldr	r3, [r4]
 343:ThirdParty/STM32F4xx_HAL_Driver/Src/stm32f4xx_hal_flash_ex.c ****   {
 546              		.loc 1 343 5 view .LVU139
 547 0048 13F0080F 		tst	r3, #8
 548 004c 11D1     		bne	.L57
 549              	.L47:
 349:ThirdParty/STM32F4xx_HAL_Driver/Src/stm32f4xx_hal_flash_ex.c **** 
 550              		.loc 1 349 3 is_stmt 1 view .LVU140
 349:ThirdParty/STM32F4xx_HAL_Driver/Src/stm32f4xx_hal_flash_ex.c **** 
 551              		.loc 1 349 3 view .LVU141
 552 004e 0C4B     		ldr	r3, .L58
 553 0050 0022     		movs	r2, #0
 554 0052 1A76     		strb	r2, [r3, #24]
 349:ThirdParty/STM32F4xx_HAL_Driver/Src/stm32f4xx_hal_flash_ex.c **** 
 555              		.loc 1 349 3 view .LVU142
 351:ThirdParty/STM32F4xx_HAL_Driver/Src/stm32f4xx_hal_flash_ex.c **** }
 556              		.loc 1 351 3 view .LVU143
 352:ThirdParty/STM32F4xx_HAL_Driver/Src/stm32f4xx_hal_flash_ex.c **** 
 557              		.loc 1 352 1 is_stmt 0 view .LVU144
 558 0054 10BD     		pop	{r4, pc}
 559              	.LVL34:
 560              	.L55:
 331:ThirdParty/STM32F4xx_HAL_Driver/Src/stm32f4xx_hal_flash_ex.c ****   }
 561              		.loc 1 331 5 is_stmt 1 view .LVU145
 331:ThirdParty/STM32F4xx_HAL_Driver/Src/stm32f4xx_hal_flash_ex.c ****   }
 562              		.loc 1 331 14 is_stmt 0 view .LVU146
 563 0056 207C     		ldrb	r0, [r4, #16]	@ zero_extendqisi2
 564              	.LVL35:
 331:ThirdParty/STM32F4xx_HAL_Driver/Src/stm32f4xx_hal_flash_ex.c ****   }
 565              		.loc 1 331 14 view .LVU147
 566 0058 FFF7FEFF 		bl	FLASH_OB_RDP_LevelConfig
 567              	.LVL36:
 331:ThirdParty/STM32F4xx_HAL_Driver/Src/stm32f4xx_hal_flash_ex.c ****   }
 568              		.loc 1 331 14 view .LVU148
 569 005c EFE7     		b	.L45
 570              	.L56:
 337:ThirdParty/STM32F4xx_HAL_Driver/Src/stm32f4xx_hal_flash_ex.c ****                                      pOBInit->USERConfig&OB_STOP_NO_RST,
 571              		.loc 1 337 5 is_stmt 1 view .LVU149
 337:ThirdParty/STM32F4xx_HAL_Driver/Src/stm32f4xx_hal_flash_ex.c ****                                      pOBInit->USERConfig&OB_STOP_NO_RST,
 572              		.loc 1 337 41 is_stmt 0 view .LVU150
 573 005e 207E     		ldrb	r0, [r4, #24]	@ zero_extendqisi2
 574              	.LVL37:
 337:ThirdParty/STM32F4xx_HAL_Driver/Src/stm32f4xx_hal_flash_ex.c ****                                      pOBInit->USERConfig&OB_STOP_NO_RST,
 575              		.loc 1 337 14 view .LVU151
 576 0060 00F08002 		and	r2, r0, #128
 577 0064 00F04001 		and	r1, r0, #64
 578 0068 00F02000 		and	r0, r0, #32
 579 006c FFF7FEFF 		bl	FLASH_OB_UserConfig
 580              	.LVL38:
 337:ThirdParty/STM32F4xx_HAL_Driver/Src/stm32f4xx_hal_flash_ex.c ****                                      pOBInit->USERConfig&OB_STOP_NO_RST,
 581              		.loc 1 337 14 view .LVU152
 582 0070 E9E7     		b	.L46
 583              	.L57:
 345:ThirdParty/STM32F4xx_HAL_Driver/Src/stm32f4xx_hal_flash_ex.c ****   }
ARM GAS  /tmp/ccHdxmpw.s 			page 36


 584              		.loc 1 345 5 is_stmt 1 view .LVU153
 345:ThirdParty/STM32F4xx_HAL_Driver/Src/stm32f4xx_hal_flash_ex.c ****   }
 585              		.loc 1 345 14 is_stmt 0 view .LVU154
 586 0072 207D     		ldrb	r0, [r4, #20]	@ zero_extendqisi2
 587              	.LVL39:
 345:ThirdParty/STM32F4xx_HAL_Driver/Src/stm32f4xx_hal_flash_ex.c ****   }
 588              		.loc 1 345 14 view .LVU155
 589 0074 FFF7FEFF 		bl	FLASH_OB_BOR_LevelConfig
 590              	.LVL40:
 345:ThirdParty/STM32F4xx_HAL_Driver/Src/stm32f4xx_hal_flash_ex.c ****   }
 591              		.loc 1 345 14 view .LVU156
 592 0078 E9E7     		b	.L47
 593              	.LVL41:
 594              	.L48:
 595              	.LCFI5:
 596              		.cfi_def_cfa_offset 0
 597              		.cfi_restore 4
 598              		.cfi_restore 14
 307:ThirdParty/STM32F4xx_HAL_Driver/Src/stm32f4xx_hal_flash_ex.c **** 
 599              		.loc 1 307 3 view .LVU157
 600 007a 0220     		movs	r0, #2
 601              	.LVL42:
 352:ThirdParty/STM32F4xx_HAL_Driver/Src/stm32f4xx_hal_flash_ex.c **** 
 602              		.loc 1 352 1 view .LVU158
 603 007c 7047     		bx	lr
 604              	.L59:
 605 007e 00BF     		.align	2
 606              	.L58:
 607 0080 00000000 		.word	pFlash
 608              		.cfi_endproc
 609              	.LFE135:
 611              		.section	.text.HAL_FLASHEx_OBGetConfig,"ax",%progbits
 612              		.align	1
 613              		.global	HAL_FLASHEx_OBGetConfig
 614              		.syntax unified
 615              		.thumb
 616              		.thumb_func
 618              	HAL_FLASHEx_OBGetConfig:
 619              	.LVL43:
 620              	.LFB136:
 362:ThirdParty/STM32F4xx_HAL_Driver/Src/stm32f4xx_hal_flash_ex.c ****   pOBInit->OptionType = OPTIONBYTE_WRP | OPTIONBYTE_RDP | OPTIONBYTE_USER | OPTIONBYTE_BOR;
 621              		.loc 1 362 1 is_stmt 1 view -0
 622              		.cfi_startproc
 623              		@ args = 0, pretend = 0, frame = 0
 624              		@ frame_needed = 0, uses_anonymous_args = 0
 362:ThirdParty/STM32F4xx_HAL_Driver/Src/stm32f4xx_hal_flash_ex.c ****   pOBInit->OptionType = OPTIONBYTE_WRP | OPTIONBYTE_RDP | OPTIONBYTE_USER | OPTIONBYTE_BOR;
 625              		.loc 1 362 1 is_stmt 0 view .LVU160
 626 0000 10B5     		push	{r4, lr}
 627              	.LCFI6:
 628              		.cfi_def_cfa_offset 8
 629              		.cfi_offset 4, -8
 630              		.cfi_offset 14, -4
 631 0002 0446     		mov	r4, r0
 363:ThirdParty/STM32F4xx_HAL_Driver/Src/stm32f4xx_hal_flash_ex.c **** 
 632              		.loc 1 363 3 is_stmt 1 view .LVU161
 363:ThirdParty/STM32F4xx_HAL_Driver/Src/stm32f4xx_hal_flash_ex.c **** 
 633              		.loc 1 363 23 is_stmt 0 view .LVU162
ARM GAS  /tmp/ccHdxmpw.s 			page 37


 634 0004 0F23     		movs	r3, #15
 635 0006 0360     		str	r3, [r0]
 366:ThirdParty/STM32F4xx_HAL_Driver/Src/stm32f4xx_hal_flash_ex.c **** 
 636              		.loc 1 366 3 is_stmt 1 view .LVU163
 366:ThirdParty/STM32F4xx_HAL_Driver/Src/stm32f4xx_hal_flash_ex.c **** 
 637              		.loc 1 366 34 is_stmt 0 view .LVU164
 638 0008 FFF7FEFF 		bl	FLASH_OB_GetWRP
 639              	.LVL44:
 366:ThirdParty/STM32F4xx_HAL_Driver/Src/stm32f4xx_hal_flash_ex.c **** 
 640              		.loc 1 366 22 view .LVU165
 641 000c A060     		str	r0, [r4, #8]
 369:ThirdParty/STM32F4xx_HAL_Driver/Src/stm32f4xx_hal_flash_ex.c **** 
 642              		.loc 1 369 3 is_stmt 1 view .LVU166
 369:ThirdParty/STM32F4xx_HAL_Driver/Src/stm32f4xx_hal_flash_ex.c **** 
 643              		.loc 1 369 33 is_stmt 0 view .LVU167
 644 000e FFF7FEFF 		bl	FLASH_OB_GetRDP
 645              	.LVL45:
 369:ThirdParty/STM32F4xx_HAL_Driver/Src/stm32f4xx_hal_flash_ex.c **** 
 646              		.loc 1 369 21 view .LVU168
 647 0012 2061     		str	r0, [r4, #16]
 372:ThirdParty/STM32F4xx_HAL_Driver/Src/stm32f4xx_hal_flash_ex.c **** 
 648              		.loc 1 372 3 is_stmt 1 view .LVU169
 372:ThirdParty/STM32F4xx_HAL_Driver/Src/stm32f4xx_hal_flash_ex.c **** 
 649              		.loc 1 372 34 is_stmt 0 view .LVU170
 650 0014 FFF7FEFF 		bl	FLASH_OB_GetUser
 651              	.LVL46:
 372:ThirdParty/STM32F4xx_HAL_Driver/Src/stm32f4xx_hal_flash_ex.c **** 
 652              		.loc 1 372 23 view .LVU171
 653 0018 2076     		strb	r0, [r4, #24]
 375:ThirdParty/STM32F4xx_HAL_Driver/Src/stm32f4xx_hal_flash_ex.c **** }
 654              		.loc 1 375 3 is_stmt 1 view .LVU172
 375:ThirdParty/STM32F4xx_HAL_Driver/Src/stm32f4xx_hal_flash_ex.c **** }
 655              		.loc 1 375 33 is_stmt 0 view .LVU173
 656 001a FFF7FEFF 		bl	FLASH_OB_GetBOR
 657              	.LVL47:
 375:ThirdParty/STM32F4xx_HAL_Driver/Src/stm32f4xx_hal_flash_ex.c **** }
 658              		.loc 1 375 21 view .LVU174
 659 001e 6061     		str	r0, [r4, #20]
 376:ThirdParty/STM32F4xx_HAL_Driver/Src/stm32f4xx_hal_flash_ex.c **** 
 660              		.loc 1 376 1 view .LVU175
 661 0020 10BD     		pop	{r4, pc}
 376:ThirdParty/STM32F4xx_HAL_Driver/Src/stm32f4xx_hal_flash_ex.c **** 
 662              		.loc 1 376 1 view .LVU176
 663              		.cfi_endproc
 664              	.LFE136:
 666              		.section	.text.FLASH_Erase_Sector,"ax",%progbits
 667              		.align	1
 668              		.global	FLASH_Erase_Sector
 669              		.syntax unified
 670              		.thumb
 671              		.thumb_func
 673              	FLASH_Erase_Sector:
 674              	.LVL48:
 675              	.LFB138:
 999:ThirdParty/STM32F4xx_HAL_Driver/Src/stm32f4xx_hal_flash_ex.c ****   uint32_t tmp_psize = 0U;
 676              		.loc 1 999 1 is_stmt 1 view -0
 677              		.cfi_startproc
ARM GAS  /tmp/ccHdxmpw.s 			page 38


 678              		@ args = 0, pretend = 0, frame = 0
 679              		@ frame_needed = 0, uses_anonymous_args = 0
 680              		@ link register save eliminated.
1000:ThirdParty/STM32F4xx_HAL_Driver/Src/stm32f4xx_hal_flash_ex.c **** 
 681              		.loc 1 1000 3 view .LVU178
1003:ThirdParty/STM32F4xx_HAL_Driver/Src/stm32f4xx_hal_flash_ex.c ****   assert_param(IS_VOLTAGERANGE(VoltageRange));
 682              		.loc 1 1003 3 view .LVU179
1004:ThirdParty/STM32F4xx_HAL_Driver/Src/stm32f4xx_hal_flash_ex.c ****   
 683              		.loc 1 1004 3 view .LVU180
1006:ThirdParty/STM32F4xx_HAL_Driver/Src/stm32f4xx_hal_flash_ex.c ****   {
 684              		.loc 1 1006 3 view .LVU181
1006:ThirdParty/STM32F4xx_HAL_Driver/Src/stm32f4xx_hal_flash_ex.c ****   {
 685              		.loc 1 1006 5 is_stmt 0 view .LVU182
 686 0000 49B1     		cbz	r1, .L64
1010:ThirdParty/STM32F4xx_HAL_Driver/Src/stm32f4xx_hal_flash_ex.c ****   {
 687              		.loc 1 1010 8 is_stmt 1 view .LVU183
1010:ThirdParty/STM32F4xx_HAL_Driver/Src/stm32f4xx_hal_flash_ex.c ****   {
 688              		.loc 1 1010 10 is_stmt 0 view .LVU184
 689 0002 0129     		cmp	r1, #1
 690 0004 21D0     		beq	.L65
1014:ThirdParty/STM32F4xx_HAL_Driver/Src/stm32f4xx_hal_flash_ex.c ****   {
 691              		.loc 1 1014 8 is_stmt 1 view .LVU185
1014:ThirdParty/STM32F4xx_HAL_Driver/Src/stm32f4xx_hal_flash_ex.c ****   {
 692              		.loc 1 1014 10 is_stmt 0 view .LVU186
 693 0006 0229     		cmp	r1, #2
 694 0008 02D0     		beq	.L67
1020:ThirdParty/STM32F4xx_HAL_Driver/Src/stm32f4xx_hal_flash_ex.c ****   }
 695              		.loc 1 1020 15 view .LVU187
 696 000a 4FF4407C 		mov	ip, #768
 697 000e 04E0     		b	.L63
 698              	.L67:
1016:ThirdParty/STM32F4xx_HAL_Driver/Src/stm32f4xx_hal_flash_ex.c ****   }
 699              		.loc 1 1016 15 view .LVU188
 700 0010 4FF4007C 		mov	ip, #512
 701 0014 01E0     		b	.L63
 702              	.L64:
1008:ThirdParty/STM32F4xx_HAL_Driver/Src/stm32f4xx_hal_flash_ex.c ****   }
 703              		.loc 1 1008 16 view .LVU189
 704 0016 4FF0000C 		mov	ip, #0
 705              	.L63:
 706              	.LVL49:
1024:ThirdParty/STM32F4xx_HAL_Driver/Src/stm32f4xx_hal_flash_ex.c ****   FLASH->CR |= tmp_psize;
 707              		.loc 1 1024 3 is_stmt 1 view .LVU190
 708 001a 0D4B     		ldr	r3, .L68
 709 001c 1969     		ldr	r1, [r3, #16]
 710              	.LVL50:
1024:ThirdParty/STM32F4xx_HAL_Driver/Src/stm32f4xx_hal_flash_ex.c ****   FLASH->CR |= tmp_psize;
 711              		.loc 1 1024 3 is_stmt 0 view .LVU191
 712 001e 21F44071 		bic	r1, r1, #768
 713 0022 1961     		str	r1, [r3, #16]
1025:ThirdParty/STM32F4xx_HAL_Driver/Src/stm32f4xx_hal_flash_ex.c ****   CLEAR_BIT(FLASH->CR, FLASH_CR_SNB);
 714              		.loc 1 1025 3 is_stmt 1 view .LVU192
1025:ThirdParty/STM32F4xx_HAL_Driver/Src/stm32f4xx_hal_flash_ex.c ****   CLEAR_BIT(FLASH->CR, FLASH_CR_SNB);
 715              		.loc 1 1025 13 is_stmt 0 view .LVU193
 716 0024 1A69     		ldr	r2, [r3, #16]
 717 0026 42EA0C02 		orr	r2, r2, ip
 718 002a 1A61     		str	r2, [r3, #16]
ARM GAS  /tmp/ccHdxmpw.s 			page 39


1026:ThirdParty/STM32F4xx_HAL_Driver/Src/stm32f4xx_hal_flash_ex.c ****   FLASH->CR |= FLASH_CR_SER | (Sector << FLASH_CR_SNB_Pos);
 719              		.loc 1 1026 3 is_stmt 1 view .LVU194
 720 002c 1A69     		ldr	r2, [r3, #16]
 721 002e 22F0F802 		bic	r2, r2, #248
 722 0032 1A61     		str	r2, [r3, #16]
1027:ThirdParty/STM32F4xx_HAL_Driver/Src/stm32f4xx_hal_flash_ex.c ****   FLASH->CR |= FLASH_CR_STRT;
 723              		.loc 1 1027 3 view .LVU195
1027:ThirdParty/STM32F4xx_HAL_Driver/Src/stm32f4xx_hal_flash_ex.c ****   FLASH->CR |= FLASH_CR_STRT;
 724              		.loc 1 1027 13 is_stmt 0 view .LVU196
 725 0034 1A69     		ldr	r2, [r3, #16]
 726 0036 42EAC000 		orr	r0, r2, r0, lsl #3
 727              	.LVL51:
1027:ThirdParty/STM32F4xx_HAL_Driver/Src/stm32f4xx_hal_flash_ex.c ****   FLASH->CR |= FLASH_CR_STRT;
 728              		.loc 1 1027 13 view .LVU197
 729 003a 40F00200 		orr	r0, r0, #2
 730 003e 1861     		str	r0, [r3, #16]
1028:ThirdParty/STM32F4xx_HAL_Driver/Src/stm32f4xx_hal_flash_ex.c **** }
 731              		.loc 1 1028 3 is_stmt 1 view .LVU198
1028:ThirdParty/STM32F4xx_HAL_Driver/Src/stm32f4xx_hal_flash_ex.c **** }
 732              		.loc 1 1028 13 is_stmt 0 view .LVU199
 733 0040 1A69     		ldr	r2, [r3, #16]
 734 0042 42F48032 		orr	r2, r2, #65536
 735 0046 1A61     		str	r2, [r3, #16]
1029:ThirdParty/STM32F4xx_HAL_Driver/Src/stm32f4xx_hal_flash_ex.c **** 
 736              		.loc 1 1029 1 view .LVU200
 737 0048 7047     		bx	lr
 738              	.LVL52:
 739              	.L65:
1012:ThirdParty/STM32F4xx_HAL_Driver/Src/stm32f4xx_hal_flash_ex.c ****   }
 740              		.loc 1 1012 15 view .LVU201
 741 004a 4FF4807C 		mov	ip, #256
 742 004e E4E7     		b	.L63
 743              	.L69:
 744              		.align	2
 745              	.L68:
 746 0050 003C0240 		.word	1073888256
 747              		.cfi_endproc
 748              	.LFE138:
 750              		.section	.text.HAL_FLASHEx_Erase_IT,"ax",%progbits
 751              		.align	1
 752              		.global	HAL_FLASHEx_Erase_IT
 753              		.syntax unified
 754              		.thumb
 755              		.thumb_func
 757              	HAL_FLASHEx_Erase_IT:
 758              	.LVL53:
 759              	.LFB134:
 250:ThirdParty/STM32F4xx_HAL_Driver/Src/stm32f4xx_hal_flash_ex.c ****   HAL_StatusTypeDef status = HAL_OK;
 760              		.loc 1 250 1 is_stmt 1 view -0
 761              		.cfi_startproc
 762              		@ args = 0, pretend = 0, frame = 0
 763              		@ frame_needed = 0, uses_anonymous_args = 0
 250:ThirdParty/STM32F4xx_HAL_Driver/Src/stm32f4xx_hal_flash_ex.c ****   HAL_StatusTypeDef status = HAL_OK;
 764              		.loc 1 250 1 is_stmt 0 view .LVU203
 765 0000 08B5     		push	{r3, lr}
 766              	.LCFI7:
 767              		.cfi_def_cfa_offset 8
ARM GAS  /tmp/ccHdxmpw.s 			page 40


 768              		.cfi_offset 3, -8
 769              		.cfi_offset 14, -4
 251:ThirdParty/STM32F4xx_HAL_Driver/Src/stm32f4xx_hal_flash_ex.c **** 
 770              		.loc 1 251 3 is_stmt 1 view .LVU204
 771              	.LVL54:
 254:ThirdParty/STM32F4xx_HAL_Driver/Src/stm32f4xx_hal_flash_ex.c **** 
 772              		.loc 1 254 3 view .LVU205
 254:ThirdParty/STM32F4xx_HAL_Driver/Src/stm32f4xx_hal_flash_ex.c **** 
 773              		.loc 1 254 3 view .LVU206
 774 0002 184B     		ldr	r3, .L76
 775 0004 1B7E     		ldrb	r3, [r3, #24]	@ zero_extendqisi2
 776 0006 012B     		cmp	r3, #1
 777 0008 29D0     		beq	.L73
 254:ThirdParty/STM32F4xx_HAL_Driver/Src/stm32f4xx_hal_flash_ex.c **** 
 778              		.loc 1 254 3 discriminator 2 view .LVU207
 779 000a 164B     		ldr	r3, .L76
 780 000c 0122     		movs	r2, #1
 781 000e 1A76     		strb	r2, [r3, #24]
 254:ThirdParty/STM32F4xx_HAL_Driver/Src/stm32f4xx_hal_flash_ex.c **** 
 782              		.loc 1 254 3 discriminator 2 view .LVU208
 257:ThirdParty/STM32F4xx_HAL_Driver/Src/stm32f4xx_hal_flash_ex.c **** 
 783              		.loc 1 257 3 discriminator 2 view .LVU209
 260:ThirdParty/STM32F4xx_HAL_Driver/Src/stm32f4xx_hal_flash_ex.c ****   
 784              		.loc 1 260 3 discriminator 2 view .LVU210
 785 0010 154B     		ldr	r3, .L76+4
 786 0012 1A69     		ldr	r2, [r3, #16]
 787 0014 42F08072 		orr	r2, r2, #16777216
 788 0018 1A61     		str	r2, [r3, #16]
 263:ThirdParty/STM32F4xx_HAL_Driver/Src/stm32f4xx_hal_flash_ex.c ****   
 789              		.loc 1 263 3 discriminator 2 view .LVU211
 790 001a 1A69     		ldr	r2, [r3, #16]
 791 001c 42F00072 		orr	r2, r2, #33554432
 792 0020 1A61     		str	r2, [r3, #16]
 266:ThirdParty/STM32F4xx_HAL_Driver/Src/stm32f4xx_hal_flash_ex.c ****                          FLASH_FLAG_PGAERR | FLASH_FLAG_PGPERR| FLASH_FLAG_PGSERR);  
 793              		.loc 1 266 3 discriminator 2 view .LVU212
 794 0022 F322     		movs	r2, #243
 795 0024 DA60     		str	r2, [r3, #12]
 269:ThirdParty/STM32F4xx_HAL_Driver/Src/stm32f4xx_hal_flash_ex.c ****   {
 796              		.loc 1 269 3 discriminator 2 view .LVU213
 269:ThirdParty/STM32F4xx_HAL_Driver/Src/stm32f4xx_hal_flash_ex.c ****   {
 797              		.loc 1 269 16 is_stmt 0 discriminator 2 view .LVU214
 798 0026 0368     		ldr	r3, [r0]
 269:ThirdParty/STM32F4xx_HAL_Driver/Src/stm32f4xx_hal_flash_ex.c ****   {
 799              		.loc 1 269 5 discriminator 2 view .LVU215
 800 0028 012B     		cmp	r3, #1
 801 002a 0DD0     		beq	.L75
 281:ThirdParty/STM32F4xx_HAL_Driver/Src/stm32f4xx_hal_flash_ex.c **** 
 802              		.loc 1 281 5 is_stmt 1 view .LVU216
 283:ThirdParty/STM32F4xx_HAL_Driver/Src/stm32f4xx_hal_flash_ex.c ****     pFlash.NbSectorsToErase = pEraseInit->NbSectors;
 803              		.loc 1 283 5 view .LVU217
 283:ThirdParty/STM32F4xx_HAL_Driver/Src/stm32f4xx_hal_flash_ex.c ****     pFlash.NbSectorsToErase = pEraseInit->NbSectors;
 804              		.loc 1 283 29 is_stmt 0 view .LVU218
 805 002c 0D4B     		ldr	r3, .L76
 806 002e 0122     		movs	r2, #1
 807 0030 1A70     		strb	r2, [r3]
 284:ThirdParty/STM32F4xx_HAL_Driver/Src/stm32f4xx_hal_flash_ex.c ****     pFlash.Sector = pEraseInit->Sector;
 808              		.loc 1 284 5 is_stmt 1 view .LVU219
ARM GAS  /tmp/ccHdxmpw.s 			page 41


 284:ThirdParty/STM32F4xx_HAL_Driver/Src/stm32f4xx_hal_flash_ex.c ****     pFlash.Sector = pEraseInit->Sector;
 809              		.loc 1 284 41 is_stmt 0 view .LVU220
 810 0032 C268     		ldr	r2, [r0, #12]
 284:ThirdParty/STM32F4xx_HAL_Driver/Src/stm32f4xx_hal_flash_ex.c ****     pFlash.Sector = pEraseInit->Sector;
 811              		.loc 1 284 29 view .LVU221
 812 0034 5A60     		str	r2, [r3, #4]
 285:ThirdParty/STM32F4xx_HAL_Driver/Src/stm32f4xx_hal_flash_ex.c ****     pFlash.VoltageForErase = (uint8_t)pEraseInit->VoltageRange;
 813              		.loc 1 285 5 is_stmt 1 view .LVU222
 285:ThirdParty/STM32F4xx_HAL_Driver/Src/stm32f4xx_hal_flash_ex.c ****     pFlash.VoltageForErase = (uint8_t)pEraseInit->VoltageRange;
 814              		.loc 1 285 31 is_stmt 0 view .LVU223
 815 0036 8268     		ldr	r2, [r0, #8]
 285:ThirdParty/STM32F4xx_HAL_Driver/Src/stm32f4xx_hal_flash_ex.c ****     pFlash.VoltageForErase = (uint8_t)pEraseInit->VoltageRange;
 816              		.loc 1 285 19 view .LVU224
 817 0038 DA60     		str	r2, [r3, #12]
 286:ThirdParty/STM32F4xx_HAL_Driver/Src/stm32f4xx_hal_flash_ex.c **** 
 818              		.loc 1 286 5 is_stmt 1 view .LVU225
 286:ThirdParty/STM32F4xx_HAL_Driver/Src/stm32f4xx_hal_flash_ex.c **** 
 819              		.loc 1 286 30 is_stmt 0 view .LVU226
 820 003a 017C     		ldrb	r1, [r0, #16]	@ zero_extendqisi2
 286:ThirdParty/STM32F4xx_HAL_Driver/Src/stm32f4xx_hal_flash_ex.c **** 
 821              		.loc 1 286 28 view .LVU227
 822 003c 1972     		strb	r1, [r3, #8]
 289:ThirdParty/STM32F4xx_HAL_Driver/Src/stm32f4xx_hal_flash_ex.c ****   }
 823              		.loc 1 289 5 is_stmt 1 view .LVU228
 824 003e 8068     		ldr	r0, [r0, #8]
 825              	.LVL55:
 289:ThirdParty/STM32F4xx_HAL_Driver/Src/stm32f4xx_hal_flash_ex.c ****   }
 826              		.loc 1 289 5 is_stmt 0 view .LVU229
 827 0040 FFF7FEFF 		bl	FLASH_Erase_Sector
 828              	.LVL56:
 292:ThirdParty/STM32F4xx_HAL_Driver/Src/stm32f4xx_hal_flash_ex.c **** }
 829              		.loc 1 292 10 view .LVU230
 830 0044 0020     		movs	r0, #0
 831              	.L71:
 293:ThirdParty/STM32F4xx_HAL_Driver/Src/stm32f4xx_hal_flash_ex.c **** 
 832              		.loc 1 293 1 view .LVU231
 833 0046 08BD     		pop	{r3, pc}
 834              	.LVL57:
 835              	.L75:
 272:ThirdParty/STM32F4xx_HAL_Driver/Src/stm32f4xx_hal_flash_ex.c ****     pFlash.Bank = pEraseInit->Banks;
 836              		.loc 1 272 5 is_stmt 1 view .LVU232
 272:ThirdParty/STM32F4xx_HAL_Driver/Src/stm32f4xx_hal_flash_ex.c ****     pFlash.Bank = pEraseInit->Banks;
 837              		.loc 1 272 29 is_stmt 0 view .LVU233
 838 0048 064B     		ldr	r3, .L76
 839 004a 0222     		movs	r2, #2
 840 004c 1A70     		strb	r2, [r3]
 273:ThirdParty/STM32F4xx_HAL_Driver/Src/stm32f4xx_hal_flash_ex.c ****     FLASH_MassErase((uint8_t) pEraseInit->VoltageRange, pEraseInit->Banks);
 841              		.loc 1 273 5 is_stmt 1 view .LVU234
 273:ThirdParty/STM32F4xx_HAL_Driver/Src/stm32f4xx_hal_flash_ex.c ****     FLASH_MassErase((uint8_t) pEraseInit->VoltageRange, pEraseInit->Banks);
 842              		.loc 1 273 29 is_stmt 0 view .LVU235
 843 004e 4268     		ldr	r2, [r0, #4]
 273:ThirdParty/STM32F4xx_HAL_Driver/Src/stm32f4xx_hal_flash_ex.c ****     FLASH_MassErase((uint8_t) pEraseInit->VoltageRange, pEraseInit->Banks);
 844              		.loc 1 273 17 view .LVU236
 845 0050 1A61     		str	r2, [r3, #16]
 274:ThirdParty/STM32F4xx_HAL_Driver/Src/stm32f4xx_hal_flash_ex.c ****   }
 846              		.loc 1 274 5 is_stmt 1 view .LVU237
 847 0052 4168     		ldr	r1, [r0, #4]
ARM GAS  /tmp/ccHdxmpw.s 			page 42


 848 0054 007C     		ldrb	r0, [r0, #16]	@ zero_extendqisi2
 849              	.LVL58:
 274:ThirdParty/STM32F4xx_HAL_Driver/Src/stm32f4xx_hal_flash_ex.c ****   }
 850              		.loc 1 274 5 is_stmt 0 view .LVU238
 851 0056 FFF7FEFF 		bl	FLASH_MassErase
 852              	.LVL59:
 292:ThirdParty/STM32F4xx_HAL_Driver/Src/stm32f4xx_hal_flash_ex.c **** }
 853              		.loc 1 292 10 view .LVU239
 854 005a 0020     		movs	r0, #0
 855 005c F3E7     		b	.L71
 856              	.LVL60:
 857              	.L73:
 254:ThirdParty/STM32F4xx_HAL_Driver/Src/stm32f4xx_hal_flash_ex.c **** 
 858              		.loc 1 254 3 view .LVU240
 859 005e 0220     		movs	r0, #2
 860              	.LVL61:
 254:ThirdParty/STM32F4xx_HAL_Driver/Src/stm32f4xx_hal_flash_ex.c **** 
 861              		.loc 1 254 3 view .LVU241
 862 0060 F1E7     		b	.L71
 863              	.L77:
 864 0062 00BF     		.align	2
 865              	.L76:
 866 0064 00000000 		.word	pFlash
 867 0068 003C0240 		.word	1073888256
 868              		.cfi_endproc
 869              	.LFE134:
 871              		.section	.text.FLASH_FlushCaches,"ax",%progbits
 872              		.align	1
 873              		.global	FLASH_FlushCaches
 874              		.syntax unified
 875              		.thumb
 876              		.thumb_func
 878              	FLASH_FlushCaches:
 879              	.LFB148:
1322:ThirdParty/STM32F4xx_HAL_Driver/Src/stm32f4xx_hal_flash_ex.c **** 
1323:ThirdParty/STM32F4xx_HAL_Driver/Src/stm32f4xx_hal_flash_ex.c **** /**
1324:ThirdParty/STM32F4xx_HAL_Driver/Src/stm32f4xx_hal_flash_ex.c ****   * @brief  Flush the instruction and data caches
1325:ThirdParty/STM32F4xx_HAL_Driver/Src/stm32f4xx_hal_flash_ex.c ****   * @retval None
1326:ThirdParty/STM32F4xx_HAL_Driver/Src/stm32f4xx_hal_flash_ex.c ****   */
1327:ThirdParty/STM32F4xx_HAL_Driver/Src/stm32f4xx_hal_flash_ex.c **** void FLASH_FlushCaches(void)
1328:ThirdParty/STM32F4xx_HAL_Driver/Src/stm32f4xx_hal_flash_ex.c **** {
 880              		.loc 1 1328 1 is_stmt 1 view -0
 881              		.cfi_startproc
 882              		@ args = 0, pretend = 0, frame = 0
 883              		@ frame_needed = 0, uses_anonymous_args = 0
 884              		@ link register save eliminated.
1329:ThirdParty/STM32F4xx_HAL_Driver/Src/stm32f4xx_hal_flash_ex.c ****   /* Flush instruction cache  */
1330:ThirdParty/STM32F4xx_HAL_Driver/Src/stm32f4xx_hal_flash_ex.c ****   if(READ_BIT(FLASH->ACR, FLASH_ACR_ICEN)!= RESET)
 885              		.loc 1 1330 3 view .LVU243
 886              		.loc 1 1330 6 is_stmt 0 view .LVU244
 887 0000 164B     		ldr	r3, .L81
 888 0002 1B68     		ldr	r3, [r3]
 889              		.loc 1 1330 5 view .LVU245
 890 0004 13F4007F 		tst	r3, #512
 891 0008 10D0     		beq	.L79
1331:ThirdParty/STM32F4xx_HAL_Driver/Src/stm32f4xx_hal_flash_ex.c ****   {
1332:ThirdParty/STM32F4xx_HAL_Driver/Src/stm32f4xx_hal_flash_ex.c ****     /* Disable instruction cache  */
ARM GAS  /tmp/ccHdxmpw.s 			page 43


1333:ThirdParty/STM32F4xx_HAL_Driver/Src/stm32f4xx_hal_flash_ex.c ****     __HAL_FLASH_INSTRUCTION_CACHE_DISABLE();
 892              		.loc 1 1333 5 is_stmt 1 view .LVU246
 893 000a 144B     		ldr	r3, .L81
 894 000c 1A68     		ldr	r2, [r3]
 895 000e 22F40072 		bic	r2, r2, #512
 896 0012 1A60     		str	r2, [r3]
1334:ThirdParty/STM32F4xx_HAL_Driver/Src/stm32f4xx_hal_flash_ex.c ****     /* Reset instruction cache */
1335:ThirdParty/STM32F4xx_HAL_Driver/Src/stm32f4xx_hal_flash_ex.c ****     __HAL_FLASH_INSTRUCTION_CACHE_RESET();
 897              		.loc 1 1335 5 view .LVU247
 898              		.loc 1 1335 5 view .LVU248
 899 0014 1A68     		ldr	r2, [r3]
 900 0016 42F40062 		orr	r2, r2, #2048
 901 001a 1A60     		str	r2, [r3]
 902              		.loc 1 1335 5 view .LVU249
 903 001c 1A68     		ldr	r2, [r3]
 904 001e 22F40062 		bic	r2, r2, #2048
 905 0022 1A60     		str	r2, [r3]
 906              		.loc 1 1335 5 view .LVU250
1336:ThirdParty/STM32F4xx_HAL_Driver/Src/stm32f4xx_hal_flash_ex.c ****     /* Enable instruction cache */
1337:ThirdParty/STM32F4xx_HAL_Driver/Src/stm32f4xx_hal_flash_ex.c ****     __HAL_FLASH_INSTRUCTION_CACHE_ENABLE();
 907              		.loc 1 1337 5 view .LVU251
 908 0024 1A68     		ldr	r2, [r3]
 909 0026 42F40072 		orr	r2, r2, #512
 910 002a 1A60     		str	r2, [r3]
 911              	.L79:
1338:ThirdParty/STM32F4xx_HAL_Driver/Src/stm32f4xx_hal_flash_ex.c ****   }
1339:ThirdParty/STM32F4xx_HAL_Driver/Src/stm32f4xx_hal_flash_ex.c ****   
1340:ThirdParty/STM32F4xx_HAL_Driver/Src/stm32f4xx_hal_flash_ex.c ****   /* Flush data cache */
1341:ThirdParty/STM32F4xx_HAL_Driver/Src/stm32f4xx_hal_flash_ex.c ****   if(READ_BIT(FLASH->ACR, FLASH_ACR_DCEN) != RESET)
 912              		.loc 1 1341 3 view .LVU252
 913              		.loc 1 1341 6 is_stmt 0 view .LVU253
 914 002c 0B4B     		ldr	r3, .L81
 915 002e 1B68     		ldr	r3, [r3]
 916              		.loc 1 1341 5 view .LVU254
 917 0030 13F4806F 		tst	r3, #1024
 918 0034 10D0     		beq	.L78
1342:ThirdParty/STM32F4xx_HAL_Driver/Src/stm32f4xx_hal_flash_ex.c ****   {
1343:ThirdParty/STM32F4xx_HAL_Driver/Src/stm32f4xx_hal_flash_ex.c ****     /* Disable data cache  */
1344:ThirdParty/STM32F4xx_HAL_Driver/Src/stm32f4xx_hal_flash_ex.c ****     __HAL_FLASH_DATA_CACHE_DISABLE();
 919              		.loc 1 1344 5 is_stmt 1 view .LVU255
 920 0036 094B     		ldr	r3, .L81
 921 0038 1A68     		ldr	r2, [r3]
 922 003a 22F48062 		bic	r2, r2, #1024
 923 003e 1A60     		str	r2, [r3]
1345:ThirdParty/STM32F4xx_HAL_Driver/Src/stm32f4xx_hal_flash_ex.c ****     /* Reset data cache */
1346:ThirdParty/STM32F4xx_HAL_Driver/Src/stm32f4xx_hal_flash_ex.c ****     __HAL_FLASH_DATA_CACHE_RESET();
 924              		.loc 1 1346 5 view .LVU256
 925              		.loc 1 1346 5 view .LVU257
 926 0040 1A68     		ldr	r2, [r3]
 927 0042 42F48052 		orr	r2, r2, #4096
 928 0046 1A60     		str	r2, [r3]
 929              		.loc 1 1346 5 view .LVU258
 930 0048 1A68     		ldr	r2, [r3]
 931 004a 22F48052 		bic	r2, r2, #4096
 932 004e 1A60     		str	r2, [r3]
 933              		.loc 1 1346 5 view .LVU259
1347:ThirdParty/STM32F4xx_HAL_Driver/Src/stm32f4xx_hal_flash_ex.c ****     /* Enable data cache */
ARM GAS  /tmp/ccHdxmpw.s 			page 44


1348:ThirdParty/STM32F4xx_HAL_Driver/Src/stm32f4xx_hal_flash_ex.c ****     __HAL_FLASH_DATA_CACHE_ENABLE();
 934              		.loc 1 1348 5 view .LVU260
 935 0050 1A68     		ldr	r2, [r3]
 936 0052 42F48062 		orr	r2, r2, #1024
 937 0056 1A60     		str	r2, [r3]
 938              	.L78:
1349:ThirdParty/STM32F4xx_HAL_Driver/Src/stm32f4xx_hal_flash_ex.c ****   }
1350:ThirdParty/STM32F4xx_HAL_Driver/Src/stm32f4xx_hal_flash_ex.c **** }
 939              		.loc 1 1350 1 is_stmt 0 view .LVU261
 940 0058 7047     		bx	lr
 941              	.L82:
 942 005a 00BF     		.align	2
 943              	.L81:
 944 005c 003C0240 		.word	1073888256
 945              		.cfi_endproc
 946              	.LFE148:
 948              		.section	.text.HAL_FLASHEx_Erase,"ax",%progbits
 949              		.align	1
 950              		.global	HAL_FLASHEx_Erase
 951              		.syntax unified
 952              		.thumb
 953              		.thumb_func
 955              	HAL_FLASHEx_Erase:
 956              	.LVL62:
 957              	.LFB133:
 179:ThirdParty/STM32F4xx_HAL_Driver/Src/stm32f4xx_hal_flash_ex.c ****   HAL_StatusTypeDef status = HAL_ERROR;
 958              		.loc 1 179 1 is_stmt 1 view -0
 959              		.cfi_startproc
 960              		@ args = 0, pretend = 0, frame = 0
 961              		@ frame_needed = 0, uses_anonymous_args = 0
 179:ThirdParty/STM32F4xx_HAL_Driver/Src/stm32f4xx_hal_flash_ex.c ****   HAL_StatusTypeDef status = HAL_ERROR;
 962              		.loc 1 179 1 is_stmt 0 view .LVU263
 963 0000 F8B5     		push	{r3, r4, r5, r6, r7, lr}
 964              	.LCFI8:
 965              		.cfi_def_cfa_offset 24
 966              		.cfi_offset 3, -24
 967              		.cfi_offset 4, -20
 968              		.cfi_offset 5, -16
 969              		.cfi_offset 6, -12
 970              		.cfi_offset 7, -8
 971              		.cfi_offset 14, -4
 180:ThirdParty/STM32F4xx_HAL_Driver/Src/stm32f4xx_hal_flash_ex.c ****   uint32_t index = 0U;
 972              		.loc 1 180 3 is_stmt 1 view .LVU264
 973              	.LVL63:
 181:ThirdParty/STM32F4xx_HAL_Driver/Src/stm32f4xx_hal_flash_ex.c ****   
 974              		.loc 1 181 3 view .LVU265
 184:ThirdParty/STM32F4xx_HAL_Driver/Src/stm32f4xx_hal_flash_ex.c **** 
 975              		.loc 1 184 3 view .LVU266
 184:ThirdParty/STM32F4xx_HAL_Driver/Src/stm32f4xx_hal_flash_ex.c **** 
 976              		.loc 1 184 3 view .LVU267
 977 0002 224B     		ldr	r3, .L95
 978 0004 1B7E     		ldrb	r3, [r3, #24]	@ zero_extendqisi2
 979 0006 012B     		cmp	r3, #1
 980 0008 3ED0     		beq	.L91
 981 000a 0446     		mov	r4, r0
 982 000c 0E46     		mov	r6, r1
 184:ThirdParty/STM32F4xx_HAL_Driver/Src/stm32f4xx_hal_flash_ex.c **** 
ARM GAS  /tmp/ccHdxmpw.s 			page 45


 983              		.loc 1 184 3 discriminator 2 view .LVU268
 984 000e 1F4B     		ldr	r3, .L95
 985 0010 0122     		movs	r2, #1
 986 0012 1A76     		strb	r2, [r3, #24]
 184:ThirdParty/STM32F4xx_HAL_Driver/Src/stm32f4xx_hal_flash_ex.c **** 
 987              		.loc 1 184 3 discriminator 2 view .LVU269
 187:ThirdParty/STM32F4xx_HAL_Driver/Src/stm32f4xx_hal_flash_ex.c **** 
 988              		.loc 1 187 3 discriminator 2 view .LVU270
 190:ThirdParty/STM32F4xx_HAL_Driver/Src/stm32f4xx_hal_flash_ex.c **** 
 989              		.loc 1 190 3 discriminator 2 view .LVU271
 190:ThirdParty/STM32F4xx_HAL_Driver/Src/stm32f4xx_hal_flash_ex.c **** 
 990              		.loc 1 190 12 is_stmt 0 discriminator 2 view .LVU272
 991 0014 4CF25030 		movw	r0, #50000
 992              	.LVL64:
 190:ThirdParty/STM32F4xx_HAL_Driver/Src/stm32f4xx_hal_flash_ex.c **** 
 993              		.loc 1 190 12 discriminator 2 view .LVU273
 994 0018 FFF7FEFF 		bl	FLASH_WaitForLastOperation
 995              	.LVL65:
 192:ThirdParty/STM32F4xx_HAL_Driver/Src/stm32f4xx_hal_flash_ex.c ****   {
 996              		.loc 1 192 3 is_stmt 1 discriminator 2 view .LVU274
 192:ThirdParty/STM32F4xx_HAL_Driver/Src/stm32f4xx_hal_flash_ex.c ****   {
 997              		.loc 1 192 5 is_stmt 0 discriminator 2 view .LVU275
 998 001c 0746     		mov	r7, r0
 999 001e 70BB     		cbnz	r0, .L85
 195:ThirdParty/STM32F4xx_HAL_Driver/Src/stm32f4xx_hal_flash_ex.c ****     
 1000              		.loc 1 195 5 is_stmt 1 view .LVU276
 195:ThirdParty/STM32F4xx_HAL_Driver/Src/stm32f4xx_hal_flash_ex.c ****     
 1001              		.loc 1 195 18 is_stmt 0 view .LVU277
 1002 0020 4FF0FF33 		mov	r3, #-1
 1003 0024 3360     		str	r3, [r6]
 197:ThirdParty/STM32F4xx_HAL_Driver/Src/stm32f4xx_hal_flash_ex.c ****     {
 1004              		.loc 1 197 5 is_stmt 1 view .LVU278
 197:ThirdParty/STM32F4xx_HAL_Driver/Src/stm32f4xx_hal_flash_ex.c ****     {
 1005              		.loc 1 197 18 is_stmt 0 view .LVU279
 1006 0026 2368     		ldr	r3, [r4]
 197:ThirdParty/STM32F4xx_HAL_Driver/Src/stm32f4xx_hal_flash_ex.c ****     {
 1007              		.loc 1 197 7 view .LVU280
 1008 0028 012B     		cmp	r3, #1
 1009 002a 16D0     		beq	.L93
 211:ThirdParty/STM32F4xx_HAL_Driver/Src/stm32f4xx_hal_flash_ex.c **** 
 1010              		.loc 1 211 7 is_stmt 1 view .LVU281
 214:ThirdParty/STM32F4xx_HAL_Driver/Src/stm32f4xx_hal_flash_ex.c ****       {
 1011              		.loc 1 214 7 view .LVU282
 214:ThirdParty/STM32F4xx_HAL_Driver/Src/stm32f4xx_hal_flash_ex.c ****       {
 1012              		.loc 1 214 17 is_stmt 0 view .LVU283
 1013 002c A568     		ldr	r5, [r4, #8]
 1014              	.LVL66:
 1015              	.L88:
 214:ThirdParty/STM32F4xx_HAL_Driver/Src/stm32f4xx_hal_flash_ex.c ****       {
 1016              		.loc 1 214 39 is_stmt 1 discriminator 1 view .LVU284
 214:ThirdParty/STM32F4xx_HAL_Driver/Src/stm32f4xx_hal_flash_ex.c ****       {
 1017              		.loc 1 214 58 is_stmt 0 discriminator 1 view .LVU285
 1018 002e E368     		ldr	r3, [r4, #12]
 214:ThirdParty/STM32F4xx_HAL_Driver/Src/stm32f4xx_hal_flash_ex.c ****       {
 1019              		.loc 1 214 82 discriminator 1 view .LVU286
 1020 0030 A268     		ldr	r2, [r4, #8]
 214:ThirdParty/STM32F4xx_HAL_Driver/Src/stm32f4xx_hal_flash_ex.c ****       {
ARM GAS  /tmp/ccHdxmpw.s 			page 46


 1021              		.loc 1 214 70 discriminator 1 view .LVU287
 1022 0032 1344     		add	r3, r3, r2
 214:ThirdParty/STM32F4xx_HAL_Driver/Src/stm32f4xx_hal_flash_ex.c ****       {
 1023              		.loc 1 214 7 discriminator 1 view .LVU288
 1024 0034 AB42     		cmp	r3, r5
 1025 0036 20D9     		bls	.L87
 216:ThirdParty/STM32F4xx_HAL_Driver/Src/stm32f4xx_hal_flash_ex.c **** 
 1026              		.loc 1 216 9 is_stmt 1 view .LVU289
 1027 0038 217C     		ldrb	r1, [r4, #16]	@ zero_extendqisi2
 1028 003a 2846     		mov	r0, r5
 1029 003c FFF7FEFF 		bl	FLASH_Erase_Sector
 1030              	.LVL67:
 219:ThirdParty/STM32F4xx_HAL_Driver/Src/stm32f4xx_hal_flash_ex.c ****         
 1031              		.loc 1 219 9 view .LVU290
 219:ThirdParty/STM32F4xx_HAL_Driver/Src/stm32f4xx_hal_flash_ex.c ****         
 1032              		.loc 1 219 18 is_stmt 0 view .LVU291
 1033 0040 4CF25030 		movw	r0, #50000
 1034 0044 FFF7FEFF 		bl	FLASH_WaitForLastOperation
 1035              	.LVL68:
 222:ThirdParty/STM32F4xx_HAL_Driver/Src/stm32f4xx_hal_flash_ex.c **** 
 1036              		.loc 1 222 9 is_stmt 1 view .LVU292
 1037 0048 114A     		ldr	r2, .L95+4
 1038 004a 1369     		ldr	r3, [r2, #16]
 1039 004c 23F0FA03 		bic	r3, r3, #250
 1040 0050 1361     		str	r3, [r2, #16]
 224:ThirdParty/STM32F4xx_HAL_Driver/Src/stm32f4xx_hal_flash_ex.c ****         {
 1041              		.loc 1 224 9 view .LVU293
 224:ThirdParty/STM32F4xx_HAL_Driver/Src/stm32f4xx_hal_flash_ex.c ****         {
 1042              		.loc 1 224 11 is_stmt 0 view .LVU294
 1043 0052 0746     		mov	r7, r0
 1044 0054 80B9     		cbnz	r0, .L94
 214:ThirdParty/STM32F4xx_HAL_Driver/Src/stm32f4xx_hal_flash_ex.c ****       {
 1045              		.loc 1 214 93 is_stmt 1 discriminator 2 view .LVU295
 214:ThirdParty/STM32F4xx_HAL_Driver/Src/stm32f4xx_hal_flash_ex.c ****       {
 1046              		.loc 1 214 98 is_stmt 0 discriminator 2 view .LVU296
 1047 0056 0135     		adds	r5, r5, #1
 1048              	.LVL69:
 214:ThirdParty/STM32F4xx_HAL_Driver/Src/stm32f4xx_hal_flash_ex.c ****       {
 1049              		.loc 1 214 98 discriminator 2 view .LVU297
 1050 0058 E9E7     		b	.L88
 1051              	.LVL70:
 1052              	.L93:
 200:ThirdParty/STM32F4xx_HAL_Driver/Src/stm32f4xx_hal_flash_ex.c **** 
 1053              		.loc 1 200 7 is_stmt 1 view .LVU298
 1054 005a 6168     		ldr	r1, [r4, #4]
 1055 005c 207C     		ldrb	r0, [r4, #16]	@ zero_extendqisi2
 1056              	.LVL71:
 200:ThirdParty/STM32F4xx_HAL_Driver/Src/stm32f4xx_hal_flash_ex.c **** 
 1057              		.loc 1 200 7 is_stmt 0 view .LVU299
 1058 005e FFF7FEFF 		bl	FLASH_MassErase
 1059              	.LVL72:
 203:ThirdParty/STM32F4xx_HAL_Driver/Src/stm32f4xx_hal_flash_ex.c ****       
 1060              		.loc 1 203 7 is_stmt 1 view .LVU300
 203:ThirdParty/STM32F4xx_HAL_Driver/Src/stm32f4xx_hal_flash_ex.c ****       
 1061              		.loc 1 203 16 is_stmt 0 view .LVU301
 1062 0062 4CF25030 		movw	r0, #50000
 1063 0066 FFF7FEFF 		bl	FLASH_WaitForLastOperation
ARM GAS  /tmp/ccHdxmpw.s 			page 47


 1064              	.LVL73:
 1065 006a 0746     		mov	r7, r0
 1066              	.LVL74:
 206:ThirdParty/STM32F4xx_HAL_Driver/Src/stm32f4xx_hal_flash_ex.c ****     }
 1067              		.loc 1 206 7 is_stmt 1 view .LVU302
 206:ThirdParty/STM32F4xx_HAL_Driver/Src/stm32f4xx_hal_flash_ex.c ****     }
 1068              		.loc 1 206 17 is_stmt 0 view .LVU303
 1069 006c 084A     		ldr	r2, .L95+4
 1070 006e 1369     		ldr	r3, [r2, #16]
 1071 0070 23F00403 		bic	r3, r3, #4
 1072 0074 1361     		str	r3, [r2, #16]
 1073 0076 00E0     		b	.L87
 1074              	.LVL75:
 1075              	.L94:
 227:ThirdParty/STM32F4xx_HAL_Driver/Src/stm32f4xx_hal_flash_ex.c ****           break;
 1076              		.loc 1 227 11 is_stmt 1 view .LVU304
 227:ThirdParty/STM32F4xx_HAL_Driver/Src/stm32f4xx_hal_flash_ex.c ****           break;
 1077              		.loc 1 227 24 is_stmt 0 view .LVU305
 1078 0078 3560     		str	r5, [r6]
 228:ThirdParty/STM32F4xx_HAL_Driver/Src/stm32f4xx_hal_flash_ex.c ****         }
 1079              		.loc 1 228 11 is_stmt 1 view .LVU306
 1080              	.LVL76:
 1081              	.L87:
 233:ThirdParty/STM32F4xx_HAL_Driver/Src/stm32f4xx_hal_flash_ex.c ****   }
 1082              		.loc 1 233 5 view .LVU307
 1083 007a FFF7FEFF 		bl	FLASH_FlushCaches
 1084              	.LVL77:
 1085              	.L85:
 237:ThirdParty/STM32F4xx_HAL_Driver/Src/stm32f4xx_hal_flash_ex.c **** 
 1086              		.loc 1 237 3 view .LVU308
 237:ThirdParty/STM32F4xx_HAL_Driver/Src/stm32f4xx_hal_flash_ex.c **** 
 1087              		.loc 1 237 3 view .LVU309
 1088 007e 034B     		ldr	r3, .L95
 1089 0080 0022     		movs	r2, #0
 1090 0082 1A76     		strb	r2, [r3, #24]
 237:ThirdParty/STM32F4xx_HAL_Driver/Src/stm32f4xx_hal_flash_ex.c **** 
 1091              		.loc 1 237 3 view .LVU310
 239:ThirdParty/STM32F4xx_HAL_Driver/Src/stm32f4xx_hal_flash_ex.c **** }
 1092              		.loc 1 239 3 view .LVU311
 1093              	.LVL78:
 1094              	.L84:
 240:ThirdParty/STM32F4xx_HAL_Driver/Src/stm32f4xx_hal_flash_ex.c **** 
 1095              		.loc 1 240 1 is_stmt 0 view .LVU312
 1096 0084 3846     		mov	r0, r7
 1097 0086 F8BD     		pop	{r3, r4, r5, r6, r7, pc}
 1098              	.LVL79:
 1099              	.L91:
 184:ThirdParty/STM32F4xx_HAL_Driver/Src/stm32f4xx_hal_flash_ex.c **** 
 1100              		.loc 1 184 3 view .LVU313
 1101 0088 0227     		movs	r7, #2
 1102 008a FBE7     		b	.L84
 1103              	.L96:
 1104              		.align	2
 1105              	.L95:
 1106 008c 00000000 		.word	pFlash
 1107 0090 003C0240 		.word	1073888256
 1108              		.cfi_endproc
ARM GAS  /tmp/ccHdxmpw.s 			page 48


 1109              	.LFE133:
 1111              		.text
 1112              	.Letext0:
 1113              		.file 2 "/opt/gcc-arm-none-eabi/arm-none-eabi/include/machine/_default_types.h"
 1114              		.file 3 "/opt/gcc-arm-none-eabi/arm-none-eabi/include/sys/_stdint.h"
 1115              		.file 4 "ThirdParty/CMSIS/Device/ST/STM32F4xx/Include/stm32f405xx.h"
 1116              		.file 5 "ThirdParty/CMSIS/Device/ST/STM32F4xx/Include/stm32f4xx.h"
 1117              		.file 6 "ThirdParty/STM32F4xx_HAL_Driver/Inc/stm32f4xx_hal_def.h"
 1118              		.file 7 "ThirdParty/STM32F4xx_HAL_Driver/Inc/stm32f4xx_hal_flash.h"
 1119              		.file 8 "ThirdParty/STM32F4xx_HAL_Driver/Inc/stm32f4xx_hal_flash_ex.h"
ARM GAS  /tmp/ccHdxmpw.s 			page 49


DEFINED SYMBOLS
                            *ABS*:0000000000000000 stm32f4xx_hal_flash_ex.c
     /tmp/ccHdxmpw.s:20     .text.FLASH_MassErase:0000000000000000 $t
     /tmp/ccHdxmpw.s:25     .text.FLASH_MassErase:0000000000000000 FLASH_MassErase
     /tmp/ccHdxmpw.s:59     .text.FLASH_MassErase:0000000000000020 $d
     /tmp/ccHdxmpw.s:64     .text.FLASH_OB_BOR_LevelConfig:0000000000000000 $t
     /tmp/ccHdxmpw.s:69     .text.FLASH_OB_BOR_LevelConfig:0000000000000000 FLASH_OB_BOR_LevelConfig
     /tmp/ccHdxmpw.s:98     .text.FLASH_OB_BOR_LevelConfig:0000000000000014 $d
     /tmp/ccHdxmpw.s:103    .text.FLASH_OB_GetUser:0000000000000000 $t
     /tmp/ccHdxmpw.s:108    .text.FLASH_OB_GetUser:0000000000000000 FLASH_OB_GetUser
     /tmp/ccHdxmpw.s:125    .text.FLASH_OB_GetUser:000000000000000c $d
     /tmp/ccHdxmpw.s:130    .text.FLASH_OB_GetWRP:0000000000000000 $t
     /tmp/ccHdxmpw.s:135    .text.FLASH_OB_GetWRP:0000000000000000 FLASH_OB_GetWRP
     /tmp/ccHdxmpw.s:152    .text.FLASH_OB_GetWRP:0000000000000008 $d
     /tmp/ccHdxmpw.s:157    .text.FLASH_OB_GetRDP:0000000000000000 $t
     /tmp/ccHdxmpw.s:162    .text.FLASH_OB_GetRDP:0000000000000000 FLASH_OB_GetRDP
     /tmp/ccHdxmpw.s:196    .text.FLASH_OB_GetRDP:0000000000000018 $d
     /tmp/ccHdxmpw.s:201    .text.FLASH_OB_GetBOR:0000000000000000 $t
     /tmp/ccHdxmpw.s:206    .text.FLASH_OB_GetBOR:0000000000000000 FLASH_OB_GetBOR
     /tmp/ccHdxmpw.s:223    .text.FLASH_OB_GetBOR:000000000000000c $d
     /tmp/ccHdxmpw.s:228    .text.FLASH_OB_EnableWRP:0000000000000000 $t
     /tmp/ccHdxmpw.s:233    .text.FLASH_OB_EnableWRP:0000000000000000 FLASH_OB_EnableWRP
     /tmp/ccHdxmpw.s:277    .text.FLASH_OB_EnableWRP:000000000000001c $d
     /tmp/ccHdxmpw.s:282    .text.FLASH_OB_DisableWRP:0000000000000000 $t
     /tmp/ccHdxmpw.s:287    .text.FLASH_OB_DisableWRP:0000000000000000 FLASH_OB_DisableWRP
     /tmp/ccHdxmpw.s:333    .text.FLASH_OB_DisableWRP:000000000000001c $d
     /tmp/ccHdxmpw.s:338    .text.FLASH_OB_RDP_LevelConfig:0000000000000000 $t
     /tmp/ccHdxmpw.s:343    .text.FLASH_OB_RDP_LevelConfig:0000000000000000 FLASH_OB_RDP_LevelConfig
     /tmp/ccHdxmpw.s:381    .text.FLASH_OB_RDP_LevelConfig:0000000000000014 $d
     /tmp/ccHdxmpw.s:386    .text.FLASH_OB_UserConfig:0000000000000000 $t
     /tmp/ccHdxmpw.s:391    .text.FLASH_OB_UserConfig:0000000000000000 FLASH_OB_UserConfig
     /tmp/ccHdxmpw.s:450    .text.FLASH_OB_UserConfig:0000000000000028 $d
     /tmp/ccHdxmpw.s:455    .text.HAL_FLASHEx_OBProgram:0000000000000000 $t
     /tmp/ccHdxmpw.s:461    .text.HAL_FLASHEx_OBProgram:0000000000000000 HAL_FLASHEx_OBProgram
     /tmp/ccHdxmpw.s:607    .text.HAL_FLASHEx_OBProgram:0000000000000080 $d
     /tmp/ccHdxmpw.s:612    .text.HAL_FLASHEx_OBGetConfig:0000000000000000 $t
     /tmp/ccHdxmpw.s:618    .text.HAL_FLASHEx_OBGetConfig:0000000000000000 HAL_FLASHEx_OBGetConfig
     /tmp/ccHdxmpw.s:667    .text.FLASH_Erase_Sector:0000000000000000 $t
     /tmp/ccHdxmpw.s:673    .text.FLASH_Erase_Sector:0000000000000000 FLASH_Erase_Sector
     /tmp/ccHdxmpw.s:746    .text.FLASH_Erase_Sector:0000000000000050 $d
     /tmp/ccHdxmpw.s:751    .text.HAL_FLASHEx_Erase_IT:0000000000000000 $t
     /tmp/ccHdxmpw.s:757    .text.HAL_FLASHEx_Erase_IT:0000000000000000 HAL_FLASHEx_Erase_IT
     /tmp/ccHdxmpw.s:866    .text.HAL_FLASHEx_Erase_IT:0000000000000064 $d
     /tmp/ccHdxmpw.s:872    .text.FLASH_FlushCaches:0000000000000000 $t
     /tmp/ccHdxmpw.s:878    .text.FLASH_FlushCaches:0000000000000000 FLASH_FlushCaches
     /tmp/ccHdxmpw.s:944    .text.FLASH_FlushCaches:000000000000005c $d
     /tmp/ccHdxmpw.s:949    .text.HAL_FLASHEx_Erase:0000000000000000 $t
     /tmp/ccHdxmpw.s:955    .text.HAL_FLASHEx_Erase:0000000000000000 HAL_FLASHEx_Erase
     /tmp/ccHdxmpw.s:1106   .text.HAL_FLASHEx_Erase:000000000000008c $d

UNDEFINED SYMBOLS
FLASH_WaitForLastOperation
pFlash
