ARM GAS  /tmp/ccCoVfPP.s 			page 1


   1              		.cpu cortex-m4
   2              		.arch armv7e-m
   3              		.fpu fpv4-sp-d16
   4              		.eabi_attribute 27, 1
   5              		.eabi_attribute 28, 1
   6              		.eabi_attribute 20, 1
   7              		.eabi_attribute 21, 1
   8              		.eabi_attribute 23, 3
   9              		.eabi_attribute 24, 1
  10              		.eabi_attribute 25, 1
  11              		.eabi_attribute 26, 1
  12              		.eabi_attribute 30, 1
  13              		.eabi_attribute 34, 1
  14              		.eabi_attribute 18, 4
  15              		.file	"stm32f4xx_ll_usb.c"
  16              		.text
  17              	.Ltext0:
  18              		.cfi_sections	.debug_frame
  19              		.section	.text.USB_HC_StartXfer,"ax",%progbits
  20              		.align	1
  21              		.global	USB_HC_StartXfer
  22              		.syntax unified
  23              		.thumb
  24              		.thumb_func
  26              	USB_HC_StartXfer:
  27              	.LVL0:
  28              	.LFB173:
  29              		.file 1 "ThirdParty/STM32F4xx_HAL_Driver/Src/stm32f4xx_ll_usb.c"
   1:ThirdParty/STM32F4xx_HAL_Driver/Src/stm32f4xx_ll_usb.c **** /**
   2:ThirdParty/STM32F4xx_HAL_Driver/Src/stm32f4xx_ll_usb.c ****   ******************************************************************************
   3:ThirdParty/STM32F4xx_HAL_Driver/Src/stm32f4xx_ll_usb.c ****   * @file    stm32f4xx_ll_usb.c
   4:ThirdParty/STM32F4xx_HAL_Driver/Src/stm32f4xx_ll_usb.c ****   * @author  MCD Application Team
   5:ThirdParty/STM32F4xx_HAL_Driver/Src/stm32f4xx_ll_usb.c ****   * @brief   USB Low Layer HAL module driver.
   6:ThirdParty/STM32F4xx_HAL_Driver/Src/stm32f4xx_ll_usb.c ****   *    
   7:ThirdParty/STM32F4xx_HAL_Driver/Src/stm32f4xx_ll_usb.c ****   *          This file provides firmware functions to manage the following 
   8:ThirdParty/STM32F4xx_HAL_Driver/Src/stm32f4xx_ll_usb.c ****   *          functionalities of the USB Peripheral Controller:
   9:ThirdParty/STM32F4xx_HAL_Driver/Src/stm32f4xx_ll_usb.c ****   *           + Initialization/de-initialization functions
  10:ThirdParty/STM32F4xx_HAL_Driver/Src/stm32f4xx_ll_usb.c ****   *           + I/O operation functions
  11:ThirdParty/STM32F4xx_HAL_Driver/Src/stm32f4xx_ll_usb.c ****   *           + Peripheral Control functions 
  12:ThirdParty/STM32F4xx_HAL_Driver/Src/stm32f4xx_ll_usb.c ****   *           + Peripheral State functions
  13:ThirdParty/STM32F4xx_HAL_Driver/Src/stm32f4xx_ll_usb.c ****   *         
  14:ThirdParty/STM32F4xx_HAL_Driver/Src/stm32f4xx_ll_usb.c ****   @verbatim
  15:ThirdParty/STM32F4xx_HAL_Driver/Src/stm32f4xx_ll_usb.c ****   ==============================================================================
  16:ThirdParty/STM32F4xx_HAL_Driver/Src/stm32f4xx_ll_usb.c ****                     ##### How to use this driver #####
  17:ThirdParty/STM32F4xx_HAL_Driver/Src/stm32f4xx_ll_usb.c ****   ==============================================================================
  18:ThirdParty/STM32F4xx_HAL_Driver/Src/stm32f4xx_ll_usb.c ****     [..]
  19:ThirdParty/STM32F4xx_HAL_Driver/Src/stm32f4xx_ll_usb.c ****       (#) Fill parameters of Init structure in USB_OTG_CfgTypeDef structure.
  20:ThirdParty/STM32F4xx_HAL_Driver/Src/stm32f4xx_ll_usb.c ****   
  21:ThirdParty/STM32F4xx_HAL_Driver/Src/stm32f4xx_ll_usb.c ****       (#) Call USB_CoreInit() API to initialize the USB Core peripheral.
  22:ThirdParty/STM32F4xx_HAL_Driver/Src/stm32f4xx_ll_usb.c **** 
  23:ThirdParty/STM32F4xx_HAL_Driver/Src/stm32f4xx_ll_usb.c ****       (#) The upper HAL HCD/PCD driver will call the right routines for its internal processes.
  24:ThirdParty/STM32F4xx_HAL_Driver/Src/stm32f4xx_ll_usb.c **** 
  25:ThirdParty/STM32F4xx_HAL_Driver/Src/stm32f4xx_ll_usb.c ****   @endverbatim
  26:ThirdParty/STM32F4xx_HAL_Driver/Src/stm32f4xx_ll_usb.c ****   ******************************************************************************
  27:ThirdParty/STM32F4xx_HAL_Driver/Src/stm32f4xx_ll_usb.c ****   * @attention
  28:ThirdParty/STM32F4xx_HAL_Driver/Src/stm32f4xx_ll_usb.c ****   *
  29:ThirdParty/STM32F4xx_HAL_Driver/Src/stm32f4xx_ll_usb.c ****   * <h2><center>&copy; COPYRIGHT(c) 2017 STMicroelectronics</center></h2>
ARM GAS  /tmp/ccCoVfPP.s 			page 2


  30:ThirdParty/STM32F4xx_HAL_Driver/Src/stm32f4xx_ll_usb.c ****   *
  31:ThirdParty/STM32F4xx_HAL_Driver/Src/stm32f4xx_ll_usb.c ****   * Redistribution and use in source and binary forms, with or without modification,
  32:ThirdParty/STM32F4xx_HAL_Driver/Src/stm32f4xx_ll_usb.c ****   * are permitted provided that the following conditions are met:
  33:ThirdParty/STM32F4xx_HAL_Driver/Src/stm32f4xx_ll_usb.c ****   *   1. Redistributions of source code must retain the above copyright notice,
  34:ThirdParty/STM32F4xx_HAL_Driver/Src/stm32f4xx_ll_usb.c ****   *      this list of conditions and the following disclaimer.
  35:ThirdParty/STM32F4xx_HAL_Driver/Src/stm32f4xx_ll_usb.c ****   *   2. Redistributions in binary form must reproduce the above copyright notice,
  36:ThirdParty/STM32F4xx_HAL_Driver/Src/stm32f4xx_ll_usb.c ****   *      this list of conditions and the following disclaimer in the documentation
  37:ThirdParty/STM32F4xx_HAL_Driver/Src/stm32f4xx_ll_usb.c ****   *      and/or other materials provided with the distribution.
  38:ThirdParty/STM32F4xx_HAL_Driver/Src/stm32f4xx_ll_usb.c ****   *   3. Neither the name of STMicroelectronics nor the names of its contributors
  39:ThirdParty/STM32F4xx_HAL_Driver/Src/stm32f4xx_ll_usb.c ****   *      may be used to endorse or promote products derived from this software
  40:ThirdParty/STM32F4xx_HAL_Driver/Src/stm32f4xx_ll_usb.c ****   *      without specific prior written permission.
  41:ThirdParty/STM32F4xx_HAL_Driver/Src/stm32f4xx_ll_usb.c ****   *
  42:ThirdParty/STM32F4xx_HAL_Driver/Src/stm32f4xx_ll_usb.c ****   * THIS SOFTWARE IS PROVIDED BY THE COPYRIGHT HOLDERS AND CONTRIBUTORS "AS IS"
  43:ThirdParty/STM32F4xx_HAL_Driver/Src/stm32f4xx_ll_usb.c ****   * AND ANY EXPRESS OR IMPLIED WARRANTIES, INCLUDING, BUT NOT LIMITED TO, THE
  44:ThirdParty/STM32F4xx_HAL_Driver/Src/stm32f4xx_ll_usb.c ****   * IMPLIED WARRANTIES OF MERCHANTABILITY AND FITNESS FOR A PARTICULAR PURPOSE ARE
  45:ThirdParty/STM32F4xx_HAL_Driver/Src/stm32f4xx_ll_usb.c ****   * DISCLAIMED. IN NO EVENT SHALL THE COPYRIGHT HOLDER OR CONTRIBUTORS BE LIABLE
  46:ThirdParty/STM32F4xx_HAL_Driver/Src/stm32f4xx_ll_usb.c ****   * FOR ANY DIRECT, INDIRECT, INCIDENTAL, SPECIAL, EXEMPLARY, OR CONSEQUENTIAL
  47:ThirdParty/STM32F4xx_HAL_Driver/Src/stm32f4xx_ll_usb.c ****   * DAMAGES (INCLUDING, BUT NOT LIMITED TO, PROCUREMENT OF SUBSTITUTE GOODS OR
  48:ThirdParty/STM32F4xx_HAL_Driver/Src/stm32f4xx_ll_usb.c ****   * SERVICES; LOSS OF USE, DATA, OR PROFITS; OR BUSINESS INTERRUPTION) HOWEVER
  49:ThirdParty/STM32F4xx_HAL_Driver/Src/stm32f4xx_ll_usb.c ****   * CAUSED AND ON ANY THEORY OF LIABILITY, WHETHER IN CONTRACT, STRICT LIABILITY,
  50:ThirdParty/STM32F4xx_HAL_Driver/Src/stm32f4xx_ll_usb.c ****   * OR TORT (INCLUDING NEGLIGENCE OR OTHERWISE) ARISING IN ANY WAY OUT OF THE USE
  51:ThirdParty/STM32F4xx_HAL_Driver/Src/stm32f4xx_ll_usb.c ****   * OF THIS SOFTWARE, EVEN IF ADVISED OF THE POSSIBILITY OF SUCH DAMAGE.
  52:ThirdParty/STM32F4xx_HAL_Driver/Src/stm32f4xx_ll_usb.c ****   *
  53:ThirdParty/STM32F4xx_HAL_Driver/Src/stm32f4xx_ll_usb.c ****   ******************************************************************************
  54:ThirdParty/STM32F4xx_HAL_Driver/Src/stm32f4xx_ll_usb.c ****   */ 
  55:ThirdParty/STM32F4xx_HAL_Driver/Src/stm32f4xx_ll_usb.c **** 
  56:ThirdParty/STM32F4xx_HAL_Driver/Src/stm32f4xx_ll_usb.c **** /* Includes ------------------------------------------------------------------*/
  57:ThirdParty/STM32F4xx_HAL_Driver/Src/stm32f4xx_ll_usb.c **** #include "stm32f4xx_hal.h"
  58:ThirdParty/STM32F4xx_HAL_Driver/Src/stm32f4xx_ll_usb.c **** 
  59:ThirdParty/STM32F4xx_HAL_Driver/Src/stm32f4xx_ll_usb.c **** // taken from https://github.com/ARMmbed/mbed-os/blob/master/cmsis/TARGET_CORTEX_M/cmsis_compiler.h
  60:ThirdParty/STM32F4xx_HAL_Driver/Src/stm32f4xx_ll_usb.c **** #ifndef   __PACKED_STRUCT
  61:ThirdParty/STM32F4xx_HAL_Driver/Src/stm32f4xx_ll_usb.c ****   #define __PACKED_STRUCT                        struct __attribute__((packed))
  62:ThirdParty/STM32F4xx_HAL_Driver/Src/stm32f4xx_ll_usb.c **** #endif
  63:ThirdParty/STM32F4xx_HAL_Driver/Src/stm32f4xx_ll_usb.c **** #ifndef   __UNALIGNED_UINT32_WRITE
  64:ThirdParty/STM32F4xx_HAL_Driver/Src/stm32f4xx_ll_usb.c ****   __PACKED_STRUCT T_UINT32_WRITE { uint32_t v; };
  65:ThirdParty/STM32F4xx_HAL_Driver/Src/stm32f4xx_ll_usb.c ****   #define __UNALIGNED_UINT32_WRITE(addr, val)    (void)((((struct T_UINT32_WRITE *)(void *)(addr))-
  66:ThirdParty/STM32F4xx_HAL_Driver/Src/stm32f4xx_ll_usb.c **** #endif
  67:ThirdParty/STM32F4xx_HAL_Driver/Src/stm32f4xx_ll_usb.c **** #ifndef   __UNALIGNED_UINT32_READ
  68:ThirdParty/STM32F4xx_HAL_Driver/Src/stm32f4xx_ll_usb.c ****   __PACKED_STRUCT T_UINT32_READ { uint32_t v; };
  69:ThirdParty/STM32F4xx_HAL_Driver/Src/stm32f4xx_ll_usb.c ****   #define __UNALIGNED_UINT32_READ(addr)          (((const struct T_UINT32_READ *)(const void *)(add
  70:ThirdParty/STM32F4xx_HAL_Driver/Src/stm32f4xx_ll_usb.c **** #endif
  71:ThirdParty/STM32F4xx_HAL_Driver/Src/stm32f4xx_ll_usb.c **** 
  72:ThirdParty/STM32F4xx_HAL_Driver/Src/stm32f4xx_ll_usb.c **** 
  73:ThirdParty/STM32F4xx_HAL_Driver/Src/stm32f4xx_ll_usb.c **** /** @addtogroup STM32F4xx_LL_USB_DRIVER
  74:ThirdParty/STM32F4xx_HAL_Driver/Src/stm32f4xx_ll_usb.c ****   * @{
  75:ThirdParty/STM32F4xx_HAL_Driver/Src/stm32f4xx_ll_usb.c ****   */
  76:ThirdParty/STM32F4xx_HAL_Driver/Src/stm32f4xx_ll_usb.c **** 
  77:ThirdParty/STM32F4xx_HAL_Driver/Src/stm32f4xx_ll_usb.c **** #if defined(HAL_PCD_MODULE_ENABLED) || defined(HAL_HCD_MODULE_ENABLED)
  78:ThirdParty/STM32F4xx_HAL_Driver/Src/stm32f4xx_ll_usb.c **** #if defined(STM32F405xx) || defined(STM32F415xx) || defined(STM32F407xx) || defined(STM32F417xx) ||
  79:ThirdParty/STM32F4xx_HAL_Driver/Src/stm32f4xx_ll_usb.c ****     defined(STM32F427xx) || defined(STM32F437xx) || defined(STM32F429xx) || defined(STM32F439xx) ||
  80:ThirdParty/STM32F4xx_HAL_Driver/Src/stm32f4xx_ll_usb.c ****     defined(STM32F401xC) || defined(STM32F401xE) || defined(STM32F411xE) || defined(STM32F446xx) ||
  81:ThirdParty/STM32F4xx_HAL_Driver/Src/stm32f4xx_ll_usb.c ****     defined(STM32F469xx) || defined(STM32F479xx) || defined(STM32F412Zx) || defined(STM32F412Vx) ||
  82:ThirdParty/STM32F4xx_HAL_Driver/Src/stm32f4xx_ll_usb.c ****     defined(STM32F412Rx) || defined(STM32F412Cx) || defined(STM32F413xx) || defined(STM32F423xx)
  83:ThirdParty/STM32F4xx_HAL_Driver/Src/stm32f4xx_ll_usb.c **** /* Private typedef -----------------------------------------------------------*/
  84:ThirdParty/STM32F4xx_HAL_Driver/Src/stm32f4xx_ll_usb.c **** /* Private define ------------------------------------------------------------*/
  85:ThirdParty/STM32F4xx_HAL_Driver/Src/stm32f4xx_ll_usb.c **** /* Private macro -------------------------------------------------------------*/
  86:ThirdParty/STM32F4xx_HAL_Driver/Src/stm32f4xx_ll_usb.c **** /* Private variables ---------------------------------------------------------*/
ARM GAS  /tmp/ccCoVfPP.s 			page 3


  87:ThirdParty/STM32F4xx_HAL_Driver/Src/stm32f4xx_ll_usb.c **** /* Private function prototypes -----------------------------------------------*/
  88:ThirdParty/STM32F4xx_HAL_Driver/Src/stm32f4xx_ll_usb.c **** /* Private functions ---------------------------------------------------------*/
  89:ThirdParty/STM32F4xx_HAL_Driver/Src/stm32f4xx_ll_usb.c **** static HAL_StatusTypeDef USB_CoreReset(USB_OTG_GlobalTypeDef *USBx);
  90:ThirdParty/STM32F4xx_HAL_Driver/Src/stm32f4xx_ll_usb.c **** 
  91:ThirdParty/STM32F4xx_HAL_Driver/Src/stm32f4xx_ll_usb.c **** /* Exported functions --------------------------------------------------------*/
  92:ThirdParty/STM32F4xx_HAL_Driver/Src/stm32f4xx_ll_usb.c **** 
  93:ThirdParty/STM32F4xx_HAL_Driver/Src/stm32f4xx_ll_usb.c **** /** @defgroup LL_USB_Exported_Functions USB Low Layer Exported Functions
  94:ThirdParty/STM32F4xx_HAL_Driver/Src/stm32f4xx_ll_usb.c ****   * @{
  95:ThirdParty/STM32F4xx_HAL_Driver/Src/stm32f4xx_ll_usb.c ****   */
  96:ThirdParty/STM32F4xx_HAL_Driver/Src/stm32f4xx_ll_usb.c **** 
  97:ThirdParty/STM32F4xx_HAL_Driver/Src/stm32f4xx_ll_usb.c **** /** @defgroup LL_USB_Group1 Initialization/de-initialization functions 
  98:ThirdParty/STM32F4xx_HAL_Driver/Src/stm32f4xx_ll_usb.c ****  *  @brief    Initialization and Configuration functions 
  99:ThirdParty/STM32F4xx_HAL_Driver/Src/stm32f4xx_ll_usb.c ****  *
 100:ThirdParty/STM32F4xx_HAL_Driver/Src/stm32f4xx_ll_usb.c **** @verbatim    
 101:ThirdParty/STM32F4xx_HAL_Driver/Src/stm32f4xx_ll_usb.c ****  ===============================================================================
 102:ThirdParty/STM32F4xx_HAL_Driver/Src/stm32f4xx_ll_usb.c ****               ##### Initialization/de-initialization functions #####
 103:ThirdParty/STM32F4xx_HAL_Driver/Src/stm32f4xx_ll_usb.c ****  ===============================================================================
 104:ThirdParty/STM32F4xx_HAL_Driver/Src/stm32f4xx_ll_usb.c ****     [..]  This section provides functions allowing to:
 105:ThirdParty/STM32F4xx_HAL_Driver/Src/stm32f4xx_ll_usb.c ****  
 106:ThirdParty/STM32F4xx_HAL_Driver/Src/stm32f4xx_ll_usb.c **** @endverbatim
 107:ThirdParty/STM32F4xx_HAL_Driver/Src/stm32f4xx_ll_usb.c ****   * @{
 108:ThirdParty/STM32F4xx_HAL_Driver/Src/stm32f4xx_ll_usb.c ****   */
 109:ThirdParty/STM32F4xx_HAL_Driver/Src/stm32f4xx_ll_usb.c **** 
 110:ThirdParty/STM32F4xx_HAL_Driver/Src/stm32f4xx_ll_usb.c **** /**
 111:ThirdParty/STM32F4xx_HAL_Driver/Src/stm32f4xx_ll_usb.c ****   * @brief  Initializes the USB Core
 112:ThirdParty/STM32F4xx_HAL_Driver/Src/stm32f4xx_ll_usb.c ****   * @param  USBx USB Instance
 113:ThirdParty/STM32F4xx_HAL_Driver/Src/stm32f4xx_ll_usb.c ****   * @param  cfg  pointer to a USB_OTG_CfgTypeDef structure that contains
 114:ThirdParty/STM32F4xx_HAL_Driver/Src/stm32f4xx_ll_usb.c ****   *         the configuration information for the specified USBx peripheral.
 115:ThirdParty/STM32F4xx_HAL_Driver/Src/stm32f4xx_ll_usb.c ****   * @retval HAL status
 116:ThirdParty/STM32F4xx_HAL_Driver/Src/stm32f4xx_ll_usb.c ****   */
 117:ThirdParty/STM32F4xx_HAL_Driver/Src/stm32f4xx_ll_usb.c **** HAL_StatusTypeDef USB_CoreInit(USB_OTG_GlobalTypeDef *USBx, USB_OTG_CfgTypeDef cfg)
 118:ThirdParty/STM32F4xx_HAL_Driver/Src/stm32f4xx_ll_usb.c **** {
 119:ThirdParty/STM32F4xx_HAL_Driver/Src/stm32f4xx_ll_usb.c ****   if (cfg.phy_itface == USB_OTG_ULPI_PHY)
 120:ThirdParty/STM32F4xx_HAL_Driver/Src/stm32f4xx_ll_usb.c ****   {
 121:ThirdParty/STM32F4xx_HAL_Driver/Src/stm32f4xx_ll_usb.c ****     
 122:ThirdParty/STM32F4xx_HAL_Driver/Src/stm32f4xx_ll_usb.c ****     USBx->GCCFG &= ~(USB_OTG_GCCFG_PWRDWN);
 123:ThirdParty/STM32F4xx_HAL_Driver/Src/stm32f4xx_ll_usb.c **** 
 124:ThirdParty/STM32F4xx_HAL_Driver/Src/stm32f4xx_ll_usb.c ****     /* Init The ULPI Interface */
 125:ThirdParty/STM32F4xx_HAL_Driver/Src/stm32f4xx_ll_usb.c ****     USBx->GUSBCFG &= ~(USB_OTG_GUSBCFG_TSDPS | USB_OTG_GUSBCFG_ULPIFSLS | USB_OTG_GUSBCFG_PHYSEL);
 126:ThirdParty/STM32F4xx_HAL_Driver/Src/stm32f4xx_ll_usb.c ****    
 127:ThirdParty/STM32F4xx_HAL_Driver/Src/stm32f4xx_ll_usb.c ****     /* Select vbus source */
 128:ThirdParty/STM32F4xx_HAL_Driver/Src/stm32f4xx_ll_usb.c ****     USBx->GUSBCFG &= ~(USB_OTG_GUSBCFG_ULPIEVBUSD | USB_OTG_GUSBCFG_ULPIEVBUSI);
 129:ThirdParty/STM32F4xx_HAL_Driver/Src/stm32f4xx_ll_usb.c ****     if(cfg.use_external_vbus == 1U)
 130:ThirdParty/STM32F4xx_HAL_Driver/Src/stm32f4xx_ll_usb.c ****     {
 131:ThirdParty/STM32F4xx_HAL_Driver/Src/stm32f4xx_ll_usb.c ****       USBx->GUSBCFG |= USB_OTG_GUSBCFG_ULPIEVBUSD;
 132:ThirdParty/STM32F4xx_HAL_Driver/Src/stm32f4xx_ll_usb.c ****     }
 133:ThirdParty/STM32F4xx_HAL_Driver/Src/stm32f4xx_ll_usb.c ****     /* Reset after a PHY select  */
 134:ThirdParty/STM32F4xx_HAL_Driver/Src/stm32f4xx_ll_usb.c ****     USB_CoreReset(USBx); 
 135:ThirdParty/STM32F4xx_HAL_Driver/Src/stm32f4xx_ll_usb.c ****   }
 136:ThirdParty/STM32F4xx_HAL_Driver/Src/stm32f4xx_ll_usb.c ****   else /* FS interface (embedded Phy) */
 137:ThirdParty/STM32F4xx_HAL_Driver/Src/stm32f4xx_ll_usb.c ****   {
 138:ThirdParty/STM32F4xx_HAL_Driver/Src/stm32f4xx_ll_usb.c ****     /* Select FS Embedded PHY */
 139:ThirdParty/STM32F4xx_HAL_Driver/Src/stm32f4xx_ll_usb.c ****     USBx->GUSBCFG |= USB_OTG_GUSBCFG_PHYSEL;
 140:ThirdParty/STM32F4xx_HAL_Driver/Src/stm32f4xx_ll_usb.c ****     
 141:ThirdParty/STM32F4xx_HAL_Driver/Src/stm32f4xx_ll_usb.c ****     /* Reset after a PHY select and set Host mode */
 142:ThirdParty/STM32F4xx_HAL_Driver/Src/stm32f4xx_ll_usb.c ****     USB_CoreReset(USBx);
 143:ThirdParty/STM32F4xx_HAL_Driver/Src/stm32f4xx_ll_usb.c ****     
ARM GAS  /tmp/ccCoVfPP.s 			page 4


 144:ThirdParty/STM32F4xx_HAL_Driver/Src/stm32f4xx_ll_usb.c ****     /* Deactivate the power down*/
 145:ThirdParty/STM32F4xx_HAL_Driver/Src/stm32f4xx_ll_usb.c ****     USBx->GCCFG = USB_OTG_GCCFG_PWRDWN;
 146:ThirdParty/STM32F4xx_HAL_Driver/Src/stm32f4xx_ll_usb.c ****   }
 147:ThirdParty/STM32F4xx_HAL_Driver/Src/stm32f4xx_ll_usb.c ****  
 148:ThirdParty/STM32F4xx_HAL_Driver/Src/stm32f4xx_ll_usb.c ****   if(cfg.dma_enable == ENABLE)
 149:ThirdParty/STM32F4xx_HAL_Driver/Src/stm32f4xx_ll_usb.c ****   {
 150:ThirdParty/STM32F4xx_HAL_Driver/Src/stm32f4xx_ll_usb.c ****     USBx->GAHBCFG |= USB_OTG_GAHBCFG_HBSTLEN_2;
 151:ThirdParty/STM32F4xx_HAL_Driver/Src/stm32f4xx_ll_usb.c ****     USBx->GAHBCFG |= USB_OTG_GAHBCFG_DMAEN;
 152:ThirdParty/STM32F4xx_HAL_Driver/Src/stm32f4xx_ll_usb.c ****   }  
 153:ThirdParty/STM32F4xx_HAL_Driver/Src/stm32f4xx_ll_usb.c **** 
 154:ThirdParty/STM32F4xx_HAL_Driver/Src/stm32f4xx_ll_usb.c ****   return HAL_OK;
 155:ThirdParty/STM32F4xx_HAL_Driver/Src/stm32f4xx_ll_usb.c **** }
 156:ThirdParty/STM32F4xx_HAL_Driver/Src/stm32f4xx_ll_usb.c **** 
 157:ThirdParty/STM32F4xx_HAL_Driver/Src/stm32f4xx_ll_usb.c **** /**
 158:ThirdParty/STM32F4xx_HAL_Driver/Src/stm32f4xx_ll_usb.c ****   * @brief  USB_EnableGlobalInt
 159:ThirdParty/STM32F4xx_HAL_Driver/Src/stm32f4xx_ll_usb.c ****   *         Enables the controller's Global Int in the AHB Config reg
 160:ThirdParty/STM32F4xx_HAL_Driver/Src/stm32f4xx_ll_usb.c ****   * @param  USBx  Selected device
 161:ThirdParty/STM32F4xx_HAL_Driver/Src/stm32f4xx_ll_usb.c ****   * @retval HAL status
 162:ThirdParty/STM32F4xx_HAL_Driver/Src/stm32f4xx_ll_usb.c ****   */
 163:ThirdParty/STM32F4xx_HAL_Driver/Src/stm32f4xx_ll_usb.c **** HAL_StatusTypeDef USB_EnableGlobalInt(USB_OTG_GlobalTypeDef *USBx)
 164:ThirdParty/STM32F4xx_HAL_Driver/Src/stm32f4xx_ll_usb.c **** {
 165:ThirdParty/STM32F4xx_HAL_Driver/Src/stm32f4xx_ll_usb.c ****   USBx->GAHBCFG |= USB_OTG_GAHBCFG_GINT;
 166:ThirdParty/STM32F4xx_HAL_Driver/Src/stm32f4xx_ll_usb.c ****   return HAL_OK;
 167:ThirdParty/STM32F4xx_HAL_Driver/Src/stm32f4xx_ll_usb.c **** }
 168:ThirdParty/STM32F4xx_HAL_Driver/Src/stm32f4xx_ll_usb.c **** 
 169:ThirdParty/STM32F4xx_HAL_Driver/Src/stm32f4xx_ll_usb.c **** 
 170:ThirdParty/STM32F4xx_HAL_Driver/Src/stm32f4xx_ll_usb.c **** /**
 171:ThirdParty/STM32F4xx_HAL_Driver/Src/stm32f4xx_ll_usb.c ****   * @brief  USB_DisableGlobalInt
 172:ThirdParty/STM32F4xx_HAL_Driver/Src/stm32f4xx_ll_usb.c ****   *         Disable the controller's Global Int in the AHB Config reg
 173:ThirdParty/STM32F4xx_HAL_Driver/Src/stm32f4xx_ll_usb.c ****   * @param  USBx  Selected device
 174:ThirdParty/STM32F4xx_HAL_Driver/Src/stm32f4xx_ll_usb.c ****   * @retval HAL status
 175:ThirdParty/STM32F4xx_HAL_Driver/Src/stm32f4xx_ll_usb.c **** */
 176:ThirdParty/STM32F4xx_HAL_Driver/Src/stm32f4xx_ll_usb.c **** HAL_StatusTypeDef USB_DisableGlobalInt(USB_OTG_GlobalTypeDef *USBx)
 177:ThirdParty/STM32F4xx_HAL_Driver/Src/stm32f4xx_ll_usb.c **** {
 178:ThirdParty/STM32F4xx_HAL_Driver/Src/stm32f4xx_ll_usb.c ****   USBx->GAHBCFG &= ~USB_OTG_GAHBCFG_GINT;
 179:ThirdParty/STM32F4xx_HAL_Driver/Src/stm32f4xx_ll_usb.c ****   return HAL_OK;
 180:ThirdParty/STM32F4xx_HAL_Driver/Src/stm32f4xx_ll_usb.c **** }
 181:ThirdParty/STM32F4xx_HAL_Driver/Src/stm32f4xx_ll_usb.c ****    
 182:ThirdParty/STM32F4xx_HAL_Driver/Src/stm32f4xx_ll_usb.c **** /**
 183:ThirdParty/STM32F4xx_HAL_Driver/Src/stm32f4xx_ll_usb.c ****   * @brief  USB_SetCurrentMode : Set functional mode
 184:ThirdParty/STM32F4xx_HAL_Driver/Src/stm32f4xx_ll_usb.c ****   * @param  USBx  Selected device
 185:ThirdParty/STM32F4xx_HAL_Driver/Src/stm32f4xx_ll_usb.c ****   * @param  mode   current core mode
 186:ThirdParty/STM32F4xx_HAL_Driver/Src/stm32f4xx_ll_usb.c ****   *          This parameter can be one of these values:
 187:ThirdParty/STM32F4xx_HAL_Driver/Src/stm32f4xx_ll_usb.c ****   *            @arg USB_OTG_DEVICE_MODE: Peripheral mode
 188:ThirdParty/STM32F4xx_HAL_Driver/Src/stm32f4xx_ll_usb.c ****   *            @arg USB_OTG_HOST_MODE: Host mode
 189:ThirdParty/STM32F4xx_HAL_Driver/Src/stm32f4xx_ll_usb.c ****   *            @arg USB_OTG_DRD_MODE: Dual Role Device mode  
 190:ThirdParty/STM32F4xx_HAL_Driver/Src/stm32f4xx_ll_usb.c ****   * @retval HAL status
 191:ThirdParty/STM32F4xx_HAL_Driver/Src/stm32f4xx_ll_usb.c ****   */
 192:ThirdParty/STM32F4xx_HAL_Driver/Src/stm32f4xx_ll_usb.c **** HAL_StatusTypeDef USB_SetCurrentMode(USB_OTG_GlobalTypeDef *USBx , USB_OTG_ModeTypeDef mode)
 193:ThirdParty/STM32F4xx_HAL_Driver/Src/stm32f4xx_ll_usb.c **** {
 194:ThirdParty/STM32F4xx_HAL_Driver/Src/stm32f4xx_ll_usb.c ****   USBx->GUSBCFG &= ~(USB_OTG_GUSBCFG_FHMOD | USB_OTG_GUSBCFG_FDMOD); 
 195:ThirdParty/STM32F4xx_HAL_Driver/Src/stm32f4xx_ll_usb.c ****   
 196:ThirdParty/STM32F4xx_HAL_Driver/Src/stm32f4xx_ll_usb.c ****   if ( mode == USB_OTG_HOST_MODE)
 197:ThirdParty/STM32F4xx_HAL_Driver/Src/stm32f4xx_ll_usb.c ****   {
 198:ThirdParty/STM32F4xx_HAL_Driver/Src/stm32f4xx_ll_usb.c ****     USBx->GUSBCFG |= USB_OTG_GUSBCFG_FHMOD; 
 199:ThirdParty/STM32F4xx_HAL_Driver/Src/stm32f4xx_ll_usb.c ****   }
 200:ThirdParty/STM32F4xx_HAL_Driver/Src/stm32f4xx_ll_usb.c ****   else if ( mode == USB_OTG_DEVICE_MODE)
ARM GAS  /tmp/ccCoVfPP.s 			page 5


 201:ThirdParty/STM32F4xx_HAL_Driver/Src/stm32f4xx_ll_usb.c ****   {
 202:ThirdParty/STM32F4xx_HAL_Driver/Src/stm32f4xx_ll_usb.c ****     USBx->GUSBCFG |= USB_OTG_GUSBCFG_FDMOD; 
 203:ThirdParty/STM32F4xx_HAL_Driver/Src/stm32f4xx_ll_usb.c ****   }
 204:ThirdParty/STM32F4xx_HAL_Driver/Src/stm32f4xx_ll_usb.c ****   HAL_Delay(50U);
 205:ThirdParty/STM32F4xx_HAL_Driver/Src/stm32f4xx_ll_usb.c ****   
 206:ThirdParty/STM32F4xx_HAL_Driver/Src/stm32f4xx_ll_usb.c ****   return HAL_OK;
 207:ThirdParty/STM32F4xx_HAL_Driver/Src/stm32f4xx_ll_usb.c **** }
 208:ThirdParty/STM32F4xx_HAL_Driver/Src/stm32f4xx_ll_usb.c **** 
 209:ThirdParty/STM32F4xx_HAL_Driver/Src/stm32f4xx_ll_usb.c **** /**
 210:ThirdParty/STM32F4xx_HAL_Driver/Src/stm32f4xx_ll_usb.c ****   * @brief  USB_DevInit : Initializes the USB_OTG controller registers 
 211:ThirdParty/STM32F4xx_HAL_Driver/Src/stm32f4xx_ll_usb.c ****   *         for device mode
 212:ThirdParty/STM32F4xx_HAL_Driver/Src/stm32f4xx_ll_usb.c ****   * @param  USBx  Selected device
 213:ThirdParty/STM32F4xx_HAL_Driver/Src/stm32f4xx_ll_usb.c ****   * @param  cfg   pointer to a USB_OTG_CfgTypeDef structure that contains
 214:ThirdParty/STM32F4xx_HAL_Driver/Src/stm32f4xx_ll_usb.c ****   *         the configuration information for the specified USBx peripheral.
 215:ThirdParty/STM32F4xx_HAL_Driver/Src/stm32f4xx_ll_usb.c ****   * @retval HAL status
 216:ThirdParty/STM32F4xx_HAL_Driver/Src/stm32f4xx_ll_usb.c ****   */
 217:ThirdParty/STM32F4xx_HAL_Driver/Src/stm32f4xx_ll_usb.c **** HAL_StatusTypeDef USB_DevInit (USB_OTG_GlobalTypeDef *USBx, USB_OTG_CfgTypeDef cfg)
 218:ThirdParty/STM32F4xx_HAL_Driver/Src/stm32f4xx_ll_usb.c **** {
 219:ThirdParty/STM32F4xx_HAL_Driver/Src/stm32f4xx_ll_usb.c ****   uint32_t i = 0U;
 220:ThirdParty/STM32F4xx_HAL_Driver/Src/stm32f4xx_ll_usb.c **** 
 221:ThirdParty/STM32F4xx_HAL_Driver/Src/stm32f4xx_ll_usb.c ****   /*Activate VBUS Sensing B */
 222:ThirdParty/STM32F4xx_HAL_Driver/Src/stm32f4xx_ll_usb.c **** #if defined(STM32F446xx) || defined(STM32F469xx) || defined(STM32F479xx) || defined(STM32F412Zx) ||
 223:ThirdParty/STM32F4xx_HAL_Driver/Src/stm32f4xx_ll_usb.c ****     defined(STM32F412Rx) || defined(STM32F412Cx) || defined(STM32F413xx) || defined(STM32F423xx)
 224:ThirdParty/STM32F4xx_HAL_Driver/Src/stm32f4xx_ll_usb.c ****   USBx->GCCFG |= USB_OTG_GCCFG_VBDEN;
 225:ThirdParty/STM32F4xx_HAL_Driver/Src/stm32f4xx_ll_usb.c ****   
 226:ThirdParty/STM32F4xx_HAL_Driver/Src/stm32f4xx_ll_usb.c ****   if (cfg.vbus_sensing_enable == 0U)
 227:ThirdParty/STM32F4xx_HAL_Driver/Src/stm32f4xx_ll_usb.c ****   {
 228:ThirdParty/STM32F4xx_HAL_Driver/Src/stm32f4xx_ll_usb.c ****     /* Deactivate VBUS Sensing B */
 229:ThirdParty/STM32F4xx_HAL_Driver/Src/stm32f4xx_ll_usb.c ****     USBx->GCCFG &= ~USB_OTG_GCCFG_VBDEN;
 230:ThirdParty/STM32F4xx_HAL_Driver/Src/stm32f4xx_ll_usb.c ****     
 231:ThirdParty/STM32F4xx_HAL_Driver/Src/stm32f4xx_ll_usb.c ****     /* B-peripheral session valid override enable*/ 
 232:ThirdParty/STM32F4xx_HAL_Driver/Src/stm32f4xx_ll_usb.c ****     USBx->GOTGCTL |= USB_OTG_GOTGCTL_BVALOEN;
 233:ThirdParty/STM32F4xx_HAL_Driver/Src/stm32f4xx_ll_usb.c ****     USBx->GOTGCTL |= USB_OTG_GOTGCTL_BVALOVAL;
 234:ThirdParty/STM32F4xx_HAL_Driver/Src/stm32f4xx_ll_usb.c ****   }
 235:ThirdParty/STM32F4xx_HAL_Driver/Src/stm32f4xx_ll_usb.c **** #else
 236:ThirdParty/STM32F4xx_HAL_Driver/Src/stm32f4xx_ll_usb.c ****   if (cfg.vbus_sensing_enable == 0U)
 237:ThirdParty/STM32F4xx_HAL_Driver/Src/stm32f4xx_ll_usb.c ****   {
 238:ThirdParty/STM32F4xx_HAL_Driver/Src/stm32f4xx_ll_usb.c ****     USBx->GCCFG |= USB_OTG_GCCFG_NOVBUSSENS;
 239:ThirdParty/STM32F4xx_HAL_Driver/Src/stm32f4xx_ll_usb.c ****   }
 240:ThirdParty/STM32F4xx_HAL_Driver/Src/stm32f4xx_ll_usb.c ****   else
 241:ThirdParty/STM32F4xx_HAL_Driver/Src/stm32f4xx_ll_usb.c ****   {
 242:ThirdParty/STM32F4xx_HAL_Driver/Src/stm32f4xx_ll_usb.c ****     /* Enable VBUS */
 243:ThirdParty/STM32F4xx_HAL_Driver/Src/stm32f4xx_ll_usb.c ****     USBx->GCCFG |= USB_OTG_GCCFG_VBUSBSEN;
 244:ThirdParty/STM32F4xx_HAL_Driver/Src/stm32f4xx_ll_usb.c ****   }
 245:ThirdParty/STM32F4xx_HAL_Driver/Src/stm32f4xx_ll_usb.c **** #endif /* STM32F446xx || STM32F469xx || STM32F479xx || STM32F412Zx || STM32F412Rx || STM32F412Vx ||
 246:ThirdParty/STM32F4xx_HAL_Driver/Src/stm32f4xx_ll_usb.c ****   
 247:ThirdParty/STM32F4xx_HAL_Driver/Src/stm32f4xx_ll_usb.c ****   /* Restart the Phy Clock */
 248:ThirdParty/STM32F4xx_HAL_Driver/Src/stm32f4xx_ll_usb.c ****   USBx_PCGCCTL = 0U;
 249:ThirdParty/STM32F4xx_HAL_Driver/Src/stm32f4xx_ll_usb.c ****   
 250:ThirdParty/STM32F4xx_HAL_Driver/Src/stm32f4xx_ll_usb.c ****   /* Device mode configuration */
 251:ThirdParty/STM32F4xx_HAL_Driver/Src/stm32f4xx_ll_usb.c ****   USBx_DEVICE->DCFG |= DCFG_FRAME_INTERVAL_80;
 252:ThirdParty/STM32F4xx_HAL_Driver/Src/stm32f4xx_ll_usb.c ****   
 253:ThirdParty/STM32F4xx_HAL_Driver/Src/stm32f4xx_ll_usb.c ****   if(cfg.phy_itface  == USB_OTG_ULPI_PHY)
 254:ThirdParty/STM32F4xx_HAL_Driver/Src/stm32f4xx_ll_usb.c ****   {
 255:ThirdParty/STM32F4xx_HAL_Driver/Src/stm32f4xx_ll_usb.c ****     if(cfg.speed == USB_OTG_SPEED_HIGH)
 256:ThirdParty/STM32F4xx_HAL_Driver/Src/stm32f4xx_ll_usb.c ****     {      
 257:ThirdParty/STM32F4xx_HAL_Driver/Src/stm32f4xx_ll_usb.c ****       /* Set High speed phy */
ARM GAS  /tmp/ccCoVfPP.s 			page 6


 258:ThirdParty/STM32F4xx_HAL_Driver/Src/stm32f4xx_ll_usb.c ****       USB_SetDevSpeed (USBx , USB_OTG_SPEED_HIGH);
 259:ThirdParty/STM32F4xx_HAL_Driver/Src/stm32f4xx_ll_usb.c ****     }
 260:ThirdParty/STM32F4xx_HAL_Driver/Src/stm32f4xx_ll_usb.c ****     else 
 261:ThirdParty/STM32F4xx_HAL_Driver/Src/stm32f4xx_ll_usb.c ****     {
 262:ThirdParty/STM32F4xx_HAL_Driver/Src/stm32f4xx_ll_usb.c ****       /* set High speed phy in Full speed mode */
 263:ThirdParty/STM32F4xx_HAL_Driver/Src/stm32f4xx_ll_usb.c ****       USB_SetDevSpeed (USBx , USB_OTG_SPEED_HIGH_IN_FULL);
 264:ThirdParty/STM32F4xx_HAL_Driver/Src/stm32f4xx_ll_usb.c ****     }
 265:ThirdParty/STM32F4xx_HAL_Driver/Src/stm32f4xx_ll_usb.c ****   }
 266:ThirdParty/STM32F4xx_HAL_Driver/Src/stm32f4xx_ll_usb.c ****   else
 267:ThirdParty/STM32F4xx_HAL_Driver/Src/stm32f4xx_ll_usb.c ****   {
 268:ThirdParty/STM32F4xx_HAL_Driver/Src/stm32f4xx_ll_usb.c ****     /* Set Full speed phy */
 269:ThirdParty/STM32F4xx_HAL_Driver/Src/stm32f4xx_ll_usb.c ****     USB_SetDevSpeed (USBx , USB_OTG_SPEED_FULL);
 270:ThirdParty/STM32F4xx_HAL_Driver/Src/stm32f4xx_ll_usb.c ****   }
 271:ThirdParty/STM32F4xx_HAL_Driver/Src/stm32f4xx_ll_usb.c **** 
 272:ThirdParty/STM32F4xx_HAL_Driver/Src/stm32f4xx_ll_usb.c ****   /* Flush the FIFOs */
 273:ThirdParty/STM32F4xx_HAL_Driver/Src/stm32f4xx_ll_usb.c ****   USB_FlushTxFifo(USBx , 0x10U); /* all Tx FIFOs */
 274:ThirdParty/STM32F4xx_HAL_Driver/Src/stm32f4xx_ll_usb.c ****   USB_FlushRxFifo(USBx);
 275:ThirdParty/STM32F4xx_HAL_Driver/Src/stm32f4xx_ll_usb.c ****   
 276:ThirdParty/STM32F4xx_HAL_Driver/Src/stm32f4xx_ll_usb.c ****   /* Clear all pending Device Interrupts */
 277:ThirdParty/STM32F4xx_HAL_Driver/Src/stm32f4xx_ll_usb.c ****   USBx_DEVICE->DIEPMSK = 0U;
 278:ThirdParty/STM32F4xx_HAL_Driver/Src/stm32f4xx_ll_usb.c ****   USBx_DEVICE->DOEPMSK = 0U;
 279:ThirdParty/STM32F4xx_HAL_Driver/Src/stm32f4xx_ll_usb.c ****   USBx_DEVICE->DAINT = 0xFFFFFFFFU;
 280:ThirdParty/STM32F4xx_HAL_Driver/Src/stm32f4xx_ll_usb.c ****   USBx_DEVICE->DAINTMSK = 0U;
 281:ThirdParty/STM32F4xx_HAL_Driver/Src/stm32f4xx_ll_usb.c ****   
 282:ThirdParty/STM32F4xx_HAL_Driver/Src/stm32f4xx_ll_usb.c ****   for (i = 0U; i < cfg.dev_endpoints; i++)
 283:ThirdParty/STM32F4xx_HAL_Driver/Src/stm32f4xx_ll_usb.c ****   {
 284:ThirdParty/STM32F4xx_HAL_Driver/Src/stm32f4xx_ll_usb.c ****     if ((USBx_INEP(i)->DIEPCTL & USB_OTG_DIEPCTL_EPENA) == USB_OTG_DIEPCTL_EPENA)
 285:ThirdParty/STM32F4xx_HAL_Driver/Src/stm32f4xx_ll_usb.c ****     {
 286:ThirdParty/STM32F4xx_HAL_Driver/Src/stm32f4xx_ll_usb.c ****       USBx_INEP(i)->DIEPCTL = (USB_OTG_DIEPCTL_EPDIS | USB_OTG_DIEPCTL_SNAK);
 287:ThirdParty/STM32F4xx_HAL_Driver/Src/stm32f4xx_ll_usb.c ****     }
 288:ThirdParty/STM32F4xx_HAL_Driver/Src/stm32f4xx_ll_usb.c ****     else
 289:ThirdParty/STM32F4xx_HAL_Driver/Src/stm32f4xx_ll_usb.c ****     {
 290:ThirdParty/STM32F4xx_HAL_Driver/Src/stm32f4xx_ll_usb.c ****       USBx_INEP(i)->DIEPCTL = 0U;
 291:ThirdParty/STM32F4xx_HAL_Driver/Src/stm32f4xx_ll_usb.c ****     }
 292:ThirdParty/STM32F4xx_HAL_Driver/Src/stm32f4xx_ll_usb.c ****     
 293:ThirdParty/STM32F4xx_HAL_Driver/Src/stm32f4xx_ll_usb.c ****     USBx_INEP(i)->DIEPTSIZ = 0U;
 294:ThirdParty/STM32F4xx_HAL_Driver/Src/stm32f4xx_ll_usb.c ****     USBx_INEP(i)->DIEPINT  = 0xFFU;
 295:ThirdParty/STM32F4xx_HAL_Driver/Src/stm32f4xx_ll_usb.c ****   }
 296:ThirdParty/STM32F4xx_HAL_Driver/Src/stm32f4xx_ll_usb.c ****   
 297:ThirdParty/STM32F4xx_HAL_Driver/Src/stm32f4xx_ll_usb.c ****   for (i = 0U; i < cfg.dev_endpoints; i++)
 298:ThirdParty/STM32F4xx_HAL_Driver/Src/stm32f4xx_ll_usb.c ****   {
 299:ThirdParty/STM32F4xx_HAL_Driver/Src/stm32f4xx_ll_usb.c ****     if ((USBx_OUTEP(i)->DOEPCTL & USB_OTG_DOEPCTL_EPENA) == USB_OTG_DOEPCTL_EPENA)
 300:ThirdParty/STM32F4xx_HAL_Driver/Src/stm32f4xx_ll_usb.c ****     {
 301:ThirdParty/STM32F4xx_HAL_Driver/Src/stm32f4xx_ll_usb.c ****       USBx_OUTEP(i)->DOEPCTL = (USB_OTG_DOEPCTL_EPDIS | USB_OTG_DOEPCTL_SNAK);
 302:ThirdParty/STM32F4xx_HAL_Driver/Src/stm32f4xx_ll_usb.c ****     }
 303:ThirdParty/STM32F4xx_HAL_Driver/Src/stm32f4xx_ll_usb.c ****     else
 304:ThirdParty/STM32F4xx_HAL_Driver/Src/stm32f4xx_ll_usb.c ****     {
 305:ThirdParty/STM32F4xx_HAL_Driver/Src/stm32f4xx_ll_usb.c ****       USBx_OUTEP(i)->DOEPCTL = 0U;
 306:ThirdParty/STM32F4xx_HAL_Driver/Src/stm32f4xx_ll_usb.c ****     }
 307:ThirdParty/STM32F4xx_HAL_Driver/Src/stm32f4xx_ll_usb.c ****     
 308:ThirdParty/STM32F4xx_HAL_Driver/Src/stm32f4xx_ll_usb.c ****     USBx_OUTEP(i)->DOEPTSIZ = 0U;
 309:ThirdParty/STM32F4xx_HAL_Driver/Src/stm32f4xx_ll_usb.c ****     USBx_OUTEP(i)->DOEPINT  = 0xFFU;
 310:ThirdParty/STM32F4xx_HAL_Driver/Src/stm32f4xx_ll_usb.c ****   }
 311:ThirdParty/STM32F4xx_HAL_Driver/Src/stm32f4xx_ll_usb.c ****   
 312:ThirdParty/STM32F4xx_HAL_Driver/Src/stm32f4xx_ll_usb.c ****   USBx_DEVICE->DIEPMSK &= ~(USB_OTG_DIEPMSK_TXFURM);
 313:ThirdParty/STM32F4xx_HAL_Driver/Src/stm32f4xx_ll_usb.c ****   
 314:ThirdParty/STM32F4xx_HAL_Driver/Src/stm32f4xx_ll_usb.c ****   if (cfg.dma_enable == 1U)
ARM GAS  /tmp/ccCoVfPP.s 			page 7


 315:ThirdParty/STM32F4xx_HAL_Driver/Src/stm32f4xx_ll_usb.c ****   {
 316:ThirdParty/STM32F4xx_HAL_Driver/Src/stm32f4xx_ll_usb.c ****     /*Set threshold parameters */
 317:ThirdParty/STM32F4xx_HAL_Driver/Src/stm32f4xx_ll_usb.c ****     USBx_DEVICE->DTHRCTL = (USB_OTG_DTHRCTL_TXTHRLEN_6 | USB_OTG_DTHRCTL_RXTHRLEN_6);
 318:ThirdParty/STM32F4xx_HAL_Driver/Src/stm32f4xx_ll_usb.c ****     USBx_DEVICE->DTHRCTL |= (USB_OTG_DTHRCTL_RXTHREN | USB_OTG_DTHRCTL_ISOTHREN | USB_OTG_DTHRCTL_N
 319:ThirdParty/STM32F4xx_HAL_Driver/Src/stm32f4xx_ll_usb.c ****     
 320:ThirdParty/STM32F4xx_HAL_Driver/Src/stm32f4xx_ll_usb.c ****     i= USBx_DEVICE->DTHRCTL;
 321:ThirdParty/STM32F4xx_HAL_Driver/Src/stm32f4xx_ll_usb.c ****   }
 322:ThirdParty/STM32F4xx_HAL_Driver/Src/stm32f4xx_ll_usb.c ****   
 323:ThirdParty/STM32F4xx_HAL_Driver/Src/stm32f4xx_ll_usb.c ****   /* Disable all interrupts. */
 324:ThirdParty/STM32F4xx_HAL_Driver/Src/stm32f4xx_ll_usb.c ****   USBx->GINTMSK = 0U;
 325:ThirdParty/STM32F4xx_HAL_Driver/Src/stm32f4xx_ll_usb.c ****   
 326:ThirdParty/STM32F4xx_HAL_Driver/Src/stm32f4xx_ll_usb.c ****   /* Clear any pending interrupts */
 327:ThirdParty/STM32F4xx_HAL_Driver/Src/stm32f4xx_ll_usb.c ****   USBx->GINTSTS = 0xBFFFFFFFU;
 328:ThirdParty/STM32F4xx_HAL_Driver/Src/stm32f4xx_ll_usb.c **** 
 329:ThirdParty/STM32F4xx_HAL_Driver/Src/stm32f4xx_ll_usb.c ****   /* Enable the common interrupts */
 330:ThirdParty/STM32F4xx_HAL_Driver/Src/stm32f4xx_ll_usb.c ****   if (cfg.dma_enable == DISABLE)
 331:ThirdParty/STM32F4xx_HAL_Driver/Src/stm32f4xx_ll_usb.c ****   {
 332:ThirdParty/STM32F4xx_HAL_Driver/Src/stm32f4xx_ll_usb.c ****     USBx->GINTMSK |= USB_OTG_GINTMSK_RXFLVLM; 
 333:ThirdParty/STM32F4xx_HAL_Driver/Src/stm32f4xx_ll_usb.c ****   }
 334:ThirdParty/STM32F4xx_HAL_Driver/Src/stm32f4xx_ll_usb.c ****   
 335:ThirdParty/STM32F4xx_HAL_Driver/Src/stm32f4xx_ll_usb.c ****   /* Enable interrupts matching to the Device mode ONLY */
 336:ThirdParty/STM32F4xx_HAL_Driver/Src/stm32f4xx_ll_usb.c ****   USBx->GINTMSK |= (USB_OTG_GINTMSK_USBSUSPM | USB_OTG_GINTMSK_USBRST |\
 337:ThirdParty/STM32F4xx_HAL_Driver/Src/stm32f4xx_ll_usb.c ****                     USB_OTG_GINTMSK_ENUMDNEM | USB_OTG_GINTMSK_IEPINT |\
 338:ThirdParty/STM32F4xx_HAL_Driver/Src/stm32f4xx_ll_usb.c ****                     USB_OTG_GINTMSK_OEPINT   | USB_OTG_GINTMSK_IISOIXFRM|\
 339:ThirdParty/STM32F4xx_HAL_Driver/Src/stm32f4xx_ll_usb.c ****                     USB_OTG_GINTMSK_PXFRM_IISOOXFRM | USB_OTG_GINTMSK_WUIM);
 340:ThirdParty/STM32F4xx_HAL_Driver/Src/stm32f4xx_ll_usb.c ****   
 341:ThirdParty/STM32F4xx_HAL_Driver/Src/stm32f4xx_ll_usb.c ****   if(cfg.Sof_enable)
 342:ThirdParty/STM32F4xx_HAL_Driver/Src/stm32f4xx_ll_usb.c ****   {
 343:ThirdParty/STM32F4xx_HAL_Driver/Src/stm32f4xx_ll_usb.c ****     USBx->GINTMSK |= USB_OTG_GINTMSK_SOFM;
 344:ThirdParty/STM32F4xx_HAL_Driver/Src/stm32f4xx_ll_usb.c ****   }
 345:ThirdParty/STM32F4xx_HAL_Driver/Src/stm32f4xx_ll_usb.c **** 
 346:ThirdParty/STM32F4xx_HAL_Driver/Src/stm32f4xx_ll_usb.c ****   if (cfg.vbus_sensing_enable == ENABLE)
 347:ThirdParty/STM32F4xx_HAL_Driver/Src/stm32f4xx_ll_usb.c ****   {
 348:ThirdParty/STM32F4xx_HAL_Driver/Src/stm32f4xx_ll_usb.c ****     USBx->GINTMSK |= (USB_OTG_GINTMSK_SRQIM | USB_OTG_GINTMSK_OTGINT); 
 349:ThirdParty/STM32F4xx_HAL_Driver/Src/stm32f4xx_ll_usb.c ****   }
 350:ThirdParty/STM32F4xx_HAL_Driver/Src/stm32f4xx_ll_usb.c ****   
 351:ThirdParty/STM32F4xx_HAL_Driver/Src/stm32f4xx_ll_usb.c ****   return HAL_OK;
 352:ThirdParty/STM32F4xx_HAL_Driver/Src/stm32f4xx_ll_usb.c **** }
 353:ThirdParty/STM32F4xx_HAL_Driver/Src/stm32f4xx_ll_usb.c **** 
 354:ThirdParty/STM32F4xx_HAL_Driver/Src/stm32f4xx_ll_usb.c **** 
 355:ThirdParty/STM32F4xx_HAL_Driver/Src/stm32f4xx_ll_usb.c **** /**
 356:ThirdParty/STM32F4xx_HAL_Driver/Src/stm32f4xx_ll_usb.c ****   * @brief  USB_OTG_FlushTxFifo : Flush a Tx FIFO
 357:ThirdParty/STM32F4xx_HAL_Driver/Src/stm32f4xx_ll_usb.c ****   * @param  USBx  Selected device
 358:ThirdParty/STM32F4xx_HAL_Driver/Src/stm32f4xx_ll_usb.c ****   * @param  num  FIFO number
 359:ThirdParty/STM32F4xx_HAL_Driver/Src/stm32f4xx_ll_usb.c ****   *         This parameter can be a value from 1 to 15
 360:ThirdParty/STM32F4xx_HAL_Driver/Src/stm32f4xx_ll_usb.c ****             15 means Flush all Tx FIFOs
 361:ThirdParty/STM32F4xx_HAL_Driver/Src/stm32f4xx_ll_usb.c ****   * @retval HAL status
 362:ThirdParty/STM32F4xx_HAL_Driver/Src/stm32f4xx_ll_usb.c ****   */
 363:ThirdParty/STM32F4xx_HAL_Driver/Src/stm32f4xx_ll_usb.c **** HAL_StatusTypeDef USB_FlushTxFifo (USB_OTG_GlobalTypeDef *USBx, uint32_t num )
 364:ThirdParty/STM32F4xx_HAL_Driver/Src/stm32f4xx_ll_usb.c **** {
 365:ThirdParty/STM32F4xx_HAL_Driver/Src/stm32f4xx_ll_usb.c ****   uint32_t count = 0;
 366:ThirdParty/STM32F4xx_HAL_Driver/Src/stm32f4xx_ll_usb.c ****   
 367:ThirdParty/STM32F4xx_HAL_Driver/Src/stm32f4xx_ll_usb.c ****   USBx->GRSTCTL = ( USB_OTG_GRSTCTL_TXFFLSH |(uint32_t)( num << 6)); 
 368:ThirdParty/STM32F4xx_HAL_Driver/Src/stm32f4xx_ll_usb.c ****   
 369:ThirdParty/STM32F4xx_HAL_Driver/Src/stm32f4xx_ll_usb.c ****   do
 370:ThirdParty/STM32F4xx_HAL_Driver/Src/stm32f4xx_ll_usb.c ****   {
 371:ThirdParty/STM32F4xx_HAL_Driver/Src/stm32f4xx_ll_usb.c ****     if (++count > 200000)
ARM GAS  /tmp/ccCoVfPP.s 			page 8


 372:ThirdParty/STM32F4xx_HAL_Driver/Src/stm32f4xx_ll_usb.c ****     {
 373:ThirdParty/STM32F4xx_HAL_Driver/Src/stm32f4xx_ll_usb.c ****       return HAL_TIMEOUT;
 374:ThirdParty/STM32F4xx_HAL_Driver/Src/stm32f4xx_ll_usb.c ****     }
 375:ThirdParty/STM32F4xx_HAL_Driver/Src/stm32f4xx_ll_usb.c ****   }
 376:ThirdParty/STM32F4xx_HAL_Driver/Src/stm32f4xx_ll_usb.c ****   while ((USBx->GRSTCTL & USB_OTG_GRSTCTL_TXFFLSH) == USB_OTG_GRSTCTL_TXFFLSH);
 377:ThirdParty/STM32F4xx_HAL_Driver/Src/stm32f4xx_ll_usb.c ****   
 378:ThirdParty/STM32F4xx_HAL_Driver/Src/stm32f4xx_ll_usb.c ****   return HAL_OK;
 379:ThirdParty/STM32F4xx_HAL_Driver/Src/stm32f4xx_ll_usb.c **** }
 380:ThirdParty/STM32F4xx_HAL_Driver/Src/stm32f4xx_ll_usb.c **** 
 381:ThirdParty/STM32F4xx_HAL_Driver/Src/stm32f4xx_ll_usb.c **** 
 382:ThirdParty/STM32F4xx_HAL_Driver/Src/stm32f4xx_ll_usb.c **** /**
 383:ThirdParty/STM32F4xx_HAL_Driver/Src/stm32f4xx_ll_usb.c ****   * @brief  USB_FlushRxFifo : Flush Rx FIFO
 384:ThirdParty/STM32F4xx_HAL_Driver/Src/stm32f4xx_ll_usb.c ****   * @param  USBx  Selected device
 385:ThirdParty/STM32F4xx_HAL_Driver/Src/stm32f4xx_ll_usb.c ****   * @retval HAL status
 386:ThirdParty/STM32F4xx_HAL_Driver/Src/stm32f4xx_ll_usb.c ****   */
 387:ThirdParty/STM32F4xx_HAL_Driver/Src/stm32f4xx_ll_usb.c **** HAL_StatusTypeDef USB_FlushRxFifo(USB_OTG_GlobalTypeDef *USBx)
 388:ThirdParty/STM32F4xx_HAL_Driver/Src/stm32f4xx_ll_usb.c **** {
 389:ThirdParty/STM32F4xx_HAL_Driver/Src/stm32f4xx_ll_usb.c ****   uint32_t count = 0;
 390:ThirdParty/STM32F4xx_HAL_Driver/Src/stm32f4xx_ll_usb.c ****   
 391:ThirdParty/STM32F4xx_HAL_Driver/Src/stm32f4xx_ll_usb.c ****   USBx->GRSTCTL = USB_OTG_GRSTCTL_RXFFLSH;
 392:ThirdParty/STM32F4xx_HAL_Driver/Src/stm32f4xx_ll_usb.c ****   
 393:ThirdParty/STM32F4xx_HAL_Driver/Src/stm32f4xx_ll_usb.c ****   do
 394:ThirdParty/STM32F4xx_HAL_Driver/Src/stm32f4xx_ll_usb.c ****   {
 395:ThirdParty/STM32F4xx_HAL_Driver/Src/stm32f4xx_ll_usb.c ****     if (++count > 200000)
 396:ThirdParty/STM32F4xx_HAL_Driver/Src/stm32f4xx_ll_usb.c ****     {
 397:ThirdParty/STM32F4xx_HAL_Driver/Src/stm32f4xx_ll_usb.c ****       return HAL_TIMEOUT;
 398:ThirdParty/STM32F4xx_HAL_Driver/Src/stm32f4xx_ll_usb.c ****     }
 399:ThirdParty/STM32F4xx_HAL_Driver/Src/stm32f4xx_ll_usb.c ****   }
 400:ThirdParty/STM32F4xx_HAL_Driver/Src/stm32f4xx_ll_usb.c ****   while ((USBx->GRSTCTL & USB_OTG_GRSTCTL_RXFFLSH) == USB_OTG_GRSTCTL_RXFFLSH);
 401:ThirdParty/STM32F4xx_HAL_Driver/Src/stm32f4xx_ll_usb.c ****   
 402:ThirdParty/STM32F4xx_HAL_Driver/Src/stm32f4xx_ll_usb.c ****   return HAL_OK;
 403:ThirdParty/STM32F4xx_HAL_Driver/Src/stm32f4xx_ll_usb.c **** }
 404:ThirdParty/STM32F4xx_HAL_Driver/Src/stm32f4xx_ll_usb.c **** 
 405:ThirdParty/STM32F4xx_HAL_Driver/Src/stm32f4xx_ll_usb.c **** /**
 406:ThirdParty/STM32F4xx_HAL_Driver/Src/stm32f4xx_ll_usb.c ****   * @brief  USB_SetDevSpeed :Initializes the DevSpd field of DCFG register 
 407:ThirdParty/STM32F4xx_HAL_Driver/Src/stm32f4xx_ll_usb.c ****   *         depending the PHY type and the enumeration speed of the device.
 408:ThirdParty/STM32F4xx_HAL_Driver/Src/stm32f4xx_ll_usb.c ****   * @param  USBx  Selected device
 409:ThirdParty/STM32F4xx_HAL_Driver/Src/stm32f4xx_ll_usb.c ****   * @param  speed  device speed
 410:ThirdParty/STM32F4xx_HAL_Driver/Src/stm32f4xx_ll_usb.c ****   *          This parameter can be one of these values:
 411:ThirdParty/STM32F4xx_HAL_Driver/Src/stm32f4xx_ll_usb.c ****   *            @arg USB_OTG_SPEED_HIGH: High speed mode
 412:ThirdParty/STM32F4xx_HAL_Driver/Src/stm32f4xx_ll_usb.c ****   *            @arg USB_OTG_SPEED_HIGH_IN_FULL: High speed core in Full Speed mode
 413:ThirdParty/STM32F4xx_HAL_Driver/Src/stm32f4xx_ll_usb.c ****   *            @arg USB_OTG_SPEED_FULL: Full speed mode
 414:ThirdParty/STM32F4xx_HAL_Driver/Src/stm32f4xx_ll_usb.c ****   *            @arg USB_OTG_SPEED_LOW: Low speed mode
 415:ThirdParty/STM32F4xx_HAL_Driver/Src/stm32f4xx_ll_usb.c ****   * @retval  Hal status
 416:ThirdParty/STM32F4xx_HAL_Driver/Src/stm32f4xx_ll_usb.c ****   */
 417:ThirdParty/STM32F4xx_HAL_Driver/Src/stm32f4xx_ll_usb.c **** HAL_StatusTypeDef USB_SetDevSpeed(USB_OTG_GlobalTypeDef *USBx , uint8_t speed)
 418:ThirdParty/STM32F4xx_HAL_Driver/Src/stm32f4xx_ll_usb.c **** {
 419:ThirdParty/STM32F4xx_HAL_Driver/Src/stm32f4xx_ll_usb.c ****   USBx_DEVICE->DCFG |= speed;
 420:ThirdParty/STM32F4xx_HAL_Driver/Src/stm32f4xx_ll_usb.c ****   return HAL_OK;
 421:ThirdParty/STM32F4xx_HAL_Driver/Src/stm32f4xx_ll_usb.c **** }
 422:ThirdParty/STM32F4xx_HAL_Driver/Src/stm32f4xx_ll_usb.c **** 
 423:ThirdParty/STM32F4xx_HAL_Driver/Src/stm32f4xx_ll_usb.c **** /**
 424:ThirdParty/STM32F4xx_HAL_Driver/Src/stm32f4xx_ll_usb.c ****   * @brief  USB_GetDevSpeed :Return the  Dev Speed 
 425:ThirdParty/STM32F4xx_HAL_Driver/Src/stm32f4xx_ll_usb.c ****   * @param  USBx  Selected device
 426:ThirdParty/STM32F4xx_HAL_Driver/Src/stm32f4xx_ll_usb.c ****   * @retval speed : device speed
 427:ThirdParty/STM32F4xx_HAL_Driver/Src/stm32f4xx_ll_usb.c ****   *          This parameter can be one of these values:
 428:ThirdParty/STM32F4xx_HAL_Driver/Src/stm32f4xx_ll_usb.c ****   *            @arg USB_OTG_SPEED_HIGH: High speed mode
ARM GAS  /tmp/ccCoVfPP.s 			page 9


 429:ThirdParty/STM32F4xx_HAL_Driver/Src/stm32f4xx_ll_usb.c ****   *            @arg USB_OTG_SPEED_FULL: Full speed mode
 430:ThirdParty/STM32F4xx_HAL_Driver/Src/stm32f4xx_ll_usb.c ****   *            @arg USB_OTG_SPEED_LOW: Low speed mode
 431:ThirdParty/STM32F4xx_HAL_Driver/Src/stm32f4xx_ll_usb.c ****   */
 432:ThirdParty/STM32F4xx_HAL_Driver/Src/stm32f4xx_ll_usb.c **** uint8_t USB_GetDevSpeed(USB_OTG_GlobalTypeDef *USBx)
 433:ThirdParty/STM32F4xx_HAL_Driver/Src/stm32f4xx_ll_usb.c **** {
 434:ThirdParty/STM32F4xx_HAL_Driver/Src/stm32f4xx_ll_usb.c ****   uint8_t speed = 0U;
 435:ThirdParty/STM32F4xx_HAL_Driver/Src/stm32f4xx_ll_usb.c ****   
 436:ThirdParty/STM32F4xx_HAL_Driver/Src/stm32f4xx_ll_usb.c ****   if((USBx_DEVICE->DSTS & USB_OTG_DSTS_ENUMSPD) == DSTS_ENUMSPD_HS_PHY_30MHZ_OR_60MHZ)
 437:ThirdParty/STM32F4xx_HAL_Driver/Src/stm32f4xx_ll_usb.c ****   {
 438:ThirdParty/STM32F4xx_HAL_Driver/Src/stm32f4xx_ll_usb.c ****     speed = USB_OTG_SPEED_HIGH;
 439:ThirdParty/STM32F4xx_HAL_Driver/Src/stm32f4xx_ll_usb.c ****   }
 440:ThirdParty/STM32F4xx_HAL_Driver/Src/stm32f4xx_ll_usb.c ****   else if (((USBx_DEVICE->DSTS & USB_OTG_DSTS_ENUMSPD) == DSTS_ENUMSPD_FS_PHY_30MHZ_OR_60MHZ)||
 441:ThirdParty/STM32F4xx_HAL_Driver/Src/stm32f4xx_ll_usb.c ****            ((USBx_DEVICE->DSTS & USB_OTG_DSTS_ENUMSPD) == DSTS_ENUMSPD_FS_PHY_48MHZ))
 442:ThirdParty/STM32F4xx_HAL_Driver/Src/stm32f4xx_ll_usb.c ****   {
 443:ThirdParty/STM32F4xx_HAL_Driver/Src/stm32f4xx_ll_usb.c ****     speed = USB_OTG_SPEED_FULL;
 444:ThirdParty/STM32F4xx_HAL_Driver/Src/stm32f4xx_ll_usb.c ****   }
 445:ThirdParty/STM32F4xx_HAL_Driver/Src/stm32f4xx_ll_usb.c ****   else if((USBx_DEVICE->DSTS & USB_OTG_DSTS_ENUMSPD) == DSTS_ENUMSPD_LS_PHY_6MHZ)
 446:ThirdParty/STM32F4xx_HAL_Driver/Src/stm32f4xx_ll_usb.c ****   {
 447:ThirdParty/STM32F4xx_HAL_Driver/Src/stm32f4xx_ll_usb.c ****     speed = USB_OTG_SPEED_LOW;
 448:ThirdParty/STM32F4xx_HAL_Driver/Src/stm32f4xx_ll_usb.c ****   }
 449:ThirdParty/STM32F4xx_HAL_Driver/Src/stm32f4xx_ll_usb.c ****   
 450:ThirdParty/STM32F4xx_HAL_Driver/Src/stm32f4xx_ll_usb.c ****   return speed;
 451:ThirdParty/STM32F4xx_HAL_Driver/Src/stm32f4xx_ll_usb.c **** }
 452:ThirdParty/STM32F4xx_HAL_Driver/Src/stm32f4xx_ll_usb.c **** 
 453:ThirdParty/STM32F4xx_HAL_Driver/Src/stm32f4xx_ll_usb.c **** /**
 454:ThirdParty/STM32F4xx_HAL_Driver/Src/stm32f4xx_ll_usb.c ****   * @brief  Activate and configure an endpoint
 455:ThirdParty/STM32F4xx_HAL_Driver/Src/stm32f4xx_ll_usb.c ****   * @param  USBx  Selected device
 456:ThirdParty/STM32F4xx_HAL_Driver/Src/stm32f4xx_ll_usb.c ****   * @param  ep pointer to endpoint structure
 457:ThirdParty/STM32F4xx_HAL_Driver/Src/stm32f4xx_ll_usb.c ****   * @retval HAL status
 458:ThirdParty/STM32F4xx_HAL_Driver/Src/stm32f4xx_ll_usb.c ****   */
 459:ThirdParty/STM32F4xx_HAL_Driver/Src/stm32f4xx_ll_usb.c **** HAL_StatusTypeDef USB_ActivateEndpoint(USB_OTG_GlobalTypeDef *USBx, USB_OTG_EPTypeDef *ep)
 460:ThirdParty/STM32F4xx_HAL_Driver/Src/stm32f4xx_ll_usb.c **** {
 461:ThirdParty/STM32F4xx_HAL_Driver/Src/stm32f4xx_ll_usb.c ****   if (ep->is_in == 1U)
 462:ThirdParty/STM32F4xx_HAL_Driver/Src/stm32f4xx_ll_usb.c ****   {
 463:ThirdParty/STM32F4xx_HAL_Driver/Src/stm32f4xx_ll_usb.c ****    USBx_DEVICE->DAINTMSK |= USB_OTG_DAINTMSK_IEPM & ((1U << (ep->num)));
 464:ThirdParty/STM32F4xx_HAL_Driver/Src/stm32f4xx_ll_usb.c ****    
 465:ThirdParty/STM32F4xx_HAL_Driver/Src/stm32f4xx_ll_usb.c ****     if (((USBx_INEP(ep->num)->DIEPCTL) & USB_OTG_DIEPCTL_USBAEP) == 0U)
 466:ThirdParty/STM32F4xx_HAL_Driver/Src/stm32f4xx_ll_usb.c ****     {
 467:ThirdParty/STM32F4xx_HAL_Driver/Src/stm32f4xx_ll_usb.c ****       USBx_INEP(ep->num)->DIEPCTL |= ((ep->maxpacket & USB_OTG_DIEPCTL_MPSIZ ) | (ep->type << 18U) 
 468:ThirdParty/STM32F4xx_HAL_Driver/Src/stm32f4xx_ll_usb.c ****         ((ep->num) << 22U) | (USB_OTG_DIEPCTL_SD0PID_SEVNFRM) | (USB_OTG_DIEPCTL_USBAEP)); 
 469:ThirdParty/STM32F4xx_HAL_Driver/Src/stm32f4xx_ll_usb.c ****     } 
 470:ThirdParty/STM32F4xx_HAL_Driver/Src/stm32f4xx_ll_usb.c ****   }
 471:ThirdParty/STM32F4xx_HAL_Driver/Src/stm32f4xx_ll_usb.c ****   else
 472:ThirdParty/STM32F4xx_HAL_Driver/Src/stm32f4xx_ll_usb.c ****   {
 473:ThirdParty/STM32F4xx_HAL_Driver/Src/stm32f4xx_ll_usb.c ****      USBx_DEVICE->DAINTMSK |= USB_OTG_DAINTMSK_OEPM & ((1U << (ep->num)) << 16U);
 474:ThirdParty/STM32F4xx_HAL_Driver/Src/stm32f4xx_ll_usb.c ****      
 475:ThirdParty/STM32F4xx_HAL_Driver/Src/stm32f4xx_ll_usb.c ****     if (((USBx_OUTEP(ep->num)->DOEPCTL) & USB_OTG_DOEPCTL_USBAEP) == 0U)
 476:ThirdParty/STM32F4xx_HAL_Driver/Src/stm32f4xx_ll_usb.c ****     {
 477:ThirdParty/STM32F4xx_HAL_Driver/Src/stm32f4xx_ll_usb.c ****       USBx_OUTEP(ep->num)->DOEPCTL |= ((ep->maxpacket & USB_OTG_DOEPCTL_MPSIZ ) | (ep->type << 18U)
 478:ThirdParty/STM32F4xx_HAL_Driver/Src/stm32f4xx_ll_usb.c ****        (USB_OTG_DIEPCTL_SD0PID_SEVNFRM)| (USB_OTG_DOEPCTL_USBAEP));
 479:ThirdParty/STM32F4xx_HAL_Driver/Src/stm32f4xx_ll_usb.c ****     } 
 480:ThirdParty/STM32F4xx_HAL_Driver/Src/stm32f4xx_ll_usb.c ****   }
 481:ThirdParty/STM32F4xx_HAL_Driver/Src/stm32f4xx_ll_usb.c ****   return HAL_OK;
 482:ThirdParty/STM32F4xx_HAL_Driver/Src/stm32f4xx_ll_usb.c **** }
 483:ThirdParty/STM32F4xx_HAL_Driver/Src/stm32f4xx_ll_usb.c **** /**
 484:ThirdParty/STM32F4xx_HAL_Driver/Src/stm32f4xx_ll_usb.c ****   * @brief  Activate and configure a dedicated endpoint
 485:ThirdParty/STM32F4xx_HAL_Driver/Src/stm32f4xx_ll_usb.c ****   * @param  USBx  Selected device
ARM GAS  /tmp/ccCoVfPP.s 			page 10


 486:ThirdParty/STM32F4xx_HAL_Driver/Src/stm32f4xx_ll_usb.c ****   * @param  ep pointer to endpoint structure
 487:ThirdParty/STM32F4xx_HAL_Driver/Src/stm32f4xx_ll_usb.c ****   * @retval HAL status
 488:ThirdParty/STM32F4xx_HAL_Driver/Src/stm32f4xx_ll_usb.c ****   */
 489:ThirdParty/STM32F4xx_HAL_Driver/Src/stm32f4xx_ll_usb.c **** HAL_StatusTypeDef USB_ActivateDedicatedEndpoint(USB_OTG_GlobalTypeDef *USBx, USB_OTG_EPTypeDef *ep)
 490:ThirdParty/STM32F4xx_HAL_Driver/Src/stm32f4xx_ll_usb.c **** {
 491:ThirdParty/STM32F4xx_HAL_Driver/Src/stm32f4xx_ll_usb.c ****   static __IO uint32_t debug = 0U;
 492:ThirdParty/STM32F4xx_HAL_Driver/Src/stm32f4xx_ll_usb.c ****   
 493:ThirdParty/STM32F4xx_HAL_Driver/Src/stm32f4xx_ll_usb.c ****   /* Read DEPCTLn register */
 494:ThirdParty/STM32F4xx_HAL_Driver/Src/stm32f4xx_ll_usb.c ****   if (ep->is_in == 1U)
 495:ThirdParty/STM32F4xx_HAL_Driver/Src/stm32f4xx_ll_usb.c ****   {
 496:ThirdParty/STM32F4xx_HAL_Driver/Src/stm32f4xx_ll_usb.c ****     if (((USBx_INEP(ep->num)->DIEPCTL) & USB_OTG_DIEPCTL_USBAEP) == 0U)
 497:ThirdParty/STM32F4xx_HAL_Driver/Src/stm32f4xx_ll_usb.c ****     {
 498:ThirdParty/STM32F4xx_HAL_Driver/Src/stm32f4xx_ll_usb.c ****       USBx_INEP(ep->num)->DIEPCTL |= ((ep->maxpacket & USB_OTG_DIEPCTL_MPSIZ ) | (ep->type << 18U) 
 499:ThirdParty/STM32F4xx_HAL_Driver/Src/stm32f4xx_ll_usb.c ****         ((ep->num) << 22U) | (USB_OTG_DIEPCTL_SD0PID_SEVNFRM) | (USB_OTG_DIEPCTL_USBAEP)); 
 500:ThirdParty/STM32F4xx_HAL_Driver/Src/stm32f4xx_ll_usb.c ****     } 
 501:ThirdParty/STM32F4xx_HAL_Driver/Src/stm32f4xx_ll_usb.c ****     
 502:ThirdParty/STM32F4xx_HAL_Driver/Src/stm32f4xx_ll_usb.c ****     
 503:ThirdParty/STM32F4xx_HAL_Driver/Src/stm32f4xx_ll_usb.c ****     debug  |= ((ep->maxpacket & USB_OTG_DIEPCTL_MPSIZ ) | (ep->type << 18U) |\
 504:ThirdParty/STM32F4xx_HAL_Driver/Src/stm32f4xx_ll_usb.c ****         ((ep->num) << 22U) | (USB_OTG_DIEPCTL_SD0PID_SEVNFRM) | (USB_OTG_DIEPCTL_USBAEP)); 
 505:ThirdParty/STM32F4xx_HAL_Driver/Src/stm32f4xx_ll_usb.c ****     
 506:ThirdParty/STM32F4xx_HAL_Driver/Src/stm32f4xx_ll_usb.c ****    USBx_DEVICE->DEACHMSK |= USB_OTG_DAINTMSK_IEPM & ((1U << (ep->num)));
 507:ThirdParty/STM32F4xx_HAL_Driver/Src/stm32f4xx_ll_usb.c ****   }
 508:ThirdParty/STM32F4xx_HAL_Driver/Src/stm32f4xx_ll_usb.c ****   else
 509:ThirdParty/STM32F4xx_HAL_Driver/Src/stm32f4xx_ll_usb.c ****   {
 510:ThirdParty/STM32F4xx_HAL_Driver/Src/stm32f4xx_ll_usb.c ****     if (((USBx_OUTEP(ep->num)->DOEPCTL) & USB_OTG_DOEPCTL_USBAEP) == 0U)
 511:ThirdParty/STM32F4xx_HAL_Driver/Src/stm32f4xx_ll_usb.c ****     {
 512:ThirdParty/STM32F4xx_HAL_Driver/Src/stm32f4xx_ll_usb.c ****       USBx_OUTEP(ep->num)->DOEPCTL |= ((ep->maxpacket & USB_OTG_DOEPCTL_MPSIZ ) | (ep->type << 18U)
 513:ThirdParty/STM32F4xx_HAL_Driver/Src/stm32f4xx_ll_usb.c ****         ((ep->num) << 22U) | (USB_OTG_DOEPCTL_USBAEP));
 514:ThirdParty/STM32F4xx_HAL_Driver/Src/stm32f4xx_ll_usb.c ****       
 515:ThirdParty/STM32F4xx_HAL_Driver/Src/stm32f4xx_ll_usb.c ****       debug = (uint32_t)(((uint32_t )USBx) + USB_OTG_OUT_ENDPOINT_BASE + (0U)*USB_OTG_EP_REG_SIZE);
 516:ThirdParty/STM32F4xx_HAL_Driver/Src/stm32f4xx_ll_usb.c ****       debug = (uint32_t )&USBx_OUTEP(ep->num)->DOEPCTL;
 517:ThirdParty/STM32F4xx_HAL_Driver/Src/stm32f4xx_ll_usb.c ****       debug |= ((ep->maxpacket & USB_OTG_DOEPCTL_MPSIZ ) | (ep->type << 18U) |\
 518:ThirdParty/STM32F4xx_HAL_Driver/Src/stm32f4xx_ll_usb.c ****         ((ep->num) << 22U) | (USB_OTG_DOEPCTL_USBAEP)); 
 519:ThirdParty/STM32F4xx_HAL_Driver/Src/stm32f4xx_ll_usb.c ****     } 
 520:ThirdParty/STM32F4xx_HAL_Driver/Src/stm32f4xx_ll_usb.c ****     
 521:ThirdParty/STM32F4xx_HAL_Driver/Src/stm32f4xx_ll_usb.c ****      USBx_DEVICE->DEACHMSK |= USB_OTG_DAINTMSK_OEPM & ((1U << (ep->num)) << 16U);
 522:ThirdParty/STM32F4xx_HAL_Driver/Src/stm32f4xx_ll_usb.c ****   }
 523:ThirdParty/STM32F4xx_HAL_Driver/Src/stm32f4xx_ll_usb.c **** 
 524:ThirdParty/STM32F4xx_HAL_Driver/Src/stm32f4xx_ll_usb.c ****   return HAL_OK;
 525:ThirdParty/STM32F4xx_HAL_Driver/Src/stm32f4xx_ll_usb.c **** }
 526:ThirdParty/STM32F4xx_HAL_Driver/Src/stm32f4xx_ll_usb.c **** /**
 527:ThirdParty/STM32F4xx_HAL_Driver/Src/stm32f4xx_ll_usb.c ****   * @brief  De-activate and de-initialize an endpoint
 528:ThirdParty/STM32F4xx_HAL_Driver/Src/stm32f4xx_ll_usb.c ****   * @param  USBx  Selected device
 529:ThirdParty/STM32F4xx_HAL_Driver/Src/stm32f4xx_ll_usb.c ****   * @param  ep pointer to endpoint structure
 530:ThirdParty/STM32F4xx_HAL_Driver/Src/stm32f4xx_ll_usb.c ****   * @retval HAL status
 531:ThirdParty/STM32F4xx_HAL_Driver/Src/stm32f4xx_ll_usb.c ****   */
 532:ThirdParty/STM32F4xx_HAL_Driver/Src/stm32f4xx_ll_usb.c **** HAL_StatusTypeDef USB_DeactivateEndpoint(USB_OTG_GlobalTypeDef *USBx, USB_OTG_EPTypeDef *ep)
 533:ThirdParty/STM32F4xx_HAL_Driver/Src/stm32f4xx_ll_usb.c **** {
 534:ThirdParty/STM32F4xx_HAL_Driver/Src/stm32f4xx_ll_usb.c ****   uint32_t count = 0U;
 535:ThirdParty/STM32F4xx_HAL_Driver/Src/stm32f4xx_ll_usb.c ****   
 536:ThirdParty/STM32F4xx_HAL_Driver/Src/stm32f4xx_ll_usb.c ****   /* Disable the IN endpoint */
 537:ThirdParty/STM32F4xx_HAL_Driver/Src/stm32f4xx_ll_usb.c ****   if (ep->is_in == 1U)
 538:ThirdParty/STM32F4xx_HAL_Driver/Src/stm32f4xx_ll_usb.c ****   {
 539:ThirdParty/STM32F4xx_HAL_Driver/Src/stm32f4xx_ll_usb.c ****     USBx_INEP(ep->num)->DIEPCTL &= ~USB_OTG_DIEPCTL_USBAEP;  
 540:ThirdParty/STM32F4xx_HAL_Driver/Src/stm32f4xx_ll_usb.c ****     
 541:ThirdParty/STM32F4xx_HAL_Driver/Src/stm32f4xx_ll_usb.c ****     /* sets the NAK bit for the IN endpoint */
 542:ThirdParty/STM32F4xx_HAL_Driver/Src/stm32f4xx_ll_usb.c ****     USBx_INEP(ep->num)->DIEPCTL = USB_OTG_DIEPCTL_SNAK;
ARM GAS  /tmp/ccCoVfPP.s 			page 11


 543:ThirdParty/STM32F4xx_HAL_Driver/Src/stm32f4xx_ll_usb.c ****     
 544:ThirdParty/STM32F4xx_HAL_Driver/Src/stm32f4xx_ll_usb.c ****     /* Disable IN endpoint */
 545:ThirdParty/STM32F4xx_HAL_Driver/Src/stm32f4xx_ll_usb.c ****     USBx_INEP(ep->num)->DIEPCTL = USB_OTG_DIEPCTL_EPDIS;
 546:ThirdParty/STM32F4xx_HAL_Driver/Src/stm32f4xx_ll_usb.c ****     
 547:ThirdParty/STM32F4xx_HAL_Driver/Src/stm32f4xx_ll_usb.c ****     do
 548:ThirdParty/STM32F4xx_HAL_Driver/Src/stm32f4xx_ll_usb.c ****     {
 549:ThirdParty/STM32F4xx_HAL_Driver/Src/stm32f4xx_ll_usb.c ****       if (++count > 200000U)
 550:ThirdParty/STM32F4xx_HAL_Driver/Src/stm32f4xx_ll_usb.c ****       {
 551:ThirdParty/STM32F4xx_HAL_Driver/Src/stm32f4xx_ll_usb.c ****         return HAL_TIMEOUT;
 552:ThirdParty/STM32F4xx_HAL_Driver/Src/stm32f4xx_ll_usb.c ****       }
 553:ThirdParty/STM32F4xx_HAL_Driver/Src/stm32f4xx_ll_usb.c ****     }
 554:ThirdParty/STM32F4xx_HAL_Driver/Src/stm32f4xx_ll_usb.c ****     
 555:ThirdParty/STM32F4xx_HAL_Driver/Src/stm32f4xx_ll_usb.c ****     /*Wait for  EPDISD endpoint disabled interrupt*/ 
 556:ThirdParty/STM32F4xx_HAL_Driver/Src/stm32f4xx_ll_usb.c ****     while ((USBx_INEP(ep->num)->DIEPINT & USB_OTG_DIEPCTL_EPDIS) == USB_OTG_DIEPCTL_EPDIS);
 557:ThirdParty/STM32F4xx_HAL_Driver/Src/stm32f4xx_ll_usb.c ****     
 558:ThirdParty/STM32F4xx_HAL_Driver/Src/stm32f4xx_ll_usb.c ****     
 559:ThirdParty/STM32F4xx_HAL_Driver/Src/stm32f4xx_ll_usb.c ****     /* Flush any data remaining in the TxFIFO */
 560:ThirdParty/STM32F4xx_HAL_Driver/Src/stm32f4xx_ll_usb.c ****     USB_FlushTxFifo(USBx , 0x10U);
 561:ThirdParty/STM32F4xx_HAL_Driver/Src/stm32f4xx_ll_usb.c ****     
 562:ThirdParty/STM32F4xx_HAL_Driver/Src/stm32f4xx_ll_usb.c ****     /* Disable endpoint interrupts */
 563:ThirdParty/STM32F4xx_HAL_Driver/Src/stm32f4xx_ll_usb.c ****     USBx_DEVICE->DAINTMSK &= ~(USB_OTG_DAINTMSK_IEPM & ((1U << (ep->num))));   
 564:ThirdParty/STM32F4xx_HAL_Driver/Src/stm32f4xx_ll_usb.c ****   
 565:ThirdParty/STM32F4xx_HAL_Driver/Src/stm32f4xx_ll_usb.c ****   }
 566:ThirdParty/STM32F4xx_HAL_Driver/Src/stm32f4xx_ll_usb.c ****   else /* Disable the OUT endpoint */
 567:ThirdParty/STM32F4xx_HAL_Driver/Src/stm32f4xx_ll_usb.c ****   {
 568:ThirdParty/STM32F4xx_HAL_Driver/Src/stm32f4xx_ll_usb.c ****     
 569:ThirdParty/STM32F4xx_HAL_Driver/Src/stm32f4xx_ll_usb.c ****     USBx_OUTEP(ep->num)->DOEPCTL &= ~USB_OTG_DOEPCTL_USBAEP;  
 570:ThirdParty/STM32F4xx_HAL_Driver/Src/stm32f4xx_ll_usb.c ****     
 571:ThirdParty/STM32F4xx_HAL_Driver/Src/stm32f4xx_ll_usb.c ****     /* sets the NAK bit for the OUT endpoint */
 572:ThirdParty/STM32F4xx_HAL_Driver/Src/stm32f4xx_ll_usb.c ****     USBx_OUTEP(ep->num)->DOEPCTL = USB_OTG_DOEPCTL_SNAK;
 573:ThirdParty/STM32F4xx_HAL_Driver/Src/stm32f4xx_ll_usb.c ****     
 574:ThirdParty/STM32F4xx_HAL_Driver/Src/stm32f4xx_ll_usb.c ****     /* Disable OUT endpoint */
 575:ThirdParty/STM32F4xx_HAL_Driver/Src/stm32f4xx_ll_usb.c ****     USBx_OUTEP(ep->num)->DOEPCTL = USB_OTG_DOEPCTL_EPDIS;
 576:ThirdParty/STM32F4xx_HAL_Driver/Src/stm32f4xx_ll_usb.c ****     
 577:ThirdParty/STM32F4xx_HAL_Driver/Src/stm32f4xx_ll_usb.c ****     do
 578:ThirdParty/STM32F4xx_HAL_Driver/Src/stm32f4xx_ll_usb.c ****     {
 579:ThirdParty/STM32F4xx_HAL_Driver/Src/stm32f4xx_ll_usb.c ****       if (++count > 200000U)
 580:ThirdParty/STM32F4xx_HAL_Driver/Src/stm32f4xx_ll_usb.c ****       {
 581:ThirdParty/STM32F4xx_HAL_Driver/Src/stm32f4xx_ll_usb.c ****         return HAL_TIMEOUT;
 582:ThirdParty/STM32F4xx_HAL_Driver/Src/stm32f4xx_ll_usb.c ****       }
 583:ThirdParty/STM32F4xx_HAL_Driver/Src/stm32f4xx_ll_usb.c ****     }
 584:ThirdParty/STM32F4xx_HAL_Driver/Src/stm32f4xx_ll_usb.c ****     
 585:ThirdParty/STM32F4xx_HAL_Driver/Src/stm32f4xx_ll_usb.c ****     /*Wait for  EPDISD endpoint disabled interrupt*/ 
 586:ThirdParty/STM32F4xx_HAL_Driver/Src/stm32f4xx_ll_usb.c ****     while ((USBx_OUTEP(ep->num)->DOEPINT & USB_OTG_DOEPINT_OTEPDIS) == USB_OTG_DOEPINT_OTEPDIS);
 587:ThirdParty/STM32F4xx_HAL_Driver/Src/stm32f4xx_ll_usb.c ****     
 588:ThirdParty/STM32F4xx_HAL_Driver/Src/stm32f4xx_ll_usb.c ****     /* Set the "Clear the Global OUT NAK bit" to disable global OUT NAK mode */
 589:ThirdParty/STM32F4xx_HAL_Driver/Src/stm32f4xx_ll_usb.c ****     USBx_DEVICE->DCTL |= USB_OTG_DCTL_CGONAK;
 590:ThirdParty/STM32F4xx_HAL_Driver/Src/stm32f4xx_ll_usb.c ****     
 591:ThirdParty/STM32F4xx_HAL_Driver/Src/stm32f4xx_ll_usb.c ****     /* Disable endpoint interrupts */
 592:ThirdParty/STM32F4xx_HAL_Driver/Src/stm32f4xx_ll_usb.c ****     USBx_DEVICE->DAINTMSK &= ~(USB_OTG_DAINTMSK_OEPM & ((1U << (ep->num)) << 16U));         
 593:ThirdParty/STM32F4xx_HAL_Driver/Src/stm32f4xx_ll_usb.c ****   }
 594:ThirdParty/STM32F4xx_HAL_Driver/Src/stm32f4xx_ll_usb.c ****   return HAL_OK;
 595:ThirdParty/STM32F4xx_HAL_Driver/Src/stm32f4xx_ll_usb.c **** }
 596:ThirdParty/STM32F4xx_HAL_Driver/Src/stm32f4xx_ll_usb.c **** 
 597:ThirdParty/STM32F4xx_HAL_Driver/Src/stm32f4xx_ll_usb.c **** /**
 598:ThirdParty/STM32F4xx_HAL_Driver/Src/stm32f4xx_ll_usb.c ****   * @brief  De-activate and de-initialize a dedicated endpoint
 599:ThirdParty/STM32F4xx_HAL_Driver/Src/stm32f4xx_ll_usb.c ****   * @param  USBx  Selected device
ARM GAS  /tmp/ccCoVfPP.s 			page 12


 600:ThirdParty/STM32F4xx_HAL_Driver/Src/stm32f4xx_ll_usb.c ****   * @param  ep pointer to endpoint structure
 601:ThirdParty/STM32F4xx_HAL_Driver/Src/stm32f4xx_ll_usb.c ****   * @retval HAL status
 602:ThirdParty/STM32F4xx_HAL_Driver/Src/stm32f4xx_ll_usb.c ****   */
 603:ThirdParty/STM32F4xx_HAL_Driver/Src/stm32f4xx_ll_usb.c **** HAL_StatusTypeDef USB_DeactivateDedicatedEndpoint(USB_OTG_GlobalTypeDef *USBx, USB_OTG_EPTypeDef *e
 604:ThirdParty/STM32F4xx_HAL_Driver/Src/stm32f4xx_ll_usb.c **** {
 605:ThirdParty/STM32F4xx_HAL_Driver/Src/stm32f4xx_ll_usb.c ****   uint32_t count = 0U;
 606:ThirdParty/STM32F4xx_HAL_Driver/Src/stm32f4xx_ll_usb.c ****   
 607:ThirdParty/STM32F4xx_HAL_Driver/Src/stm32f4xx_ll_usb.c ****   /* Disable the IN endpoint */
 608:ThirdParty/STM32F4xx_HAL_Driver/Src/stm32f4xx_ll_usb.c ****   if (ep->is_in == 1U)
 609:ThirdParty/STM32F4xx_HAL_Driver/Src/stm32f4xx_ll_usb.c ****   {
 610:ThirdParty/STM32F4xx_HAL_Driver/Src/stm32f4xx_ll_usb.c ****     USBx_INEP(ep->num)->DIEPCTL &= ~USB_OTG_DIEPCTL_USBAEP;  
 611:ThirdParty/STM32F4xx_HAL_Driver/Src/stm32f4xx_ll_usb.c ****     
 612:ThirdParty/STM32F4xx_HAL_Driver/Src/stm32f4xx_ll_usb.c ****     /* sets the NAK bit for the IN endpoint */
 613:ThirdParty/STM32F4xx_HAL_Driver/Src/stm32f4xx_ll_usb.c ****     USBx_INEP(ep->num)->DIEPCTL = USB_OTG_DIEPCTL_SNAK;
 614:ThirdParty/STM32F4xx_HAL_Driver/Src/stm32f4xx_ll_usb.c ****     
 615:ThirdParty/STM32F4xx_HAL_Driver/Src/stm32f4xx_ll_usb.c ****     /* Disable IN endpoint */
 616:ThirdParty/STM32F4xx_HAL_Driver/Src/stm32f4xx_ll_usb.c ****     USBx_INEP(ep->num)->DIEPCTL = USB_OTG_DIEPCTL_EPDIS;
 617:ThirdParty/STM32F4xx_HAL_Driver/Src/stm32f4xx_ll_usb.c ****     
 618:ThirdParty/STM32F4xx_HAL_Driver/Src/stm32f4xx_ll_usb.c ****     do
 619:ThirdParty/STM32F4xx_HAL_Driver/Src/stm32f4xx_ll_usb.c ****     {
 620:ThirdParty/STM32F4xx_HAL_Driver/Src/stm32f4xx_ll_usb.c ****       if (++count > 200000U)
 621:ThirdParty/STM32F4xx_HAL_Driver/Src/stm32f4xx_ll_usb.c ****       {
 622:ThirdParty/STM32F4xx_HAL_Driver/Src/stm32f4xx_ll_usb.c ****         return HAL_TIMEOUT;
 623:ThirdParty/STM32F4xx_HAL_Driver/Src/stm32f4xx_ll_usb.c ****       }
 624:ThirdParty/STM32F4xx_HAL_Driver/Src/stm32f4xx_ll_usb.c ****     }
 625:ThirdParty/STM32F4xx_HAL_Driver/Src/stm32f4xx_ll_usb.c ****     
 626:ThirdParty/STM32F4xx_HAL_Driver/Src/stm32f4xx_ll_usb.c ****     /*Wait for  EPDISD endpoint disabled interrupt*/ 
 627:ThirdParty/STM32F4xx_HAL_Driver/Src/stm32f4xx_ll_usb.c ****     while ((USBx_INEP(ep->num)->DIEPINT & USB_OTG_DIEPCTL_EPDIS) == USB_OTG_DIEPCTL_EPDIS);
 628:ThirdParty/STM32F4xx_HAL_Driver/Src/stm32f4xx_ll_usb.c ****     
 629:ThirdParty/STM32F4xx_HAL_Driver/Src/stm32f4xx_ll_usb.c ****     
 630:ThirdParty/STM32F4xx_HAL_Driver/Src/stm32f4xx_ll_usb.c ****     /* Flush any data remaining in the TxFIFO */
 631:ThirdParty/STM32F4xx_HAL_Driver/Src/stm32f4xx_ll_usb.c ****     USB_FlushTxFifo(USBx , 0x10U);
 632:ThirdParty/STM32F4xx_HAL_Driver/Src/stm32f4xx_ll_usb.c ****     
 633:ThirdParty/STM32F4xx_HAL_Driver/Src/stm32f4xx_ll_usb.c ****     /* Disable endpoint interrupts */
 634:ThirdParty/STM32F4xx_HAL_Driver/Src/stm32f4xx_ll_usb.c ****     USBx_DEVICE->DAINTMSK &= ~(USB_OTG_DAINTMSK_IEPM & ((1U << (ep->num))));   
 635:ThirdParty/STM32F4xx_HAL_Driver/Src/stm32f4xx_ll_usb.c ****   
 636:ThirdParty/STM32F4xx_HAL_Driver/Src/stm32f4xx_ll_usb.c ****   }
 637:ThirdParty/STM32F4xx_HAL_Driver/Src/stm32f4xx_ll_usb.c ****   else /* Disable the OUT endpoint */
 638:ThirdParty/STM32F4xx_HAL_Driver/Src/stm32f4xx_ll_usb.c ****   {
 639:ThirdParty/STM32F4xx_HAL_Driver/Src/stm32f4xx_ll_usb.c ****     
 640:ThirdParty/STM32F4xx_HAL_Driver/Src/stm32f4xx_ll_usb.c ****     USBx_OUTEP(ep->num)->DOEPCTL &= ~USB_OTG_DOEPCTL_USBAEP;  
 641:ThirdParty/STM32F4xx_HAL_Driver/Src/stm32f4xx_ll_usb.c ****     
 642:ThirdParty/STM32F4xx_HAL_Driver/Src/stm32f4xx_ll_usb.c ****     /* sets the NAK bit for the OUT endpoint */
 643:ThirdParty/STM32F4xx_HAL_Driver/Src/stm32f4xx_ll_usb.c ****     USBx_OUTEP(ep->num)->DOEPCTL = USB_OTG_DOEPCTL_SNAK;
 644:ThirdParty/STM32F4xx_HAL_Driver/Src/stm32f4xx_ll_usb.c ****     
 645:ThirdParty/STM32F4xx_HAL_Driver/Src/stm32f4xx_ll_usb.c ****     /* Disable OUT endpoint */
 646:ThirdParty/STM32F4xx_HAL_Driver/Src/stm32f4xx_ll_usb.c ****     USBx_OUTEP(ep->num)->DOEPCTL = USB_OTG_DOEPCTL_EPDIS;
 647:ThirdParty/STM32F4xx_HAL_Driver/Src/stm32f4xx_ll_usb.c ****     
 648:ThirdParty/STM32F4xx_HAL_Driver/Src/stm32f4xx_ll_usb.c ****     do
 649:ThirdParty/STM32F4xx_HAL_Driver/Src/stm32f4xx_ll_usb.c ****     {
 650:ThirdParty/STM32F4xx_HAL_Driver/Src/stm32f4xx_ll_usb.c ****       if (++count > 200000U)
 651:ThirdParty/STM32F4xx_HAL_Driver/Src/stm32f4xx_ll_usb.c ****       {
 652:ThirdParty/STM32F4xx_HAL_Driver/Src/stm32f4xx_ll_usb.c ****         return HAL_TIMEOUT;
 653:ThirdParty/STM32F4xx_HAL_Driver/Src/stm32f4xx_ll_usb.c ****       }
 654:ThirdParty/STM32F4xx_HAL_Driver/Src/stm32f4xx_ll_usb.c ****     }
 655:ThirdParty/STM32F4xx_HAL_Driver/Src/stm32f4xx_ll_usb.c ****     
 656:ThirdParty/STM32F4xx_HAL_Driver/Src/stm32f4xx_ll_usb.c ****     /*Wait for  EPDISD endpoint disabled interrupt*/ 
ARM GAS  /tmp/ccCoVfPP.s 			page 13


 657:ThirdParty/STM32F4xx_HAL_Driver/Src/stm32f4xx_ll_usb.c ****     while ((USBx_OUTEP(ep->num)->DOEPINT & USB_OTG_DOEPINT_OTEPDIS) == USB_OTG_DOEPINT_OTEPDIS);
 658:ThirdParty/STM32F4xx_HAL_Driver/Src/stm32f4xx_ll_usb.c ****     
 659:ThirdParty/STM32F4xx_HAL_Driver/Src/stm32f4xx_ll_usb.c ****     /* Set the "Clear the Global OUT NAK bit" to disable global OUT NAK mode */
 660:ThirdParty/STM32F4xx_HAL_Driver/Src/stm32f4xx_ll_usb.c ****     USBx_DEVICE->DCTL |= USB_OTG_DCTL_CGONAK;
 661:ThirdParty/STM32F4xx_HAL_Driver/Src/stm32f4xx_ll_usb.c ****     
 662:ThirdParty/STM32F4xx_HAL_Driver/Src/stm32f4xx_ll_usb.c ****     /* Disable endpoint interrupts */
 663:ThirdParty/STM32F4xx_HAL_Driver/Src/stm32f4xx_ll_usb.c ****     USBx_DEVICE->DAINTMSK &= ~(USB_OTG_DAINTMSK_OEPM & ((1U << (ep->num)) << 16U));         
 664:ThirdParty/STM32F4xx_HAL_Driver/Src/stm32f4xx_ll_usb.c ****   }
 665:ThirdParty/STM32F4xx_HAL_Driver/Src/stm32f4xx_ll_usb.c ****   return HAL_OK;
 666:ThirdParty/STM32F4xx_HAL_Driver/Src/stm32f4xx_ll_usb.c **** 
 667:ThirdParty/STM32F4xx_HAL_Driver/Src/stm32f4xx_ll_usb.c **** }
 668:ThirdParty/STM32F4xx_HAL_Driver/Src/stm32f4xx_ll_usb.c **** 
 669:ThirdParty/STM32F4xx_HAL_Driver/Src/stm32f4xx_ll_usb.c **** /**
 670:ThirdParty/STM32F4xx_HAL_Driver/Src/stm32f4xx_ll_usb.c ****   * @brief  USB_EPStartXfer : setup and starts a transfer over an EP
 671:ThirdParty/STM32F4xx_HAL_Driver/Src/stm32f4xx_ll_usb.c ****   * @param  USBx  Selected device
 672:ThirdParty/STM32F4xx_HAL_Driver/Src/stm32f4xx_ll_usb.c ****   * @param  ep pointer to endpoint structure
 673:ThirdParty/STM32F4xx_HAL_Driver/Src/stm32f4xx_ll_usb.c ****   * @param  dma USB dma enabled or disabled 
 674:ThirdParty/STM32F4xx_HAL_Driver/Src/stm32f4xx_ll_usb.c ****   *          This parameter can be one of these values:
 675:ThirdParty/STM32F4xx_HAL_Driver/Src/stm32f4xx_ll_usb.c ****   *           0 : DMA feature not used 
 676:ThirdParty/STM32F4xx_HAL_Driver/Src/stm32f4xx_ll_usb.c ****   *           1 : DMA feature used  
 677:ThirdParty/STM32F4xx_HAL_Driver/Src/stm32f4xx_ll_usb.c ****   * @retval HAL status
 678:ThirdParty/STM32F4xx_HAL_Driver/Src/stm32f4xx_ll_usb.c ****   */
 679:ThirdParty/STM32F4xx_HAL_Driver/Src/stm32f4xx_ll_usb.c **** HAL_StatusTypeDef USB_EPStartXfer(USB_OTG_GlobalTypeDef *USBx , USB_OTG_EPTypeDef *ep, uint8_t dma)
 680:ThirdParty/STM32F4xx_HAL_Driver/Src/stm32f4xx_ll_usb.c **** {
 681:ThirdParty/STM32F4xx_HAL_Driver/Src/stm32f4xx_ll_usb.c ****   uint16_t pktcnt = 0U;
 682:ThirdParty/STM32F4xx_HAL_Driver/Src/stm32f4xx_ll_usb.c ****   
 683:ThirdParty/STM32F4xx_HAL_Driver/Src/stm32f4xx_ll_usb.c ****   /* IN endpoint */
 684:ThirdParty/STM32F4xx_HAL_Driver/Src/stm32f4xx_ll_usb.c ****   if (ep->is_in == 1U)
 685:ThirdParty/STM32F4xx_HAL_Driver/Src/stm32f4xx_ll_usb.c ****   {
 686:ThirdParty/STM32F4xx_HAL_Driver/Src/stm32f4xx_ll_usb.c ****     /* Zero Length Packet? */
 687:ThirdParty/STM32F4xx_HAL_Driver/Src/stm32f4xx_ll_usb.c ****     if (ep->xfer_len == 0U)
 688:ThirdParty/STM32F4xx_HAL_Driver/Src/stm32f4xx_ll_usb.c ****     {
 689:ThirdParty/STM32F4xx_HAL_Driver/Src/stm32f4xx_ll_usb.c ****       USBx_INEP(ep->num)->DIEPTSIZ &= ~(USB_OTG_DIEPTSIZ_PKTCNT); 
 690:ThirdParty/STM32F4xx_HAL_Driver/Src/stm32f4xx_ll_usb.c ****       USBx_INEP(ep->num)->DIEPTSIZ |= (USB_OTG_DIEPTSIZ_PKTCNT & (1U << 19U)) ;
 691:ThirdParty/STM32F4xx_HAL_Driver/Src/stm32f4xx_ll_usb.c ****       USBx_INEP(ep->num)->DIEPTSIZ &= ~(USB_OTG_DIEPTSIZ_XFRSIZ); 
 692:ThirdParty/STM32F4xx_HAL_Driver/Src/stm32f4xx_ll_usb.c ****     }
 693:ThirdParty/STM32F4xx_HAL_Driver/Src/stm32f4xx_ll_usb.c ****     else
 694:ThirdParty/STM32F4xx_HAL_Driver/Src/stm32f4xx_ll_usb.c ****     {
 695:ThirdParty/STM32F4xx_HAL_Driver/Src/stm32f4xx_ll_usb.c ****       /* Program the transfer size and packet count
 696:ThirdParty/STM32F4xx_HAL_Driver/Src/stm32f4xx_ll_usb.c ****       * as follows: xfersize = N * maxpacket +
 697:ThirdParty/STM32F4xx_HAL_Driver/Src/stm32f4xx_ll_usb.c ****       * short_packet pktcnt = N + (short_packet
 698:ThirdParty/STM32F4xx_HAL_Driver/Src/stm32f4xx_ll_usb.c ****       * exist ? 1 : 0)
 699:ThirdParty/STM32F4xx_HAL_Driver/Src/stm32f4xx_ll_usb.c ****       */
 700:ThirdParty/STM32F4xx_HAL_Driver/Src/stm32f4xx_ll_usb.c ****       USBx_INEP(ep->num)->DIEPTSIZ &= ~(USB_OTG_DIEPTSIZ_XFRSIZ);
 701:ThirdParty/STM32F4xx_HAL_Driver/Src/stm32f4xx_ll_usb.c ****       USBx_INEP(ep->num)->DIEPTSIZ &= ~(USB_OTG_DIEPTSIZ_PKTCNT); 
 702:ThirdParty/STM32F4xx_HAL_Driver/Src/stm32f4xx_ll_usb.c ****       USBx_INEP(ep->num)->DIEPTSIZ |= (USB_OTG_DIEPTSIZ_PKTCNT & (((ep->xfer_len + ep->maxpacket -1
 703:ThirdParty/STM32F4xx_HAL_Driver/Src/stm32f4xx_ll_usb.c ****       USBx_INEP(ep->num)->DIEPTSIZ |= (USB_OTG_DIEPTSIZ_XFRSIZ & ep->xfer_len); 
 704:ThirdParty/STM32F4xx_HAL_Driver/Src/stm32f4xx_ll_usb.c ****       
 705:ThirdParty/STM32F4xx_HAL_Driver/Src/stm32f4xx_ll_usb.c ****       if (ep->type == EP_TYPE_ISOC)
 706:ThirdParty/STM32F4xx_HAL_Driver/Src/stm32f4xx_ll_usb.c ****       {
 707:ThirdParty/STM32F4xx_HAL_Driver/Src/stm32f4xx_ll_usb.c ****         USBx_INEP(ep->num)->DIEPTSIZ &= ~(USB_OTG_DIEPTSIZ_MULCNT); 
 708:ThirdParty/STM32F4xx_HAL_Driver/Src/stm32f4xx_ll_usb.c ****         USBx_INEP(ep->num)->DIEPTSIZ |= (USB_OTG_DIEPTSIZ_MULCNT & (1U << 29U)); 
 709:ThirdParty/STM32F4xx_HAL_Driver/Src/stm32f4xx_ll_usb.c ****       }       
 710:ThirdParty/STM32F4xx_HAL_Driver/Src/stm32f4xx_ll_usb.c ****     }
 711:ThirdParty/STM32F4xx_HAL_Driver/Src/stm32f4xx_ll_usb.c **** 
 712:ThirdParty/STM32F4xx_HAL_Driver/Src/stm32f4xx_ll_usb.c ****     if (dma == 1U)
 713:ThirdParty/STM32F4xx_HAL_Driver/Src/stm32f4xx_ll_usb.c ****     {
ARM GAS  /tmp/ccCoVfPP.s 			page 14


 714:ThirdParty/STM32F4xx_HAL_Driver/Src/stm32f4xx_ll_usb.c ****       USBx_INEP(ep->num)->DIEPDMA = (uint32_t)(ep->dma_addr);
 715:ThirdParty/STM32F4xx_HAL_Driver/Src/stm32f4xx_ll_usb.c ****     }
 716:ThirdParty/STM32F4xx_HAL_Driver/Src/stm32f4xx_ll_usb.c ****     else
 717:ThirdParty/STM32F4xx_HAL_Driver/Src/stm32f4xx_ll_usb.c ****     {
 718:ThirdParty/STM32F4xx_HAL_Driver/Src/stm32f4xx_ll_usb.c ****       if (ep->type != EP_TYPE_ISOC)
 719:ThirdParty/STM32F4xx_HAL_Driver/Src/stm32f4xx_ll_usb.c ****       {
 720:ThirdParty/STM32F4xx_HAL_Driver/Src/stm32f4xx_ll_usb.c ****         /* Enable the Tx FIFO Empty Interrupt for this EP */
 721:ThirdParty/STM32F4xx_HAL_Driver/Src/stm32f4xx_ll_usb.c ****         if (ep->xfer_len > 0U)
 722:ThirdParty/STM32F4xx_HAL_Driver/Src/stm32f4xx_ll_usb.c ****         {
 723:ThirdParty/STM32F4xx_HAL_Driver/Src/stm32f4xx_ll_usb.c ****           USBx_DEVICE->DIEPEMPMSK |= 1U << ep->num;
 724:ThirdParty/STM32F4xx_HAL_Driver/Src/stm32f4xx_ll_usb.c ****         }
 725:ThirdParty/STM32F4xx_HAL_Driver/Src/stm32f4xx_ll_usb.c ****       }
 726:ThirdParty/STM32F4xx_HAL_Driver/Src/stm32f4xx_ll_usb.c ****     }
 727:ThirdParty/STM32F4xx_HAL_Driver/Src/stm32f4xx_ll_usb.c **** 
 728:ThirdParty/STM32F4xx_HAL_Driver/Src/stm32f4xx_ll_usb.c ****     if (ep->type == EP_TYPE_ISOC)
 729:ThirdParty/STM32F4xx_HAL_Driver/Src/stm32f4xx_ll_usb.c ****     {
 730:ThirdParty/STM32F4xx_HAL_Driver/Src/stm32f4xx_ll_usb.c ****       if ((USBx_DEVICE->DSTS & ( 1U << 8U )) == 0U)
 731:ThirdParty/STM32F4xx_HAL_Driver/Src/stm32f4xx_ll_usb.c ****       {
 732:ThirdParty/STM32F4xx_HAL_Driver/Src/stm32f4xx_ll_usb.c ****         USBx_INEP(ep->num)->DIEPCTL |= USB_OTG_DIEPCTL_SODDFRM;
 733:ThirdParty/STM32F4xx_HAL_Driver/Src/stm32f4xx_ll_usb.c ****       }
 734:ThirdParty/STM32F4xx_HAL_Driver/Src/stm32f4xx_ll_usb.c ****       else
 735:ThirdParty/STM32F4xx_HAL_Driver/Src/stm32f4xx_ll_usb.c ****       {
 736:ThirdParty/STM32F4xx_HAL_Driver/Src/stm32f4xx_ll_usb.c ****         USBx_INEP(ep->num)->DIEPCTL |= USB_OTG_DIEPCTL_SD0PID_SEVNFRM;
 737:ThirdParty/STM32F4xx_HAL_Driver/Src/stm32f4xx_ll_usb.c ****       }
 738:ThirdParty/STM32F4xx_HAL_Driver/Src/stm32f4xx_ll_usb.c ****     } 
 739:ThirdParty/STM32F4xx_HAL_Driver/Src/stm32f4xx_ll_usb.c ****     
 740:ThirdParty/STM32F4xx_HAL_Driver/Src/stm32f4xx_ll_usb.c ****     /* EP enable, IN data in FIFO */
 741:ThirdParty/STM32F4xx_HAL_Driver/Src/stm32f4xx_ll_usb.c ****     USBx_INEP(ep->num)->DIEPCTL |= (USB_OTG_DIEPCTL_CNAK | USB_OTG_DIEPCTL_EPENA);
 742:ThirdParty/STM32F4xx_HAL_Driver/Src/stm32f4xx_ll_usb.c ****     
 743:ThirdParty/STM32F4xx_HAL_Driver/Src/stm32f4xx_ll_usb.c ****     if (ep->type == EP_TYPE_ISOC)
 744:ThirdParty/STM32F4xx_HAL_Driver/Src/stm32f4xx_ll_usb.c ****     {
 745:ThirdParty/STM32F4xx_HAL_Driver/Src/stm32f4xx_ll_usb.c ****       USB_WritePacket(USBx, ep->xfer_buff, ep->num, ep->xfer_len, dma);   
 746:ThirdParty/STM32F4xx_HAL_Driver/Src/stm32f4xx_ll_usb.c ****     }    
 747:ThirdParty/STM32F4xx_HAL_Driver/Src/stm32f4xx_ll_usb.c ****   }
 748:ThirdParty/STM32F4xx_HAL_Driver/Src/stm32f4xx_ll_usb.c ****   else /* OUT endpoint */
 749:ThirdParty/STM32F4xx_HAL_Driver/Src/stm32f4xx_ll_usb.c ****   {
 750:ThirdParty/STM32F4xx_HAL_Driver/Src/stm32f4xx_ll_usb.c ****     /* Program the transfer size and packet count as follows:
 751:ThirdParty/STM32F4xx_HAL_Driver/Src/stm32f4xx_ll_usb.c ****     * pktcnt = N
 752:ThirdParty/STM32F4xx_HAL_Driver/Src/stm32f4xx_ll_usb.c ****     * xfersize = N * maxpacket
 753:ThirdParty/STM32F4xx_HAL_Driver/Src/stm32f4xx_ll_usb.c ****     */  
 754:ThirdParty/STM32F4xx_HAL_Driver/Src/stm32f4xx_ll_usb.c ****     USBx_OUTEP(ep->num)->DOEPTSIZ &= ~(USB_OTG_DOEPTSIZ_XFRSIZ); 
 755:ThirdParty/STM32F4xx_HAL_Driver/Src/stm32f4xx_ll_usb.c ****     USBx_OUTEP(ep->num)->DOEPTSIZ &= ~(USB_OTG_DOEPTSIZ_PKTCNT); 
 756:ThirdParty/STM32F4xx_HAL_Driver/Src/stm32f4xx_ll_usb.c **** 
 757:ThirdParty/STM32F4xx_HAL_Driver/Src/stm32f4xx_ll_usb.c ****     if (ep->xfer_len == 0U)
 758:ThirdParty/STM32F4xx_HAL_Driver/Src/stm32f4xx_ll_usb.c ****     {
 759:ThirdParty/STM32F4xx_HAL_Driver/Src/stm32f4xx_ll_usb.c ****       USBx_OUTEP(ep->num)->DOEPTSIZ |= (USB_OTG_DOEPTSIZ_XFRSIZ & ep->maxpacket);
 760:ThirdParty/STM32F4xx_HAL_Driver/Src/stm32f4xx_ll_usb.c ****       USBx_OUTEP(ep->num)->DOEPTSIZ |= (USB_OTG_DOEPTSIZ_PKTCNT & (1U << 19U));
 761:ThirdParty/STM32F4xx_HAL_Driver/Src/stm32f4xx_ll_usb.c ****     }
 762:ThirdParty/STM32F4xx_HAL_Driver/Src/stm32f4xx_ll_usb.c ****     else
 763:ThirdParty/STM32F4xx_HAL_Driver/Src/stm32f4xx_ll_usb.c ****     {
 764:ThirdParty/STM32F4xx_HAL_Driver/Src/stm32f4xx_ll_usb.c ****       pktcnt = (ep->xfer_len + ep->maxpacket -1U)/ ep->maxpacket; 
 765:ThirdParty/STM32F4xx_HAL_Driver/Src/stm32f4xx_ll_usb.c ****       USBx_OUTEP(ep->num)->DOEPTSIZ |= (USB_OTG_DOEPTSIZ_PKTCNT & (pktcnt << 19U));
 766:ThirdParty/STM32F4xx_HAL_Driver/Src/stm32f4xx_ll_usb.c ****       USBx_OUTEP(ep->num)->DOEPTSIZ |= (USB_OTG_DOEPTSIZ_XFRSIZ & (ep->maxpacket * pktcnt));
 767:ThirdParty/STM32F4xx_HAL_Driver/Src/stm32f4xx_ll_usb.c ****     }
 768:ThirdParty/STM32F4xx_HAL_Driver/Src/stm32f4xx_ll_usb.c **** 
 769:ThirdParty/STM32F4xx_HAL_Driver/Src/stm32f4xx_ll_usb.c ****     if (dma == 1U)
 770:ThirdParty/STM32F4xx_HAL_Driver/Src/stm32f4xx_ll_usb.c ****     {
ARM GAS  /tmp/ccCoVfPP.s 			page 15


 771:ThirdParty/STM32F4xx_HAL_Driver/Src/stm32f4xx_ll_usb.c ****       USBx_OUTEP(ep->num)->DOEPDMA = (uint32_t)ep->xfer_buff;
 772:ThirdParty/STM32F4xx_HAL_Driver/Src/stm32f4xx_ll_usb.c ****     }
 773:ThirdParty/STM32F4xx_HAL_Driver/Src/stm32f4xx_ll_usb.c ****     
 774:ThirdParty/STM32F4xx_HAL_Driver/Src/stm32f4xx_ll_usb.c ****     if (ep->type == EP_TYPE_ISOC)
 775:ThirdParty/STM32F4xx_HAL_Driver/Src/stm32f4xx_ll_usb.c ****     {
 776:ThirdParty/STM32F4xx_HAL_Driver/Src/stm32f4xx_ll_usb.c ****       if ((USBx_DEVICE->DSTS & ( 1U << 8U )) == 0U)
 777:ThirdParty/STM32F4xx_HAL_Driver/Src/stm32f4xx_ll_usb.c ****       {
 778:ThirdParty/STM32F4xx_HAL_Driver/Src/stm32f4xx_ll_usb.c ****         USBx_OUTEP(ep->num)->DOEPCTL |= USB_OTG_DOEPCTL_SODDFRM;
 779:ThirdParty/STM32F4xx_HAL_Driver/Src/stm32f4xx_ll_usb.c ****       }
 780:ThirdParty/STM32F4xx_HAL_Driver/Src/stm32f4xx_ll_usb.c ****       else
 781:ThirdParty/STM32F4xx_HAL_Driver/Src/stm32f4xx_ll_usb.c ****       {
 782:ThirdParty/STM32F4xx_HAL_Driver/Src/stm32f4xx_ll_usb.c ****         USBx_OUTEP(ep->num)->DOEPCTL |= USB_OTG_DOEPCTL_SD0PID_SEVNFRM;
 783:ThirdParty/STM32F4xx_HAL_Driver/Src/stm32f4xx_ll_usb.c ****       }
 784:ThirdParty/STM32F4xx_HAL_Driver/Src/stm32f4xx_ll_usb.c ****     }
 785:ThirdParty/STM32F4xx_HAL_Driver/Src/stm32f4xx_ll_usb.c ****     /* EP enable */
 786:ThirdParty/STM32F4xx_HAL_Driver/Src/stm32f4xx_ll_usb.c ****     USBx_OUTEP(ep->num)->DOEPCTL |= (USB_OTG_DOEPCTL_CNAK | USB_OTG_DOEPCTL_EPENA);
 787:ThirdParty/STM32F4xx_HAL_Driver/Src/stm32f4xx_ll_usb.c ****   }
 788:ThirdParty/STM32F4xx_HAL_Driver/Src/stm32f4xx_ll_usb.c ****   return HAL_OK;
 789:ThirdParty/STM32F4xx_HAL_Driver/Src/stm32f4xx_ll_usb.c **** }
 790:ThirdParty/STM32F4xx_HAL_Driver/Src/stm32f4xx_ll_usb.c **** 
 791:ThirdParty/STM32F4xx_HAL_Driver/Src/stm32f4xx_ll_usb.c **** /**
 792:ThirdParty/STM32F4xx_HAL_Driver/Src/stm32f4xx_ll_usb.c ****   * @brief  USB_EP0StartXfer : setup and starts a transfer over the EP  0
 793:ThirdParty/STM32F4xx_HAL_Driver/Src/stm32f4xx_ll_usb.c ****   * @param  USBx  Selected device
 794:ThirdParty/STM32F4xx_HAL_Driver/Src/stm32f4xx_ll_usb.c ****   * @param  ep pointer to endpoint structure
 795:ThirdParty/STM32F4xx_HAL_Driver/Src/stm32f4xx_ll_usb.c ****   * @param  dma USB dma enabled or disabled 
 796:ThirdParty/STM32F4xx_HAL_Driver/Src/stm32f4xx_ll_usb.c ****   *          This parameter can be one of these values:
 797:ThirdParty/STM32F4xx_HAL_Driver/Src/stm32f4xx_ll_usb.c ****   *           0 : DMA feature not used 
 798:ThirdParty/STM32F4xx_HAL_Driver/Src/stm32f4xx_ll_usb.c ****   *           1 : DMA feature used  
 799:ThirdParty/STM32F4xx_HAL_Driver/Src/stm32f4xx_ll_usb.c ****   * @retval HAL status
 800:ThirdParty/STM32F4xx_HAL_Driver/Src/stm32f4xx_ll_usb.c ****   */
 801:ThirdParty/STM32F4xx_HAL_Driver/Src/stm32f4xx_ll_usb.c **** HAL_StatusTypeDef USB_EP0StartXfer(USB_OTG_GlobalTypeDef *USBx , USB_OTG_EPTypeDef *ep, uint8_t dma
 802:ThirdParty/STM32F4xx_HAL_Driver/Src/stm32f4xx_ll_usb.c **** {
 803:ThirdParty/STM32F4xx_HAL_Driver/Src/stm32f4xx_ll_usb.c ****   /* IN endpoint */
 804:ThirdParty/STM32F4xx_HAL_Driver/Src/stm32f4xx_ll_usb.c ****   if (ep->is_in == 1U)
 805:ThirdParty/STM32F4xx_HAL_Driver/Src/stm32f4xx_ll_usb.c ****   {
 806:ThirdParty/STM32F4xx_HAL_Driver/Src/stm32f4xx_ll_usb.c ****     /* Zero Length Packet? */
 807:ThirdParty/STM32F4xx_HAL_Driver/Src/stm32f4xx_ll_usb.c ****     if (ep->xfer_len == 0U)
 808:ThirdParty/STM32F4xx_HAL_Driver/Src/stm32f4xx_ll_usb.c ****     {
 809:ThirdParty/STM32F4xx_HAL_Driver/Src/stm32f4xx_ll_usb.c ****       USBx_INEP(ep->num)->DIEPTSIZ &= ~(USB_OTG_DIEPTSIZ_PKTCNT); 
 810:ThirdParty/STM32F4xx_HAL_Driver/Src/stm32f4xx_ll_usb.c ****       USBx_INEP(ep->num)->DIEPTSIZ |= (USB_OTG_DIEPTSIZ_PKTCNT & (1U << 19U)) ;
 811:ThirdParty/STM32F4xx_HAL_Driver/Src/stm32f4xx_ll_usb.c ****       USBx_INEP(ep->num)->DIEPTSIZ &= ~(USB_OTG_DIEPTSIZ_XFRSIZ); 
 812:ThirdParty/STM32F4xx_HAL_Driver/Src/stm32f4xx_ll_usb.c ****     }
 813:ThirdParty/STM32F4xx_HAL_Driver/Src/stm32f4xx_ll_usb.c ****     else
 814:ThirdParty/STM32F4xx_HAL_Driver/Src/stm32f4xx_ll_usb.c ****     {
 815:ThirdParty/STM32F4xx_HAL_Driver/Src/stm32f4xx_ll_usb.c ****       /* Program the transfer size and packet count
 816:ThirdParty/STM32F4xx_HAL_Driver/Src/stm32f4xx_ll_usb.c ****       * as follows: xfersize = N * maxpacket +
 817:ThirdParty/STM32F4xx_HAL_Driver/Src/stm32f4xx_ll_usb.c ****       * short_packet pktcnt = N + (short_packet
 818:ThirdParty/STM32F4xx_HAL_Driver/Src/stm32f4xx_ll_usb.c ****       * exist ? 1 : 0)
 819:ThirdParty/STM32F4xx_HAL_Driver/Src/stm32f4xx_ll_usb.c ****       */
 820:ThirdParty/STM32F4xx_HAL_Driver/Src/stm32f4xx_ll_usb.c ****       USBx_INEP(ep->num)->DIEPTSIZ &= ~(USB_OTG_DIEPTSIZ_XFRSIZ);
 821:ThirdParty/STM32F4xx_HAL_Driver/Src/stm32f4xx_ll_usb.c ****       USBx_INEP(ep->num)->DIEPTSIZ &= ~(USB_OTG_DIEPTSIZ_PKTCNT); 
 822:ThirdParty/STM32F4xx_HAL_Driver/Src/stm32f4xx_ll_usb.c ****       
 823:ThirdParty/STM32F4xx_HAL_Driver/Src/stm32f4xx_ll_usb.c ****       if(ep->xfer_len > ep->maxpacket)
 824:ThirdParty/STM32F4xx_HAL_Driver/Src/stm32f4xx_ll_usb.c ****       {
 825:ThirdParty/STM32F4xx_HAL_Driver/Src/stm32f4xx_ll_usb.c ****         ep->xfer_len = ep->maxpacket;
 826:ThirdParty/STM32F4xx_HAL_Driver/Src/stm32f4xx_ll_usb.c ****       }
 827:ThirdParty/STM32F4xx_HAL_Driver/Src/stm32f4xx_ll_usb.c ****       USBx_INEP(ep->num)->DIEPTSIZ |= (USB_OTG_DIEPTSIZ_PKTCNT & (1U << 19U)) ;
ARM GAS  /tmp/ccCoVfPP.s 			page 16


 828:ThirdParty/STM32F4xx_HAL_Driver/Src/stm32f4xx_ll_usb.c ****       USBx_INEP(ep->num)->DIEPTSIZ |= (USB_OTG_DIEPTSIZ_XFRSIZ & ep->xfer_len); 
 829:ThirdParty/STM32F4xx_HAL_Driver/Src/stm32f4xx_ll_usb.c ****     
 830:ThirdParty/STM32F4xx_HAL_Driver/Src/stm32f4xx_ll_usb.c ****     }
 831:ThirdParty/STM32F4xx_HAL_Driver/Src/stm32f4xx_ll_usb.c ****     
 832:ThirdParty/STM32F4xx_HAL_Driver/Src/stm32f4xx_ll_usb.c ****     /* EP enable, IN data in FIFO */
 833:ThirdParty/STM32F4xx_HAL_Driver/Src/stm32f4xx_ll_usb.c ****     USBx_INEP(ep->num)->DIEPCTL |= (USB_OTG_DIEPCTL_CNAK | USB_OTG_DIEPCTL_EPENA);     
 834:ThirdParty/STM32F4xx_HAL_Driver/Src/stm32f4xx_ll_usb.c ****     
 835:ThirdParty/STM32F4xx_HAL_Driver/Src/stm32f4xx_ll_usb.c ****     if (dma == 1)
 836:ThirdParty/STM32F4xx_HAL_Driver/Src/stm32f4xx_ll_usb.c ****     {
 837:ThirdParty/STM32F4xx_HAL_Driver/Src/stm32f4xx_ll_usb.c ****       USBx_INEP(ep->num)->DIEPDMA = (uint32_t)(ep->dma_addr);
 838:ThirdParty/STM32F4xx_HAL_Driver/Src/stm32f4xx_ll_usb.c ****     }
 839:ThirdParty/STM32F4xx_HAL_Driver/Src/stm32f4xx_ll_usb.c ****     else
 840:ThirdParty/STM32F4xx_HAL_Driver/Src/stm32f4xx_ll_usb.c ****     {
 841:ThirdParty/STM32F4xx_HAL_Driver/Src/stm32f4xx_ll_usb.c ****       /* Enable the Tx FIFO Empty Interrupt for this EP */
 842:ThirdParty/STM32F4xx_HAL_Driver/Src/stm32f4xx_ll_usb.c ****       if (ep->xfer_len > 0U)
 843:ThirdParty/STM32F4xx_HAL_Driver/Src/stm32f4xx_ll_usb.c ****       {
 844:ThirdParty/STM32F4xx_HAL_Driver/Src/stm32f4xx_ll_usb.c ****         USBx_DEVICE->DIEPEMPMSK |= 1U << (ep->num);
 845:ThirdParty/STM32F4xx_HAL_Driver/Src/stm32f4xx_ll_usb.c ****       }
 846:ThirdParty/STM32F4xx_HAL_Driver/Src/stm32f4xx_ll_usb.c ****     }
 847:ThirdParty/STM32F4xx_HAL_Driver/Src/stm32f4xx_ll_usb.c ****   }
 848:ThirdParty/STM32F4xx_HAL_Driver/Src/stm32f4xx_ll_usb.c ****   
 849:ThirdParty/STM32F4xx_HAL_Driver/Src/stm32f4xx_ll_usb.c ****   else /* OUT endpoint */
 850:ThirdParty/STM32F4xx_HAL_Driver/Src/stm32f4xx_ll_usb.c ****   {
 851:ThirdParty/STM32F4xx_HAL_Driver/Src/stm32f4xx_ll_usb.c ****     /* Program the transfer size and packet count as follows:
 852:ThirdParty/STM32F4xx_HAL_Driver/Src/stm32f4xx_ll_usb.c ****     * pktcnt = N
 853:ThirdParty/STM32F4xx_HAL_Driver/Src/stm32f4xx_ll_usb.c ****     * xfersize = N * maxpacket
 854:ThirdParty/STM32F4xx_HAL_Driver/Src/stm32f4xx_ll_usb.c ****     */
 855:ThirdParty/STM32F4xx_HAL_Driver/Src/stm32f4xx_ll_usb.c ****     USBx_OUTEP(ep->num)->DOEPTSIZ &= ~(USB_OTG_DOEPTSIZ_XFRSIZ); 
 856:ThirdParty/STM32F4xx_HAL_Driver/Src/stm32f4xx_ll_usb.c ****     USBx_OUTEP(ep->num)->DOEPTSIZ &= ~(USB_OTG_DOEPTSIZ_PKTCNT); 
 857:ThirdParty/STM32F4xx_HAL_Driver/Src/stm32f4xx_ll_usb.c ****       
 858:ThirdParty/STM32F4xx_HAL_Driver/Src/stm32f4xx_ll_usb.c ****     if (ep->xfer_len > 0U)
 859:ThirdParty/STM32F4xx_HAL_Driver/Src/stm32f4xx_ll_usb.c ****     {
 860:ThirdParty/STM32F4xx_HAL_Driver/Src/stm32f4xx_ll_usb.c ****       ep->xfer_len = ep->maxpacket;
 861:ThirdParty/STM32F4xx_HAL_Driver/Src/stm32f4xx_ll_usb.c ****     }
 862:ThirdParty/STM32F4xx_HAL_Driver/Src/stm32f4xx_ll_usb.c ****     
 863:ThirdParty/STM32F4xx_HAL_Driver/Src/stm32f4xx_ll_usb.c ****     USBx_OUTEP(ep->num)->DOEPTSIZ |= (USB_OTG_DOEPTSIZ_PKTCNT & (1U << 19U));
 864:ThirdParty/STM32F4xx_HAL_Driver/Src/stm32f4xx_ll_usb.c ****     USBx_OUTEP(ep->num)->DOEPTSIZ |= (USB_OTG_DOEPTSIZ_XFRSIZ & (ep->maxpacket)); 
 865:ThirdParty/STM32F4xx_HAL_Driver/Src/stm32f4xx_ll_usb.c ****     
 866:ThirdParty/STM32F4xx_HAL_Driver/Src/stm32f4xx_ll_usb.c **** 
 867:ThirdParty/STM32F4xx_HAL_Driver/Src/stm32f4xx_ll_usb.c ****     if (dma == 1U)
 868:ThirdParty/STM32F4xx_HAL_Driver/Src/stm32f4xx_ll_usb.c ****     {
 869:ThirdParty/STM32F4xx_HAL_Driver/Src/stm32f4xx_ll_usb.c ****       USBx_OUTEP(ep->num)->DOEPDMA = (uint32_t)(ep->xfer_buff);
 870:ThirdParty/STM32F4xx_HAL_Driver/Src/stm32f4xx_ll_usb.c ****     }
 871:ThirdParty/STM32F4xx_HAL_Driver/Src/stm32f4xx_ll_usb.c ****     
 872:ThirdParty/STM32F4xx_HAL_Driver/Src/stm32f4xx_ll_usb.c ****     /* EP enable */
 873:ThirdParty/STM32F4xx_HAL_Driver/Src/stm32f4xx_ll_usb.c ****     USBx_OUTEP(ep->num)->DOEPCTL |= (USB_OTG_DOEPCTL_CNAK | USB_OTG_DOEPCTL_EPENA);    
 874:ThirdParty/STM32F4xx_HAL_Driver/Src/stm32f4xx_ll_usb.c ****   }
 875:ThirdParty/STM32F4xx_HAL_Driver/Src/stm32f4xx_ll_usb.c ****   return HAL_OK;
 876:ThirdParty/STM32F4xx_HAL_Driver/Src/stm32f4xx_ll_usb.c **** }
 877:ThirdParty/STM32F4xx_HAL_Driver/Src/stm32f4xx_ll_usb.c **** 
 878:ThirdParty/STM32F4xx_HAL_Driver/Src/stm32f4xx_ll_usb.c **** /**
 879:ThirdParty/STM32F4xx_HAL_Driver/Src/stm32f4xx_ll_usb.c ****   * @brief  USB_WritePacket : Writes a packet into the Tx FIFO associated 
 880:ThirdParty/STM32F4xx_HAL_Driver/Src/stm32f4xx_ll_usb.c ****   *         with the EP/channel
 881:ThirdParty/STM32F4xx_HAL_Driver/Src/stm32f4xx_ll_usb.c ****   * @param  USBx  Selected device           
 882:ThirdParty/STM32F4xx_HAL_Driver/Src/stm32f4xx_ll_usb.c ****   * @param  src   pointer to source buffer
 883:ThirdParty/STM32F4xx_HAL_Driver/Src/stm32f4xx_ll_usb.c ****   * @param  ch_ep_num  endpoint or host channel number
 884:ThirdParty/STM32F4xx_HAL_Driver/Src/stm32f4xx_ll_usb.c ****   * @param  len  Number of bytes to write
ARM GAS  /tmp/ccCoVfPP.s 			page 17


 885:ThirdParty/STM32F4xx_HAL_Driver/Src/stm32f4xx_ll_usb.c ****   * @param  dma USB dma enabled or disabled 
 886:ThirdParty/STM32F4xx_HAL_Driver/Src/stm32f4xx_ll_usb.c ****   *          This parameter can be one of these values:
 887:ThirdParty/STM32F4xx_HAL_Driver/Src/stm32f4xx_ll_usb.c ****   *           0 : DMA feature not used 
 888:ThirdParty/STM32F4xx_HAL_Driver/Src/stm32f4xx_ll_usb.c ****   *           1 : DMA feature used  
 889:ThirdParty/STM32F4xx_HAL_Driver/Src/stm32f4xx_ll_usb.c ****   * @retval HAL status
 890:ThirdParty/STM32F4xx_HAL_Driver/Src/stm32f4xx_ll_usb.c ****   */
 891:ThirdParty/STM32F4xx_HAL_Driver/Src/stm32f4xx_ll_usb.c **** HAL_StatusTypeDef USB_WritePacket(USB_OTG_GlobalTypeDef *USBx, uint8_t *src, uint8_t ch_ep_num, uin
 892:ThirdParty/STM32F4xx_HAL_Driver/Src/stm32f4xx_ll_usb.c **** {
 893:ThirdParty/STM32F4xx_HAL_Driver/Src/stm32f4xx_ll_usb.c ****   uint32_t count32b = 0U , i = 0U;
 894:ThirdParty/STM32F4xx_HAL_Driver/Src/stm32f4xx_ll_usb.c ****   
 895:ThirdParty/STM32F4xx_HAL_Driver/Src/stm32f4xx_ll_usb.c ****   if (dma == 0U)
 896:ThirdParty/STM32F4xx_HAL_Driver/Src/stm32f4xx_ll_usb.c ****   {
 897:ThirdParty/STM32F4xx_HAL_Driver/Src/stm32f4xx_ll_usb.c ****     count32b =  (len + 3U) / 4U;
 898:ThirdParty/STM32F4xx_HAL_Driver/Src/stm32f4xx_ll_usb.c ****     for (i = 0U; i < count32b; i++, src += 4U)
 899:ThirdParty/STM32F4xx_HAL_Driver/Src/stm32f4xx_ll_usb.c ****     {
 900:ThirdParty/STM32F4xx_HAL_Driver/Src/stm32f4xx_ll_usb.c ****       USBx_DFIFO(ch_ep_num) = __UNALIGNED_UINT32_READ(src);
 901:ThirdParty/STM32F4xx_HAL_Driver/Src/stm32f4xx_ll_usb.c ****     }
 902:ThirdParty/STM32F4xx_HAL_Driver/Src/stm32f4xx_ll_usb.c ****   }
 903:ThirdParty/STM32F4xx_HAL_Driver/Src/stm32f4xx_ll_usb.c ****   return HAL_OK;
 904:ThirdParty/STM32F4xx_HAL_Driver/Src/stm32f4xx_ll_usb.c **** }
 905:ThirdParty/STM32F4xx_HAL_Driver/Src/stm32f4xx_ll_usb.c **** 
 906:ThirdParty/STM32F4xx_HAL_Driver/Src/stm32f4xx_ll_usb.c **** /**
 907:ThirdParty/STM32F4xx_HAL_Driver/Src/stm32f4xx_ll_usb.c ****   * @brief  USB_ReadPacket : read a packet from the Tx FIFO associated 
 908:ThirdParty/STM32F4xx_HAL_Driver/Src/stm32f4xx_ll_usb.c ****   *         with the EP/channel
 909:ThirdParty/STM32F4xx_HAL_Driver/Src/stm32f4xx_ll_usb.c ****   * @param  USBx  Selected device  
 910:ThirdParty/STM32F4xx_HAL_Driver/Src/stm32f4xx_ll_usb.c ****   * @param  src  source pointer
 911:ThirdParty/STM32F4xx_HAL_Driver/Src/stm32f4xx_ll_usb.c ****   * @param  ch_ep_num  endpoint or host channel number
 912:ThirdParty/STM32F4xx_HAL_Driver/Src/stm32f4xx_ll_usb.c ****   * @param  len  Number of bytes to read
 913:ThirdParty/STM32F4xx_HAL_Driver/Src/stm32f4xx_ll_usb.c ****   * @param  dma USB dma enabled or disabled 
 914:ThirdParty/STM32F4xx_HAL_Driver/Src/stm32f4xx_ll_usb.c ****   *          This parameter can be one of these values:
 915:ThirdParty/STM32F4xx_HAL_Driver/Src/stm32f4xx_ll_usb.c ****   *           0 : DMA feature not used 
 916:ThirdParty/STM32F4xx_HAL_Driver/Src/stm32f4xx_ll_usb.c ****   *           1 : DMA feature used  
 917:ThirdParty/STM32F4xx_HAL_Driver/Src/stm32f4xx_ll_usb.c ****   * @retval pointer to destination buffer
 918:ThirdParty/STM32F4xx_HAL_Driver/Src/stm32f4xx_ll_usb.c ****   */
 919:ThirdParty/STM32F4xx_HAL_Driver/Src/stm32f4xx_ll_usb.c **** void *USB_ReadPacket(USB_OTG_GlobalTypeDef *USBx, uint8_t *dest, uint16_t len)
 920:ThirdParty/STM32F4xx_HAL_Driver/Src/stm32f4xx_ll_usb.c **** {
 921:ThirdParty/STM32F4xx_HAL_Driver/Src/stm32f4xx_ll_usb.c ****   uint32_t i=0U;
 922:ThirdParty/STM32F4xx_HAL_Driver/Src/stm32f4xx_ll_usb.c ****   uint32_t count32b = (len + 3U) / 4U;
 923:ThirdParty/STM32F4xx_HAL_Driver/Src/stm32f4xx_ll_usb.c ****   
 924:ThirdParty/STM32F4xx_HAL_Driver/Src/stm32f4xx_ll_usb.c ****   for ( i = 0U; i < count32b; i++, dest += 4U )
 925:ThirdParty/STM32F4xx_HAL_Driver/Src/stm32f4xx_ll_usb.c ****   {
 926:ThirdParty/STM32F4xx_HAL_Driver/Src/stm32f4xx_ll_usb.c ****     __UNALIGNED_UINT32_WRITE(dest, USBx_DFIFO(0U));
 927:ThirdParty/STM32F4xx_HAL_Driver/Src/stm32f4xx_ll_usb.c ****     
 928:ThirdParty/STM32F4xx_HAL_Driver/Src/stm32f4xx_ll_usb.c ****   }
 929:ThirdParty/STM32F4xx_HAL_Driver/Src/stm32f4xx_ll_usb.c ****   return ((void *)dest);
 930:ThirdParty/STM32F4xx_HAL_Driver/Src/stm32f4xx_ll_usb.c **** }
 931:ThirdParty/STM32F4xx_HAL_Driver/Src/stm32f4xx_ll_usb.c **** 
 932:ThirdParty/STM32F4xx_HAL_Driver/Src/stm32f4xx_ll_usb.c **** /**
 933:ThirdParty/STM32F4xx_HAL_Driver/Src/stm32f4xx_ll_usb.c ****   * @brief  USB_EPSetStall : set a stall condition over an EP
 934:ThirdParty/STM32F4xx_HAL_Driver/Src/stm32f4xx_ll_usb.c ****   * @param  USBx  Selected device
 935:ThirdParty/STM32F4xx_HAL_Driver/Src/stm32f4xx_ll_usb.c ****   * @param  ep pointer to endpoint structure   
 936:ThirdParty/STM32F4xx_HAL_Driver/Src/stm32f4xx_ll_usb.c ****   * @retval HAL status
 937:ThirdParty/STM32F4xx_HAL_Driver/Src/stm32f4xx_ll_usb.c ****   */
 938:ThirdParty/STM32F4xx_HAL_Driver/Src/stm32f4xx_ll_usb.c **** HAL_StatusTypeDef USB_EPSetStall(USB_OTG_GlobalTypeDef *USBx , USB_OTG_EPTypeDef *ep)
 939:ThirdParty/STM32F4xx_HAL_Driver/Src/stm32f4xx_ll_usb.c **** {
 940:ThirdParty/STM32F4xx_HAL_Driver/Src/stm32f4xx_ll_usb.c ****   if (ep->is_in == 1U)
 941:ThirdParty/STM32F4xx_HAL_Driver/Src/stm32f4xx_ll_usb.c ****   {
ARM GAS  /tmp/ccCoVfPP.s 			page 18


 942:ThirdParty/STM32F4xx_HAL_Driver/Src/stm32f4xx_ll_usb.c ****     if (((USBx_INEP(ep->num)->DIEPCTL) & USB_OTG_DIEPCTL_EPENA) == 0U)
 943:ThirdParty/STM32F4xx_HAL_Driver/Src/stm32f4xx_ll_usb.c ****     {
 944:ThirdParty/STM32F4xx_HAL_Driver/Src/stm32f4xx_ll_usb.c ****       USBx_INEP(ep->num)->DIEPCTL &= ~(USB_OTG_DIEPCTL_EPDIS); 
 945:ThirdParty/STM32F4xx_HAL_Driver/Src/stm32f4xx_ll_usb.c ****     } 
 946:ThirdParty/STM32F4xx_HAL_Driver/Src/stm32f4xx_ll_usb.c ****     USBx_INEP(ep->num)->DIEPCTL |= USB_OTG_DIEPCTL_STALL;
 947:ThirdParty/STM32F4xx_HAL_Driver/Src/stm32f4xx_ll_usb.c ****   }
 948:ThirdParty/STM32F4xx_HAL_Driver/Src/stm32f4xx_ll_usb.c ****   else
 949:ThirdParty/STM32F4xx_HAL_Driver/Src/stm32f4xx_ll_usb.c ****   {
 950:ThirdParty/STM32F4xx_HAL_Driver/Src/stm32f4xx_ll_usb.c ****     if (((USBx_OUTEP(ep->num)->DOEPCTL) & USB_OTG_DOEPCTL_EPENA) == 0U)
 951:ThirdParty/STM32F4xx_HAL_Driver/Src/stm32f4xx_ll_usb.c ****     {
 952:ThirdParty/STM32F4xx_HAL_Driver/Src/stm32f4xx_ll_usb.c ****       USBx_OUTEP(ep->num)->DOEPCTL &= ~(USB_OTG_DOEPCTL_EPDIS); 
 953:ThirdParty/STM32F4xx_HAL_Driver/Src/stm32f4xx_ll_usb.c ****     } 
 954:ThirdParty/STM32F4xx_HAL_Driver/Src/stm32f4xx_ll_usb.c ****     USBx_OUTEP(ep->num)->DOEPCTL |= USB_OTG_DOEPCTL_STALL;
 955:ThirdParty/STM32F4xx_HAL_Driver/Src/stm32f4xx_ll_usb.c ****   }
 956:ThirdParty/STM32F4xx_HAL_Driver/Src/stm32f4xx_ll_usb.c ****   return HAL_OK;
 957:ThirdParty/STM32F4xx_HAL_Driver/Src/stm32f4xx_ll_usb.c **** }
 958:ThirdParty/STM32F4xx_HAL_Driver/Src/stm32f4xx_ll_usb.c **** 
 959:ThirdParty/STM32F4xx_HAL_Driver/Src/stm32f4xx_ll_usb.c **** 
 960:ThirdParty/STM32F4xx_HAL_Driver/Src/stm32f4xx_ll_usb.c **** /**
 961:ThirdParty/STM32F4xx_HAL_Driver/Src/stm32f4xx_ll_usb.c ****   * @brief  USB_EPClearStall : Clear a stall condition over an EP
 962:ThirdParty/STM32F4xx_HAL_Driver/Src/stm32f4xx_ll_usb.c ****   * @param  USBx  Selected device
 963:ThirdParty/STM32F4xx_HAL_Driver/Src/stm32f4xx_ll_usb.c ****   * @param  ep pointer to endpoint structure   
 964:ThirdParty/STM32F4xx_HAL_Driver/Src/stm32f4xx_ll_usb.c ****   * @retval HAL status
 965:ThirdParty/STM32F4xx_HAL_Driver/Src/stm32f4xx_ll_usb.c ****   */
 966:ThirdParty/STM32F4xx_HAL_Driver/Src/stm32f4xx_ll_usb.c **** HAL_StatusTypeDef USB_EPClearStall(USB_OTG_GlobalTypeDef *USBx, USB_OTG_EPTypeDef *ep)
 967:ThirdParty/STM32F4xx_HAL_Driver/Src/stm32f4xx_ll_usb.c **** {
 968:ThirdParty/STM32F4xx_HAL_Driver/Src/stm32f4xx_ll_usb.c ****   if (ep->is_in == 1U)
 969:ThirdParty/STM32F4xx_HAL_Driver/Src/stm32f4xx_ll_usb.c ****   {
 970:ThirdParty/STM32F4xx_HAL_Driver/Src/stm32f4xx_ll_usb.c ****     USBx_INEP(ep->num)->DIEPCTL &= ~USB_OTG_DIEPCTL_STALL;
 971:ThirdParty/STM32F4xx_HAL_Driver/Src/stm32f4xx_ll_usb.c ****     if (ep->type == EP_TYPE_INTR || ep->type == EP_TYPE_BULK)
 972:ThirdParty/STM32F4xx_HAL_Driver/Src/stm32f4xx_ll_usb.c ****     {
 973:ThirdParty/STM32F4xx_HAL_Driver/Src/stm32f4xx_ll_usb.c ****        USBx_INEP(ep->num)->DIEPCTL |= USB_OTG_DIEPCTL_SD0PID_SEVNFRM; /* DATA0 */
 974:ThirdParty/STM32F4xx_HAL_Driver/Src/stm32f4xx_ll_usb.c ****     }    
 975:ThirdParty/STM32F4xx_HAL_Driver/Src/stm32f4xx_ll_usb.c ****   }
 976:ThirdParty/STM32F4xx_HAL_Driver/Src/stm32f4xx_ll_usb.c ****   else
 977:ThirdParty/STM32F4xx_HAL_Driver/Src/stm32f4xx_ll_usb.c ****   {
 978:ThirdParty/STM32F4xx_HAL_Driver/Src/stm32f4xx_ll_usb.c ****     USBx_OUTEP(ep->num)->DOEPCTL &= ~USB_OTG_DOEPCTL_STALL;
 979:ThirdParty/STM32F4xx_HAL_Driver/Src/stm32f4xx_ll_usb.c ****     if (ep->type == EP_TYPE_INTR || ep->type == EP_TYPE_BULK)
 980:ThirdParty/STM32F4xx_HAL_Driver/Src/stm32f4xx_ll_usb.c ****     {
 981:ThirdParty/STM32F4xx_HAL_Driver/Src/stm32f4xx_ll_usb.c ****       USBx_OUTEP(ep->num)->DOEPCTL |= USB_OTG_DOEPCTL_SD0PID_SEVNFRM; /* DATA0 */
 982:ThirdParty/STM32F4xx_HAL_Driver/Src/stm32f4xx_ll_usb.c ****     }    
 983:ThirdParty/STM32F4xx_HAL_Driver/Src/stm32f4xx_ll_usb.c ****   }
 984:ThirdParty/STM32F4xx_HAL_Driver/Src/stm32f4xx_ll_usb.c ****   return HAL_OK;
 985:ThirdParty/STM32F4xx_HAL_Driver/Src/stm32f4xx_ll_usb.c **** }
 986:ThirdParty/STM32F4xx_HAL_Driver/Src/stm32f4xx_ll_usb.c **** 
 987:ThirdParty/STM32F4xx_HAL_Driver/Src/stm32f4xx_ll_usb.c **** /**
 988:ThirdParty/STM32F4xx_HAL_Driver/Src/stm32f4xx_ll_usb.c ****   * @brief  USB_StopDevice : Stop the usb device mode
 989:ThirdParty/STM32F4xx_HAL_Driver/Src/stm32f4xx_ll_usb.c ****   * @param  USBx  Selected device
 990:ThirdParty/STM32F4xx_HAL_Driver/Src/stm32f4xx_ll_usb.c ****   * @retval HAL status
 991:ThirdParty/STM32F4xx_HAL_Driver/Src/stm32f4xx_ll_usb.c ****   */
 992:ThirdParty/STM32F4xx_HAL_Driver/Src/stm32f4xx_ll_usb.c **** HAL_StatusTypeDef USB_StopDevice(USB_OTG_GlobalTypeDef *USBx)
 993:ThirdParty/STM32F4xx_HAL_Driver/Src/stm32f4xx_ll_usb.c **** {
 994:ThirdParty/STM32F4xx_HAL_Driver/Src/stm32f4xx_ll_usb.c ****   uint32_t i;
 995:ThirdParty/STM32F4xx_HAL_Driver/Src/stm32f4xx_ll_usb.c ****   
 996:ThirdParty/STM32F4xx_HAL_Driver/Src/stm32f4xx_ll_usb.c ****   /* Clear Pending interrupt */
 997:ThirdParty/STM32F4xx_HAL_Driver/Src/stm32f4xx_ll_usb.c ****   for (i = 0U; i < 15U ; i++)
 998:ThirdParty/STM32F4xx_HAL_Driver/Src/stm32f4xx_ll_usb.c ****   {
ARM GAS  /tmp/ccCoVfPP.s 			page 19


 999:ThirdParty/STM32F4xx_HAL_Driver/Src/stm32f4xx_ll_usb.c ****     USBx_INEP(i)->DIEPINT  = 0xFFU;
1000:ThirdParty/STM32F4xx_HAL_Driver/Src/stm32f4xx_ll_usb.c ****     USBx_OUTEP(i)->DOEPINT  = 0xFFU;
1001:ThirdParty/STM32F4xx_HAL_Driver/Src/stm32f4xx_ll_usb.c ****   }
1002:ThirdParty/STM32F4xx_HAL_Driver/Src/stm32f4xx_ll_usb.c ****   USBx_DEVICE->DAINT = 0xFFFFFFFFU;
1003:ThirdParty/STM32F4xx_HAL_Driver/Src/stm32f4xx_ll_usb.c ****   
1004:ThirdParty/STM32F4xx_HAL_Driver/Src/stm32f4xx_ll_usb.c ****   /* Clear interrupt masks */
1005:ThirdParty/STM32F4xx_HAL_Driver/Src/stm32f4xx_ll_usb.c ****   USBx_DEVICE->DIEPMSK  = 0U;
1006:ThirdParty/STM32F4xx_HAL_Driver/Src/stm32f4xx_ll_usb.c ****   USBx_DEVICE->DOEPMSK  = 0U;
1007:ThirdParty/STM32F4xx_HAL_Driver/Src/stm32f4xx_ll_usb.c ****   USBx_DEVICE->DAINTMSK = 0U;
1008:ThirdParty/STM32F4xx_HAL_Driver/Src/stm32f4xx_ll_usb.c ****   
1009:ThirdParty/STM32F4xx_HAL_Driver/Src/stm32f4xx_ll_usb.c ****   /* Flush the FIFO */
1010:ThirdParty/STM32F4xx_HAL_Driver/Src/stm32f4xx_ll_usb.c ****   USB_FlushRxFifo(USBx);
1011:ThirdParty/STM32F4xx_HAL_Driver/Src/stm32f4xx_ll_usb.c ****   USB_FlushTxFifo(USBx ,  0x10U);  
1012:ThirdParty/STM32F4xx_HAL_Driver/Src/stm32f4xx_ll_usb.c ****   
1013:ThirdParty/STM32F4xx_HAL_Driver/Src/stm32f4xx_ll_usb.c ****   return HAL_OK;
1014:ThirdParty/STM32F4xx_HAL_Driver/Src/stm32f4xx_ll_usb.c **** }
1015:ThirdParty/STM32F4xx_HAL_Driver/Src/stm32f4xx_ll_usb.c **** 
1016:ThirdParty/STM32F4xx_HAL_Driver/Src/stm32f4xx_ll_usb.c **** /**
1017:ThirdParty/STM32F4xx_HAL_Driver/Src/stm32f4xx_ll_usb.c ****   * @brief  USB_SetDevAddress : Stop the usb device mode
1018:ThirdParty/STM32F4xx_HAL_Driver/Src/stm32f4xx_ll_usb.c ****   * @param  USBx  Selected device
1019:ThirdParty/STM32F4xx_HAL_Driver/Src/stm32f4xx_ll_usb.c ****   * @param  address  new device address to be assigned
1020:ThirdParty/STM32F4xx_HAL_Driver/Src/stm32f4xx_ll_usb.c ****   *          This parameter can be a value from 0 to 255
1021:ThirdParty/STM32F4xx_HAL_Driver/Src/stm32f4xx_ll_usb.c ****   * @retval HAL status
1022:ThirdParty/STM32F4xx_HAL_Driver/Src/stm32f4xx_ll_usb.c ****   */
1023:ThirdParty/STM32F4xx_HAL_Driver/Src/stm32f4xx_ll_usb.c **** HAL_StatusTypeDef  USB_SetDevAddress (USB_OTG_GlobalTypeDef *USBx, uint8_t address)
1024:ThirdParty/STM32F4xx_HAL_Driver/Src/stm32f4xx_ll_usb.c **** {
1025:ThirdParty/STM32F4xx_HAL_Driver/Src/stm32f4xx_ll_usb.c ****   USBx_DEVICE->DCFG &= ~ (USB_OTG_DCFG_DAD);
1026:ThirdParty/STM32F4xx_HAL_Driver/Src/stm32f4xx_ll_usb.c ****   USBx_DEVICE->DCFG |= (address << 4U) & USB_OTG_DCFG_DAD ;
1027:ThirdParty/STM32F4xx_HAL_Driver/Src/stm32f4xx_ll_usb.c ****   
1028:ThirdParty/STM32F4xx_HAL_Driver/Src/stm32f4xx_ll_usb.c ****   return HAL_OK;  
1029:ThirdParty/STM32F4xx_HAL_Driver/Src/stm32f4xx_ll_usb.c **** }
1030:ThirdParty/STM32F4xx_HAL_Driver/Src/stm32f4xx_ll_usb.c **** 
1031:ThirdParty/STM32F4xx_HAL_Driver/Src/stm32f4xx_ll_usb.c **** /**
1032:ThirdParty/STM32F4xx_HAL_Driver/Src/stm32f4xx_ll_usb.c ****   * @brief  USB_DevConnect : Connect the USB device by enabling the pull-up/pull-down
1033:ThirdParty/STM32F4xx_HAL_Driver/Src/stm32f4xx_ll_usb.c ****   * @param  USBx  Selected device
1034:ThirdParty/STM32F4xx_HAL_Driver/Src/stm32f4xx_ll_usb.c ****   * @retval HAL status
1035:ThirdParty/STM32F4xx_HAL_Driver/Src/stm32f4xx_ll_usb.c ****   */
1036:ThirdParty/STM32F4xx_HAL_Driver/Src/stm32f4xx_ll_usb.c **** HAL_StatusTypeDef  USB_DevConnect (USB_OTG_GlobalTypeDef *USBx)
1037:ThirdParty/STM32F4xx_HAL_Driver/Src/stm32f4xx_ll_usb.c **** {
1038:ThirdParty/STM32F4xx_HAL_Driver/Src/stm32f4xx_ll_usb.c ****   USBx_DEVICE->DCTL &= ~USB_OTG_DCTL_SDIS ;
1039:ThirdParty/STM32F4xx_HAL_Driver/Src/stm32f4xx_ll_usb.c ****   HAL_Delay(3U);
1040:ThirdParty/STM32F4xx_HAL_Driver/Src/stm32f4xx_ll_usb.c ****   
1041:ThirdParty/STM32F4xx_HAL_Driver/Src/stm32f4xx_ll_usb.c ****   return HAL_OK;  
1042:ThirdParty/STM32F4xx_HAL_Driver/Src/stm32f4xx_ll_usb.c **** }
1043:ThirdParty/STM32F4xx_HAL_Driver/Src/stm32f4xx_ll_usb.c **** 
1044:ThirdParty/STM32F4xx_HAL_Driver/Src/stm32f4xx_ll_usb.c **** /**
1045:ThirdParty/STM32F4xx_HAL_Driver/Src/stm32f4xx_ll_usb.c ****   * @brief  USB_DevDisconnect : Disconnect the USB device by disabling the pull-up/pull-down
1046:ThirdParty/STM32F4xx_HAL_Driver/Src/stm32f4xx_ll_usb.c ****   * @param  USBx  Selected device
1047:ThirdParty/STM32F4xx_HAL_Driver/Src/stm32f4xx_ll_usb.c ****   * @retval HAL status
1048:ThirdParty/STM32F4xx_HAL_Driver/Src/stm32f4xx_ll_usb.c ****   */
1049:ThirdParty/STM32F4xx_HAL_Driver/Src/stm32f4xx_ll_usb.c **** HAL_StatusTypeDef  USB_DevDisconnect (USB_OTG_GlobalTypeDef *USBx)
1050:ThirdParty/STM32F4xx_HAL_Driver/Src/stm32f4xx_ll_usb.c **** {
1051:ThirdParty/STM32F4xx_HAL_Driver/Src/stm32f4xx_ll_usb.c ****   USBx_DEVICE->DCTL |= USB_OTG_DCTL_SDIS ;
1052:ThirdParty/STM32F4xx_HAL_Driver/Src/stm32f4xx_ll_usb.c ****   HAL_Delay(3U);
1053:ThirdParty/STM32F4xx_HAL_Driver/Src/stm32f4xx_ll_usb.c ****   
1054:ThirdParty/STM32F4xx_HAL_Driver/Src/stm32f4xx_ll_usb.c ****   return HAL_OK;  
1055:ThirdParty/STM32F4xx_HAL_Driver/Src/stm32f4xx_ll_usb.c **** }
ARM GAS  /tmp/ccCoVfPP.s 			page 20


1056:ThirdParty/STM32F4xx_HAL_Driver/Src/stm32f4xx_ll_usb.c **** 
1057:ThirdParty/STM32F4xx_HAL_Driver/Src/stm32f4xx_ll_usb.c **** /**
1058:ThirdParty/STM32F4xx_HAL_Driver/Src/stm32f4xx_ll_usb.c ****   * @brief  USB_ReadInterrupts: return the global USB interrupt status
1059:ThirdParty/STM32F4xx_HAL_Driver/Src/stm32f4xx_ll_usb.c ****   * @param  USBx  Selected device
1060:ThirdParty/STM32F4xx_HAL_Driver/Src/stm32f4xx_ll_usb.c ****   * @retval HAL status
1061:ThirdParty/STM32F4xx_HAL_Driver/Src/stm32f4xx_ll_usb.c ****   */
1062:ThirdParty/STM32F4xx_HAL_Driver/Src/stm32f4xx_ll_usb.c **** uint32_t  USB_ReadInterrupts (USB_OTG_GlobalTypeDef *USBx)
1063:ThirdParty/STM32F4xx_HAL_Driver/Src/stm32f4xx_ll_usb.c **** {
1064:ThirdParty/STM32F4xx_HAL_Driver/Src/stm32f4xx_ll_usb.c ****   uint32_t v = 0U;
1065:ThirdParty/STM32F4xx_HAL_Driver/Src/stm32f4xx_ll_usb.c ****   
1066:ThirdParty/STM32F4xx_HAL_Driver/Src/stm32f4xx_ll_usb.c ****   v = USBx->GINTSTS;
1067:ThirdParty/STM32F4xx_HAL_Driver/Src/stm32f4xx_ll_usb.c ****   v &= USBx->GINTMSK;
1068:ThirdParty/STM32F4xx_HAL_Driver/Src/stm32f4xx_ll_usb.c ****   return v;  
1069:ThirdParty/STM32F4xx_HAL_Driver/Src/stm32f4xx_ll_usb.c **** }
1070:ThirdParty/STM32F4xx_HAL_Driver/Src/stm32f4xx_ll_usb.c **** 
1071:ThirdParty/STM32F4xx_HAL_Driver/Src/stm32f4xx_ll_usb.c **** /**
1072:ThirdParty/STM32F4xx_HAL_Driver/Src/stm32f4xx_ll_usb.c ****   * @brief  USB_ReadDevAllOutEpInterrupt: return the USB device OUT endpoints interrupt status
1073:ThirdParty/STM32F4xx_HAL_Driver/Src/stm32f4xx_ll_usb.c ****   * @param  USBx  Selected device
1074:ThirdParty/STM32F4xx_HAL_Driver/Src/stm32f4xx_ll_usb.c ****   * @retval HAL status
1075:ThirdParty/STM32F4xx_HAL_Driver/Src/stm32f4xx_ll_usb.c ****   */
1076:ThirdParty/STM32F4xx_HAL_Driver/Src/stm32f4xx_ll_usb.c **** uint32_t USB_ReadDevAllOutEpInterrupt (USB_OTG_GlobalTypeDef *USBx)
1077:ThirdParty/STM32F4xx_HAL_Driver/Src/stm32f4xx_ll_usb.c **** {
1078:ThirdParty/STM32F4xx_HAL_Driver/Src/stm32f4xx_ll_usb.c ****   uint32_t v;
1079:ThirdParty/STM32F4xx_HAL_Driver/Src/stm32f4xx_ll_usb.c ****   v  = USBx_DEVICE->DAINT;
1080:ThirdParty/STM32F4xx_HAL_Driver/Src/stm32f4xx_ll_usb.c ****   v &= USBx_DEVICE->DAINTMSK;
1081:ThirdParty/STM32F4xx_HAL_Driver/Src/stm32f4xx_ll_usb.c ****   return ((v & 0xffff0000U) >> 16U);
1082:ThirdParty/STM32F4xx_HAL_Driver/Src/stm32f4xx_ll_usb.c **** }
1083:ThirdParty/STM32F4xx_HAL_Driver/Src/stm32f4xx_ll_usb.c **** 
1084:ThirdParty/STM32F4xx_HAL_Driver/Src/stm32f4xx_ll_usb.c **** /**
1085:ThirdParty/STM32F4xx_HAL_Driver/Src/stm32f4xx_ll_usb.c ****   * @brief  USB_ReadDevAllInEpInterrupt: return the USB device IN endpoints interrupt status
1086:ThirdParty/STM32F4xx_HAL_Driver/Src/stm32f4xx_ll_usb.c ****   * @param  USBx  Selected device
1087:ThirdParty/STM32F4xx_HAL_Driver/Src/stm32f4xx_ll_usb.c ****   * @retval HAL status
1088:ThirdParty/STM32F4xx_HAL_Driver/Src/stm32f4xx_ll_usb.c ****   */
1089:ThirdParty/STM32F4xx_HAL_Driver/Src/stm32f4xx_ll_usb.c **** uint32_t USB_ReadDevAllInEpInterrupt (USB_OTG_GlobalTypeDef *USBx)
1090:ThirdParty/STM32F4xx_HAL_Driver/Src/stm32f4xx_ll_usb.c **** {
1091:ThirdParty/STM32F4xx_HAL_Driver/Src/stm32f4xx_ll_usb.c ****   uint32_t v;
1092:ThirdParty/STM32F4xx_HAL_Driver/Src/stm32f4xx_ll_usb.c ****   v  = USBx_DEVICE->DAINT;
1093:ThirdParty/STM32F4xx_HAL_Driver/Src/stm32f4xx_ll_usb.c ****   v &= USBx_DEVICE->DAINTMSK;
1094:ThirdParty/STM32F4xx_HAL_Driver/Src/stm32f4xx_ll_usb.c ****   return ((v & 0xFFFFU));
1095:ThirdParty/STM32F4xx_HAL_Driver/Src/stm32f4xx_ll_usb.c **** }
1096:ThirdParty/STM32F4xx_HAL_Driver/Src/stm32f4xx_ll_usb.c **** 
1097:ThirdParty/STM32F4xx_HAL_Driver/Src/stm32f4xx_ll_usb.c **** /**
1098:ThirdParty/STM32F4xx_HAL_Driver/Src/stm32f4xx_ll_usb.c ****   * @brief  Returns Device OUT EP Interrupt register
1099:ThirdParty/STM32F4xx_HAL_Driver/Src/stm32f4xx_ll_usb.c ****   * @param  USBx  Selected device
1100:ThirdParty/STM32F4xx_HAL_Driver/Src/stm32f4xx_ll_usb.c ****   * @param  epnum  endpoint number
1101:ThirdParty/STM32F4xx_HAL_Driver/Src/stm32f4xx_ll_usb.c ****   *          This parameter can be a value from 0 to 15
1102:ThirdParty/STM32F4xx_HAL_Driver/Src/stm32f4xx_ll_usb.c ****   * @retval Device OUT EP Interrupt register
1103:ThirdParty/STM32F4xx_HAL_Driver/Src/stm32f4xx_ll_usb.c ****   */
1104:ThirdParty/STM32F4xx_HAL_Driver/Src/stm32f4xx_ll_usb.c **** uint32_t USB_ReadDevOutEPInterrupt (USB_OTG_GlobalTypeDef *USBx , uint8_t epnum)
1105:ThirdParty/STM32F4xx_HAL_Driver/Src/stm32f4xx_ll_usb.c **** {
1106:ThirdParty/STM32F4xx_HAL_Driver/Src/stm32f4xx_ll_usb.c ****   uint32_t v;
1107:ThirdParty/STM32F4xx_HAL_Driver/Src/stm32f4xx_ll_usb.c ****   v  = USBx_OUTEP(epnum)->DOEPINT;
1108:ThirdParty/STM32F4xx_HAL_Driver/Src/stm32f4xx_ll_usb.c ****   v &= USBx_DEVICE->DOEPMSK;
1109:ThirdParty/STM32F4xx_HAL_Driver/Src/stm32f4xx_ll_usb.c ****   return v;
1110:ThirdParty/STM32F4xx_HAL_Driver/Src/stm32f4xx_ll_usb.c **** }
1111:ThirdParty/STM32F4xx_HAL_Driver/Src/stm32f4xx_ll_usb.c **** 
1112:ThirdParty/STM32F4xx_HAL_Driver/Src/stm32f4xx_ll_usb.c **** /**
ARM GAS  /tmp/ccCoVfPP.s 			page 21


1113:ThirdParty/STM32F4xx_HAL_Driver/Src/stm32f4xx_ll_usb.c ****   * @brief  Returns Device IN EP Interrupt register
1114:ThirdParty/STM32F4xx_HAL_Driver/Src/stm32f4xx_ll_usb.c ****   * @param  USBx  Selected device
1115:ThirdParty/STM32F4xx_HAL_Driver/Src/stm32f4xx_ll_usb.c ****   * @param  epnum  endpoint number
1116:ThirdParty/STM32F4xx_HAL_Driver/Src/stm32f4xx_ll_usb.c ****   *          This parameter can be a value from 0 to 15
1117:ThirdParty/STM32F4xx_HAL_Driver/Src/stm32f4xx_ll_usb.c ****   * @retval Device IN EP Interrupt register
1118:ThirdParty/STM32F4xx_HAL_Driver/Src/stm32f4xx_ll_usb.c ****   */
1119:ThirdParty/STM32F4xx_HAL_Driver/Src/stm32f4xx_ll_usb.c **** uint32_t USB_ReadDevInEPInterrupt (USB_OTG_GlobalTypeDef *USBx , uint8_t epnum)
1120:ThirdParty/STM32F4xx_HAL_Driver/Src/stm32f4xx_ll_usb.c **** {
1121:ThirdParty/STM32F4xx_HAL_Driver/Src/stm32f4xx_ll_usb.c ****   uint32_t v, msk, emp;
1122:ThirdParty/STM32F4xx_HAL_Driver/Src/stm32f4xx_ll_usb.c ****   
1123:ThirdParty/STM32F4xx_HAL_Driver/Src/stm32f4xx_ll_usb.c ****   msk = USBx_DEVICE->DIEPMSK;
1124:ThirdParty/STM32F4xx_HAL_Driver/Src/stm32f4xx_ll_usb.c ****   emp = USBx_DEVICE->DIEPEMPMSK;
1125:ThirdParty/STM32F4xx_HAL_Driver/Src/stm32f4xx_ll_usb.c ****   msk |= ((emp >> epnum) & 0x1U) << 7U;
1126:ThirdParty/STM32F4xx_HAL_Driver/Src/stm32f4xx_ll_usb.c ****   v = USBx_INEP(epnum)->DIEPINT & msk;
1127:ThirdParty/STM32F4xx_HAL_Driver/Src/stm32f4xx_ll_usb.c ****   return v;
1128:ThirdParty/STM32F4xx_HAL_Driver/Src/stm32f4xx_ll_usb.c **** }
1129:ThirdParty/STM32F4xx_HAL_Driver/Src/stm32f4xx_ll_usb.c **** 
1130:ThirdParty/STM32F4xx_HAL_Driver/Src/stm32f4xx_ll_usb.c **** /**
1131:ThirdParty/STM32F4xx_HAL_Driver/Src/stm32f4xx_ll_usb.c ****   * @brief  USB_ClearInterrupts: clear a USB interrupt
1132:ThirdParty/STM32F4xx_HAL_Driver/Src/stm32f4xx_ll_usb.c ****   * @param  USBx  Selected device
1133:ThirdParty/STM32F4xx_HAL_Driver/Src/stm32f4xx_ll_usb.c ****   * @param  interrupt  interrupt flag
1134:ThirdParty/STM32F4xx_HAL_Driver/Src/stm32f4xx_ll_usb.c ****   * @retval None
1135:ThirdParty/STM32F4xx_HAL_Driver/Src/stm32f4xx_ll_usb.c ****   */
1136:ThirdParty/STM32F4xx_HAL_Driver/Src/stm32f4xx_ll_usb.c **** void  USB_ClearInterrupts (USB_OTG_GlobalTypeDef *USBx, uint32_t interrupt)
1137:ThirdParty/STM32F4xx_HAL_Driver/Src/stm32f4xx_ll_usb.c **** {
1138:ThirdParty/STM32F4xx_HAL_Driver/Src/stm32f4xx_ll_usb.c ****   USBx->GINTSTS |= interrupt; 
1139:ThirdParty/STM32F4xx_HAL_Driver/Src/stm32f4xx_ll_usb.c **** }
1140:ThirdParty/STM32F4xx_HAL_Driver/Src/stm32f4xx_ll_usb.c **** 
1141:ThirdParty/STM32F4xx_HAL_Driver/Src/stm32f4xx_ll_usb.c **** /**
1142:ThirdParty/STM32F4xx_HAL_Driver/Src/stm32f4xx_ll_usb.c ****   * @brief  Returns USB core mode
1143:ThirdParty/STM32F4xx_HAL_Driver/Src/stm32f4xx_ll_usb.c ****   * @param  USBx  Selected device
1144:ThirdParty/STM32F4xx_HAL_Driver/Src/stm32f4xx_ll_usb.c ****   * @retval return core mode : Host or Device
1145:ThirdParty/STM32F4xx_HAL_Driver/Src/stm32f4xx_ll_usb.c ****   *          This parameter can be one of these values:
1146:ThirdParty/STM32F4xx_HAL_Driver/Src/stm32f4xx_ll_usb.c ****   *           0 : Host 
1147:ThirdParty/STM32F4xx_HAL_Driver/Src/stm32f4xx_ll_usb.c ****   *           1 : Device
1148:ThirdParty/STM32F4xx_HAL_Driver/Src/stm32f4xx_ll_usb.c ****   */
1149:ThirdParty/STM32F4xx_HAL_Driver/Src/stm32f4xx_ll_usb.c **** uint32_t USB_GetMode(USB_OTG_GlobalTypeDef *USBx)
1150:ThirdParty/STM32F4xx_HAL_Driver/Src/stm32f4xx_ll_usb.c **** {
1151:ThirdParty/STM32F4xx_HAL_Driver/Src/stm32f4xx_ll_usb.c ****   return ((USBx->GINTSTS ) & 0x1U);
1152:ThirdParty/STM32F4xx_HAL_Driver/Src/stm32f4xx_ll_usb.c **** }
1153:ThirdParty/STM32F4xx_HAL_Driver/Src/stm32f4xx_ll_usb.c **** 
1154:ThirdParty/STM32F4xx_HAL_Driver/Src/stm32f4xx_ll_usb.c **** 
1155:ThirdParty/STM32F4xx_HAL_Driver/Src/stm32f4xx_ll_usb.c **** /**
1156:ThirdParty/STM32F4xx_HAL_Driver/Src/stm32f4xx_ll_usb.c ****   * @brief  Activate EP0 for Setup transactions
1157:ThirdParty/STM32F4xx_HAL_Driver/Src/stm32f4xx_ll_usb.c ****   * @param  USBx  Selected device
1158:ThirdParty/STM32F4xx_HAL_Driver/Src/stm32f4xx_ll_usb.c ****   * @retval HAL status
1159:ThirdParty/STM32F4xx_HAL_Driver/Src/stm32f4xx_ll_usb.c ****   */
1160:ThirdParty/STM32F4xx_HAL_Driver/Src/stm32f4xx_ll_usb.c **** HAL_StatusTypeDef  USB_ActivateSetup (USB_OTG_GlobalTypeDef *USBx)
1161:ThirdParty/STM32F4xx_HAL_Driver/Src/stm32f4xx_ll_usb.c **** {
1162:ThirdParty/STM32F4xx_HAL_Driver/Src/stm32f4xx_ll_usb.c ****   /* Set the MPS of the IN EP based on the enumeration speed */
1163:ThirdParty/STM32F4xx_HAL_Driver/Src/stm32f4xx_ll_usb.c ****   USBx_INEP(0U)->DIEPCTL &= ~USB_OTG_DIEPCTL_MPSIZ;
1164:ThirdParty/STM32F4xx_HAL_Driver/Src/stm32f4xx_ll_usb.c ****   
1165:ThirdParty/STM32F4xx_HAL_Driver/Src/stm32f4xx_ll_usb.c ****   if((USBx_DEVICE->DSTS & USB_OTG_DSTS_ENUMSPD) == DSTS_ENUMSPD_LS_PHY_6MHZ)
1166:ThirdParty/STM32F4xx_HAL_Driver/Src/stm32f4xx_ll_usb.c ****   {
1167:ThirdParty/STM32F4xx_HAL_Driver/Src/stm32f4xx_ll_usb.c ****     USBx_INEP(0U)->DIEPCTL |= 3U;
1168:ThirdParty/STM32F4xx_HAL_Driver/Src/stm32f4xx_ll_usb.c ****   }
1169:ThirdParty/STM32F4xx_HAL_Driver/Src/stm32f4xx_ll_usb.c ****   USBx_DEVICE->DCTL |= USB_OTG_DCTL_CGINAK;
ARM GAS  /tmp/ccCoVfPP.s 			page 22


1170:ThirdParty/STM32F4xx_HAL_Driver/Src/stm32f4xx_ll_usb.c **** 
1171:ThirdParty/STM32F4xx_HAL_Driver/Src/stm32f4xx_ll_usb.c ****   return HAL_OK;
1172:ThirdParty/STM32F4xx_HAL_Driver/Src/stm32f4xx_ll_usb.c **** }
1173:ThirdParty/STM32F4xx_HAL_Driver/Src/stm32f4xx_ll_usb.c **** 
1174:ThirdParty/STM32F4xx_HAL_Driver/Src/stm32f4xx_ll_usb.c **** 
1175:ThirdParty/STM32F4xx_HAL_Driver/Src/stm32f4xx_ll_usb.c **** /**
1176:ThirdParty/STM32F4xx_HAL_Driver/Src/stm32f4xx_ll_usb.c ****   * @brief  Prepare the EP0 to start the first control setup
1177:ThirdParty/STM32F4xx_HAL_Driver/Src/stm32f4xx_ll_usb.c ****   * @param  USBx  Selected device
1178:ThirdParty/STM32F4xx_HAL_Driver/Src/stm32f4xx_ll_usb.c ****   * @param  dma USB dma enabled or disabled 
1179:ThirdParty/STM32F4xx_HAL_Driver/Src/stm32f4xx_ll_usb.c ****   *          This parameter can be one of these values:
1180:ThirdParty/STM32F4xx_HAL_Driver/Src/stm32f4xx_ll_usb.c ****   *           0 : DMA feature not used 
1181:ThirdParty/STM32F4xx_HAL_Driver/Src/stm32f4xx_ll_usb.c ****   *           1 : DMA feature used  
1182:ThirdParty/STM32F4xx_HAL_Driver/Src/stm32f4xx_ll_usb.c ****   * @param  psetup  pointer to setup packet
1183:ThirdParty/STM32F4xx_HAL_Driver/Src/stm32f4xx_ll_usb.c ****   * @retval HAL status
1184:ThirdParty/STM32F4xx_HAL_Driver/Src/stm32f4xx_ll_usb.c ****   */
1185:ThirdParty/STM32F4xx_HAL_Driver/Src/stm32f4xx_ll_usb.c **** HAL_StatusTypeDef USB_EP0_OutStart(USB_OTG_GlobalTypeDef *USBx, uint8_t dma, uint8_t *psetup)
1186:ThirdParty/STM32F4xx_HAL_Driver/Src/stm32f4xx_ll_usb.c **** {
1187:ThirdParty/STM32F4xx_HAL_Driver/Src/stm32f4xx_ll_usb.c ****   USBx_OUTEP(0U)->DOEPTSIZ = 0U;
1188:ThirdParty/STM32F4xx_HAL_Driver/Src/stm32f4xx_ll_usb.c ****   USBx_OUTEP(0U)->DOEPTSIZ |= (USB_OTG_DOEPTSIZ_PKTCNT & (1U << 19U)) ;
1189:ThirdParty/STM32F4xx_HAL_Driver/Src/stm32f4xx_ll_usb.c ****   USBx_OUTEP(0U)->DOEPTSIZ |= (3U * 8U);
1190:ThirdParty/STM32F4xx_HAL_Driver/Src/stm32f4xx_ll_usb.c ****   USBx_OUTEP(0U)->DOEPTSIZ |=  USB_OTG_DOEPTSIZ_STUPCNT;  
1191:ThirdParty/STM32F4xx_HAL_Driver/Src/stm32f4xx_ll_usb.c ****   
1192:ThirdParty/STM32F4xx_HAL_Driver/Src/stm32f4xx_ll_usb.c ****   if (dma == 1U)
1193:ThirdParty/STM32F4xx_HAL_Driver/Src/stm32f4xx_ll_usb.c ****   {
1194:ThirdParty/STM32F4xx_HAL_Driver/Src/stm32f4xx_ll_usb.c ****     USBx_OUTEP(0U)->DOEPDMA = (uint32_t)psetup;
1195:ThirdParty/STM32F4xx_HAL_Driver/Src/stm32f4xx_ll_usb.c ****     /* EP enable */
1196:ThirdParty/STM32F4xx_HAL_Driver/Src/stm32f4xx_ll_usb.c ****     USBx_OUTEP(0U)->DOEPCTL = 0x80008000U;
1197:ThirdParty/STM32F4xx_HAL_Driver/Src/stm32f4xx_ll_usb.c ****   }
1198:ThirdParty/STM32F4xx_HAL_Driver/Src/stm32f4xx_ll_usb.c ****   
1199:ThirdParty/STM32F4xx_HAL_Driver/Src/stm32f4xx_ll_usb.c ****   return HAL_OK;  
1200:ThirdParty/STM32F4xx_HAL_Driver/Src/stm32f4xx_ll_usb.c **** }
1201:ThirdParty/STM32F4xx_HAL_Driver/Src/stm32f4xx_ll_usb.c **** 
1202:ThirdParty/STM32F4xx_HAL_Driver/Src/stm32f4xx_ll_usb.c **** 
1203:ThirdParty/STM32F4xx_HAL_Driver/Src/stm32f4xx_ll_usb.c **** /**
1204:ThirdParty/STM32F4xx_HAL_Driver/Src/stm32f4xx_ll_usb.c ****   * @brief  Reset the USB Core (needed after USB clock settings change)
1205:ThirdParty/STM32F4xx_HAL_Driver/Src/stm32f4xx_ll_usb.c ****   * @param  USBx  Selected device
1206:ThirdParty/STM32F4xx_HAL_Driver/Src/stm32f4xx_ll_usb.c ****   * @retval HAL status
1207:ThirdParty/STM32F4xx_HAL_Driver/Src/stm32f4xx_ll_usb.c ****   */
1208:ThirdParty/STM32F4xx_HAL_Driver/Src/stm32f4xx_ll_usb.c **** static HAL_StatusTypeDef USB_CoreReset(USB_OTG_GlobalTypeDef *USBx)
1209:ThirdParty/STM32F4xx_HAL_Driver/Src/stm32f4xx_ll_usb.c **** {
1210:ThirdParty/STM32F4xx_HAL_Driver/Src/stm32f4xx_ll_usb.c ****   uint32_t count = 0U;
1211:ThirdParty/STM32F4xx_HAL_Driver/Src/stm32f4xx_ll_usb.c **** 
1212:ThirdParty/STM32F4xx_HAL_Driver/Src/stm32f4xx_ll_usb.c ****   /* Wait for AHB master IDLE state. */
1213:ThirdParty/STM32F4xx_HAL_Driver/Src/stm32f4xx_ll_usb.c ****   do
1214:ThirdParty/STM32F4xx_HAL_Driver/Src/stm32f4xx_ll_usb.c ****   {
1215:ThirdParty/STM32F4xx_HAL_Driver/Src/stm32f4xx_ll_usb.c ****     if (++count > 200000U)
1216:ThirdParty/STM32F4xx_HAL_Driver/Src/stm32f4xx_ll_usb.c ****     {
1217:ThirdParty/STM32F4xx_HAL_Driver/Src/stm32f4xx_ll_usb.c ****       return HAL_TIMEOUT;
1218:ThirdParty/STM32F4xx_HAL_Driver/Src/stm32f4xx_ll_usb.c ****     }
1219:ThirdParty/STM32F4xx_HAL_Driver/Src/stm32f4xx_ll_usb.c ****   }
1220:ThirdParty/STM32F4xx_HAL_Driver/Src/stm32f4xx_ll_usb.c ****   while ((USBx->GRSTCTL & USB_OTG_GRSTCTL_AHBIDL) == 0U);
1221:ThirdParty/STM32F4xx_HAL_Driver/Src/stm32f4xx_ll_usb.c ****   
1222:ThirdParty/STM32F4xx_HAL_Driver/Src/stm32f4xx_ll_usb.c ****   /* Core Soft Reset */
1223:ThirdParty/STM32F4xx_HAL_Driver/Src/stm32f4xx_ll_usb.c ****   count = 0U;
1224:ThirdParty/STM32F4xx_HAL_Driver/Src/stm32f4xx_ll_usb.c ****   USBx->GRSTCTL |= USB_OTG_GRSTCTL_CSRST;
1225:ThirdParty/STM32F4xx_HAL_Driver/Src/stm32f4xx_ll_usb.c **** 
1226:ThirdParty/STM32F4xx_HAL_Driver/Src/stm32f4xx_ll_usb.c ****   do
ARM GAS  /tmp/ccCoVfPP.s 			page 23


1227:ThirdParty/STM32F4xx_HAL_Driver/Src/stm32f4xx_ll_usb.c ****   {
1228:ThirdParty/STM32F4xx_HAL_Driver/Src/stm32f4xx_ll_usb.c ****     if (++count > 200000U)
1229:ThirdParty/STM32F4xx_HAL_Driver/Src/stm32f4xx_ll_usb.c ****     {
1230:ThirdParty/STM32F4xx_HAL_Driver/Src/stm32f4xx_ll_usb.c ****       return HAL_TIMEOUT;
1231:ThirdParty/STM32F4xx_HAL_Driver/Src/stm32f4xx_ll_usb.c ****     }
1232:ThirdParty/STM32F4xx_HAL_Driver/Src/stm32f4xx_ll_usb.c ****   }
1233:ThirdParty/STM32F4xx_HAL_Driver/Src/stm32f4xx_ll_usb.c ****   while ((USBx->GRSTCTL & USB_OTG_GRSTCTL_CSRST) == USB_OTG_GRSTCTL_CSRST);
1234:ThirdParty/STM32F4xx_HAL_Driver/Src/stm32f4xx_ll_usb.c ****   
1235:ThirdParty/STM32F4xx_HAL_Driver/Src/stm32f4xx_ll_usb.c ****   return HAL_OK;
1236:ThirdParty/STM32F4xx_HAL_Driver/Src/stm32f4xx_ll_usb.c **** }
1237:ThirdParty/STM32F4xx_HAL_Driver/Src/stm32f4xx_ll_usb.c **** 
1238:ThirdParty/STM32F4xx_HAL_Driver/Src/stm32f4xx_ll_usb.c **** 
1239:ThirdParty/STM32F4xx_HAL_Driver/Src/stm32f4xx_ll_usb.c **** /**
1240:ThirdParty/STM32F4xx_HAL_Driver/Src/stm32f4xx_ll_usb.c ****   * @brief  USB_HostInit : Initializes the USB OTG controller registers 
1241:ThirdParty/STM32F4xx_HAL_Driver/Src/stm32f4xx_ll_usb.c ****   *         for Host mode 
1242:ThirdParty/STM32F4xx_HAL_Driver/Src/stm32f4xx_ll_usb.c ****   * @param  USBx  Selected device
1243:ThirdParty/STM32F4xx_HAL_Driver/Src/stm32f4xx_ll_usb.c ****   * @param  cfg   pointer to a USB_OTG_CfgTypeDef structure that contains
1244:ThirdParty/STM32F4xx_HAL_Driver/Src/stm32f4xx_ll_usb.c ****   *         the configuration information for the specified USBx peripheral.
1245:ThirdParty/STM32F4xx_HAL_Driver/Src/stm32f4xx_ll_usb.c ****   * @retval HAL status
1246:ThirdParty/STM32F4xx_HAL_Driver/Src/stm32f4xx_ll_usb.c ****   */
1247:ThirdParty/STM32F4xx_HAL_Driver/Src/stm32f4xx_ll_usb.c **** HAL_StatusTypeDef USB_HostInit (USB_OTG_GlobalTypeDef *USBx, USB_OTG_CfgTypeDef cfg)
1248:ThirdParty/STM32F4xx_HAL_Driver/Src/stm32f4xx_ll_usb.c **** {
1249:ThirdParty/STM32F4xx_HAL_Driver/Src/stm32f4xx_ll_usb.c ****   uint32_t i;
1250:ThirdParty/STM32F4xx_HAL_Driver/Src/stm32f4xx_ll_usb.c ****   
1251:ThirdParty/STM32F4xx_HAL_Driver/Src/stm32f4xx_ll_usb.c ****   /* Restart the Phy Clock */
1252:ThirdParty/STM32F4xx_HAL_Driver/Src/stm32f4xx_ll_usb.c ****   USBx_PCGCCTL = 0U;
1253:ThirdParty/STM32F4xx_HAL_Driver/Src/stm32f4xx_ll_usb.c ****   
1254:ThirdParty/STM32F4xx_HAL_Driver/Src/stm32f4xx_ll_usb.c ****   /* Activate VBUS Sensing B */
1255:ThirdParty/STM32F4xx_HAL_Driver/Src/stm32f4xx_ll_usb.c **** #if defined(STM32F446xx) || defined(STM32F469xx) || defined(STM32F479xx) || defined(STM32F412Zx) ||
1256:ThirdParty/STM32F4xx_HAL_Driver/Src/stm32f4xx_ll_usb.c ****     defined(STM32F412Rx) || defined(STM32F412Cx) || defined(STM32F413xx) || defined(STM32F423xx)
1257:ThirdParty/STM32F4xx_HAL_Driver/Src/stm32f4xx_ll_usb.c ****   USBx->GCCFG |= USB_OTG_GCCFG_VBDEN;
1258:ThirdParty/STM32F4xx_HAL_Driver/Src/stm32f4xx_ll_usb.c **** #else
1259:ThirdParty/STM32F4xx_HAL_Driver/Src/stm32f4xx_ll_usb.c ****   USBx->GCCFG &=~ (USB_OTG_GCCFG_VBUSASEN);
1260:ThirdParty/STM32F4xx_HAL_Driver/Src/stm32f4xx_ll_usb.c ****   USBx->GCCFG &=~ (USB_OTG_GCCFG_VBUSBSEN);
1261:ThirdParty/STM32F4xx_HAL_Driver/Src/stm32f4xx_ll_usb.c ****   USBx->GCCFG |= USB_OTG_GCCFG_NOVBUSSENS;
1262:ThirdParty/STM32F4xx_HAL_Driver/Src/stm32f4xx_ll_usb.c **** #endif /* STM32F446xx || STM32F469xx || STM32F479xx || STM32F412Zx || STM32F412Rx || STM32F412Vx ||
1263:ThirdParty/STM32F4xx_HAL_Driver/Src/stm32f4xx_ll_usb.c **** 
1264:ThirdParty/STM32F4xx_HAL_Driver/Src/stm32f4xx_ll_usb.c ****   /* Disable the FS/LS support mode only */
1265:ThirdParty/STM32F4xx_HAL_Driver/Src/stm32f4xx_ll_usb.c ****   if((cfg.speed == USB_OTG_SPEED_FULL)&&
1266:ThirdParty/STM32F4xx_HAL_Driver/Src/stm32f4xx_ll_usb.c ****      (USBx != USB_OTG_FS))
1267:ThirdParty/STM32F4xx_HAL_Driver/Src/stm32f4xx_ll_usb.c ****   {
1268:ThirdParty/STM32F4xx_HAL_Driver/Src/stm32f4xx_ll_usb.c ****     USBx_HOST->HCFG |= USB_OTG_HCFG_FSLSS; 
1269:ThirdParty/STM32F4xx_HAL_Driver/Src/stm32f4xx_ll_usb.c ****   }
1270:ThirdParty/STM32F4xx_HAL_Driver/Src/stm32f4xx_ll_usb.c ****   else
1271:ThirdParty/STM32F4xx_HAL_Driver/Src/stm32f4xx_ll_usb.c ****   {
1272:ThirdParty/STM32F4xx_HAL_Driver/Src/stm32f4xx_ll_usb.c ****     USBx_HOST->HCFG &= ~(USB_OTG_HCFG_FSLSS);  
1273:ThirdParty/STM32F4xx_HAL_Driver/Src/stm32f4xx_ll_usb.c ****   }
1274:ThirdParty/STM32F4xx_HAL_Driver/Src/stm32f4xx_ll_usb.c **** 
1275:ThirdParty/STM32F4xx_HAL_Driver/Src/stm32f4xx_ll_usb.c ****   /* Make sure the FIFOs are flushed. */
1276:ThirdParty/STM32F4xx_HAL_Driver/Src/stm32f4xx_ll_usb.c ****   USB_FlushTxFifo(USBx, 0x10U); /* all Tx FIFOs */
1277:ThirdParty/STM32F4xx_HAL_Driver/Src/stm32f4xx_ll_usb.c ****   USB_FlushRxFifo(USBx);
1278:ThirdParty/STM32F4xx_HAL_Driver/Src/stm32f4xx_ll_usb.c **** 
1279:ThirdParty/STM32F4xx_HAL_Driver/Src/stm32f4xx_ll_usb.c ****   /* Clear all pending HC Interrupts */
1280:ThirdParty/STM32F4xx_HAL_Driver/Src/stm32f4xx_ll_usb.c ****   for (i = 0U; i < cfg.Host_channels; i++)
1281:ThirdParty/STM32F4xx_HAL_Driver/Src/stm32f4xx_ll_usb.c ****   {
1282:ThirdParty/STM32F4xx_HAL_Driver/Src/stm32f4xx_ll_usb.c ****     USBx_HC(i)->HCINT = 0xFFFFFFFFU;
1283:ThirdParty/STM32F4xx_HAL_Driver/Src/stm32f4xx_ll_usb.c ****     USBx_HC(i)->HCINTMSK = 0U;
ARM GAS  /tmp/ccCoVfPP.s 			page 24


1284:ThirdParty/STM32F4xx_HAL_Driver/Src/stm32f4xx_ll_usb.c ****   }
1285:ThirdParty/STM32F4xx_HAL_Driver/Src/stm32f4xx_ll_usb.c ****   
1286:ThirdParty/STM32F4xx_HAL_Driver/Src/stm32f4xx_ll_usb.c ****   /* Enable VBUS driving */
1287:ThirdParty/STM32F4xx_HAL_Driver/Src/stm32f4xx_ll_usb.c ****   USB_DriveVbus(USBx, 1U);
1288:ThirdParty/STM32F4xx_HAL_Driver/Src/stm32f4xx_ll_usb.c ****   
1289:ThirdParty/STM32F4xx_HAL_Driver/Src/stm32f4xx_ll_usb.c ****   HAL_Delay(200U);
1290:ThirdParty/STM32F4xx_HAL_Driver/Src/stm32f4xx_ll_usb.c ****   
1291:ThirdParty/STM32F4xx_HAL_Driver/Src/stm32f4xx_ll_usb.c ****   /* Disable all interrupts. */
1292:ThirdParty/STM32F4xx_HAL_Driver/Src/stm32f4xx_ll_usb.c ****   USBx->GINTMSK = 0U;
1293:ThirdParty/STM32F4xx_HAL_Driver/Src/stm32f4xx_ll_usb.c ****   
1294:ThirdParty/STM32F4xx_HAL_Driver/Src/stm32f4xx_ll_usb.c ****   /* Clear any pending interrupts */
1295:ThirdParty/STM32F4xx_HAL_Driver/Src/stm32f4xx_ll_usb.c ****   USBx->GINTSTS = 0xFFFFFFFFU;
1296:ThirdParty/STM32F4xx_HAL_Driver/Src/stm32f4xx_ll_usb.c ****   
1297:ThirdParty/STM32F4xx_HAL_Driver/Src/stm32f4xx_ll_usb.c ****   if(USBx == USB_OTG_FS)
1298:ThirdParty/STM32F4xx_HAL_Driver/Src/stm32f4xx_ll_usb.c ****   {
1299:ThirdParty/STM32F4xx_HAL_Driver/Src/stm32f4xx_ll_usb.c ****     /* set Rx FIFO size */
1300:ThirdParty/STM32F4xx_HAL_Driver/Src/stm32f4xx_ll_usb.c ****     USBx->GRXFSIZ  = 0x80U; 
1301:ThirdParty/STM32F4xx_HAL_Driver/Src/stm32f4xx_ll_usb.c ****     USBx->DIEPTXF0_HNPTXFSIZ = (uint32_t )(((0x60U << 16U)& USB_OTG_NPTXFD) | 0x80U);
1302:ThirdParty/STM32F4xx_HAL_Driver/Src/stm32f4xx_ll_usb.c ****     USBx->HPTXFSIZ = (uint32_t )(((0x40U << 16U)& USB_OTG_HPTXFSIZ_PTXFD) | 0xE0U);
1303:ThirdParty/STM32F4xx_HAL_Driver/Src/stm32f4xx_ll_usb.c ****   }
1304:ThirdParty/STM32F4xx_HAL_Driver/Src/stm32f4xx_ll_usb.c ****   else
1305:ThirdParty/STM32F4xx_HAL_Driver/Src/stm32f4xx_ll_usb.c ****   {
1306:ThirdParty/STM32F4xx_HAL_Driver/Src/stm32f4xx_ll_usb.c ****     /* set Rx FIFO size */
1307:ThirdParty/STM32F4xx_HAL_Driver/Src/stm32f4xx_ll_usb.c ****     USBx->GRXFSIZ  = 0x200U; 
1308:ThirdParty/STM32F4xx_HAL_Driver/Src/stm32f4xx_ll_usb.c ****     USBx->DIEPTXF0_HNPTXFSIZ = (uint32_t )(((0x100U << 16U)& USB_OTG_NPTXFD) | 0x200U);
1309:ThirdParty/STM32F4xx_HAL_Driver/Src/stm32f4xx_ll_usb.c ****     USBx->HPTXFSIZ = (uint32_t )(((0xE0U << 16U)& USB_OTG_HPTXFSIZ_PTXFD) | 0x300U);
1310:ThirdParty/STM32F4xx_HAL_Driver/Src/stm32f4xx_ll_usb.c ****   }
1311:ThirdParty/STM32F4xx_HAL_Driver/Src/stm32f4xx_ll_usb.c ****   
1312:ThirdParty/STM32F4xx_HAL_Driver/Src/stm32f4xx_ll_usb.c ****   /* Enable the common interrupts */
1313:ThirdParty/STM32F4xx_HAL_Driver/Src/stm32f4xx_ll_usb.c ****   if (cfg.dma_enable == DISABLE)
1314:ThirdParty/STM32F4xx_HAL_Driver/Src/stm32f4xx_ll_usb.c ****   {
1315:ThirdParty/STM32F4xx_HAL_Driver/Src/stm32f4xx_ll_usb.c ****     USBx->GINTMSK |= USB_OTG_GINTMSK_RXFLVLM; 
1316:ThirdParty/STM32F4xx_HAL_Driver/Src/stm32f4xx_ll_usb.c ****   }
1317:ThirdParty/STM32F4xx_HAL_Driver/Src/stm32f4xx_ll_usb.c ****   
1318:ThirdParty/STM32F4xx_HAL_Driver/Src/stm32f4xx_ll_usb.c ****   /* Enable interrupts matching to the Host mode ONLY */
1319:ThirdParty/STM32F4xx_HAL_Driver/Src/stm32f4xx_ll_usb.c ****   USBx->GINTMSK |= (USB_OTG_GINTMSK_PRTIM            | USB_OTG_GINTMSK_HCIM |\
1320:ThirdParty/STM32F4xx_HAL_Driver/Src/stm32f4xx_ll_usb.c ****                     USB_OTG_GINTMSK_SOFM             |USB_OTG_GINTSTS_DISCINT|\
1321:ThirdParty/STM32F4xx_HAL_Driver/Src/stm32f4xx_ll_usb.c ****                     USB_OTG_GINTMSK_PXFRM_IISOOXFRM  | USB_OTG_GINTMSK_WUIM);
1322:ThirdParty/STM32F4xx_HAL_Driver/Src/stm32f4xx_ll_usb.c **** 
1323:ThirdParty/STM32F4xx_HAL_Driver/Src/stm32f4xx_ll_usb.c ****   return HAL_OK;
1324:ThirdParty/STM32F4xx_HAL_Driver/Src/stm32f4xx_ll_usb.c **** }
1325:ThirdParty/STM32F4xx_HAL_Driver/Src/stm32f4xx_ll_usb.c **** 
1326:ThirdParty/STM32F4xx_HAL_Driver/Src/stm32f4xx_ll_usb.c **** /**
1327:ThirdParty/STM32F4xx_HAL_Driver/Src/stm32f4xx_ll_usb.c ****   * @brief  USB_InitFSLSPClkSel : Initializes the FSLSPClkSel field of the 
1328:ThirdParty/STM32F4xx_HAL_Driver/Src/stm32f4xx_ll_usb.c ****   *         HCFG register on the PHY type and set the right frame interval
1329:ThirdParty/STM32F4xx_HAL_Driver/Src/stm32f4xx_ll_usb.c ****   * @param  USBx  Selected device
1330:ThirdParty/STM32F4xx_HAL_Driver/Src/stm32f4xx_ll_usb.c ****   * @param  freq  clock frequency
1331:ThirdParty/STM32F4xx_HAL_Driver/Src/stm32f4xx_ll_usb.c ****   *          This parameter can be one of these values:
1332:ThirdParty/STM32F4xx_HAL_Driver/Src/stm32f4xx_ll_usb.c ****   *           HCFG_48_MHZ : Full Speed 48 MHz Clock 
1333:ThirdParty/STM32F4xx_HAL_Driver/Src/stm32f4xx_ll_usb.c ****   *           HCFG_6_MHZ : Low Speed 6 MHz Clock 
1334:ThirdParty/STM32F4xx_HAL_Driver/Src/stm32f4xx_ll_usb.c ****   * @retval HAL status
1335:ThirdParty/STM32F4xx_HAL_Driver/Src/stm32f4xx_ll_usb.c ****   */
1336:ThirdParty/STM32F4xx_HAL_Driver/Src/stm32f4xx_ll_usb.c **** HAL_StatusTypeDef USB_InitFSLSPClkSel(USB_OTG_GlobalTypeDef *USBx , uint8_t freq)
1337:ThirdParty/STM32F4xx_HAL_Driver/Src/stm32f4xx_ll_usb.c **** {
1338:ThirdParty/STM32F4xx_HAL_Driver/Src/stm32f4xx_ll_usb.c ****   USBx_HOST->HCFG &= ~(USB_OTG_HCFG_FSLSPCS);
1339:ThirdParty/STM32F4xx_HAL_Driver/Src/stm32f4xx_ll_usb.c ****   USBx_HOST->HCFG |= (freq & USB_OTG_HCFG_FSLSPCS);
1340:ThirdParty/STM32F4xx_HAL_Driver/Src/stm32f4xx_ll_usb.c ****   
ARM GAS  /tmp/ccCoVfPP.s 			page 25


1341:ThirdParty/STM32F4xx_HAL_Driver/Src/stm32f4xx_ll_usb.c ****   if (freq ==  HCFG_48_MHZ)
1342:ThirdParty/STM32F4xx_HAL_Driver/Src/stm32f4xx_ll_usb.c ****   {
1343:ThirdParty/STM32F4xx_HAL_Driver/Src/stm32f4xx_ll_usb.c ****     USBx_HOST->HFIR = 48000U;
1344:ThirdParty/STM32F4xx_HAL_Driver/Src/stm32f4xx_ll_usb.c ****   }
1345:ThirdParty/STM32F4xx_HAL_Driver/Src/stm32f4xx_ll_usb.c ****   else if (freq ==  HCFG_6_MHZ)
1346:ThirdParty/STM32F4xx_HAL_Driver/Src/stm32f4xx_ll_usb.c ****   {
1347:ThirdParty/STM32F4xx_HAL_Driver/Src/stm32f4xx_ll_usb.c ****     USBx_HOST->HFIR = 6000U;
1348:ThirdParty/STM32F4xx_HAL_Driver/Src/stm32f4xx_ll_usb.c ****   } 
1349:ThirdParty/STM32F4xx_HAL_Driver/Src/stm32f4xx_ll_usb.c ****   return HAL_OK;  
1350:ThirdParty/STM32F4xx_HAL_Driver/Src/stm32f4xx_ll_usb.c **** }
1351:ThirdParty/STM32F4xx_HAL_Driver/Src/stm32f4xx_ll_usb.c **** 
1352:ThirdParty/STM32F4xx_HAL_Driver/Src/stm32f4xx_ll_usb.c **** /**
1353:ThirdParty/STM32F4xx_HAL_Driver/Src/stm32f4xx_ll_usb.c **** * @brief  USB_OTG_ResetPort : Reset Host Port
1354:ThirdParty/STM32F4xx_HAL_Driver/Src/stm32f4xx_ll_usb.c ****   * @param  USBx  Selected device
1355:ThirdParty/STM32F4xx_HAL_Driver/Src/stm32f4xx_ll_usb.c ****   * @retval HAL status
1356:ThirdParty/STM32F4xx_HAL_Driver/Src/stm32f4xx_ll_usb.c ****   * @note   (1)The application must wait at least 10 ms
1357:ThirdParty/STM32F4xx_HAL_Driver/Src/stm32f4xx_ll_usb.c ****   *   before clearing the reset bit.
1358:ThirdParty/STM32F4xx_HAL_Driver/Src/stm32f4xx_ll_usb.c ****   */
1359:ThirdParty/STM32F4xx_HAL_Driver/Src/stm32f4xx_ll_usb.c **** HAL_StatusTypeDef USB_ResetPort(USB_OTG_GlobalTypeDef *USBx)
1360:ThirdParty/STM32F4xx_HAL_Driver/Src/stm32f4xx_ll_usb.c **** {
1361:ThirdParty/STM32F4xx_HAL_Driver/Src/stm32f4xx_ll_usb.c ****   __IO uint32_t hprt0;
1362:ThirdParty/STM32F4xx_HAL_Driver/Src/stm32f4xx_ll_usb.c ****   
1363:ThirdParty/STM32F4xx_HAL_Driver/Src/stm32f4xx_ll_usb.c ****   hprt0 = USBx_HPRT0;
1364:ThirdParty/STM32F4xx_HAL_Driver/Src/stm32f4xx_ll_usb.c ****   
1365:ThirdParty/STM32F4xx_HAL_Driver/Src/stm32f4xx_ll_usb.c ****   hprt0 &= ~(USB_OTG_HPRT_PENA    | USB_OTG_HPRT_PCDET |\
1366:ThirdParty/STM32F4xx_HAL_Driver/Src/stm32f4xx_ll_usb.c ****     USB_OTG_HPRT_PENCHNG | USB_OTG_HPRT_POCCHNG );
1367:ThirdParty/STM32F4xx_HAL_Driver/Src/stm32f4xx_ll_usb.c ****   
1368:ThirdParty/STM32F4xx_HAL_Driver/Src/stm32f4xx_ll_usb.c ****   USBx_HPRT0 = (USB_OTG_HPRT_PRST | hprt0);  
1369:ThirdParty/STM32F4xx_HAL_Driver/Src/stm32f4xx_ll_usb.c ****   HAL_Delay (10U);                                /* See Note #1 */
1370:ThirdParty/STM32F4xx_HAL_Driver/Src/stm32f4xx_ll_usb.c ****   USBx_HPRT0 = ((~USB_OTG_HPRT_PRST) & hprt0); 
1371:ThirdParty/STM32F4xx_HAL_Driver/Src/stm32f4xx_ll_usb.c ****   return HAL_OK;
1372:ThirdParty/STM32F4xx_HAL_Driver/Src/stm32f4xx_ll_usb.c **** }
1373:ThirdParty/STM32F4xx_HAL_Driver/Src/stm32f4xx_ll_usb.c **** 
1374:ThirdParty/STM32F4xx_HAL_Driver/Src/stm32f4xx_ll_usb.c **** /**
1375:ThirdParty/STM32F4xx_HAL_Driver/Src/stm32f4xx_ll_usb.c ****   * @brief  USB_DriveVbus : activate or de-activate vbus
1376:ThirdParty/STM32F4xx_HAL_Driver/Src/stm32f4xx_ll_usb.c ****   * @param  state  VBUS state
1377:ThirdParty/STM32F4xx_HAL_Driver/Src/stm32f4xx_ll_usb.c ****   *          This parameter can be one of these values:
1378:ThirdParty/STM32F4xx_HAL_Driver/Src/stm32f4xx_ll_usb.c ****   *           0 : VBUS Active 
1379:ThirdParty/STM32F4xx_HAL_Driver/Src/stm32f4xx_ll_usb.c ****   *           1 : VBUS Inactive
1380:ThirdParty/STM32F4xx_HAL_Driver/Src/stm32f4xx_ll_usb.c ****   * @retval HAL status
1381:ThirdParty/STM32F4xx_HAL_Driver/Src/stm32f4xx_ll_usb.c **** */
1382:ThirdParty/STM32F4xx_HAL_Driver/Src/stm32f4xx_ll_usb.c **** HAL_StatusTypeDef USB_DriveVbus (USB_OTG_GlobalTypeDef *USBx, uint8_t state)
1383:ThirdParty/STM32F4xx_HAL_Driver/Src/stm32f4xx_ll_usb.c **** {
1384:ThirdParty/STM32F4xx_HAL_Driver/Src/stm32f4xx_ll_usb.c ****   __IO uint32_t hprt0;
1385:ThirdParty/STM32F4xx_HAL_Driver/Src/stm32f4xx_ll_usb.c **** 
1386:ThirdParty/STM32F4xx_HAL_Driver/Src/stm32f4xx_ll_usb.c ****   hprt0 = USBx_HPRT0;
1387:ThirdParty/STM32F4xx_HAL_Driver/Src/stm32f4xx_ll_usb.c ****   hprt0 &= ~(USB_OTG_HPRT_PENA    | USB_OTG_HPRT_PCDET |\
1388:ThirdParty/STM32F4xx_HAL_Driver/Src/stm32f4xx_ll_usb.c ****                          USB_OTG_HPRT_PENCHNG | USB_OTG_HPRT_POCCHNG );
1389:ThirdParty/STM32F4xx_HAL_Driver/Src/stm32f4xx_ll_usb.c ****   
1390:ThirdParty/STM32F4xx_HAL_Driver/Src/stm32f4xx_ll_usb.c ****   if (((hprt0 & USB_OTG_HPRT_PPWR) == 0U) && (state == 1U))
1391:ThirdParty/STM32F4xx_HAL_Driver/Src/stm32f4xx_ll_usb.c ****   {
1392:ThirdParty/STM32F4xx_HAL_Driver/Src/stm32f4xx_ll_usb.c ****     USBx_HPRT0 = (USB_OTG_HPRT_PPWR | hprt0); 
1393:ThirdParty/STM32F4xx_HAL_Driver/Src/stm32f4xx_ll_usb.c ****   }
1394:ThirdParty/STM32F4xx_HAL_Driver/Src/stm32f4xx_ll_usb.c ****   if (((hprt0 & USB_OTG_HPRT_PPWR) == USB_OTG_HPRT_PPWR) && (state == 0U))
1395:ThirdParty/STM32F4xx_HAL_Driver/Src/stm32f4xx_ll_usb.c ****   {
1396:ThirdParty/STM32F4xx_HAL_Driver/Src/stm32f4xx_ll_usb.c ****     USBx_HPRT0 = ((~USB_OTG_HPRT_PPWR) & hprt0); 
1397:ThirdParty/STM32F4xx_HAL_Driver/Src/stm32f4xx_ll_usb.c ****   }
ARM GAS  /tmp/ccCoVfPP.s 			page 26


1398:ThirdParty/STM32F4xx_HAL_Driver/Src/stm32f4xx_ll_usb.c ****   return HAL_OK; 
1399:ThirdParty/STM32F4xx_HAL_Driver/Src/stm32f4xx_ll_usb.c **** }
1400:ThirdParty/STM32F4xx_HAL_Driver/Src/stm32f4xx_ll_usb.c **** 
1401:ThirdParty/STM32F4xx_HAL_Driver/Src/stm32f4xx_ll_usb.c **** /**
1402:ThirdParty/STM32F4xx_HAL_Driver/Src/stm32f4xx_ll_usb.c ****   * @brief  Return Host Core speed
1403:ThirdParty/STM32F4xx_HAL_Driver/Src/stm32f4xx_ll_usb.c ****   * @param  USBx  Selected device
1404:ThirdParty/STM32F4xx_HAL_Driver/Src/stm32f4xx_ll_usb.c ****   * @retval speed : Host speed
1405:ThirdParty/STM32F4xx_HAL_Driver/Src/stm32f4xx_ll_usb.c ****   *          This parameter can be one of these values:
1406:ThirdParty/STM32F4xx_HAL_Driver/Src/stm32f4xx_ll_usb.c ****   *            @arg USB_OTG_SPEED_HIGH: High speed mode
1407:ThirdParty/STM32F4xx_HAL_Driver/Src/stm32f4xx_ll_usb.c ****   *            @arg USB_OTG_SPEED_FULL: Full speed mode
1408:ThirdParty/STM32F4xx_HAL_Driver/Src/stm32f4xx_ll_usb.c ****   *            @arg USB_OTG_SPEED_LOW: Low speed mode
1409:ThirdParty/STM32F4xx_HAL_Driver/Src/stm32f4xx_ll_usb.c ****   */
1410:ThirdParty/STM32F4xx_HAL_Driver/Src/stm32f4xx_ll_usb.c **** uint32_t USB_GetHostSpeed (USB_OTG_GlobalTypeDef *USBx)
1411:ThirdParty/STM32F4xx_HAL_Driver/Src/stm32f4xx_ll_usb.c **** {
1412:ThirdParty/STM32F4xx_HAL_Driver/Src/stm32f4xx_ll_usb.c ****   __IO uint32_t hprt0;
1413:ThirdParty/STM32F4xx_HAL_Driver/Src/stm32f4xx_ll_usb.c ****   
1414:ThirdParty/STM32F4xx_HAL_Driver/Src/stm32f4xx_ll_usb.c ****   hprt0 = USBx_HPRT0;
1415:ThirdParty/STM32F4xx_HAL_Driver/Src/stm32f4xx_ll_usb.c ****   return ((hprt0 & USB_OTG_HPRT_PSPD) >> 17U);
1416:ThirdParty/STM32F4xx_HAL_Driver/Src/stm32f4xx_ll_usb.c **** }
1417:ThirdParty/STM32F4xx_HAL_Driver/Src/stm32f4xx_ll_usb.c **** 
1418:ThirdParty/STM32F4xx_HAL_Driver/Src/stm32f4xx_ll_usb.c **** /**
1419:ThirdParty/STM32F4xx_HAL_Driver/Src/stm32f4xx_ll_usb.c ****   * @brief  Return Host Current Frame number
1420:ThirdParty/STM32F4xx_HAL_Driver/Src/stm32f4xx_ll_usb.c ****   * @param  USBx  Selected device
1421:ThirdParty/STM32F4xx_HAL_Driver/Src/stm32f4xx_ll_usb.c ****   * @retval current frame number
1422:ThirdParty/STM32F4xx_HAL_Driver/Src/stm32f4xx_ll_usb.c **** */
1423:ThirdParty/STM32F4xx_HAL_Driver/Src/stm32f4xx_ll_usb.c **** uint32_t USB_GetCurrentFrame (USB_OTG_GlobalTypeDef *USBx)
1424:ThirdParty/STM32F4xx_HAL_Driver/Src/stm32f4xx_ll_usb.c **** {
1425:ThirdParty/STM32F4xx_HAL_Driver/Src/stm32f4xx_ll_usb.c ****   return (USBx_HOST->HFNUM & USB_OTG_HFNUM_FRNUM);
1426:ThirdParty/STM32F4xx_HAL_Driver/Src/stm32f4xx_ll_usb.c **** }
1427:ThirdParty/STM32F4xx_HAL_Driver/Src/stm32f4xx_ll_usb.c **** 
1428:ThirdParty/STM32F4xx_HAL_Driver/Src/stm32f4xx_ll_usb.c **** /**
1429:ThirdParty/STM32F4xx_HAL_Driver/Src/stm32f4xx_ll_usb.c ****   * @brief  Initialize a host channel
1430:ThirdParty/STM32F4xx_HAL_Driver/Src/stm32f4xx_ll_usb.c ****   * @param  USBx  Selected device
1431:ThirdParty/STM32F4xx_HAL_Driver/Src/stm32f4xx_ll_usb.c ****   * @param  ch_num  Channel number
1432:ThirdParty/STM32F4xx_HAL_Driver/Src/stm32f4xx_ll_usb.c ****   *         This parameter can be a value from 1 to 15
1433:ThirdParty/STM32F4xx_HAL_Driver/Src/stm32f4xx_ll_usb.c ****   * @param  epnum  Endpoint number
1434:ThirdParty/STM32F4xx_HAL_Driver/Src/stm32f4xx_ll_usb.c ****   *          This parameter can be a value from 1 to 15
1435:ThirdParty/STM32F4xx_HAL_Driver/Src/stm32f4xx_ll_usb.c ****   * @param  dev_address  Current device address
1436:ThirdParty/STM32F4xx_HAL_Driver/Src/stm32f4xx_ll_usb.c ****   *          This parameter can be a value from 0 to 255
1437:ThirdParty/STM32F4xx_HAL_Driver/Src/stm32f4xx_ll_usb.c ****   * @param  speed  Current device speed
1438:ThirdParty/STM32F4xx_HAL_Driver/Src/stm32f4xx_ll_usb.c ****   *          This parameter can be one of these values:
1439:ThirdParty/STM32F4xx_HAL_Driver/Src/stm32f4xx_ll_usb.c ****   *            @arg USB_OTG_SPEED_HIGH: High speed mode
1440:ThirdParty/STM32F4xx_HAL_Driver/Src/stm32f4xx_ll_usb.c ****   *            @arg USB_OTG_SPEED_FULL: Full speed mode
1441:ThirdParty/STM32F4xx_HAL_Driver/Src/stm32f4xx_ll_usb.c ****   *            @arg USB_OTG_SPEED_LOW: Low speed mode
1442:ThirdParty/STM32F4xx_HAL_Driver/Src/stm32f4xx_ll_usb.c ****   * @param  ep_type  Endpoint Type
1443:ThirdParty/STM32F4xx_HAL_Driver/Src/stm32f4xx_ll_usb.c ****   *          This parameter can be one of these values:
1444:ThirdParty/STM32F4xx_HAL_Driver/Src/stm32f4xx_ll_usb.c ****   *            @arg EP_TYPE_CTRL: Control type
1445:ThirdParty/STM32F4xx_HAL_Driver/Src/stm32f4xx_ll_usb.c ****   *            @arg EP_TYPE_ISOC: Isochronous type
1446:ThirdParty/STM32F4xx_HAL_Driver/Src/stm32f4xx_ll_usb.c ****   *            @arg EP_TYPE_BULK: Bulk type
1447:ThirdParty/STM32F4xx_HAL_Driver/Src/stm32f4xx_ll_usb.c ****   *            @arg EP_TYPE_INTR: Interrupt type
1448:ThirdParty/STM32F4xx_HAL_Driver/Src/stm32f4xx_ll_usb.c ****   * @param  mps  Max Packet Size
1449:ThirdParty/STM32F4xx_HAL_Driver/Src/stm32f4xx_ll_usb.c ****   *          This parameter can be a value from 0 to32K
1450:ThirdParty/STM32F4xx_HAL_Driver/Src/stm32f4xx_ll_usb.c ****   * @retval HAL state
1451:ThirdParty/STM32F4xx_HAL_Driver/Src/stm32f4xx_ll_usb.c ****   */
1452:ThirdParty/STM32F4xx_HAL_Driver/Src/stm32f4xx_ll_usb.c **** HAL_StatusTypeDef USB_HC_Init(USB_OTG_GlobalTypeDef *USBx,  
1453:ThirdParty/STM32F4xx_HAL_Driver/Src/stm32f4xx_ll_usb.c ****                               uint8_t ch_num,
1454:ThirdParty/STM32F4xx_HAL_Driver/Src/stm32f4xx_ll_usb.c ****                               uint8_t epnum,
ARM GAS  /tmp/ccCoVfPP.s 			page 27


1455:ThirdParty/STM32F4xx_HAL_Driver/Src/stm32f4xx_ll_usb.c ****                               uint8_t dev_address,
1456:ThirdParty/STM32F4xx_HAL_Driver/Src/stm32f4xx_ll_usb.c ****                               uint8_t speed,
1457:ThirdParty/STM32F4xx_HAL_Driver/Src/stm32f4xx_ll_usb.c ****                               uint8_t ep_type,
1458:ThirdParty/STM32F4xx_HAL_Driver/Src/stm32f4xx_ll_usb.c ****                               uint16_t mps)
1459:ThirdParty/STM32F4xx_HAL_Driver/Src/stm32f4xx_ll_usb.c **** {
1460:ThirdParty/STM32F4xx_HAL_Driver/Src/stm32f4xx_ll_usb.c ****     
1461:ThirdParty/STM32F4xx_HAL_Driver/Src/stm32f4xx_ll_usb.c ****   /* Clear old interrupt conditions for this host channel. */
1462:ThirdParty/STM32F4xx_HAL_Driver/Src/stm32f4xx_ll_usb.c ****   USBx_HC(ch_num)->HCINT = 0xFFFFFFFFU;
1463:ThirdParty/STM32F4xx_HAL_Driver/Src/stm32f4xx_ll_usb.c ****   
1464:ThirdParty/STM32F4xx_HAL_Driver/Src/stm32f4xx_ll_usb.c ****   /* Enable channel interrupts required for this transfer. */
1465:ThirdParty/STM32F4xx_HAL_Driver/Src/stm32f4xx_ll_usb.c ****   switch (ep_type) 
1466:ThirdParty/STM32F4xx_HAL_Driver/Src/stm32f4xx_ll_usb.c ****   {
1467:ThirdParty/STM32F4xx_HAL_Driver/Src/stm32f4xx_ll_usb.c ****   case EP_TYPE_CTRL:
1468:ThirdParty/STM32F4xx_HAL_Driver/Src/stm32f4xx_ll_usb.c ****   case EP_TYPE_BULK:
1469:ThirdParty/STM32F4xx_HAL_Driver/Src/stm32f4xx_ll_usb.c ****     
1470:ThirdParty/STM32F4xx_HAL_Driver/Src/stm32f4xx_ll_usb.c ****     USBx_HC(ch_num)->HCINTMSK = USB_OTG_HCINTMSK_XFRCM  |\
1471:ThirdParty/STM32F4xx_HAL_Driver/Src/stm32f4xx_ll_usb.c ****                                 USB_OTG_HCINTMSK_STALLM |\
1472:ThirdParty/STM32F4xx_HAL_Driver/Src/stm32f4xx_ll_usb.c ****                                 USB_OTG_HCINTMSK_TXERRM |\
1473:ThirdParty/STM32F4xx_HAL_Driver/Src/stm32f4xx_ll_usb.c ****                                 USB_OTG_HCINTMSK_DTERRM |\
1474:ThirdParty/STM32F4xx_HAL_Driver/Src/stm32f4xx_ll_usb.c ****                                 USB_OTG_HCINTMSK_AHBERR |\
1475:ThirdParty/STM32F4xx_HAL_Driver/Src/stm32f4xx_ll_usb.c ****                                 USB_OTG_HCINTMSK_NAKM ;
1476:ThirdParty/STM32F4xx_HAL_Driver/Src/stm32f4xx_ll_usb.c ****  
1477:ThirdParty/STM32F4xx_HAL_Driver/Src/stm32f4xx_ll_usb.c ****     if (epnum & 0x80U) 
1478:ThirdParty/STM32F4xx_HAL_Driver/Src/stm32f4xx_ll_usb.c ****     {
1479:ThirdParty/STM32F4xx_HAL_Driver/Src/stm32f4xx_ll_usb.c ****       USBx_HC(ch_num)->HCINTMSK |= USB_OTG_HCINTMSK_BBERRM;
1480:ThirdParty/STM32F4xx_HAL_Driver/Src/stm32f4xx_ll_usb.c ****     } 
1481:ThirdParty/STM32F4xx_HAL_Driver/Src/stm32f4xx_ll_usb.c ****     else 
1482:ThirdParty/STM32F4xx_HAL_Driver/Src/stm32f4xx_ll_usb.c ****     {
1483:ThirdParty/STM32F4xx_HAL_Driver/Src/stm32f4xx_ll_usb.c ****       if(USBx != USB_OTG_FS)
1484:ThirdParty/STM32F4xx_HAL_Driver/Src/stm32f4xx_ll_usb.c ****       {
1485:ThirdParty/STM32F4xx_HAL_Driver/Src/stm32f4xx_ll_usb.c ****         USBx_HC(ch_num)->HCINTMSK |= (USB_OTG_HCINTMSK_NYET | USB_OTG_HCINTMSK_ACKM);
1486:ThirdParty/STM32F4xx_HAL_Driver/Src/stm32f4xx_ll_usb.c ****       }
1487:ThirdParty/STM32F4xx_HAL_Driver/Src/stm32f4xx_ll_usb.c ****     }
1488:ThirdParty/STM32F4xx_HAL_Driver/Src/stm32f4xx_ll_usb.c ****     break;
1489:ThirdParty/STM32F4xx_HAL_Driver/Src/stm32f4xx_ll_usb.c ****     
1490:ThirdParty/STM32F4xx_HAL_Driver/Src/stm32f4xx_ll_usb.c ****   case EP_TYPE_INTR:
1491:ThirdParty/STM32F4xx_HAL_Driver/Src/stm32f4xx_ll_usb.c ****     
1492:ThirdParty/STM32F4xx_HAL_Driver/Src/stm32f4xx_ll_usb.c ****     USBx_HC(ch_num)->HCINTMSK = USB_OTG_HCINTMSK_XFRCM  |\
1493:ThirdParty/STM32F4xx_HAL_Driver/Src/stm32f4xx_ll_usb.c ****                                 USB_OTG_HCINTMSK_STALLM |\
1494:ThirdParty/STM32F4xx_HAL_Driver/Src/stm32f4xx_ll_usb.c ****                                 USB_OTG_HCINTMSK_TXERRM |\
1495:ThirdParty/STM32F4xx_HAL_Driver/Src/stm32f4xx_ll_usb.c ****                                 USB_OTG_HCINTMSK_DTERRM |\
1496:ThirdParty/STM32F4xx_HAL_Driver/Src/stm32f4xx_ll_usb.c ****                                 USB_OTG_HCINTMSK_NAKM   |\
1497:ThirdParty/STM32F4xx_HAL_Driver/Src/stm32f4xx_ll_usb.c ****                                 USB_OTG_HCINTMSK_AHBERR |\
1498:ThirdParty/STM32F4xx_HAL_Driver/Src/stm32f4xx_ll_usb.c ****                                 USB_OTG_HCINTMSK_FRMORM ;    
1499:ThirdParty/STM32F4xx_HAL_Driver/Src/stm32f4xx_ll_usb.c ****     
1500:ThirdParty/STM32F4xx_HAL_Driver/Src/stm32f4xx_ll_usb.c ****     if (epnum & 0x80U) 
1501:ThirdParty/STM32F4xx_HAL_Driver/Src/stm32f4xx_ll_usb.c ****     {
1502:ThirdParty/STM32F4xx_HAL_Driver/Src/stm32f4xx_ll_usb.c ****       USBx_HC(ch_num)->HCINTMSK |= USB_OTG_HCINTMSK_BBERRM;
1503:ThirdParty/STM32F4xx_HAL_Driver/Src/stm32f4xx_ll_usb.c ****     }
1504:ThirdParty/STM32F4xx_HAL_Driver/Src/stm32f4xx_ll_usb.c ****     
1505:ThirdParty/STM32F4xx_HAL_Driver/Src/stm32f4xx_ll_usb.c ****     break;
1506:ThirdParty/STM32F4xx_HAL_Driver/Src/stm32f4xx_ll_usb.c ****   case EP_TYPE_ISOC:
1507:ThirdParty/STM32F4xx_HAL_Driver/Src/stm32f4xx_ll_usb.c ****     
1508:ThirdParty/STM32F4xx_HAL_Driver/Src/stm32f4xx_ll_usb.c ****     USBx_HC(ch_num)->HCINTMSK = USB_OTG_HCINTMSK_XFRCM  |\
1509:ThirdParty/STM32F4xx_HAL_Driver/Src/stm32f4xx_ll_usb.c ****                                 USB_OTG_HCINTMSK_ACKM   |\
1510:ThirdParty/STM32F4xx_HAL_Driver/Src/stm32f4xx_ll_usb.c ****                                 USB_OTG_HCINTMSK_AHBERR |\
1511:ThirdParty/STM32F4xx_HAL_Driver/Src/stm32f4xx_ll_usb.c ****                                 USB_OTG_HCINTMSK_FRMORM ;   
ARM GAS  /tmp/ccCoVfPP.s 			page 28


1512:ThirdParty/STM32F4xx_HAL_Driver/Src/stm32f4xx_ll_usb.c ****     
1513:ThirdParty/STM32F4xx_HAL_Driver/Src/stm32f4xx_ll_usb.c ****     if (epnum & 0x80U) 
1514:ThirdParty/STM32F4xx_HAL_Driver/Src/stm32f4xx_ll_usb.c ****     {
1515:ThirdParty/STM32F4xx_HAL_Driver/Src/stm32f4xx_ll_usb.c ****       USBx_HC(ch_num)->HCINTMSK |= (USB_OTG_HCINTMSK_TXERRM | USB_OTG_HCINTMSK_BBERRM);      
1516:ThirdParty/STM32F4xx_HAL_Driver/Src/stm32f4xx_ll_usb.c ****     }
1517:ThirdParty/STM32F4xx_HAL_Driver/Src/stm32f4xx_ll_usb.c ****     break;
1518:ThirdParty/STM32F4xx_HAL_Driver/Src/stm32f4xx_ll_usb.c ****   }
1519:ThirdParty/STM32F4xx_HAL_Driver/Src/stm32f4xx_ll_usb.c ****   
1520:ThirdParty/STM32F4xx_HAL_Driver/Src/stm32f4xx_ll_usb.c ****   /* Enable the top level host channel interrupt. */
1521:ThirdParty/STM32F4xx_HAL_Driver/Src/stm32f4xx_ll_usb.c ****   USBx_HOST->HAINTMSK |= (1 << ch_num);
1522:ThirdParty/STM32F4xx_HAL_Driver/Src/stm32f4xx_ll_usb.c ****   
1523:ThirdParty/STM32F4xx_HAL_Driver/Src/stm32f4xx_ll_usb.c ****   /* Make sure host channel interrupts are enabled. */
1524:ThirdParty/STM32F4xx_HAL_Driver/Src/stm32f4xx_ll_usb.c ****   USBx->GINTMSK |= USB_OTG_GINTMSK_HCIM;
1525:ThirdParty/STM32F4xx_HAL_Driver/Src/stm32f4xx_ll_usb.c ****   
1526:ThirdParty/STM32F4xx_HAL_Driver/Src/stm32f4xx_ll_usb.c ****   /* Program the HCCHAR register */
1527:ThirdParty/STM32F4xx_HAL_Driver/Src/stm32f4xx_ll_usb.c ****   USBx_HC(ch_num)->HCCHAR = (((dev_address << 22U) & USB_OTG_HCCHAR_DAD)  |\
1528:ThirdParty/STM32F4xx_HAL_Driver/Src/stm32f4xx_ll_usb.c ****                              (((epnum & 0x7FU)<< 11U) & USB_OTG_HCCHAR_EPNUM)|\
1529:ThirdParty/STM32F4xx_HAL_Driver/Src/stm32f4xx_ll_usb.c ****                              ((((epnum & 0x80U) == 0x80U)<< 15U) & USB_OTG_HCCHAR_EPDIR)|\
1530:ThirdParty/STM32F4xx_HAL_Driver/Src/stm32f4xx_ll_usb.c ****                              (((speed == USB_OTG_SPEED_LOW)<< 17U) & USB_OTG_HCCHAR_LSDEV)|\
1531:ThirdParty/STM32F4xx_HAL_Driver/Src/stm32f4xx_ll_usb.c ****                              ((ep_type << 18U) & USB_OTG_HCCHAR_EPTYP)|\
1532:ThirdParty/STM32F4xx_HAL_Driver/Src/stm32f4xx_ll_usb.c ****                              (mps & USB_OTG_HCCHAR_MPSIZ));
1533:ThirdParty/STM32F4xx_HAL_Driver/Src/stm32f4xx_ll_usb.c ****     
1534:ThirdParty/STM32F4xx_HAL_Driver/Src/stm32f4xx_ll_usb.c ****   if (ep_type == EP_TYPE_INTR)
1535:ThirdParty/STM32F4xx_HAL_Driver/Src/stm32f4xx_ll_usb.c ****   {
1536:ThirdParty/STM32F4xx_HAL_Driver/Src/stm32f4xx_ll_usb.c ****     USBx_HC(ch_num)->HCCHAR |= USB_OTG_HCCHAR_ODDFRM ;
1537:ThirdParty/STM32F4xx_HAL_Driver/Src/stm32f4xx_ll_usb.c ****   }
1538:ThirdParty/STM32F4xx_HAL_Driver/Src/stm32f4xx_ll_usb.c **** 
1539:ThirdParty/STM32F4xx_HAL_Driver/Src/stm32f4xx_ll_usb.c ****   return HAL_OK; 
1540:ThirdParty/STM32F4xx_HAL_Driver/Src/stm32f4xx_ll_usb.c **** }
1541:ThirdParty/STM32F4xx_HAL_Driver/Src/stm32f4xx_ll_usb.c **** 
1542:ThirdParty/STM32F4xx_HAL_Driver/Src/stm32f4xx_ll_usb.c **** /**
1543:ThirdParty/STM32F4xx_HAL_Driver/Src/stm32f4xx_ll_usb.c ****   * @brief  Start a transfer over a host channel
1544:ThirdParty/STM32F4xx_HAL_Driver/Src/stm32f4xx_ll_usb.c ****   * @param  USBx  Selected device
1545:ThirdParty/STM32F4xx_HAL_Driver/Src/stm32f4xx_ll_usb.c ****   * @param  hc  pointer to host channel structure
1546:ThirdParty/STM32F4xx_HAL_Driver/Src/stm32f4xx_ll_usb.c ****   * @param  dma USB dma enabled or disabled 
1547:ThirdParty/STM32F4xx_HAL_Driver/Src/stm32f4xx_ll_usb.c ****   *          This parameter can be one of these values:
1548:ThirdParty/STM32F4xx_HAL_Driver/Src/stm32f4xx_ll_usb.c ****   *           0 : DMA feature not used 
1549:ThirdParty/STM32F4xx_HAL_Driver/Src/stm32f4xx_ll_usb.c ****   *           1 : DMA feature used  
1550:ThirdParty/STM32F4xx_HAL_Driver/Src/stm32f4xx_ll_usb.c ****   * @retval HAL state
1551:ThirdParty/STM32F4xx_HAL_Driver/Src/stm32f4xx_ll_usb.c ****   */
1552:ThirdParty/STM32F4xx_HAL_Driver/Src/stm32f4xx_ll_usb.c **** #if defined   (__CC_ARM) /*!< ARM Compiler */
1553:ThirdParty/STM32F4xx_HAL_Driver/Src/stm32f4xx_ll_usb.c **** #pragma O0
1554:ThirdParty/STM32F4xx_HAL_Driver/Src/stm32f4xx_ll_usb.c **** #elif defined (__GNUC__) /*!< GNU Compiler */
1555:ThirdParty/STM32F4xx_HAL_Driver/Src/stm32f4xx_ll_usb.c **** #pragma GCC optimize ("O0")
1556:ThirdParty/STM32F4xx_HAL_Driver/Src/stm32f4xx_ll_usb.c **** #endif /* __CC_ARM */
1557:ThirdParty/STM32F4xx_HAL_Driver/Src/stm32f4xx_ll_usb.c **** HAL_StatusTypeDef USB_HC_StartXfer(USB_OTG_GlobalTypeDef *USBx, USB_OTG_HCTypeDef *hc, uint8_t dma)
1558:ThirdParty/STM32F4xx_HAL_Driver/Src/stm32f4xx_ll_usb.c **** {
  30              		.loc 1 1558 1 view -0
  31              		.cfi_startproc
  32              		@ args = 0, pretend = 0, frame = 32
  33              		@ frame_needed = 1, uses_anonymous_args = 0
  34              		.loc 1 1558 1 is_stmt 0 view .LVU1
  35 0000 80B5     		push	{r7, lr}
  36              	.LCFI0:
  37              		.cfi_def_cfa_offset 8
  38              		.cfi_offset 7, -8
  39              		.cfi_offset 14, -4
ARM GAS  /tmp/ccCoVfPP.s 			page 29


  40 0002 8AB0     		sub	sp, sp, #40
  41              	.LCFI1:
  42              		.cfi_def_cfa_offset 48
  43 0004 02AF     		add	r7, sp, #8
  44              	.LCFI2:
  45              		.cfi_def_cfa 7, 40
  46 0006 F860     		str	r0, [r7, #12]
  47 0008 B960     		str	r1, [r7, #8]
  48 000a 1346     		mov	r3, r2
  49 000c FB71     		strb	r3, [r7, #7]
1559:ThirdParty/STM32F4xx_HAL_Driver/Src/stm32f4xx_ll_usb.c ****   uint8_t  is_oddframe = 0; 
  50              		.loc 1 1559 3 is_stmt 1 view .LVU2
  51              		.loc 1 1559 12 is_stmt 0 view .LVU3
  52 000e 0023     		movs	r3, #0
  53 0010 7B77     		strb	r3, [r7, #29]
  54              	.LVL1:
1560:ThirdParty/STM32F4xx_HAL_Driver/Src/stm32f4xx_ll_usb.c ****   uint16_t len_words = 0;   
  55              		.loc 1 1560 3 is_stmt 1 view .LVU4
  56              		.loc 1 1560 12 is_stmt 0 view .LVU5
  57 0012 0023     		movs	r3, #0
  58              	.LVL2:
  59              		.loc 1 1560 12 view .LVU6
  60 0014 7B83     		strh	r3, [r7, #26]	@ movhi
  61              	.LVL3:
1561:ThirdParty/STM32F4xx_HAL_Driver/Src/stm32f4xx_ll_usb.c ****   uint16_t num_packets = 0;
  62              		.loc 1 1561 3 is_stmt 1 view .LVU7
  63              		.loc 1 1561 12 is_stmt 0 view .LVU8
  64 0016 0023     		movs	r3, #0
  65              	.LVL4:
  66              		.loc 1 1561 12 view .LVU9
  67 0018 FB83     		strh	r3, [r7, #30]	@ movhi
  68              	.LVL5:
1562:ThirdParty/STM32F4xx_HAL_Driver/Src/stm32f4xx_ll_usb.c ****   uint16_t max_hc_pkt_count = 256;
  69              		.loc 1 1562 3 is_stmt 1 view .LVU10
  70              		.loc 1 1562 12 is_stmt 0 view .LVU11
  71 001a 4FF48073 		mov	r3, #256
  72              	.LVL6:
  73              		.loc 1 1562 12 view .LVU12
  74 001e 3B83     		strh	r3, [r7, #24]	@ movhi
  75              	.LVL7:
1563:ThirdParty/STM32F4xx_HAL_Driver/Src/stm32f4xx_ll_usb.c ****   uint32_t tmpreg = 0U;
  76              		.loc 1 1563 3 is_stmt 1 view .LVU13
  77              		.loc 1 1563 12 is_stmt 0 view .LVU14
  78 0020 0023     		movs	r3, #0
  79              	.LVL8:
  80              		.loc 1 1563 12 view .LVU15
  81 0022 7B61     		str	r3, [r7, #20]
  82              	.LVL9:
1564:ThirdParty/STM32F4xx_HAL_Driver/Src/stm32f4xx_ll_usb.c ****     
1565:ThirdParty/STM32F4xx_HAL_Driver/Src/stm32f4xx_ll_usb.c ****   if((USBx != USB_OTG_FS) && (hc->speed == USB_OTG_SPEED_HIGH))
  83              		.loc 1 1565 3 is_stmt 1 view .LVU16
  84              		.loc 1 1565 5 is_stmt 0 view .LVU17
  85 0024 FB68     		ldr	r3, [r7, #12]
  86              	.LVL10:
  87              		.loc 1 1565 5 view .LVU18
  88 0026 B3F1A04F 		cmp	r3, #1342177280
  89 002a 2AD0     		beq	.L2
ARM GAS  /tmp/ccCoVfPP.s 			page 30


  90              		.loc 1 1565 33 discriminator 1 view .LVU19
  91 002c BB68     		ldr	r3, [r7, #8]
  92 002e 1B79     		ldrb	r3, [r3, #4]	@ zero_extendqisi2
  93              		.loc 1 1565 27 discriminator 1 view .LVU20
  94 0030 002B     		cmp	r3, #0
  95 0032 26D1     		bne	.L2
1566:ThirdParty/STM32F4xx_HAL_Driver/Src/stm32f4xx_ll_usb.c ****   {
1567:ThirdParty/STM32F4xx_HAL_Driver/Src/stm32f4xx_ll_usb.c ****     if((dma == 0) && (hc->do_ping == 1U))
  96              		.loc 1 1567 5 is_stmt 1 view .LVU21
  97              		.loc 1 1567 7 is_stmt 0 view .LVU22
  98 0034 FB79     		ldrb	r3, [r7, #7]	@ zero_extendqisi2
  99 0036 002B     		cmp	r3, #0
 100 0038 0BD1     		bne	.L3
 101              		.loc 1 1567 25 discriminator 1 view .LVU23
 102 003a BB68     		ldr	r3, [r7, #8]
 103 003c 5B79     		ldrb	r3, [r3, #5]	@ zero_extendqisi2
 104              		.loc 1 1567 19 discriminator 1 view .LVU24
 105 003e 012B     		cmp	r3, #1
 106 0040 07D1     		bne	.L3
1568:ThirdParty/STM32F4xx_HAL_Driver/Src/stm32f4xx_ll_usb.c ****     {
1569:ThirdParty/STM32F4xx_HAL_Driver/Src/stm32f4xx_ll_usb.c ****       USB_DoPing(USBx, hc->ch_num);
 107              		.loc 1 1569 7 is_stmt 1 view .LVU25
 108 0042 BB68     		ldr	r3, [r7, #8]
 109 0044 5B78     		ldrb	r3, [r3, #1]	@ zero_extendqisi2
 110 0046 1946     		mov	r1, r3
 111              	.LVL11:
 112              		.loc 1 1569 7 is_stmt 0 view .LVU26
 113 0048 F868     		ldr	r0, [r7, #12]
 114              		.loc 1 1569 7 view .LVU27
 115 004a FFF7FEFF 		bl	USB_DoPing
 116              	.LVL12:
1570:ThirdParty/STM32F4xx_HAL_Driver/Src/stm32f4xx_ll_usb.c ****       return HAL_OK;
 117              		.loc 1 1570 7 is_stmt 1 view .LVU28
 118              		.loc 1 1570 14 is_stmt 0 view .LVU29
 119 004e 0023     		movs	r3, #0
 120 0050 08E1     		b	.L4
 121              	.LVL13:
 122              	.L3:
1571:ThirdParty/STM32F4xx_HAL_Driver/Src/stm32f4xx_ll_usb.c ****     }
1572:ThirdParty/STM32F4xx_HAL_Driver/Src/stm32f4xx_ll_usb.c ****     else if(dma == 1)
 123              		.loc 1 1572 10 is_stmt 1 view .LVU30
 124              		.loc 1 1572 12 is_stmt 0 view .LVU31
 125 0052 FB79     		ldrb	r3, [r7, #7]	@ zero_extendqisi2
 126 0054 012B     		cmp	r3, #1
 127 0056 14D1     		bne	.L2
1573:ThirdParty/STM32F4xx_HAL_Driver/Src/stm32f4xx_ll_usb.c ****     {
1574:ThirdParty/STM32F4xx_HAL_Driver/Src/stm32f4xx_ll_usb.c ****       USBx_HC(hc->ch_num)->HCINTMSK &= ~(USB_OTG_HCINTMSK_NYET | USB_OTG_HCINTMSK_ACKM);
 128              		.loc 1 1574 7 is_stmt 1 view .LVU32
 129 0058 BB68     		ldr	r3, [r7, #8]
 130 005a 5B78     		ldrb	r3, [r3, #1]	@ zero_extendqisi2
 131              		.loc 1 1574 37 is_stmt 0 view .LVU33
 132 005c 5A01     		lsls	r2, r3, #5
 133              	.LVL14:
 134              		.loc 1 1574 37 view .LVU34
 135 005e FB68     		ldr	r3, [r7, #12]
 136 0060 1344     		add	r3, r3, r2
 137 0062 03F5A063 		add	r3, r3, #1280
ARM GAS  /tmp/ccCoVfPP.s 			page 31


 138 0066 DB68     		ldr	r3, [r3, #12]
 139              		.loc 1 1574 7 view .LVU35
 140 0068 BA68     		ldr	r2, [r7, #8]
 141 006a 5278     		ldrb	r2, [r2, #1]	@ zero_extendqisi2
 142              		.loc 1 1574 37 view .LVU36
 143 006c 5101     		lsls	r1, r2, #5
 144              	.LVL15:
 145              		.loc 1 1574 37 view .LVU37
 146 006e FA68     		ldr	r2, [r7, #12]
 147 0070 0A44     		add	r2, r2, r1
 148 0072 02F5A062 		add	r2, r2, #1280
 149 0076 23F06003 		bic	r3, r3, #96
 150 007a D360     		str	r3, [r2, #12]
1575:ThirdParty/STM32F4xx_HAL_Driver/Src/stm32f4xx_ll_usb.c ****       hc->do_ping = 0U;
 151              		.loc 1 1575 7 is_stmt 1 view .LVU38
 152              		.loc 1 1575 19 is_stmt 0 view .LVU39
 153 007c BB68     		ldr	r3, [r7, #8]
 154 007e 0022     		movs	r2, #0
 155 0080 5A71     		strb	r2, [r3, #5]
 156              	.L2:
1576:ThirdParty/STM32F4xx_HAL_Driver/Src/stm32f4xx_ll_usb.c ****     }
1577:ThirdParty/STM32F4xx_HAL_Driver/Src/stm32f4xx_ll_usb.c ****   }
1578:ThirdParty/STM32F4xx_HAL_Driver/Src/stm32f4xx_ll_usb.c ****   
1579:ThirdParty/STM32F4xx_HAL_Driver/Src/stm32f4xx_ll_usb.c ****   /* Compute the expected number of packets associated to the transfer */
1580:ThirdParty/STM32F4xx_HAL_Driver/Src/stm32f4xx_ll_usb.c ****   if (hc->xfer_len > 0U)
 157              		.loc 1 1580 3 is_stmt 1 view .LVU40
 158              		.loc 1 1580 9 is_stmt 0 view .LVU41
 159 0082 BB68     		ldr	r3, [r7, #8]
 160 0084 1B69     		ldr	r3, [r3, #16]
 161              		.loc 1 1580 6 view .LVU42
 162 0086 002B     		cmp	r3, #0
 163 0088 19D0     		beq	.L5
1581:ThirdParty/STM32F4xx_HAL_Driver/Src/stm32f4xx_ll_usb.c ****   {
1582:ThirdParty/STM32F4xx_HAL_Driver/Src/stm32f4xx_ll_usb.c ****     num_packets = (hc->xfer_len + hc->max_packet - 1U) / hc->max_packet;
 164              		.loc 1 1582 5 is_stmt 1 view .LVU43
 165              		.loc 1 1582 22 is_stmt 0 view .LVU44
 166 008a BB68     		ldr	r3, [r7, #8]
 167 008c 1B69     		ldr	r3, [r3, #16]
 168              		.loc 1 1582 37 view .LVU45
 169 008e BA68     		ldr	r2, [r7, #8]
 170 0090 1289     		ldrh	r2, [r2, #8]
 171              		.loc 1 1582 33 view .LVU46
 172 0092 1344     		add	r3, r3, r2
 173              		.loc 1 1582 50 view .LVU47
 174 0094 013B     		subs	r3, r3, #1
 175              		.loc 1 1582 60 view .LVU48
 176 0096 BA68     		ldr	r2, [r7, #8]
 177 0098 1289     		ldrh	r2, [r2, #8]
 178              		.loc 1 1582 56 view .LVU49
 179 009a B3FBF2F3 		udiv	r3, r3, r2
 180              		.loc 1 1582 17 view .LVU50
 181 009e FB83     		strh	r3, [r7, #30]	@ movhi
 182              	.LVL16:
1583:ThirdParty/STM32F4xx_HAL_Driver/Src/stm32f4xx_ll_usb.c ****     
1584:ThirdParty/STM32F4xx_HAL_Driver/Src/stm32f4xx_ll_usb.c ****     if (num_packets > max_hc_pkt_count)
 183              		.loc 1 1584 5 is_stmt 1 view .LVU51
 184              		.loc 1 1584 8 is_stmt 0 view .LVU52
ARM GAS  /tmp/ccCoVfPP.s 			page 32


 185 00a0 FA8B     		ldrh	r2, [r7, #30]
 186 00a2 3B8B     		ldrh	r3, [r7, #24]
 187              	.LVL17:
 188              		.loc 1 1584 8 view .LVU53
 189 00a4 9A42     		cmp	r2, r3
 190 00a6 0CD9     		bls	.L6
1585:ThirdParty/STM32F4xx_HAL_Driver/Src/stm32f4xx_ll_usb.c ****     {
1586:ThirdParty/STM32F4xx_HAL_Driver/Src/stm32f4xx_ll_usb.c ****       num_packets = max_hc_pkt_count;
 191              		.loc 1 1586 7 is_stmt 1 view .LVU54
 192              		.loc 1 1586 19 is_stmt 0 view .LVU55
 193 00a8 3B8B     		ldrh	r3, [r7, #24]	@ movhi
 194 00aa FB83     		strh	r3, [r7, #30]	@ movhi
 195              	.LVL18:
1587:ThirdParty/STM32F4xx_HAL_Driver/Src/stm32f4xx_ll_usb.c ****       hc->xfer_len = num_packets * hc->max_packet;
 196              		.loc 1 1587 7 is_stmt 1 view .LVU56
 197              		.loc 1 1587 34 is_stmt 0 view .LVU57
 198 00ac FB8B     		ldrh	r3, [r7, #30]
 199              	.LVL19:
 200              		.loc 1 1587 38 view .LVU58
 201 00ae BA68     		ldr	r2, [r7, #8]
 202 00b0 1289     		ldrh	r2, [r2, #8]
 203              		.loc 1 1587 34 view .LVU59
 204 00b2 02FB03F3 		mul	r3, r2, r3
 205 00b6 1A46     		mov	r2, r3
 206              		.loc 1 1587 20 view .LVU60
 207 00b8 BB68     		ldr	r3, [r7, #8]
 208 00ba 1A61     		str	r2, [r3, #16]
 209 00bc 01E0     		b	.L6
 210              	.L5:
1588:ThirdParty/STM32F4xx_HAL_Driver/Src/stm32f4xx_ll_usb.c ****     }
1589:ThirdParty/STM32F4xx_HAL_Driver/Src/stm32f4xx_ll_usb.c ****   }
1590:ThirdParty/STM32F4xx_HAL_Driver/Src/stm32f4xx_ll_usb.c ****   else
1591:ThirdParty/STM32F4xx_HAL_Driver/Src/stm32f4xx_ll_usb.c ****   {
1592:ThirdParty/STM32F4xx_HAL_Driver/Src/stm32f4xx_ll_usb.c ****     num_packets = 1;
 211              		.loc 1 1592 5 is_stmt 1 view .LVU61
 212              		.loc 1 1592 17 is_stmt 0 view .LVU62
 213 00be 0123     		movs	r3, #1
 214 00c0 FB83     		strh	r3, [r7, #30]	@ movhi
 215              	.LVL20:
 216              	.L6:
1593:ThirdParty/STM32F4xx_HAL_Driver/Src/stm32f4xx_ll_usb.c ****   }
1594:ThirdParty/STM32F4xx_HAL_Driver/Src/stm32f4xx_ll_usb.c ****   if (hc->ep_is_in)
 217              		.loc 1 1594 3 is_stmt 1 view .LVU63
 218              		.loc 1 1594 9 is_stmt 0 view .LVU64
 219 00c2 BB68     		ldr	r3, [r7, #8]
 220 00c4 DB78     		ldrb	r3, [r3, #3]	@ zero_extendqisi2
 221              		.loc 1 1594 6 view .LVU65
 222 00c6 002B     		cmp	r3, #0
 223 00c8 07D0     		beq	.L7
1595:ThirdParty/STM32F4xx_HAL_Driver/Src/stm32f4xx_ll_usb.c ****   {
1596:ThirdParty/STM32F4xx_HAL_Driver/Src/stm32f4xx_ll_usb.c ****     hc->xfer_len = num_packets * hc->max_packet;
 224              		.loc 1 1596 5 is_stmt 1 view .LVU66
 225              		.loc 1 1596 32 is_stmt 0 view .LVU67
 226 00ca FB8B     		ldrh	r3, [r7, #30]
 227              		.loc 1 1596 36 view .LVU68
 228 00cc BA68     		ldr	r2, [r7, #8]
 229 00ce 1289     		ldrh	r2, [r2, #8]
ARM GAS  /tmp/ccCoVfPP.s 			page 33


 230              		.loc 1 1596 32 view .LVU69
 231 00d0 02FB03F3 		mul	r3, r2, r3
 232 00d4 1A46     		mov	r2, r3
 233              		.loc 1 1596 18 view .LVU70
 234 00d6 BB68     		ldr	r3, [r7, #8]
 235 00d8 1A61     		str	r2, [r3, #16]
 236              	.L7:
1597:ThirdParty/STM32F4xx_HAL_Driver/Src/stm32f4xx_ll_usb.c ****   }
1598:ThirdParty/STM32F4xx_HAL_Driver/Src/stm32f4xx_ll_usb.c ****   
1599:ThirdParty/STM32F4xx_HAL_Driver/Src/stm32f4xx_ll_usb.c ****   /* Initialize the HCTSIZn register */
1600:ThirdParty/STM32F4xx_HAL_Driver/Src/stm32f4xx_ll_usb.c ****   USBx_HC(hc->ch_num)->HCTSIZ = (((hc->xfer_len) & USB_OTG_HCTSIZ_XFRSIZ)) |\
 237              		.loc 1 1600 3 is_stmt 1 view .LVU71
 238              		.loc 1 1600 38 is_stmt 0 view .LVU72
 239 00da BB68     		ldr	r3, [r7, #8]
 240 00dc 1B69     		ldr	r3, [r3, #16]
 241              		.loc 1 1600 50 view .LVU73
 242 00de C3F31202 		ubfx	r2, r3, #0, #19
1601:ThirdParty/STM32F4xx_HAL_Driver/Src/stm32f4xx_ll_usb.c ****     ((num_packets << 19U) & USB_OTG_HCTSIZ_PKTCNT) |\
 243              		.loc 1 1601 19 view .LVU74
 244 00e2 FB8B     		ldrh	r3, [r7, #30]
 245 00e4 DB04     		lsls	r3, r3, #19
 246              		.loc 1 1601 27 view .LVU75
 247 00e6 1946     		mov	r1, r3
 248 00e8 604B     		ldr	r3, .L20
 249 00ea 0B40     		ands	r3, r3, r1
1600:ThirdParty/STM32F4xx_HAL_Driver/Src/stm32f4xx_ll_usb.c ****     ((num_packets << 19U) & USB_OTG_HCTSIZ_PKTCNT) |\
 250              		.loc 1 1600 76 view .LVU76
 251 00ec 1A43     		orrs	r2, r2, r3
1602:ThirdParty/STM32F4xx_HAL_Driver/Src/stm32f4xx_ll_usb.c ****       (((hc->data_pid) << 29U) & USB_OTG_HCTSIZ_DPID);
 252              		.loc 1 1602 12 view .LVU77
 253 00ee BB68     		ldr	r3, [r7, #8]
 254 00f0 9B7A     		ldrb	r3, [r3, #10]	@ zero_extendqisi2
 255              		.loc 1 1602 24 view .LVU78
 256 00f2 5B07     		lsls	r3, r3, #29
 257              		.loc 1 1602 32 view .LVU79
 258 00f4 03F0C043 		and	r3, r3, #1610612736
1600:ThirdParty/STM32F4xx_HAL_Driver/Src/stm32f4xx_ll_usb.c ****     ((num_packets << 19U) & USB_OTG_HCTSIZ_PKTCNT) |\
 259              		.loc 1 1600 3 view .LVU80
 260 00f8 B968     		ldr	r1, [r7, #8]
 261 00fa 4978     		ldrb	r1, [r1, #1]	@ zero_extendqisi2
 262 00fc 4801     		lsls	r0, r1, #5
 263              	.LVL21:
1600:ThirdParty/STM32F4xx_HAL_Driver/Src/stm32f4xx_ll_usb.c ****     ((num_packets << 19U) & USB_OTG_HCTSIZ_PKTCNT) |\
 264              		.loc 1 1600 3 view .LVU81
 265 00fe F968     		ldr	r1, [r7, #12]
 266 0100 0144     		add	r1, r1, r0
 267 0102 01F5A061 		add	r1, r1, #1280
1601:ThirdParty/STM32F4xx_HAL_Driver/Src/stm32f4xx_ll_usb.c ****     ((num_packets << 19U) & USB_OTG_HCTSIZ_PKTCNT) |\
 268              		.loc 1 1601 52 view .LVU82
 269 0106 1343     		orrs	r3, r3, r2
1600:ThirdParty/STM32F4xx_HAL_Driver/Src/stm32f4xx_ll_usb.c ****     ((num_packets << 19U) & USB_OTG_HCTSIZ_PKTCNT) |\
 270              		.loc 1 1600 31 view .LVU83
 271 0108 0B61     		str	r3, [r1, #16]
1603:ThirdParty/STM32F4xx_HAL_Driver/Src/stm32f4xx_ll_usb.c ****   
1604:ThirdParty/STM32F4xx_HAL_Driver/Src/stm32f4xx_ll_usb.c ****   if (dma)
 272              		.loc 1 1604 3 is_stmt 1 view .LVU84
 273              		.loc 1 1604 6 is_stmt 0 view .LVU85
ARM GAS  /tmp/ccCoVfPP.s 			page 34


 274 010a FB79     		ldrb	r3, [r7, #7]	@ zero_extendqisi2
 275 010c 002B     		cmp	r3, #0
 276 010e 0AD0     		beq	.L8
1605:ThirdParty/STM32F4xx_HAL_Driver/Src/stm32f4xx_ll_usb.c ****   {
1606:ThirdParty/STM32F4xx_HAL_Driver/Src/stm32f4xx_ll_usb.c ****     /* xfer_buff MUST be 32-bits aligned */
1607:ThirdParty/STM32F4xx_HAL_Driver/Src/stm32f4xx_ll_usb.c ****     USBx_HC(hc->ch_num)->HCDMA = (uint32_t)hc->xfer_buff;
 277              		.loc 1 1607 5 is_stmt 1 view .LVU86
 278              		.loc 1 1607 46 is_stmt 0 view .LVU87
 279 0110 BB68     		ldr	r3, [r7, #8]
 280 0112 D968     		ldr	r1, [r3, #12]
 281              		.loc 1 1607 5 view .LVU88
 282 0114 BB68     		ldr	r3, [r7, #8]
 283 0116 5B78     		ldrb	r3, [r3, #1]	@ zero_extendqisi2
 284 0118 5A01     		lsls	r2, r3, #5
 285 011a FB68     		ldr	r3, [r7, #12]
 286 011c 1344     		add	r3, r3, r2
 287 011e 03F5A063 		add	r3, r3, #1280
 288              		.loc 1 1607 34 view .LVU89
 289 0122 0A46     		mov	r2, r1
 290              		.loc 1 1607 32 view .LVU90
 291 0124 5A61     		str	r2, [r3, #20]
 292              	.L8:
1608:ThirdParty/STM32F4xx_HAL_Driver/Src/stm32f4xx_ll_usb.c ****   }
1609:ThirdParty/STM32F4xx_HAL_Driver/Src/stm32f4xx_ll_usb.c ****   
1610:ThirdParty/STM32F4xx_HAL_Driver/Src/stm32f4xx_ll_usb.c ****   is_oddframe = (USBx_HOST->HFNUM & 0x01) ? 0 : 1;
 293              		.loc 1 1610 3 is_stmt 1 view .LVU91
 294              		.loc 1 1610 18 is_stmt 0 view .LVU92
 295 0126 FB68     		ldr	r3, [r7, #12]
 296 0128 03F58063 		add	r3, r3, #1024
 297              		.loc 1 1610 27 view .LVU93
 298 012c 9B68     		ldr	r3, [r3, #8]
 299              		.loc 1 1610 35 view .LVU94
 300 012e 03F00103 		and	r3, r3, #1
 301              		.loc 1 1610 47 view .LVU95
 302 0132 002B     		cmp	r3, #0
 303 0134 0CBF     		ite	eq
 304 0136 0123     		moveq	r3, #1
 305 0138 0023     		movne	r3, #0
 306 013a DBB2     		uxtb	r3, r3
 307              		.loc 1 1610 15 view .LVU96
 308 013c 7B77     		strb	r3, [r7, #29]
 309              	.LVL22:
1611:ThirdParty/STM32F4xx_HAL_Driver/Src/stm32f4xx_ll_usb.c ****   USBx_HC(hc->ch_num)->HCCHAR &= ~USB_OTG_HCCHAR_ODDFRM;
 310              		.loc 1 1611 3 is_stmt 1 view .LVU97
 311 013e BB68     		ldr	r3, [r7, #8]
 312              	.LVL23:
 313              		.loc 1 1611 3 is_stmt 0 view .LVU98
 314 0140 5B78     		ldrb	r3, [r3, #1]	@ zero_extendqisi2
 315              		.loc 1 1611 31 view .LVU99
 316 0142 5A01     		lsls	r2, r3, #5
 317 0144 FB68     		ldr	r3, [r7, #12]
 318 0146 1344     		add	r3, r3, r2
 319 0148 03F5A063 		add	r3, r3, #1280
 320 014c 1B68     		ldr	r3, [r3]
 321              		.loc 1 1611 3 view .LVU100
 322 014e BA68     		ldr	r2, [r7, #8]
 323 0150 5278     		ldrb	r2, [r2, #1]	@ zero_extendqisi2
ARM GAS  /tmp/ccCoVfPP.s 			page 35


 324              		.loc 1 1611 31 view .LVU101
 325 0152 5101     		lsls	r1, r2, #5
 326 0154 FA68     		ldr	r2, [r7, #12]
 327 0156 0A44     		add	r2, r2, r1
 328 0158 02F5A062 		add	r2, r2, #1280
 329 015c 23F00053 		bic	r3, r3, #536870912
 330 0160 1360     		str	r3, [r2]
1612:ThirdParty/STM32F4xx_HAL_Driver/Src/stm32f4xx_ll_usb.c ****   USBx_HC(hc->ch_num)->HCCHAR |= (is_oddframe << 29);
 331              		.loc 1 1612 3 is_stmt 1 view .LVU102
 332 0162 BB68     		ldr	r3, [r7, #8]
 333 0164 5B78     		ldrb	r3, [r3, #1]	@ zero_extendqisi2
 334              		.loc 1 1612 31 is_stmt 0 view .LVU103
 335 0166 5A01     		lsls	r2, r3, #5
 336 0168 FB68     		ldr	r3, [r7, #12]
 337 016a 1344     		add	r3, r3, r2
 338 016c 03F5A063 		add	r3, r3, #1280
 339 0170 1B68     		ldr	r3, [r3]
 340              		.loc 1 1612 47 view .LVU104
 341 0172 7A7F     		ldrb	r2, [r7, #29]	@ zero_extendqisi2
 342 0174 5207     		lsls	r2, r2, #29
 343 0176 1046     		mov	r0, r2
 344              		.loc 1 1612 3 view .LVU105
 345 0178 BA68     		ldr	r2, [r7, #8]
 346 017a 5278     		ldrb	r2, [r2, #1]	@ zero_extendqisi2
 347              		.loc 1 1612 31 view .LVU106
 348 017c 5101     		lsls	r1, r2, #5
 349 017e FA68     		ldr	r2, [r7, #12]
 350 0180 0A44     		add	r2, r2, r1
 351 0182 02F5A062 		add	r2, r2, #1280
 352 0186 0343     		orrs	r3, r3, r0
 353 0188 1360     		str	r3, [r2]
1613:ThirdParty/STM32F4xx_HAL_Driver/Src/stm32f4xx_ll_usb.c ****   
1614:ThirdParty/STM32F4xx_HAL_Driver/Src/stm32f4xx_ll_usb.c ****   /* Set host channel enable */
1615:ThirdParty/STM32F4xx_HAL_Driver/Src/stm32f4xx_ll_usb.c ****   tmpreg = USBx_HC(hc->ch_num)->HCCHAR;
 354              		.loc 1 1615 3 is_stmt 1 view .LVU107
 355              		.loc 1 1615 12 is_stmt 0 view .LVU108
 356 018a BB68     		ldr	r3, [r7, #8]
 357 018c 5B78     		ldrb	r3, [r3, #1]	@ zero_extendqisi2
 358 018e 5A01     		lsls	r2, r3, #5
 359 0190 FB68     		ldr	r3, [r7, #12]
 360 0192 1344     		add	r3, r3, r2
 361 0194 03F5A063 		add	r3, r3, #1280
 362              		.loc 1 1615 10 view .LVU109
 363 0198 1B68     		ldr	r3, [r3]
 364 019a 7B61     		str	r3, [r7, #20]
 365              	.LVL24:
1616:ThirdParty/STM32F4xx_HAL_Driver/Src/stm32f4xx_ll_usb.c ****   tmpreg &= ~USB_OTG_HCCHAR_CHDIS;
 366              		.loc 1 1616 3 is_stmt 1 view .LVU110
 367              		.loc 1 1616 10 is_stmt 0 view .LVU111
 368 019c 7B69     		ldr	r3, [r7, #20]
 369              		.loc 1 1616 10 view .LVU112
 370 019e 23F08043 		bic	r3, r3, #1073741824
 371              	.LVL25:
 372              		.loc 1 1616 10 view .LVU113
 373 01a2 7B61     		str	r3, [r7, #20]
 374              	.LVL26:
1617:ThirdParty/STM32F4xx_HAL_Driver/Src/stm32f4xx_ll_usb.c ****   tmpreg |= USB_OTG_HCCHAR_CHENA;
ARM GAS  /tmp/ccCoVfPP.s 			page 36


 375              		.loc 1 1617 3 is_stmt 1 view .LVU114
 376              		.loc 1 1617 10 is_stmt 0 view .LVU115
 377 01a4 7B69     		ldr	r3, [r7, #20]
 378              		.loc 1 1617 10 view .LVU116
 379 01a6 43F00043 		orr	r3, r3, #-2147483648
 380              	.LVL27:
 381              		.loc 1 1617 10 view .LVU117
 382 01aa 7B61     		str	r3, [r7, #20]
 383              	.LVL28:
1618:ThirdParty/STM32F4xx_HAL_Driver/Src/stm32f4xx_ll_usb.c ****   USBx_HC(hc->ch_num)->HCCHAR = tmpreg;
 384              		.loc 1 1618 3 is_stmt 1 view .LVU118
 385 01ac BB68     		ldr	r3, [r7, #8]
 386              	.LVL29:
 387              		.loc 1 1618 3 is_stmt 0 view .LVU119
 388 01ae 5B78     		ldrb	r3, [r3, #1]	@ zero_extendqisi2
 389 01b0 5A01     		lsls	r2, r3, #5
 390 01b2 FB68     		ldr	r3, [r7, #12]
 391 01b4 1344     		add	r3, r3, r2
 392 01b6 03F5A063 		add	r3, r3, #1280
 393 01ba 1A46     		mov	r2, r3
 394              		.loc 1 1618 31 view .LVU120
 395 01bc 7B69     		ldr	r3, [r7, #20]
 396 01be 1360     		str	r3, [r2]
1619:ThirdParty/STM32F4xx_HAL_Driver/Src/stm32f4xx_ll_usb.c ****   
1620:ThirdParty/STM32F4xx_HAL_Driver/Src/stm32f4xx_ll_usb.c ****   if (dma == 0) /* Slave mode */
 397              		.loc 1 1620 3 is_stmt 1 view .LVU121
 398              		.loc 1 1620 6 is_stmt 0 view .LVU122
 399 01c0 FB79     		ldrb	r3, [r7, #7]	@ zero_extendqisi2
 400 01c2 002B     		cmp	r3, #0
 401 01c4 4DD1     		bne	.L9
1621:ThirdParty/STM32F4xx_HAL_Driver/Src/stm32f4xx_ll_usb.c ****   {  
1622:ThirdParty/STM32F4xx_HAL_Driver/Src/stm32f4xx_ll_usb.c ****     if((hc->ep_is_in == 0U) && (hc->xfer_len > 0U))
 402              		.loc 1 1622 5 is_stmt 1 view .LVU123
 403              		.loc 1 1622 11 is_stmt 0 view .LVU124
 404 01c6 BB68     		ldr	r3, [r7, #8]
 405 01c8 DB78     		ldrb	r3, [r3, #3]	@ zero_extendqisi2
 406              		.loc 1 1622 7 view .LVU125
 407 01ca 002B     		cmp	r3, #0
 408 01cc 49D1     		bne	.L9
 409              		.loc 1 1622 35 discriminator 1 view .LVU126
 410 01ce BB68     		ldr	r3, [r7, #8]
 411 01d0 1B69     		ldr	r3, [r3, #16]
 412              		.loc 1 1622 29 discriminator 1 view .LVU127
 413 01d2 002B     		cmp	r3, #0
 414 01d4 45D0     		beq	.L9
1623:ThirdParty/STM32F4xx_HAL_Driver/Src/stm32f4xx_ll_usb.c ****     {
1624:ThirdParty/STM32F4xx_HAL_Driver/Src/stm32f4xx_ll_usb.c ****       switch(hc->ep_type) 
 415              		.loc 1 1624 7 is_stmt 1 view .LVU128
 416              		.loc 1 1624 16 is_stmt 0 view .LVU129
 417 01d6 BB68     		ldr	r3, [r7, #8]
 418 01d8 DB79     		ldrb	r3, [r3, #7]	@ zero_extendqisi2
 419              		.loc 1 1624 7 view .LVU130
 420 01da 032B     		cmp	r3, #3
 421 01dc 30D8     		bhi	.L17
 422 01de 01A2     		adr	r2, .L12
 423 01e0 52F823F0 		ldr	pc, [r2, r3, lsl #2]
 424              		.p2align 2
ARM GAS  /tmp/ccCoVfPP.s 			page 37


 425              	.L12:
 426 01e4 F5010000 		.word	.L13+1
 427 01e8 19020000 		.word	.L11+1
 428 01ec F5010000 		.word	.L13+1
 429 01f0 19020000 		.word	.L11+1
 430              		.p2align 1
 431              	.L13:
1625:ThirdParty/STM32F4xx_HAL_Driver/Src/stm32f4xx_ll_usb.c ****       {
1626:ThirdParty/STM32F4xx_HAL_Driver/Src/stm32f4xx_ll_usb.c ****         /* Non periodic transfer */
1627:ThirdParty/STM32F4xx_HAL_Driver/Src/stm32f4xx_ll_usb.c ****       case EP_TYPE_CTRL:
1628:ThirdParty/STM32F4xx_HAL_Driver/Src/stm32f4xx_ll_usb.c ****       case EP_TYPE_BULK:
1629:ThirdParty/STM32F4xx_HAL_Driver/Src/stm32f4xx_ll_usb.c ****         
1630:ThirdParty/STM32F4xx_HAL_Driver/Src/stm32f4xx_ll_usb.c ****         len_words = (hc->xfer_len + 3) / 4;
 432              		.loc 1 1630 9 is_stmt 1 view .LVU131
 433              		.loc 1 1630 24 is_stmt 0 view .LVU132
 434 01f4 BB68     		ldr	r3, [r7, #8]
 435 01f6 1B69     		ldr	r3, [r3, #16]
 436              		.loc 1 1630 35 view .LVU133
 437 01f8 0333     		adds	r3, r3, #3
 438              		.loc 1 1630 40 view .LVU134
 439 01fa 9B08     		lsrs	r3, r3, #2
 440              		.loc 1 1630 19 view .LVU135
 441 01fc 7B83     		strh	r3, [r7, #26]	@ movhi
 442              	.LVL30:
1631:ThirdParty/STM32F4xx_HAL_Driver/Src/stm32f4xx_ll_usb.c ****         
1632:ThirdParty/STM32F4xx_HAL_Driver/Src/stm32f4xx_ll_usb.c ****         /* check if there is enough space in FIFO space */
1633:ThirdParty/STM32F4xx_HAL_Driver/Src/stm32f4xx_ll_usb.c ****         if(len_words > (USBx->HNPTXSTS & 0xFFFF))
 443              		.loc 1 1633 9 is_stmt 1 view .LVU136
 444              		.loc 1 1633 22 is_stmt 0 view .LVU137
 445 01fe 7A8B     		ldrh	r2, [r7, #26]
 446              		.loc 1 1633 29 view .LVU138
 447 0200 FB68     		ldr	r3, [r7, #12]
 448              	.LVL31:
 449              		.loc 1 1633 29 view .LVU139
 450 0202 DB6A     		ldr	r3, [r3, #44]
 451              		.loc 1 1633 40 view .LVU140
 452 0204 9BB2     		uxth	r3, r3
 453              		.loc 1 1633 11 view .LVU141
 454 0206 9A42     		cmp	r2, r3
 455 0208 1CD9     		bls	.L18
1634:ThirdParty/STM32F4xx_HAL_Driver/Src/stm32f4xx_ll_usb.c ****         {
1635:ThirdParty/STM32F4xx_HAL_Driver/Src/stm32f4xx_ll_usb.c ****           /* need to process data in nptxfempty interrupt */
1636:ThirdParty/STM32F4xx_HAL_Driver/Src/stm32f4xx_ll_usb.c ****           USBx->GINTMSK |= USB_OTG_GINTMSK_NPTXFEM;
 456              		.loc 1 1636 11 is_stmt 1 view .LVU142
 457              		.loc 1 1636 25 is_stmt 0 view .LVU143
 458 020a FB68     		ldr	r3, [r7, #12]
 459 020c 9B69     		ldr	r3, [r3, #24]
 460 020e 43F02002 		orr	r2, r3, #32
 461 0212 FB68     		ldr	r3, [r7, #12]
 462 0214 9A61     		str	r2, [r3, #24]
1637:ThirdParty/STM32F4xx_HAL_Driver/Src/stm32f4xx_ll_usb.c ****         }
1638:ThirdParty/STM32F4xx_HAL_Driver/Src/stm32f4xx_ll_usb.c ****         break;
 463              		.loc 1 1638 9 is_stmt 1 view .LVU144
 464 0216 15E0     		b	.L18
 465              	.L11:
1639:ThirdParty/STM32F4xx_HAL_Driver/Src/stm32f4xx_ll_usb.c ****         /* Periodic transfer */
1640:ThirdParty/STM32F4xx_HAL_Driver/Src/stm32f4xx_ll_usb.c ****       case EP_TYPE_INTR:
ARM GAS  /tmp/ccCoVfPP.s 			page 38


1641:ThirdParty/STM32F4xx_HAL_Driver/Src/stm32f4xx_ll_usb.c ****       case EP_TYPE_ISOC:
1642:ThirdParty/STM32F4xx_HAL_Driver/Src/stm32f4xx_ll_usb.c ****         len_words = (hc->xfer_len + 3) / 4;
 466              		.loc 1 1642 9 view .LVU145
 467              		.loc 1 1642 24 is_stmt 0 view .LVU146
 468 0218 BB68     		ldr	r3, [r7, #8]
 469 021a 1B69     		ldr	r3, [r3, #16]
 470              		.loc 1 1642 35 view .LVU147
 471 021c 0333     		adds	r3, r3, #3
 472              		.loc 1 1642 40 view .LVU148
 473 021e 9B08     		lsrs	r3, r3, #2
 474              		.loc 1 1642 19 view .LVU149
 475 0220 7B83     		strh	r3, [r7, #26]	@ movhi
 476              	.LVL32:
1643:ThirdParty/STM32F4xx_HAL_Driver/Src/stm32f4xx_ll_usb.c ****         /* check if there is enough space in FIFO space */
1644:ThirdParty/STM32F4xx_HAL_Driver/Src/stm32f4xx_ll_usb.c ****         if(len_words > (USBx_HOST->HPTXSTS & 0xFFFF)) /* split the transfer */
 477              		.loc 1 1644 9 is_stmt 1 view .LVU150
 478              		.loc 1 1644 22 is_stmt 0 view .LVU151
 479 0222 7A8B     		ldrh	r2, [r7, #26]
 480              		.loc 1 1644 25 view .LVU152
 481 0224 FB68     		ldr	r3, [r7, #12]
 482              	.LVL33:
 483              		.loc 1 1644 25 view .LVU153
 484 0226 03F58063 		add	r3, r3, #1024
 485              		.loc 1 1644 34 view .LVU154
 486 022a 1B69     		ldr	r3, [r3, #16]
 487              		.loc 1 1644 44 view .LVU155
 488 022c 9BB2     		uxth	r3, r3
 489              		.loc 1 1644 11 view .LVU156
 490 022e 9A42     		cmp	r2, r3
 491 0230 0AD9     		bls	.L19
1645:ThirdParty/STM32F4xx_HAL_Driver/Src/stm32f4xx_ll_usb.c ****         {
1646:ThirdParty/STM32F4xx_HAL_Driver/Src/stm32f4xx_ll_usb.c ****           /* need to process data in ptxfempty interrupt */
1647:ThirdParty/STM32F4xx_HAL_Driver/Src/stm32f4xx_ll_usb.c ****           USBx->GINTMSK |= USB_OTG_GINTMSK_PTXFEM;          
 492              		.loc 1 1647 11 is_stmt 1 view .LVU157
 493              		.loc 1 1647 25 is_stmt 0 view .LVU158
 494 0232 FB68     		ldr	r3, [r7, #12]
 495 0234 9B69     		ldr	r3, [r3, #24]
 496 0236 43F08062 		orr	r2, r3, #67108864
 497 023a FB68     		ldr	r3, [r7, #12]
 498 023c 9A61     		str	r2, [r3, #24]
1648:ThirdParty/STM32F4xx_HAL_Driver/Src/stm32f4xx_ll_usb.c ****         }
1649:ThirdParty/STM32F4xx_HAL_Driver/Src/stm32f4xx_ll_usb.c ****         break;
 499              		.loc 1 1649 9 is_stmt 1 view .LVU159
 500 023e 03E0     		b	.L19
 501              	.L17:
1650:ThirdParty/STM32F4xx_HAL_Driver/Src/stm32f4xx_ll_usb.c ****         
1651:ThirdParty/STM32F4xx_HAL_Driver/Src/stm32f4xx_ll_usb.c ****       default:
1652:ThirdParty/STM32F4xx_HAL_Driver/Src/stm32f4xx_ll_usb.c ****         break;
 502              		.loc 1 1652 9 is_stmt 0 view .LVU160
 503 0240 00BF     		nop
 504 0242 02E0     		b	.L15
 505              	.L18:
1638:ThirdParty/STM32F4xx_HAL_Driver/Src/stm32f4xx_ll_usb.c ****         /* Periodic transfer */
 506              		.loc 1 1638 9 view .LVU161
 507 0244 00BF     		nop
 508 0246 00E0     		b	.L15
 509              	.L19:
ARM GAS  /tmp/ccCoVfPP.s 			page 39


1649:ThirdParty/STM32F4xx_HAL_Driver/Src/stm32f4xx_ll_usb.c ****         
 510              		.loc 1 1649 9 view .LVU162
 511 0248 00BF     		nop
 512              	.L15:
1653:ThirdParty/STM32F4xx_HAL_Driver/Src/stm32f4xx_ll_usb.c ****       }
1654:ThirdParty/STM32F4xx_HAL_Driver/Src/stm32f4xx_ll_usb.c ****       
1655:ThirdParty/STM32F4xx_HAL_Driver/Src/stm32f4xx_ll_usb.c ****       /* Write packet into the Tx FIFO. */
1656:ThirdParty/STM32F4xx_HAL_Driver/Src/stm32f4xx_ll_usb.c ****       USB_WritePacket(USBx, hc->xfer_buff, hc->ch_num, hc->xfer_len, 0);
 513              		.loc 1 1656 7 is_stmt 1 view .LVU163
 514 024a BB68     		ldr	r3, [r7, #8]
 515 024c D968     		ldr	r1, [r3, #12]
 516 024e BB68     		ldr	r3, [r7, #8]
 517 0250 5A78     		ldrb	r2, [r3, #1]	@ zero_extendqisi2
 518              		.loc 1 1656 58 is_stmt 0 view .LVU164
 519 0252 BB68     		ldr	r3, [r7, #8]
 520 0254 1B69     		ldr	r3, [r3, #16]
 521              		.loc 1 1656 7 view .LVU165
 522 0256 9BB2     		uxth	r3, r3
 523 0258 0020     		movs	r0, #0
 524 025a 0090     		str	r0, [sp]
 525 025c F868     		ldr	r0, [r7, #12]
 526 025e FFF7FEFF 		bl	USB_WritePacket
 527              	.LVL34:
 528              	.L9:
1657:ThirdParty/STM32F4xx_HAL_Driver/Src/stm32f4xx_ll_usb.c ****     }
1658:ThirdParty/STM32F4xx_HAL_Driver/Src/stm32f4xx_ll_usb.c ****   }
1659:ThirdParty/STM32F4xx_HAL_Driver/Src/stm32f4xx_ll_usb.c ****   
1660:ThirdParty/STM32F4xx_HAL_Driver/Src/stm32f4xx_ll_usb.c ****   return HAL_OK;
 529              		.loc 1 1660 3 is_stmt 1 view .LVU166
 530              		.loc 1 1660 10 is_stmt 0 view .LVU167
 531 0262 0023     		movs	r3, #0
 532              	.L4:
1661:ThirdParty/STM32F4xx_HAL_Driver/Src/stm32f4xx_ll_usb.c **** }
 533              		.loc 1 1661 1 view .LVU168
 534 0264 1846     		mov	r0, r3
 535 0266 2037     		adds	r7, r7, #32
 536              	.LCFI3:
 537              		.cfi_def_cfa_offset 8
 538 0268 BD46     		mov	sp, r7
 539              	.LCFI4:
 540              		.cfi_def_cfa_register 13
 541              		@ sp needed
 542 026a 80BD     		pop	{r7, pc}
 543              	.L21:
 544              		.align	2
 545              	.L20:
 546 026c 0000F81F 		.word	536346624
 547              		.cfi_endproc
 548              	.LFE173:
 550              		.section	.text.USB_HC_ReadInterrupt,"ax",%progbits
 551              		.align	1
 552              		.global	USB_HC_ReadInterrupt
 553              		.syntax unified
 554              		.thumb
 555              		.thumb_func
 557              	USB_HC_ReadInterrupt:
 558              	.LVL35:
ARM GAS  /tmp/ccCoVfPP.s 			page 40


 559              	.LFB174:
1662:ThirdParty/STM32F4xx_HAL_Driver/Src/stm32f4xx_ll_usb.c **** 
1663:ThirdParty/STM32F4xx_HAL_Driver/Src/stm32f4xx_ll_usb.c **** /**
1664:ThirdParty/STM32F4xx_HAL_Driver/Src/stm32f4xx_ll_usb.c ****   * @brief Read all host channel interrupts status
1665:ThirdParty/STM32F4xx_HAL_Driver/Src/stm32f4xx_ll_usb.c ****   * @param  USBx  Selected device
1666:ThirdParty/STM32F4xx_HAL_Driver/Src/stm32f4xx_ll_usb.c ****   * @retval HAL state
1667:ThirdParty/STM32F4xx_HAL_Driver/Src/stm32f4xx_ll_usb.c ****   */
1668:ThirdParty/STM32F4xx_HAL_Driver/Src/stm32f4xx_ll_usb.c **** uint32_t USB_HC_ReadInterrupt (USB_OTG_GlobalTypeDef *USBx)
1669:ThirdParty/STM32F4xx_HAL_Driver/Src/stm32f4xx_ll_usb.c **** {
 560              		.loc 1 1669 1 is_stmt 1 view -0
 561              		.cfi_startproc
 562              		@ args = 0, pretend = 0, frame = 8
 563              		@ frame_needed = 1, uses_anonymous_args = 0
 564              		@ link register save eliminated.
 565              		.loc 1 1669 1 is_stmt 0 view .LVU170
 566 0000 80B4     		push	{r7}
 567              	.LCFI5:
 568              		.cfi_def_cfa_offset 4
 569              		.cfi_offset 7, -4
 570 0002 83B0     		sub	sp, sp, #12
 571              	.LCFI6:
 572              		.cfi_def_cfa_offset 16
 573 0004 00AF     		add	r7, sp, #0
 574              	.LCFI7:
 575              		.cfi_def_cfa_register 7
 576 0006 7860     		str	r0, [r7, #4]
1670:ThirdParty/STM32F4xx_HAL_Driver/Src/stm32f4xx_ll_usb.c ****   return ((USBx_HOST->HAINT) & 0xFFFFU);
 577              		.loc 1 1670 3 is_stmt 1 view .LVU171
 578              		.loc 1 1670 12 is_stmt 0 view .LVU172
 579 0008 7B68     		ldr	r3, [r7, #4]
 580 000a 03F58063 		add	r3, r3, #1024
 581              		.loc 1 1670 21 view .LVU173
 582 000e 5B69     		ldr	r3, [r3, #20]
 583              		.loc 1 1670 30 view .LVU174
 584 0010 9BB2     		uxth	r3, r3
1671:ThirdParty/STM32F4xx_HAL_Driver/Src/stm32f4xx_ll_usb.c **** }
 585              		.loc 1 1671 1 view .LVU175
 586 0012 1846     		mov	r0, r3
 587              	.LVL36:
 588              		.loc 1 1671 1 view .LVU176
 589 0014 0C37     		adds	r7, r7, #12
 590              	.LCFI8:
 591              		.cfi_def_cfa_offset 4
 592              	.LVL37:
 593              		.loc 1 1671 1 view .LVU177
 594 0016 BD46     		mov	sp, r7
 595              	.LCFI9:
 596              		.cfi_def_cfa_register 13
 597              		@ sp needed
 598 0018 5DF8047B 		ldr	r7, [sp], #4
 599              	.LCFI10:
 600              		.cfi_restore 7
 601              		.cfi_def_cfa_offset 0
 602              	.LVL38:
 603              		.loc 1 1671 1 view .LVU178
 604 001c 7047     		bx	lr
 605              		.cfi_endproc
ARM GAS  /tmp/ccCoVfPP.s 			page 41


 606              	.LFE174:
 608              		.section	.text.USB_HC_Halt,"ax",%progbits
 609              		.align	1
 610              		.global	USB_HC_Halt
 611              		.syntax unified
 612              		.thumb
 613              		.thumb_func
 615              	USB_HC_Halt:
 616              	.LVL39:
 617              	.LFB175:
1672:ThirdParty/STM32F4xx_HAL_Driver/Src/stm32f4xx_ll_usb.c **** 
1673:ThirdParty/STM32F4xx_HAL_Driver/Src/stm32f4xx_ll_usb.c **** /**
1674:ThirdParty/STM32F4xx_HAL_Driver/Src/stm32f4xx_ll_usb.c ****   * @brief  Halt a host channel
1675:ThirdParty/STM32F4xx_HAL_Driver/Src/stm32f4xx_ll_usb.c ****   * @param  USBx  Selected device
1676:ThirdParty/STM32F4xx_HAL_Driver/Src/stm32f4xx_ll_usb.c ****   * @param  hc_num  Host Channel number
1677:ThirdParty/STM32F4xx_HAL_Driver/Src/stm32f4xx_ll_usb.c ****   *         This parameter can be a value from 1 to 15
1678:ThirdParty/STM32F4xx_HAL_Driver/Src/stm32f4xx_ll_usb.c ****   * @retval HAL state
1679:ThirdParty/STM32F4xx_HAL_Driver/Src/stm32f4xx_ll_usb.c ****   */
1680:ThirdParty/STM32F4xx_HAL_Driver/Src/stm32f4xx_ll_usb.c **** HAL_StatusTypeDef USB_HC_Halt(USB_OTG_GlobalTypeDef *USBx , uint8_t hc_num)
1681:ThirdParty/STM32F4xx_HAL_Driver/Src/stm32f4xx_ll_usb.c **** {
 618              		.loc 1 1681 1 is_stmt 1 view -0
 619              		.cfi_startproc
 620              		@ args = 0, pretend = 0, frame = 16
 621              		@ frame_needed = 1, uses_anonymous_args = 0
 622              		@ link register save eliminated.
 623              		.loc 1 1681 1 is_stmt 0 view .LVU180
 624 0000 80B4     		push	{r7}
 625              	.LCFI11:
 626              		.cfi_def_cfa_offset 4
 627              		.cfi_offset 7, -4
 628 0002 85B0     		sub	sp, sp, #20
 629              	.LCFI12:
 630              		.cfi_def_cfa_offset 24
 631 0004 00AF     		add	r7, sp, #0
 632              	.LCFI13:
 633              		.cfi_def_cfa_register 7
 634 0006 7860     		str	r0, [r7, #4]
 635 0008 0B46     		mov	r3, r1
 636 000a FB70     		strb	r3, [r7, #3]
1682:ThirdParty/STM32F4xx_HAL_Driver/Src/stm32f4xx_ll_usb.c ****   uint32_t count = 0U;
 637              		.loc 1 1682 3 is_stmt 1 view .LVU181
 638              		.loc 1 1682 12 is_stmt 0 view .LVU182
 639 000c 0023     		movs	r3, #0
 640 000e FB60     		str	r3, [r7, #12]
 641              	.LVL40:
1683:ThirdParty/STM32F4xx_HAL_Driver/Src/stm32f4xx_ll_usb.c ****   
1684:ThirdParty/STM32F4xx_HAL_Driver/Src/stm32f4xx_ll_usb.c ****   /* Check for space in the request queue to issue the halt. */
1685:ThirdParty/STM32F4xx_HAL_Driver/Src/stm32f4xx_ll_usb.c ****   if (((((USBx_HC(hc_num)->HCCHAR) & USB_OTG_HCCHAR_EPTYP) >> 18) == HCCHAR_CTRL) || (((((USBx_HC(h
 642              		.loc 1 1685 3 is_stmt 1 view .LVU183
 643              		.loc 1 1685 11 is_stmt 0 view .LVU184
 644 0010 FB78     		ldrb	r3, [r7, #3]	@ zero_extendqisi2
 645              	.LVL41:
 646              		.loc 1 1685 11 view .LVU185
 647 0012 5A01     		lsls	r2, r3, #5
 648 0014 7B68     		ldr	r3, [r7, #4]
 649 0016 1344     		add	r3, r3, r2
 650 0018 03F5A063 		add	r3, r3, #1280
ARM GAS  /tmp/ccCoVfPP.s 			page 42


 651              		.loc 1 1685 26 view .LVU186
 652 001c 1B68     		ldr	r3, [r3]
 653              		.loc 1 1685 60 view .LVU187
 654 001e 9B0C     		lsrs	r3, r3, #18
 655 0020 03F00303 		and	r3, r3, #3
 656              		.loc 1 1685 6 view .LVU188
 657 0024 002B     		cmp	r3, #0
 658 0026 0BD0     		beq	.L25
 659              		.loc 1 1685 91 discriminator 1 view .LVU189
 660 0028 FB78     		ldrb	r3, [r7, #3]	@ zero_extendqisi2
 661 002a 5A01     		lsls	r2, r3, #5
 662 002c 7B68     		ldr	r3, [r7, #4]
 663 002e 1344     		add	r3, r3, r2
 664 0030 03F5A063 		add	r3, r3, #1280
 665              		.loc 1 1685 106 discriminator 1 view .LVU190
 666 0034 1B68     		ldr	r3, [r3]
1686:ThirdParty/STM32F4xx_HAL_Driver/Src/stm32f4xx_ll_usb.c ****   USB_OTG_HCCHAR_EPTYP) >> 18) == HCCHAR_BULK)))
 667              		.loc 1 1686 25 discriminator 1 view .LVU191
 668 0036 9B0C     		lsrs	r3, r3, #18
 669 0038 03F00303 		and	r3, r3, #3
1685:ThirdParty/STM32F4xx_HAL_Driver/Src/stm32f4xx_ll_usb.c ****   USB_OTG_HCCHAR_EPTYP) >> 18) == HCCHAR_BULK)))
 670              		.loc 1 1685 83 discriminator 1 view .LVU192
 671 003c 022B     		cmp	r3, #2
 672 003e 5CD1     		bne	.L26
 673              	.L25:
1687:ThirdParty/STM32F4xx_HAL_Driver/Src/stm32f4xx_ll_usb.c ****   {
1688:ThirdParty/STM32F4xx_HAL_Driver/Src/stm32f4xx_ll_usb.c ****     USBx_HC(hc_num)->HCCHAR |= USB_OTG_HCCHAR_CHDIS;
 674              		.loc 1 1688 5 is_stmt 1 view .LVU193
 675              		.loc 1 1688 29 is_stmt 0 view .LVU194
 676 0040 FB78     		ldrb	r3, [r7, #3]	@ zero_extendqisi2
 677 0042 5A01     		lsls	r2, r3, #5
 678 0044 7B68     		ldr	r3, [r7, #4]
 679 0046 1344     		add	r3, r3, r2
 680 0048 03F5A063 		add	r3, r3, #1280
 681 004c 1B68     		ldr	r3, [r3]
 682 004e FA78     		ldrb	r2, [r7, #3]	@ zero_extendqisi2
 683 0050 5101     		lsls	r1, r2, #5
 684              	.LVL42:
 685              		.loc 1 1688 29 view .LVU195
 686 0052 7A68     		ldr	r2, [r7, #4]
 687 0054 0A44     		add	r2, r2, r1
 688 0056 02F5A062 		add	r2, r2, #1280
 689 005a 43F08043 		orr	r3, r3, #1073741824
 690 005e 1360     		str	r3, [r2]
1689:ThirdParty/STM32F4xx_HAL_Driver/Src/stm32f4xx_ll_usb.c ****     
1690:ThirdParty/STM32F4xx_HAL_Driver/Src/stm32f4xx_ll_usb.c ****     if ((USBx->HNPTXSTS & 0xFF0000U) == 0U)
 691              		.loc 1 1690 5 is_stmt 1 view .LVU196
 692              		.loc 1 1690 14 is_stmt 0 view .LVU197
 693 0060 7B68     		ldr	r3, [r7, #4]
 694 0062 DB6A     		ldr	r3, [r3, #44]
 695              		.loc 1 1690 25 view .LVU198
 696 0064 03F47F03 		and	r3, r3, #16711680
 697              		.loc 1 1690 8 view .LVU199
 698 0068 002B     		cmp	r3, #0
 699 006a 33D1     		bne	.L27
1691:ThirdParty/STM32F4xx_HAL_Driver/Src/stm32f4xx_ll_usb.c ****     {
1692:ThirdParty/STM32F4xx_HAL_Driver/Src/stm32f4xx_ll_usb.c ****       USBx_HC(hc_num)->HCCHAR &= ~USB_OTG_HCCHAR_CHENA;
ARM GAS  /tmp/ccCoVfPP.s 			page 43


 700              		.loc 1 1692 7 is_stmt 1 view .LVU200
 701              		.loc 1 1692 31 is_stmt 0 view .LVU201
 702 006c FB78     		ldrb	r3, [r7, #3]	@ zero_extendqisi2
 703 006e 5A01     		lsls	r2, r3, #5
 704 0070 7B68     		ldr	r3, [r7, #4]
 705 0072 1344     		add	r3, r3, r2
 706 0074 03F5A063 		add	r3, r3, #1280
 707 0078 1B68     		ldr	r3, [r3]
 708 007a FA78     		ldrb	r2, [r7, #3]	@ zero_extendqisi2
 709 007c 5101     		lsls	r1, r2, #5
 710 007e 7A68     		ldr	r2, [r7, #4]
 711 0080 0A44     		add	r2, r2, r1
 712 0082 02F5A062 		add	r2, r2, #1280
 713 0086 23F00043 		bic	r3, r3, #-2147483648
 714 008a 1360     		str	r3, [r2]
1693:ThirdParty/STM32F4xx_HAL_Driver/Src/stm32f4xx_ll_usb.c ****       USBx_HC(hc_num)->HCCHAR |= USB_OTG_HCCHAR_CHENA;  
 715              		.loc 1 1693 7 is_stmt 1 view .LVU202
 716              		.loc 1 1693 31 is_stmt 0 view .LVU203
 717 008c FB78     		ldrb	r3, [r7, #3]	@ zero_extendqisi2
 718 008e 5A01     		lsls	r2, r3, #5
 719 0090 7B68     		ldr	r3, [r7, #4]
 720 0092 1344     		add	r3, r3, r2
 721 0094 03F5A063 		add	r3, r3, #1280
 722 0098 1B68     		ldr	r3, [r3]
 723 009a FA78     		ldrb	r2, [r7, #3]	@ zero_extendqisi2
 724 009c 5101     		lsls	r1, r2, #5
 725 009e 7A68     		ldr	r2, [r7, #4]
 726 00a0 0A44     		add	r2, r2, r1
 727 00a2 02F5A062 		add	r2, r2, #1280
 728 00a6 43F00043 		orr	r3, r3, #-2147483648
 729 00aa 1360     		str	r3, [r2]
 730              	.L30:
1694:ThirdParty/STM32F4xx_HAL_Driver/Src/stm32f4xx_ll_usb.c ****       do 
 731              		.loc 1 1694 7 is_stmt 1 view .LVU204
1695:ThirdParty/STM32F4xx_HAL_Driver/Src/stm32f4xx_ll_usb.c ****       {
1696:ThirdParty/STM32F4xx_HAL_Driver/Src/stm32f4xx_ll_usb.c ****         if (++count > 1000U) 
 732              		.loc 1 1696 9 view .LVU205
 733              		.loc 1 1696 12 is_stmt 0 view .LVU206
 734 00ac FB68     		ldr	r3, [r7, #12]
 735 00ae 0133     		adds	r3, r3, #1
 736 00b0 FB60     		str	r3, [r7, #12]
 737              	.LVL43:
 738              		.loc 1 1696 12 view .LVU207
 739 00b2 FB68     		ldr	r3, [r7, #12]
 740              		.loc 1 1696 12 view .LVU208
 741 00b4 B3F57A7F 		cmp	r3, #1000
 742 00b8 1DD8     		bhi	.L39
1697:ThirdParty/STM32F4xx_HAL_Driver/Src/stm32f4xx_ll_usb.c ****         {
1698:ThirdParty/STM32F4xx_HAL_Driver/Src/stm32f4xx_ll_usb.c ****           break;
1699:ThirdParty/STM32F4xx_HAL_Driver/Src/stm32f4xx_ll_usb.c ****         }
1700:ThirdParty/STM32F4xx_HAL_Driver/Src/stm32f4xx_ll_usb.c ****       } 
1701:ThirdParty/STM32F4xx_HAL_Driver/Src/stm32f4xx_ll_usb.c ****       while ((USBx_HC(hc_num)->HCCHAR & USB_OTG_HCCHAR_CHENA) == USB_OTG_HCCHAR_CHENA);     
 743              		.loc 1 1701 13 is_stmt 1 view .LVU209
 744              		.loc 1 1701 15 is_stmt 0 view .LVU210
 745 00ba FB78     		ldrb	r3, [r7, #3]	@ zero_extendqisi2
 746              	.LVL44:
 747              		.loc 1 1701 15 view .LVU211
ARM GAS  /tmp/ccCoVfPP.s 			page 44


 748 00bc 5A01     		lsls	r2, r3, #5
 749 00be 7B68     		ldr	r3, [r7, #4]
 750 00c0 1344     		add	r3, r3, r2
 751 00c2 03F5A063 		add	r3, r3, #1280
 752              		.loc 1 1701 30 view .LVU212
 753 00c6 1B68     		ldr	r3, [r3]
 754              		.loc 1 1701 39 view .LVU213
 755 00c8 03F00043 		and	r3, r3, #-2147483648
 756              		.loc 1 1701 7 view .LVU214
 757 00cc B3F1004F 		cmp	r3, #-2147483648
 758 00d0 ECD0     		beq	.L30
1690:ThirdParty/STM32F4xx_HAL_Driver/Src/stm32f4xx_ll_usb.c ****     {
 759              		.loc 1 1690 8 view .LVU215
 760 00d2 6FE0     		b	.L32
 761              	.L27:
1702:ThirdParty/STM32F4xx_HAL_Driver/Src/stm32f4xx_ll_usb.c ****     }
1703:ThirdParty/STM32F4xx_HAL_Driver/Src/stm32f4xx_ll_usb.c ****     else
1704:ThirdParty/STM32F4xx_HAL_Driver/Src/stm32f4xx_ll_usb.c ****     {
1705:ThirdParty/STM32F4xx_HAL_Driver/Src/stm32f4xx_ll_usb.c ****       USBx_HC(hc_num)->HCCHAR |= USB_OTG_HCCHAR_CHENA; 
 762              		.loc 1 1705 7 is_stmt 1 view .LVU216
 763              		.loc 1 1705 31 is_stmt 0 view .LVU217
 764 00d4 FB78     		ldrb	r3, [r7, #3]	@ zero_extendqisi2
 765 00d6 5A01     		lsls	r2, r3, #5
 766 00d8 7B68     		ldr	r3, [r7, #4]
 767 00da 1344     		add	r3, r3, r2
 768 00dc 03F5A063 		add	r3, r3, #1280
 769 00e0 1B68     		ldr	r3, [r3]
 770 00e2 FA78     		ldrb	r2, [r7, #3]	@ zero_extendqisi2
 771 00e4 5101     		lsls	r1, r2, #5
 772 00e6 7A68     		ldr	r2, [r7, #4]
 773 00e8 0A44     		add	r2, r2, r1
 774 00ea 02F5A062 		add	r2, r2, #1280
 775 00ee 43F00043 		orr	r3, r3, #-2147483648
 776 00f2 1360     		str	r3, [r2]
1690:ThirdParty/STM32F4xx_HAL_Driver/Src/stm32f4xx_ll_usb.c ****     {
 777              		.loc 1 1690 8 view .LVU218
 778 00f4 5EE0     		b	.L32
 779              	.LVL45:
 780              	.L39:
1698:ThirdParty/STM32F4xx_HAL_Driver/Src/stm32f4xx_ll_usb.c ****         }
 781              		.loc 1 1698 11 view .LVU219
 782 00f6 00BF     		nop
1690:ThirdParty/STM32F4xx_HAL_Driver/Src/stm32f4xx_ll_usb.c ****     {
 783              		.loc 1 1690 8 view .LVU220
 784 00f8 5CE0     		b	.L32
 785              	.LVL46:
 786              	.L26:
1706:ThirdParty/STM32F4xx_HAL_Driver/Src/stm32f4xx_ll_usb.c ****     }
1707:ThirdParty/STM32F4xx_HAL_Driver/Src/stm32f4xx_ll_usb.c ****   }
1708:ThirdParty/STM32F4xx_HAL_Driver/Src/stm32f4xx_ll_usb.c ****   else
1709:ThirdParty/STM32F4xx_HAL_Driver/Src/stm32f4xx_ll_usb.c ****   {
1710:ThirdParty/STM32F4xx_HAL_Driver/Src/stm32f4xx_ll_usb.c ****     USBx_HC(hc_num)->HCCHAR |= USB_OTG_HCCHAR_CHDIS;
 787              		.loc 1 1710 5 is_stmt 1 view .LVU221
 788              		.loc 1 1710 29 is_stmt 0 view .LVU222
 789 00fa FB78     		ldrb	r3, [r7, #3]	@ zero_extendqisi2
 790 00fc 5A01     		lsls	r2, r3, #5
 791 00fe 7B68     		ldr	r3, [r7, #4]
ARM GAS  /tmp/ccCoVfPP.s 			page 45


 792 0100 1344     		add	r3, r3, r2
 793 0102 03F5A063 		add	r3, r3, #1280
 794 0106 1B68     		ldr	r3, [r3]
 795 0108 FA78     		ldrb	r2, [r7, #3]	@ zero_extendqisi2
 796 010a 5101     		lsls	r1, r2, #5
 797              	.LVL47:
 798              		.loc 1 1710 29 view .LVU223
 799 010c 7A68     		ldr	r2, [r7, #4]
 800 010e 0A44     		add	r2, r2, r1
 801 0110 02F5A062 		add	r2, r2, #1280
 802 0114 43F08043 		orr	r3, r3, #1073741824
 803 0118 1360     		str	r3, [r2]
1711:ThirdParty/STM32F4xx_HAL_Driver/Src/stm32f4xx_ll_usb.c ****     
1712:ThirdParty/STM32F4xx_HAL_Driver/Src/stm32f4xx_ll_usb.c ****     if ((USBx_HOST->HPTXSTS & 0xFFFFU) == 0U)
 804              		.loc 1 1712 5 is_stmt 1 view .LVU224
 805              		.loc 1 1712 10 is_stmt 0 view .LVU225
 806 011a 7B68     		ldr	r3, [r7, #4]
 807 011c 03F58063 		add	r3, r3, #1024
 808              		.loc 1 1712 19 view .LVU226
 809 0120 1B69     		ldr	r3, [r3, #16]
 810              		.loc 1 1712 29 view .LVU227
 811 0122 9BB2     		uxth	r3, r3
 812              		.loc 1 1712 8 view .LVU228
 813 0124 002B     		cmp	r3, #0
 814 0126 33D1     		bne	.L33
1713:ThirdParty/STM32F4xx_HAL_Driver/Src/stm32f4xx_ll_usb.c ****     {
1714:ThirdParty/STM32F4xx_HAL_Driver/Src/stm32f4xx_ll_usb.c ****       USBx_HC(hc_num)->HCCHAR &= ~USB_OTG_HCCHAR_CHENA;
 815              		.loc 1 1714 7 is_stmt 1 view .LVU229
 816              		.loc 1 1714 31 is_stmt 0 view .LVU230
 817 0128 FB78     		ldrb	r3, [r7, #3]	@ zero_extendqisi2
 818 012a 5A01     		lsls	r2, r3, #5
 819 012c 7B68     		ldr	r3, [r7, #4]
 820 012e 1344     		add	r3, r3, r2
 821 0130 03F5A063 		add	r3, r3, #1280
 822 0134 1B68     		ldr	r3, [r3]
 823 0136 FA78     		ldrb	r2, [r7, #3]	@ zero_extendqisi2
 824 0138 5101     		lsls	r1, r2, #5
 825 013a 7A68     		ldr	r2, [r7, #4]
 826 013c 0A44     		add	r2, r2, r1
 827 013e 02F5A062 		add	r2, r2, #1280
 828 0142 23F00043 		bic	r3, r3, #-2147483648
 829 0146 1360     		str	r3, [r2]
1715:ThirdParty/STM32F4xx_HAL_Driver/Src/stm32f4xx_ll_usb.c ****       USBx_HC(hc_num)->HCCHAR |= USB_OTG_HCCHAR_CHENA;  
 830              		.loc 1 1715 7 is_stmt 1 view .LVU231
 831              		.loc 1 1715 31 is_stmt 0 view .LVU232
 832 0148 FB78     		ldrb	r3, [r7, #3]	@ zero_extendqisi2
 833 014a 5A01     		lsls	r2, r3, #5
 834 014c 7B68     		ldr	r3, [r7, #4]
 835 014e 1344     		add	r3, r3, r2
 836 0150 03F5A063 		add	r3, r3, #1280
 837 0154 1B68     		ldr	r3, [r3]
 838 0156 FA78     		ldrb	r2, [r7, #3]	@ zero_extendqisi2
 839 0158 5101     		lsls	r1, r2, #5
 840 015a 7A68     		ldr	r2, [r7, #4]
 841 015c 0A44     		add	r2, r2, r1
 842 015e 02F5A062 		add	r2, r2, #1280
 843 0162 43F00043 		orr	r3, r3, #-2147483648
ARM GAS  /tmp/ccCoVfPP.s 			page 46


 844 0166 1360     		str	r3, [r2]
 845              	.L36:
1716:ThirdParty/STM32F4xx_HAL_Driver/Src/stm32f4xx_ll_usb.c ****       do 
 846              		.loc 1 1716 7 is_stmt 1 view .LVU233
1717:ThirdParty/STM32F4xx_HAL_Driver/Src/stm32f4xx_ll_usb.c ****       {
1718:ThirdParty/STM32F4xx_HAL_Driver/Src/stm32f4xx_ll_usb.c ****         if (++count > 1000U) 
 847              		.loc 1 1718 9 view .LVU234
 848              		.loc 1 1718 12 is_stmt 0 view .LVU235
 849 0168 FB68     		ldr	r3, [r7, #12]
 850 016a 0133     		adds	r3, r3, #1
 851 016c FB60     		str	r3, [r7, #12]
 852              	.LVL48:
 853              		.loc 1 1718 12 view .LVU236
 854 016e FB68     		ldr	r3, [r7, #12]
 855              		.loc 1 1718 12 view .LVU237
 856 0170 B3F57A7F 		cmp	r3, #1000
 857 0174 1DD8     		bhi	.L40
1719:ThirdParty/STM32F4xx_HAL_Driver/Src/stm32f4xx_ll_usb.c ****         {
1720:ThirdParty/STM32F4xx_HAL_Driver/Src/stm32f4xx_ll_usb.c ****           break;
1721:ThirdParty/STM32F4xx_HAL_Driver/Src/stm32f4xx_ll_usb.c ****         }
1722:ThirdParty/STM32F4xx_HAL_Driver/Src/stm32f4xx_ll_usb.c ****       } 
1723:ThirdParty/STM32F4xx_HAL_Driver/Src/stm32f4xx_ll_usb.c ****       while ((USBx_HC(hc_num)->HCCHAR & USB_OTG_HCCHAR_CHENA) == USB_OTG_HCCHAR_CHENA);     
 858              		.loc 1 1723 13 is_stmt 1 view .LVU238
 859              		.loc 1 1723 15 is_stmt 0 view .LVU239
 860 0176 FB78     		ldrb	r3, [r7, #3]	@ zero_extendqisi2
 861              	.LVL49:
 862              		.loc 1 1723 15 view .LVU240
 863 0178 5A01     		lsls	r2, r3, #5
 864 017a 7B68     		ldr	r3, [r7, #4]
 865 017c 1344     		add	r3, r3, r2
 866 017e 03F5A063 		add	r3, r3, #1280
 867              		.loc 1 1723 30 view .LVU241
 868 0182 1B68     		ldr	r3, [r3]
 869              		.loc 1 1723 39 view .LVU242
 870 0184 03F00043 		and	r3, r3, #-2147483648
 871              		.loc 1 1723 7 view .LVU243
 872 0188 B3F1004F 		cmp	r3, #-2147483648
 873 018c ECD0     		beq	.L36
 874 018e 11E0     		b	.L32
 875              	.L33:
1724:ThirdParty/STM32F4xx_HAL_Driver/Src/stm32f4xx_ll_usb.c ****     }
1725:ThirdParty/STM32F4xx_HAL_Driver/Src/stm32f4xx_ll_usb.c ****     else
1726:ThirdParty/STM32F4xx_HAL_Driver/Src/stm32f4xx_ll_usb.c ****     {
1727:ThirdParty/STM32F4xx_HAL_Driver/Src/stm32f4xx_ll_usb.c ****        USBx_HC(hc_num)->HCCHAR |= USB_OTG_HCCHAR_CHENA; 
 876              		.loc 1 1727 8 is_stmt 1 view .LVU244
 877              		.loc 1 1727 32 is_stmt 0 view .LVU245
 878 0190 FB78     		ldrb	r3, [r7, #3]	@ zero_extendqisi2
 879 0192 5A01     		lsls	r2, r3, #5
 880 0194 7B68     		ldr	r3, [r7, #4]
 881 0196 1344     		add	r3, r3, r2
 882 0198 03F5A063 		add	r3, r3, #1280
 883 019c 1B68     		ldr	r3, [r3]
 884 019e FA78     		ldrb	r2, [r7, #3]	@ zero_extendqisi2
 885 01a0 5101     		lsls	r1, r2, #5
 886 01a2 7A68     		ldr	r2, [r7, #4]
 887 01a4 0A44     		add	r2, r2, r1
 888 01a6 02F5A062 		add	r2, r2, #1280
ARM GAS  /tmp/ccCoVfPP.s 			page 47


 889 01aa 43F00043 		orr	r3, r3, #-2147483648
 890 01ae 1360     		str	r3, [r2]
 891 01b0 00E0     		b	.L32
 892              	.LVL50:
 893              	.L40:
1720:ThirdParty/STM32F4xx_HAL_Driver/Src/stm32f4xx_ll_usb.c ****         }
 894              		.loc 1 1720 11 view .LVU246
 895 01b2 00BF     		nop
 896              	.LVL51:
 897              	.L32:
1728:ThirdParty/STM32F4xx_HAL_Driver/Src/stm32f4xx_ll_usb.c ****     }
1729:ThirdParty/STM32F4xx_HAL_Driver/Src/stm32f4xx_ll_usb.c ****   }
1730:ThirdParty/STM32F4xx_HAL_Driver/Src/stm32f4xx_ll_usb.c ****   
1731:ThirdParty/STM32F4xx_HAL_Driver/Src/stm32f4xx_ll_usb.c ****   return HAL_OK;
 898              		.loc 1 1731 3 is_stmt 1 view .LVU247
 899              		.loc 1 1731 10 is_stmt 0 view .LVU248
 900 01b4 0023     		movs	r3, #0
1732:ThirdParty/STM32F4xx_HAL_Driver/Src/stm32f4xx_ll_usb.c **** }
 901              		.loc 1 1732 1 view .LVU249
 902 01b6 1846     		mov	r0, r3
 903              	.LVL52:
 904              		.loc 1 1732 1 view .LVU250
 905 01b8 1437     		adds	r7, r7, #20
 906              	.LCFI14:
 907              		.cfi_def_cfa_offset 4
 908 01ba BD46     		mov	sp, r7
 909              	.LCFI15:
 910              		.cfi_def_cfa_register 13
 911              		@ sp needed
 912 01bc 5DF8047B 		ldr	r7, [sp], #4
 913              	.LCFI16:
 914              		.cfi_restore 7
 915              		.cfi_def_cfa_offset 0
 916 01c0 7047     		bx	lr
 917              		.cfi_endproc
 918              	.LFE175:
 920              		.section	.text.USB_DoPing,"ax",%progbits
 921              		.align	1
 922              		.global	USB_DoPing
 923              		.syntax unified
 924              		.thumb
 925              		.thumb_func
 927              	USB_DoPing:
 928              	.LVL53:
 929              	.LFB176:
1733:ThirdParty/STM32F4xx_HAL_Driver/Src/stm32f4xx_ll_usb.c **** 
1734:ThirdParty/STM32F4xx_HAL_Driver/Src/stm32f4xx_ll_usb.c **** /**
1735:ThirdParty/STM32F4xx_HAL_Driver/Src/stm32f4xx_ll_usb.c ****   * @brief  Initiate Do Ping protocol
1736:ThirdParty/STM32F4xx_HAL_Driver/Src/stm32f4xx_ll_usb.c ****   * @param  USBx  Selected device
1737:ThirdParty/STM32F4xx_HAL_Driver/Src/stm32f4xx_ll_usb.c ****   * @param  hc_num  Host Channel number
1738:ThirdParty/STM32F4xx_HAL_Driver/Src/stm32f4xx_ll_usb.c ****   *         This parameter can be a value from 1 to 15
1739:ThirdParty/STM32F4xx_HAL_Driver/Src/stm32f4xx_ll_usb.c ****   * @retval HAL state
1740:ThirdParty/STM32F4xx_HAL_Driver/Src/stm32f4xx_ll_usb.c ****   */
1741:ThirdParty/STM32F4xx_HAL_Driver/Src/stm32f4xx_ll_usb.c **** HAL_StatusTypeDef USB_DoPing(USB_OTG_GlobalTypeDef *USBx , uint8_t ch_num)
1742:ThirdParty/STM32F4xx_HAL_Driver/Src/stm32f4xx_ll_usb.c **** {
 930              		.loc 1 1742 1 is_stmt 1 view -0
 931              		.cfi_startproc
ARM GAS  /tmp/ccCoVfPP.s 			page 48


 932              		@ args = 0, pretend = 0, frame = 16
 933              		@ frame_needed = 1, uses_anonymous_args = 0
 934              		@ link register save eliminated.
 935              		.loc 1 1742 1 is_stmt 0 view .LVU252
 936 0000 80B4     		push	{r7}
 937              	.LCFI17:
 938              		.cfi_def_cfa_offset 4
 939              		.cfi_offset 7, -4
 940 0002 85B0     		sub	sp, sp, #20
 941              	.LCFI18:
 942              		.cfi_def_cfa_offset 24
 943 0004 00AF     		add	r7, sp, #0
 944              	.LCFI19:
 945              		.cfi_def_cfa_register 7
 946 0006 7860     		str	r0, [r7, #4]
 947 0008 0B46     		mov	r3, r1
 948 000a FB70     		strb	r3, [r7, #3]
1743:ThirdParty/STM32F4xx_HAL_Driver/Src/stm32f4xx_ll_usb.c ****   uint8_t  num_packets = 1U;
 949              		.loc 1 1743 3 is_stmt 1 view .LVU253
 950              		.loc 1 1743 12 is_stmt 0 view .LVU254
 951 000c 0123     		movs	r3, #1
 952 000e FB73     		strb	r3, [r7, #15]
 953              	.LVL54:
1744:ThirdParty/STM32F4xx_HAL_Driver/Src/stm32f4xx_ll_usb.c ****   uint32_t tmpreg = 0U;
 954              		.loc 1 1744 3 is_stmt 1 view .LVU255
 955              		.loc 1 1744 12 is_stmt 0 view .LVU256
 956 0010 0023     		movs	r3, #0
 957              	.LVL55:
 958              		.loc 1 1744 12 view .LVU257
 959 0012 BB60     		str	r3, [r7, #8]
 960              	.LVL56:
1745:ThirdParty/STM32F4xx_HAL_Driver/Src/stm32f4xx_ll_usb.c **** 
1746:ThirdParty/STM32F4xx_HAL_Driver/Src/stm32f4xx_ll_usb.c ****   USBx_HC(ch_num)->HCTSIZ = ((num_packets << 19U) & USB_OTG_HCTSIZ_PKTCNT) |\
 961              		.loc 1 1746 3 is_stmt 1 view .LVU258
 962              		.loc 1 1746 43 is_stmt 0 view .LVU259
 963 0014 FB7B     		ldrb	r3, [r7, #15]	@ zero_extendqisi2
 964              	.LVL57:
 965              		.loc 1 1746 43 view .LVU260
 966 0016 DB04     		lsls	r3, r3, #19
 967 0018 1A46     		mov	r2, r3
 968              		.loc 1 1746 51 view .LVU261
 969 001a 154B     		ldr	r3, .L43
 970 001c 1340     		ands	r3, r3, r2
 971              		.loc 1 1746 3 view .LVU262
 972 001e FA78     		ldrb	r2, [r7, #3]	@ zero_extendqisi2
 973 0020 5101     		lsls	r1, r2, #5
 974              	.LVL58:
 975              		.loc 1 1746 3 view .LVU263
 976 0022 7A68     		ldr	r2, [r7, #4]
 977 0024 0A44     		add	r2, r2, r1
 978 0026 02F5A062 		add	r2, r2, #1280
 979              		.loc 1 1746 76 view .LVU264
 980 002a 43F00043 		orr	r3, r3, #-2147483648
 981              		.loc 1 1746 27 view .LVU265
 982 002e 1361     		str	r3, [r2, #16]
1747:ThirdParty/STM32F4xx_HAL_Driver/Src/stm32f4xx_ll_usb.c ****                                 USB_OTG_HCTSIZ_DOPING;
1748:ThirdParty/STM32F4xx_HAL_Driver/Src/stm32f4xx_ll_usb.c ****   
ARM GAS  /tmp/ccCoVfPP.s 			page 49


1749:ThirdParty/STM32F4xx_HAL_Driver/Src/stm32f4xx_ll_usb.c ****   /* Set host channel enable */
1750:ThirdParty/STM32F4xx_HAL_Driver/Src/stm32f4xx_ll_usb.c ****   tmpreg = USBx_HC(ch_num)->HCCHAR;
 983              		.loc 1 1750 3 is_stmt 1 view .LVU266
 984              		.loc 1 1750 12 is_stmt 0 view .LVU267
 985 0030 FB78     		ldrb	r3, [r7, #3]	@ zero_extendqisi2
 986 0032 5A01     		lsls	r2, r3, #5
 987 0034 7B68     		ldr	r3, [r7, #4]
 988 0036 1344     		add	r3, r3, r2
 989 0038 03F5A063 		add	r3, r3, #1280
 990              		.loc 1 1750 10 view .LVU268
 991 003c 1B68     		ldr	r3, [r3]
 992 003e BB60     		str	r3, [r7, #8]
 993              	.LVL59:
1751:ThirdParty/STM32F4xx_HAL_Driver/Src/stm32f4xx_ll_usb.c ****   tmpreg &= ~USB_OTG_HCCHAR_CHDIS;
 994              		.loc 1 1751 3 is_stmt 1 view .LVU269
 995              		.loc 1 1751 10 is_stmt 0 view .LVU270
 996 0040 BB68     		ldr	r3, [r7, #8]
 997              		.loc 1 1751 10 view .LVU271
 998 0042 23F08043 		bic	r3, r3, #1073741824
 999              	.LVL60:
 1000              		.loc 1 1751 10 view .LVU272
 1001 0046 BB60     		str	r3, [r7, #8]
 1002              	.LVL61:
1752:ThirdParty/STM32F4xx_HAL_Driver/Src/stm32f4xx_ll_usb.c ****   tmpreg |= USB_OTG_HCCHAR_CHENA;
 1003              		.loc 1 1752 3 is_stmt 1 view .LVU273
 1004              		.loc 1 1752 10 is_stmt 0 view .LVU274
 1005 0048 BB68     		ldr	r3, [r7, #8]
 1006              		.loc 1 1752 10 view .LVU275
 1007 004a 43F00043 		orr	r3, r3, #-2147483648
 1008              	.LVL62:
 1009              		.loc 1 1752 10 view .LVU276
 1010 004e BB60     		str	r3, [r7, #8]
 1011              	.LVL63:
1753:ThirdParty/STM32F4xx_HAL_Driver/Src/stm32f4xx_ll_usb.c ****   USBx_HC(ch_num)->HCCHAR = tmpreg;
 1012              		.loc 1 1753 3 is_stmt 1 view .LVU277
 1013 0050 FB78     		ldrb	r3, [r7, #3]	@ zero_extendqisi2
 1014              	.LVL64:
 1015              		.loc 1 1753 3 is_stmt 0 view .LVU278
 1016 0052 5A01     		lsls	r2, r3, #5
 1017 0054 7B68     		ldr	r3, [r7, #4]
 1018 0056 1344     		add	r3, r3, r2
 1019 0058 03F5A063 		add	r3, r3, #1280
 1020 005c 1A46     		mov	r2, r3
 1021              		.loc 1 1753 27 view .LVU279
 1022 005e BB68     		ldr	r3, [r7, #8]
 1023 0060 1360     		str	r3, [r2]
1754:ThirdParty/STM32F4xx_HAL_Driver/Src/stm32f4xx_ll_usb.c ****   
1755:ThirdParty/STM32F4xx_HAL_Driver/Src/stm32f4xx_ll_usb.c ****   return HAL_OK;  
 1024              		.loc 1 1755 3 is_stmt 1 view .LVU280
 1025              		.loc 1 1755 10 is_stmt 0 view .LVU281
 1026 0062 0023     		movs	r3, #0
1756:ThirdParty/STM32F4xx_HAL_Driver/Src/stm32f4xx_ll_usb.c **** }
 1027              		.loc 1 1756 1 view .LVU282
 1028 0064 1846     		mov	r0, r3
 1029              	.LVL65:
 1030              		.loc 1 1756 1 view .LVU283
 1031 0066 1437     		adds	r7, r7, #20
ARM GAS  /tmp/ccCoVfPP.s 			page 50


 1032              	.LCFI20:
 1033              		.cfi_def_cfa_offset 4
 1034 0068 BD46     		mov	sp, r7
 1035              	.LCFI21:
 1036              		.cfi_def_cfa_register 13
 1037              		@ sp needed
 1038 006a 5DF8047B 		ldr	r7, [sp], #4
 1039              	.LCFI22:
 1040              		.cfi_restore 7
 1041              		.cfi_def_cfa_offset 0
 1042 006e 7047     		bx	lr
 1043              	.L44:
 1044              		.align	2
 1045              	.L43:
 1046 0070 0000F81F 		.word	536346624
 1047              		.cfi_endproc
 1048              	.LFE176:
 1050              		.section	.text.USB_StopHost,"ax",%progbits
 1051              		.align	1
 1052              		.global	USB_StopHost
 1053              		.syntax unified
 1054              		.thumb
 1055              		.thumb_func
 1057              	USB_StopHost:
 1058              	.LVL66:
 1059              	.LFB177:
1757:ThirdParty/STM32F4xx_HAL_Driver/Src/stm32f4xx_ll_usb.c **** 
1758:ThirdParty/STM32F4xx_HAL_Driver/Src/stm32f4xx_ll_usb.c **** /**
1759:ThirdParty/STM32F4xx_HAL_Driver/Src/stm32f4xx_ll_usb.c ****   * @brief  Stop Host Core
1760:ThirdParty/STM32F4xx_HAL_Driver/Src/stm32f4xx_ll_usb.c ****   * @param  USBx  Selected device
1761:ThirdParty/STM32F4xx_HAL_Driver/Src/stm32f4xx_ll_usb.c ****   * @retval HAL state
1762:ThirdParty/STM32F4xx_HAL_Driver/Src/stm32f4xx_ll_usb.c ****   */
1763:ThirdParty/STM32F4xx_HAL_Driver/Src/stm32f4xx_ll_usb.c **** HAL_StatusTypeDef USB_StopHost(USB_OTG_GlobalTypeDef *USBx)
1764:ThirdParty/STM32F4xx_HAL_Driver/Src/stm32f4xx_ll_usb.c **** {
 1060              		.loc 1 1764 1 is_stmt 1 view -0
 1061              		.cfi_startproc
 1062              		@ args = 0, pretend = 0, frame = 24
 1063              		@ frame_needed = 1, uses_anonymous_args = 0
 1064              		.loc 1 1764 1 is_stmt 0 view .LVU285
 1065 0000 80B5     		push	{r7, lr}
 1066              	.LCFI23:
 1067              		.cfi_def_cfa_offset 8
 1068              		.cfi_offset 7, -8
 1069              		.cfi_offset 14, -4
 1070 0002 86B0     		sub	sp, sp, #24
 1071              	.LCFI24:
 1072              		.cfi_def_cfa_offset 32
 1073 0004 00AF     		add	r7, sp, #0
 1074              	.LCFI25:
 1075              		.cfi_def_cfa_register 7
 1076 0006 7860     		str	r0, [r7, #4]
1765:ThirdParty/STM32F4xx_HAL_Driver/Src/stm32f4xx_ll_usb.c ****   uint8_t i;
 1077              		.loc 1 1765 3 is_stmt 1 view .LVU286
1766:ThirdParty/STM32F4xx_HAL_Driver/Src/stm32f4xx_ll_usb.c ****   uint32_t count = 0U;
 1078              		.loc 1 1766 3 view .LVU287
 1079              		.loc 1 1766 12 is_stmt 0 view .LVU288
 1080 0008 0023     		movs	r3, #0
ARM GAS  /tmp/ccCoVfPP.s 			page 51


 1081 000a 3B61     		str	r3, [r7, #16]
 1082              	.LVL67:
1767:ThirdParty/STM32F4xx_HAL_Driver/Src/stm32f4xx_ll_usb.c ****   uint32_t value;
 1083              		.loc 1 1767 3 is_stmt 1 view .LVU289
1768:ThirdParty/STM32F4xx_HAL_Driver/Src/stm32f4xx_ll_usb.c ****   
1769:ThirdParty/STM32F4xx_HAL_Driver/Src/stm32f4xx_ll_usb.c ****   USB_DisableGlobalInt(USBx);
 1084              		.loc 1 1769 3 view .LVU290
 1085 000c 7868     		ldr	r0, [r7, #4]
 1086              		.loc 1 1769 3 is_stmt 0 view .LVU291
 1087 000e FFF7FEFF 		bl	USB_DisableGlobalInt
 1088              	.LVL68:
1770:ThirdParty/STM32F4xx_HAL_Driver/Src/stm32f4xx_ll_usb.c ****   
1771:ThirdParty/STM32F4xx_HAL_Driver/Src/stm32f4xx_ll_usb.c ****     /* Flush FIFO */
1772:ThirdParty/STM32F4xx_HAL_Driver/Src/stm32f4xx_ll_usb.c ****   USB_FlushTxFifo(USBx, 0x10U);
 1089              		.loc 1 1772 3 is_stmt 1 view .LVU292
 1090 0012 1021     		movs	r1, #16
 1091 0014 7868     		ldr	r0, [r7, #4]
 1092 0016 FFF7FEFF 		bl	USB_FlushTxFifo
 1093              	.LVL69:
1773:ThirdParty/STM32F4xx_HAL_Driver/Src/stm32f4xx_ll_usb.c ****   USB_FlushRxFifo(USBx);
 1094              		.loc 1 1773 3 view .LVU293
 1095 001a 7868     		ldr	r0, [r7, #4]
 1096 001c FFF7FEFF 		bl	USB_FlushRxFifo
 1097              	.LVL70:
1774:ThirdParty/STM32F4xx_HAL_Driver/Src/stm32f4xx_ll_usb.c ****   
1775:ThirdParty/STM32F4xx_HAL_Driver/Src/stm32f4xx_ll_usb.c ****   /* Flush out any leftover queued requests. */
1776:ThirdParty/STM32F4xx_HAL_Driver/Src/stm32f4xx_ll_usb.c ****   for (i = 0; i <= 15; i++)
 1098              		.loc 1 1776 3 view .LVU294
 1099              		.loc 1 1776 10 is_stmt 0 view .LVU295
 1100 0020 0023     		movs	r3, #0
 1101 0022 FB75     		strb	r3, [r7, #23]
 1102              	.LVL71:
 1103              		.loc 1 1776 3 view .LVU296
 1104 0024 1FE0     		b	.L46
 1105              	.LVL72:
 1106              	.L47:
1777:ThirdParty/STM32F4xx_HAL_Driver/Src/stm32f4xx_ll_usb.c ****   {   
1778:ThirdParty/STM32F4xx_HAL_Driver/Src/stm32f4xx_ll_usb.c **** 
1779:ThirdParty/STM32F4xx_HAL_Driver/Src/stm32f4xx_ll_usb.c ****     value = USBx_HC(i)->HCCHAR ;
 1107              		.loc 1 1779 5 is_stmt 1 discriminator 3 view .LVU297
 1108              		.loc 1 1779 13 is_stmt 0 discriminator 3 view .LVU298
 1109 0026 FB7D     		ldrb	r3, [r7, #23]	@ zero_extendqisi2
 1110 0028 5A01     		lsls	r2, r3, #5
 1111 002a 7B68     		ldr	r3, [r7, #4]
 1112 002c 1344     		add	r3, r3, r2
 1113 002e 03F5A063 		add	r3, r3, #1280
 1114              		.loc 1 1779 11 discriminator 3 view .LVU299
 1115 0032 1B68     		ldr	r3, [r3]
 1116 0034 FB60     		str	r3, [r7, #12]
 1117              	.LVL73:
1780:ThirdParty/STM32F4xx_HAL_Driver/Src/stm32f4xx_ll_usb.c ****     value |=  USB_OTG_HCCHAR_CHDIS;
 1118              		.loc 1 1780 5 is_stmt 1 discriminator 3 view .LVU300
 1119              		.loc 1 1780 11 is_stmt 0 discriminator 3 view .LVU301
 1120 0036 FB68     		ldr	r3, [r7, #12]
 1121              		.loc 1 1780 11 discriminator 3 view .LVU302
 1122 0038 43F08043 		orr	r3, r3, #1073741824
 1123              	.LVL74:
ARM GAS  /tmp/ccCoVfPP.s 			page 52


 1124              		.loc 1 1780 11 discriminator 3 view .LVU303
 1125 003c FB60     		str	r3, [r7, #12]
 1126              	.LVL75:
1781:ThirdParty/STM32F4xx_HAL_Driver/Src/stm32f4xx_ll_usb.c ****     value &= ~USB_OTG_HCCHAR_CHENA;  
 1127              		.loc 1 1781 5 is_stmt 1 discriminator 3 view .LVU304
 1128              		.loc 1 1781 11 is_stmt 0 discriminator 3 view .LVU305
 1129 003e FB68     		ldr	r3, [r7, #12]
 1130              		.loc 1 1781 11 discriminator 3 view .LVU306
 1131 0040 23F00043 		bic	r3, r3, #-2147483648
 1132              	.LVL76:
 1133              		.loc 1 1781 11 discriminator 3 view .LVU307
 1134 0044 FB60     		str	r3, [r7, #12]
 1135              	.LVL77:
1782:ThirdParty/STM32F4xx_HAL_Driver/Src/stm32f4xx_ll_usb.c ****     value &= ~USB_OTG_HCCHAR_EPDIR;
 1136              		.loc 1 1782 5 is_stmt 1 discriminator 3 view .LVU308
 1137              		.loc 1 1782 11 is_stmt 0 discriminator 3 view .LVU309
 1138 0046 FB68     		ldr	r3, [r7, #12]
 1139              		.loc 1 1782 11 discriminator 3 view .LVU310
 1140 0048 23F40043 		bic	r3, r3, #32768
 1141              	.LVL78:
 1142              		.loc 1 1782 11 discriminator 3 view .LVU311
 1143 004c FB60     		str	r3, [r7, #12]
 1144              	.LVL79:
1783:ThirdParty/STM32F4xx_HAL_Driver/Src/stm32f4xx_ll_usb.c ****     USBx_HC(i)->HCCHAR = value;
 1145              		.loc 1 1783 5 is_stmt 1 discriminator 3 view .LVU312
 1146 004e FB7D     		ldrb	r3, [r7, #23]	@ zero_extendqisi2
 1147              	.LVL80:
 1148              		.loc 1 1783 5 is_stmt 0 discriminator 3 view .LVU313
 1149 0050 5A01     		lsls	r2, r3, #5
 1150 0052 7B68     		ldr	r3, [r7, #4]
 1151 0054 1344     		add	r3, r3, r2
 1152 0056 03F5A063 		add	r3, r3, #1280
 1153 005a 1A46     		mov	r2, r3
 1154              		.loc 1 1783 24 discriminator 3 view .LVU314
 1155 005c FB68     		ldr	r3, [r7, #12]
 1156 005e 1360     		str	r3, [r2]
1776:ThirdParty/STM32F4xx_HAL_Driver/Src/stm32f4xx_ll_usb.c ****   {   
 1157              		.loc 1 1776 24 is_stmt 1 discriminator 3 view .LVU315
1776:ThirdParty/STM32F4xx_HAL_Driver/Src/stm32f4xx_ll_usb.c ****   {   
 1158              		.loc 1 1776 25 is_stmt 0 discriminator 3 view .LVU316
 1159 0060 FB7D     		ldrb	r3, [r7, #23]	@ zero_extendqisi2
 1160 0062 0133     		adds	r3, r3, #1
 1161 0064 FB75     		strb	r3, [r7, #23]
 1162              	.LVL81:
 1163              	.L46:
1776:ThirdParty/STM32F4xx_HAL_Driver/Src/stm32f4xx_ll_usb.c ****   {   
 1164              		.loc 1 1776 15 is_stmt 1 discriminator 1 view .LVU317
1776:ThirdParty/STM32F4xx_HAL_Driver/Src/stm32f4xx_ll_usb.c ****   {   
 1165              		.loc 1 1776 3 is_stmt 0 discriminator 1 view .LVU318
 1166 0066 FB7D     		ldrb	r3, [r7, #23]	@ zero_extendqisi2
 1167 0068 0F2B     		cmp	r3, #15
 1168 006a DCD9     		bls	.L47
1784:ThirdParty/STM32F4xx_HAL_Driver/Src/stm32f4xx_ll_usb.c ****   }
1785:ThirdParty/STM32F4xx_HAL_Driver/Src/stm32f4xx_ll_usb.c ****   
1786:ThirdParty/STM32F4xx_HAL_Driver/Src/stm32f4xx_ll_usb.c ****   /* Halt all channels to put them into a known state. */  
1787:ThirdParty/STM32F4xx_HAL_Driver/Src/stm32f4xx_ll_usb.c ****   for (i = 0; i <= 15; i++)
 1169              		.loc 1 1787 3 is_stmt 1 view .LVU319
ARM GAS  /tmp/ccCoVfPP.s 			page 53


 1170              		.loc 1 1787 10 is_stmt 0 view .LVU320
 1171 006c 0023     		movs	r3, #0
 1172 006e FB75     		strb	r3, [r7, #23]
 1173              	.LVL82:
 1174              		.loc 1 1787 3 view .LVU321
 1175 0070 34E0     		b	.L48
 1176              	.LVL83:
 1177              	.L52:
1788:ThirdParty/STM32F4xx_HAL_Driver/Src/stm32f4xx_ll_usb.c ****   {
1789:ThirdParty/STM32F4xx_HAL_Driver/Src/stm32f4xx_ll_usb.c ****     value = USBx_HC(i)->HCCHAR ;
 1178              		.loc 1 1789 5 is_stmt 1 view .LVU322
 1179              		.loc 1 1789 13 is_stmt 0 view .LVU323
 1180 0072 FB7D     		ldrb	r3, [r7, #23]	@ zero_extendqisi2
 1181 0074 5A01     		lsls	r2, r3, #5
 1182 0076 7B68     		ldr	r3, [r7, #4]
 1183 0078 1344     		add	r3, r3, r2
 1184 007a 03F5A063 		add	r3, r3, #1280
 1185              		.loc 1 1789 11 view .LVU324
 1186 007e 1B68     		ldr	r3, [r3]
 1187 0080 FB60     		str	r3, [r7, #12]
 1188              	.LVL84:
1790:ThirdParty/STM32F4xx_HAL_Driver/Src/stm32f4xx_ll_usb.c ****     
1791:ThirdParty/STM32F4xx_HAL_Driver/Src/stm32f4xx_ll_usb.c ****     value |= USB_OTG_HCCHAR_CHDIS;
 1189              		.loc 1 1791 5 is_stmt 1 view .LVU325
 1190              		.loc 1 1791 11 is_stmt 0 view .LVU326
 1191 0082 FB68     		ldr	r3, [r7, #12]
 1192              		.loc 1 1791 11 view .LVU327
 1193 0084 43F08043 		orr	r3, r3, #1073741824
 1194              	.LVL85:
 1195              		.loc 1 1791 11 view .LVU328
 1196 0088 FB60     		str	r3, [r7, #12]
 1197              	.LVL86:
1792:ThirdParty/STM32F4xx_HAL_Driver/Src/stm32f4xx_ll_usb.c ****     value |= USB_OTG_HCCHAR_CHENA;  
 1198              		.loc 1 1792 5 is_stmt 1 view .LVU329
 1199              		.loc 1 1792 11 is_stmt 0 view .LVU330
 1200 008a FB68     		ldr	r3, [r7, #12]
 1201              		.loc 1 1792 11 view .LVU331
 1202 008c 43F00043 		orr	r3, r3, #-2147483648
 1203              	.LVL87:
 1204              		.loc 1 1792 11 view .LVU332
 1205 0090 FB60     		str	r3, [r7, #12]
 1206              	.LVL88:
1793:ThirdParty/STM32F4xx_HAL_Driver/Src/stm32f4xx_ll_usb.c ****     value &= ~USB_OTG_HCCHAR_EPDIR;
 1207              		.loc 1 1793 5 is_stmt 1 view .LVU333
 1208              		.loc 1 1793 11 is_stmt 0 view .LVU334
 1209 0092 FB68     		ldr	r3, [r7, #12]
 1210              		.loc 1 1793 11 view .LVU335
 1211 0094 23F40043 		bic	r3, r3, #32768
 1212              	.LVL89:
 1213              		.loc 1 1793 11 view .LVU336
 1214 0098 FB60     		str	r3, [r7, #12]
 1215              	.LVL90:
1794:ThirdParty/STM32F4xx_HAL_Driver/Src/stm32f4xx_ll_usb.c ****     
1795:ThirdParty/STM32F4xx_HAL_Driver/Src/stm32f4xx_ll_usb.c ****     USBx_HC(i)->HCCHAR = value;
 1216              		.loc 1 1795 5 is_stmt 1 view .LVU337
 1217 009a FB7D     		ldrb	r3, [r7, #23]	@ zero_extendqisi2
 1218              	.LVL91:
ARM GAS  /tmp/ccCoVfPP.s 			page 54


 1219              		.loc 1 1795 5 is_stmt 0 view .LVU338
 1220 009c 5A01     		lsls	r2, r3, #5
 1221 009e 7B68     		ldr	r3, [r7, #4]
 1222 00a0 1344     		add	r3, r3, r2
 1223 00a2 03F5A063 		add	r3, r3, #1280
 1224 00a6 1A46     		mov	r2, r3
 1225              		.loc 1 1795 24 view .LVU339
 1226 00a8 FB68     		ldr	r3, [r7, #12]
 1227 00aa 1360     		str	r3, [r2]
 1228              	.L51:
1796:ThirdParty/STM32F4xx_HAL_Driver/Src/stm32f4xx_ll_usb.c ****     do 
 1229              		.loc 1 1796 5 is_stmt 1 view .LVU340
1797:ThirdParty/STM32F4xx_HAL_Driver/Src/stm32f4xx_ll_usb.c ****     {
1798:ThirdParty/STM32F4xx_HAL_Driver/Src/stm32f4xx_ll_usb.c ****       if (++count > 1000U) 
 1230              		.loc 1 1798 7 view .LVU341
 1231              		.loc 1 1798 10 is_stmt 0 view .LVU342
 1232 00ac 3B69     		ldr	r3, [r7, #16]
 1233 00ae 0133     		adds	r3, r3, #1
 1234 00b0 3B61     		str	r3, [r7, #16]
 1235              	.LVL92:
 1236              		.loc 1 1798 10 view .LVU343
 1237 00b2 3B69     		ldr	r3, [r7, #16]
 1238              		.loc 1 1798 10 view .LVU344
 1239 00b4 B3F57A7F 		cmp	r3, #1000
 1240 00b8 0CD8     		bhi	.L54
1799:ThirdParty/STM32F4xx_HAL_Driver/Src/stm32f4xx_ll_usb.c ****       {
1800:ThirdParty/STM32F4xx_HAL_Driver/Src/stm32f4xx_ll_usb.c ****         break;
1801:ThirdParty/STM32F4xx_HAL_Driver/Src/stm32f4xx_ll_usb.c ****       }
1802:ThirdParty/STM32F4xx_HAL_Driver/Src/stm32f4xx_ll_usb.c ****     } 
1803:ThirdParty/STM32F4xx_HAL_Driver/Src/stm32f4xx_ll_usb.c ****     while ((USBx_HC(i)->HCCHAR & USB_OTG_HCCHAR_CHENA) == USB_OTG_HCCHAR_CHENA);
 1241              		.loc 1 1803 11 is_stmt 1 view .LVU345
 1242              		.loc 1 1803 13 is_stmt 0 view .LVU346
 1243 00ba FB7D     		ldrb	r3, [r7, #23]	@ zero_extendqisi2
 1244              	.LVL93:
 1245              		.loc 1 1803 13 view .LVU347
 1246 00bc 5A01     		lsls	r2, r3, #5
 1247 00be 7B68     		ldr	r3, [r7, #4]
 1248 00c0 1344     		add	r3, r3, r2
 1249 00c2 03F5A063 		add	r3, r3, #1280
 1250              		.loc 1 1803 23 view .LVU348
 1251 00c6 1B68     		ldr	r3, [r3]
 1252              		.loc 1 1803 32 view .LVU349
 1253 00c8 03F00043 		and	r3, r3, #-2147483648
 1254              		.loc 1 1803 5 view .LVU350
 1255 00cc B3F1004F 		cmp	r3, #-2147483648
 1256 00d0 ECD0     		beq	.L51
 1257 00d2 00E0     		b	.L50
 1258              	.LVL94:
 1259              	.L54:
1800:ThirdParty/STM32F4xx_HAL_Driver/Src/stm32f4xx_ll_usb.c ****       }
 1260              		.loc 1 1800 9 view .LVU351
 1261 00d4 00BF     		nop
 1262              	.LVL95:
 1263              	.L50:
1787:ThirdParty/STM32F4xx_HAL_Driver/Src/stm32f4xx_ll_usb.c ****   {
 1264              		.loc 1 1787 24 is_stmt 1 discriminator 2 view .LVU352
1787:ThirdParty/STM32F4xx_HAL_Driver/Src/stm32f4xx_ll_usb.c ****   {
ARM GAS  /tmp/ccCoVfPP.s 			page 55


 1265              		.loc 1 1787 25 is_stmt 0 discriminator 2 view .LVU353
 1266 00d6 FB7D     		ldrb	r3, [r7, #23]	@ zero_extendqisi2
 1267 00d8 0133     		adds	r3, r3, #1
 1268 00da FB75     		strb	r3, [r7, #23]
 1269              	.LVL96:
 1270              	.L48:
1787:ThirdParty/STM32F4xx_HAL_Driver/Src/stm32f4xx_ll_usb.c ****   {
 1271              		.loc 1 1787 15 is_stmt 1 discriminator 1 view .LVU354
1787:ThirdParty/STM32F4xx_HAL_Driver/Src/stm32f4xx_ll_usb.c ****   {
 1272              		.loc 1 1787 3 is_stmt 0 discriminator 1 view .LVU355
 1273 00dc FB7D     		ldrb	r3, [r7, #23]	@ zero_extendqisi2
 1274 00de 0F2B     		cmp	r3, #15
 1275 00e0 C7D9     		bls	.L52
1804:ThirdParty/STM32F4xx_HAL_Driver/Src/stm32f4xx_ll_usb.c ****   }
1805:ThirdParty/STM32F4xx_HAL_Driver/Src/stm32f4xx_ll_usb.c **** 
1806:ThirdParty/STM32F4xx_HAL_Driver/Src/stm32f4xx_ll_usb.c ****   /* Clear any pending Host interrupts */  
1807:ThirdParty/STM32F4xx_HAL_Driver/Src/stm32f4xx_ll_usb.c ****   USBx_HOST->HAINT = 0xFFFFFFFFU;
 1276              		.loc 1 1807 3 is_stmt 1 view .LVU356
 1277 00e2 7B68     		ldr	r3, [r7, #4]
 1278 00e4 03F58063 		add	r3, r3, #1024
 1279 00e8 1A46     		mov	r2, r3
 1280              		.loc 1 1807 20 is_stmt 0 view .LVU357
 1281 00ea 4FF0FF33 		mov	r3, #-1
 1282 00ee 5361     		str	r3, [r2, #20]
1808:ThirdParty/STM32F4xx_HAL_Driver/Src/stm32f4xx_ll_usb.c ****   USBx->GINTSTS = 0xFFFFFFFFU;
 1283              		.loc 1 1808 3 is_stmt 1 view .LVU358
 1284              		.loc 1 1808 17 is_stmt 0 view .LVU359
 1285 00f0 7B68     		ldr	r3, [r7, #4]
 1286 00f2 4FF0FF32 		mov	r2, #-1
 1287 00f6 5A61     		str	r2, [r3, #20]
1809:ThirdParty/STM32F4xx_HAL_Driver/Src/stm32f4xx_ll_usb.c ****   USB_EnableGlobalInt(USBx);
 1288              		.loc 1 1809 3 is_stmt 1 view .LVU360
 1289 00f8 7868     		ldr	r0, [r7, #4]
 1290 00fa FFF7FEFF 		bl	USB_EnableGlobalInt
 1291              	.LVL97:
1810:ThirdParty/STM32F4xx_HAL_Driver/Src/stm32f4xx_ll_usb.c ****   return HAL_OK;  
 1292              		.loc 1 1810 3 view .LVU361
 1293              		.loc 1 1810 10 is_stmt 0 view .LVU362
 1294 00fe 0023     		movs	r3, #0
1811:ThirdParty/STM32F4xx_HAL_Driver/Src/stm32f4xx_ll_usb.c **** }
 1295              		.loc 1 1811 1 view .LVU363
 1296 0100 1846     		mov	r0, r3
 1297 0102 1837     		adds	r7, r7, #24
 1298              	.LCFI26:
 1299              		.cfi_def_cfa_offset 8
 1300 0104 BD46     		mov	sp, r7
 1301              	.LCFI27:
 1302              		.cfi_def_cfa_register 13
 1303              		@ sp needed
 1304 0106 80BD     		pop	{r7, pc}
 1305              		.cfi_endproc
 1306              	.LFE177:
 1308              		.section	.text.USB_CoreReset,"ax",%progbits
 1309              		.align	1
 1310              		.syntax unified
 1311              		.thumb
 1312              		.thumb_func
ARM GAS  /tmp/ccCoVfPP.s 			page 56


 1314              	USB_CoreReset:
 1315              	.LVL98:
 1316              	.LFB165:
1209:ThirdParty/STM32F4xx_HAL_Driver/Src/stm32f4xx_ll_usb.c ****   uint32_t count = 0U;
 1317              		.loc 1 1209 1 is_stmt 1 view -0
 1318              		.cfi_startproc
 1319              		@ args = 0, pretend = 0, frame = 0
 1320              		@ frame_needed = 0, uses_anonymous_args = 0
 1321              		@ link register save eliminated.
1210:ThirdParty/STM32F4xx_HAL_Driver/Src/stm32f4xx_ll_usb.c **** 
 1322              		.loc 1 1210 3 view .LVU365
1210:ThirdParty/STM32F4xx_HAL_Driver/Src/stm32f4xx_ll_usb.c **** 
 1323              		.loc 1 1210 12 is_stmt 0 view .LVU366
 1324 0000 0023     		movs	r3, #0
 1325              	.LVL99:
 1326              	.L57:
1213:ThirdParty/STM32F4xx_HAL_Driver/Src/stm32f4xx_ll_usb.c ****   {
 1327              		.loc 1 1213 3 is_stmt 1 view .LVU367
1215:ThirdParty/STM32F4xx_HAL_Driver/Src/stm32f4xx_ll_usb.c ****     {
 1328              		.loc 1 1215 5 view .LVU368
1215:ThirdParty/STM32F4xx_HAL_Driver/Src/stm32f4xx_ll_usb.c ****     {
 1329              		.loc 1 1215 8 is_stmt 0 view .LVU369
 1330 0002 0133     		adds	r3, r3, #1
 1331              	.LVL100:
1215:ThirdParty/STM32F4xx_HAL_Driver/Src/stm32f4xx_ll_usb.c ****     {
 1332              		.loc 1 1215 8 view .LVU370
 1333 0004 0C4A     		ldr	r2, .L61
 1334 0006 9342     		cmp	r3, r2
 1335 0008 11D8     		bhi	.L59
1220:ThirdParty/STM32F4xx_HAL_Driver/Src/stm32f4xx_ll_usb.c ****   
 1336              		.loc 1 1220 9 is_stmt 1 view .LVU371
1220:ThirdParty/STM32F4xx_HAL_Driver/Src/stm32f4xx_ll_usb.c ****   
 1337              		.loc 1 1220 15 is_stmt 0 view .LVU372
 1338 000a 0269     		ldr	r2, [r0, #16]
1220:ThirdParty/STM32F4xx_HAL_Driver/Src/stm32f4xx_ll_usb.c ****   
 1339              		.loc 1 1220 3 view .LVU373
 1340 000c 002A     		cmp	r2, #0
 1341 000e F8DA     		bge	.L57
1223:ThirdParty/STM32F4xx_HAL_Driver/Src/stm32f4xx_ll_usb.c ****   USBx->GRSTCTL |= USB_OTG_GRSTCTL_CSRST;
 1342              		.loc 1 1223 3 is_stmt 1 view .LVU374
 1343              	.LVL101:
1224:ThirdParty/STM32F4xx_HAL_Driver/Src/stm32f4xx_ll_usb.c **** 
 1344              		.loc 1 1224 3 view .LVU375
1224:ThirdParty/STM32F4xx_HAL_Driver/Src/stm32f4xx_ll_usb.c **** 
 1345              		.loc 1 1224 17 is_stmt 0 view .LVU376
 1346 0010 0369     		ldr	r3, [r0, #16]
 1347 0012 43F00103 		orr	r3, r3, #1
 1348 0016 0361     		str	r3, [r0, #16]
1223:ThirdParty/STM32F4xx_HAL_Driver/Src/stm32f4xx_ll_usb.c ****   USBx->GRSTCTL |= USB_OTG_GRSTCTL_CSRST;
 1349              		.loc 1 1223 9 view .LVU377
 1350 0018 0023     		movs	r3, #0
 1351              	.LVL102:
 1352              	.L58:
1226:ThirdParty/STM32F4xx_HAL_Driver/Src/stm32f4xx_ll_usb.c ****   {
 1353              		.loc 1 1226 3 is_stmt 1 view .LVU378
1228:ThirdParty/STM32F4xx_HAL_Driver/Src/stm32f4xx_ll_usb.c ****     {
 1354              		.loc 1 1228 5 view .LVU379
ARM GAS  /tmp/ccCoVfPP.s 			page 57


1228:ThirdParty/STM32F4xx_HAL_Driver/Src/stm32f4xx_ll_usb.c ****     {
 1355              		.loc 1 1228 8 is_stmt 0 view .LVU380
 1356 001a 0133     		adds	r3, r3, #1
 1357              	.LVL103:
1228:ThirdParty/STM32F4xx_HAL_Driver/Src/stm32f4xx_ll_usb.c ****     {
 1358              		.loc 1 1228 8 view .LVU381
 1359 001c 064A     		ldr	r2, .L61
 1360 001e 9342     		cmp	r3, r2
 1361 0020 07D8     		bhi	.L60
1233:ThirdParty/STM32F4xx_HAL_Driver/Src/stm32f4xx_ll_usb.c ****   
 1362              		.loc 1 1233 9 is_stmt 1 view .LVU382
1233:ThirdParty/STM32F4xx_HAL_Driver/Src/stm32f4xx_ll_usb.c ****   
 1363              		.loc 1 1233 15 is_stmt 0 view .LVU383
 1364 0022 0269     		ldr	r2, [r0, #16]
1233:ThirdParty/STM32F4xx_HAL_Driver/Src/stm32f4xx_ll_usb.c ****   
 1365              		.loc 1 1233 3 view .LVU384
 1366 0024 12F0010F 		tst	r2, #1
 1367 0028 F7D1     		bne	.L58
1235:ThirdParty/STM32F4xx_HAL_Driver/Src/stm32f4xx_ll_usb.c **** }
 1368              		.loc 1 1235 10 view .LVU385
 1369 002a 0020     		movs	r0, #0
 1370              	.LVL104:
1235:ThirdParty/STM32F4xx_HAL_Driver/Src/stm32f4xx_ll_usb.c **** }
 1371              		.loc 1 1235 10 view .LVU386
 1372 002c 7047     		bx	lr
 1373              	.LVL105:
 1374              	.L59:
1217:ThirdParty/STM32F4xx_HAL_Driver/Src/stm32f4xx_ll_usb.c ****     }
 1375              		.loc 1 1217 14 view .LVU387
 1376 002e 0320     		movs	r0, #3
 1377              	.LVL106:
1217:ThirdParty/STM32F4xx_HAL_Driver/Src/stm32f4xx_ll_usb.c ****     }
 1378              		.loc 1 1217 14 view .LVU388
 1379 0030 7047     		bx	lr
 1380              	.LVL107:
 1381              	.L60:
1230:ThirdParty/STM32F4xx_HAL_Driver/Src/stm32f4xx_ll_usb.c ****     }
 1382              		.loc 1 1230 14 view .LVU389
 1383 0032 0320     		movs	r0, #3
 1384              	.LVL108:
1236:ThirdParty/STM32F4xx_HAL_Driver/Src/stm32f4xx_ll_usb.c **** 
 1385              		.loc 1 1236 1 view .LVU390
 1386 0034 7047     		bx	lr
 1387              	.L62:
 1388 0036 00BF     		.align	2
 1389              	.L61:
 1390 0038 400D0300 		.word	200000
 1391              		.cfi_endproc
 1392              	.LFE165:
 1394              		.section	.text.USB_CoreInit,"ax",%progbits
 1395              		.align	1
 1396              		.global	USB_CoreInit
 1397              		.syntax unified
 1398              		.thumb
 1399              		.thumb_func
 1401              	USB_CoreInit:
 1402              	.LVL109:
ARM GAS  /tmp/ccCoVfPP.s 			page 58


 1403              	.LFB133:
 118:ThirdParty/STM32F4xx_HAL_Driver/Src/stm32f4xx_ll_usb.c ****   if (cfg.phy_itface == USB_OTG_ULPI_PHY)
 1404              		.loc 1 118 1 is_stmt 1 view -0
 1405              		.cfi_startproc
 1406              		@ args = 56, pretend = 16, frame = 0
 1407              		@ frame_needed = 0, uses_anonymous_args = 0
 118:ThirdParty/STM32F4xx_HAL_Driver/Src/stm32f4xx_ll_usb.c ****   if (cfg.phy_itface == USB_OTG_ULPI_PHY)
 1408              		.loc 1 118 1 is_stmt 0 view .LVU392
 1409 0000 84B0     		sub	sp, sp, #16
 1410              	.LCFI28:
 1411              		.cfi_def_cfa_offset 16
 1412 0002 10B5     		push	{r4, lr}
 1413              	.LCFI29:
 1414              		.cfi_def_cfa_offset 24
 1415              		.cfi_offset 4, -24
 1416              		.cfi_offset 14, -20
 1417 0004 0446     		mov	r4, r0
 1418 0006 03A8     		add	r0, sp, #12
 1419 0008 80E80E00 		stm	r0, {r1, r2, r3}
 119:ThirdParty/STM32F4xx_HAL_Driver/Src/stm32f4xx_ll_usb.c ****   {
 1420              		.loc 1 119 3 is_stmt 1 view .LVU393
 119:ThirdParty/STM32F4xx_HAL_Driver/Src/stm32f4xx_ll_usb.c ****   {
 1421              		.loc 1 119 10 is_stmt 0 view .LVU394
 1422 000c 089B     		ldr	r3, [sp, #32]
 119:ThirdParty/STM32F4xx_HAL_Driver/Src/stm32f4xx_ll_usb.c ****   {
 1423              		.loc 1 119 6 view .LVU395
 1424 000e 012B     		cmp	r3, #1
 1425 0010 20D1     		bne	.L64
 122:ThirdParty/STM32F4xx_HAL_Driver/Src/stm32f4xx_ll_usb.c **** 
 1426              		.loc 1 122 5 is_stmt 1 view .LVU396
 122:ThirdParty/STM32F4xx_HAL_Driver/Src/stm32f4xx_ll_usb.c **** 
 1427              		.loc 1 122 17 is_stmt 0 view .LVU397
 1428 0012 A36B     		ldr	r3, [r4, #56]
 1429 0014 23F48033 		bic	r3, r3, #65536
 1430 0018 A363     		str	r3, [r4, #56]
 125:ThirdParty/STM32F4xx_HAL_Driver/Src/stm32f4xx_ll_usb.c ****    
 1431              		.loc 1 125 5 is_stmt 1 view .LVU398
 125:ThirdParty/STM32F4xx_HAL_Driver/Src/stm32f4xx_ll_usb.c ****    
 1432              		.loc 1 125 19 is_stmt 0 view .LVU399
 1433 001a E368     		ldr	r3, [r4, #12]
 1434 001c 23F48403 		bic	r3, r3, #4325376
 1435 0020 23F04003 		bic	r3, r3, #64
 1436 0024 E360     		str	r3, [r4, #12]
 128:ThirdParty/STM32F4xx_HAL_Driver/Src/stm32f4xx_ll_usb.c ****     if(cfg.use_external_vbus == 1U)
 1437              		.loc 1 128 5 is_stmt 1 view .LVU400
 128:ThirdParty/STM32F4xx_HAL_Driver/Src/stm32f4xx_ll_usb.c ****     if(cfg.use_external_vbus == 1U)
 1438              		.loc 1 128 19 is_stmt 0 view .LVU401
 1439 0026 E368     		ldr	r3, [r4, #12]
 1440 0028 23F44013 		bic	r3, r3, #3145728
 1441 002c E360     		str	r3, [r4, #12]
 129:ThirdParty/STM32F4xx_HAL_Driver/Src/stm32f4xx_ll_usb.c ****     {
 1442              		.loc 1 129 5 is_stmt 1 view .LVU402
 129:ThirdParty/STM32F4xx_HAL_Driver/Src/stm32f4xx_ll_usb.c ****     {
 1443              		.loc 1 129 11 is_stmt 0 view .LVU403
 1444 002e 0F9B     		ldr	r3, [sp, #60]
 129:ThirdParty/STM32F4xx_HAL_Driver/Src/stm32f4xx_ll_usb.c ****     {
 1445              		.loc 1 129 7 view .LVU404
ARM GAS  /tmp/ccCoVfPP.s 			page 59


 1446 0030 012B     		cmp	r3, #1
 1447 0032 0AD0     		beq	.L69
 1448              	.L65:
 134:ThirdParty/STM32F4xx_HAL_Driver/Src/stm32f4xx_ll_usb.c ****   }
 1449              		.loc 1 134 5 is_stmt 1 view .LVU405
 1450 0034 2046     		mov	r0, r4
 1451              	.LVL110:
 134:ThirdParty/STM32F4xx_HAL_Driver/Src/stm32f4xx_ll_usb.c ****   }
 1452              		.loc 1 134 5 is_stmt 0 view .LVU406
 1453 0036 FFF7FEFF 		bl	USB_CoreReset
 1454              	.LVL111:
 1455              	.L66:
 148:ThirdParty/STM32F4xx_HAL_Driver/Src/stm32f4xx_ll_usb.c ****   {
 1456              		.loc 1 148 3 is_stmt 1 view .LVU407
 148:ThirdParty/STM32F4xx_HAL_Driver/Src/stm32f4xx_ll_usb.c ****   {
 1457              		.loc 1 148 9 is_stmt 0 view .LVU408
 1458 003a 069B     		ldr	r3, [sp, #24]
 148:ThirdParty/STM32F4xx_HAL_Driver/Src/stm32f4xx_ll_usb.c ****   {
 1459              		.loc 1 148 5 view .LVU409
 1460 003c 012B     		cmp	r3, #1
 1461 003e 14D0     		beq	.L70
 1462              	.L67:
 154:ThirdParty/STM32F4xx_HAL_Driver/Src/stm32f4xx_ll_usb.c **** }
 1463              		.loc 1 154 3 is_stmt 1 view .LVU410
 155:ThirdParty/STM32F4xx_HAL_Driver/Src/stm32f4xx_ll_usb.c **** 
 1464              		.loc 1 155 1 is_stmt 0 view .LVU411
 1465 0040 0020     		movs	r0, #0
 1466 0042 BDE81040 		pop	{r4, lr}
 1467              	.LCFI30:
 1468              		.cfi_remember_state
 1469              		.cfi_restore 14
 1470              		.cfi_restore 4
 1471              		.cfi_def_cfa_offset 16
 1472              	.LVL112:
 155:ThirdParty/STM32F4xx_HAL_Driver/Src/stm32f4xx_ll_usb.c **** 
 1473              		.loc 1 155 1 view .LVU412
 1474 0046 04B0     		add	sp, sp, #16
 1475              	.LCFI31:
 1476              		.cfi_def_cfa_offset 0
 1477 0048 7047     		bx	lr
 1478              	.LVL113:
 1479              	.L69:
 1480              	.LCFI32:
 1481              		.cfi_restore_state
 131:ThirdParty/STM32F4xx_HAL_Driver/Src/stm32f4xx_ll_usb.c ****     }
 1482              		.loc 1 131 7 is_stmt 1 view .LVU413
 131:ThirdParty/STM32F4xx_HAL_Driver/Src/stm32f4xx_ll_usb.c ****     }
 1483              		.loc 1 131 21 is_stmt 0 view .LVU414
 1484 004a E368     		ldr	r3, [r4, #12]
 1485 004c 43F48013 		orr	r3, r3, #1048576
 1486 0050 E360     		str	r3, [r4, #12]
 1487 0052 EFE7     		b	.L65
 1488              	.L64:
 139:ThirdParty/STM32F4xx_HAL_Driver/Src/stm32f4xx_ll_usb.c ****     
 1489              		.loc 1 139 5 is_stmt 1 view .LVU415
 139:ThirdParty/STM32F4xx_HAL_Driver/Src/stm32f4xx_ll_usb.c ****     
 1490              		.loc 1 139 19 is_stmt 0 view .LVU416
ARM GAS  /tmp/ccCoVfPP.s 			page 60


 1491 0054 E368     		ldr	r3, [r4, #12]
 1492 0056 43F04003 		orr	r3, r3, #64
 1493 005a E360     		str	r3, [r4, #12]
 142:ThirdParty/STM32F4xx_HAL_Driver/Src/stm32f4xx_ll_usb.c ****     
 1494              		.loc 1 142 5 is_stmt 1 view .LVU417
 1495 005c 2046     		mov	r0, r4
 1496              	.LVL114:
 142:ThirdParty/STM32F4xx_HAL_Driver/Src/stm32f4xx_ll_usb.c ****     
 1497              		.loc 1 142 5 is_stmt 0 view .LVU418
 1498 005e FFF7FEFF 		bl	USB_CoreReset
 1499              	.LVL115:
 145:ThirdParty/STM32F4xx_HAL_Driver/Src/stm32f4xx_ll_usb.c ****   }
 1500              		.loc 1 145 5 is_stmt 1 view .LVU419
 145:ThirdParty/STM32F4xx_HAL_Driver/Src/stm32f4xx_ll_usb.c ****   }
 1501              		.loc 1 145 17 is_stmt 0 view .LVU420
 1502 0062 4FF48033 		mov	r3, #65536
 1503 0066 A363     		str	r3, [r4, #56]
 1504 0068 E7E7     		b	.L66
 1505              	.L70:
 150:ThirdParty/STM32F4xx_HAL_Driver/Src/stm32f4xx_ll_usb.c ****     USBx->GAHBCFG |= USB_OTG_GAHBCFG_DMAEN;
 1506              		.loc 1 150 5 is_stmt 1 view .LVU421
 150:ThirdParty/STM32F4xx_HAL_Driver/Src/stm32f4xx_ll_usb.c ****     USBx->GAHBCFG |= USB_OTG_GAHBCFG_DMAEN;
 1507              		.loc 1 150 19 is_stmt 0 view .LVU422
 1508 006a A368     		ldr	r3, [r4, #8]
 1509 006c 43F00603 		orr	r3, r3, #6
 1510 0070 A360     		str	r3, [r4, #8]
 151:ThirdParty/STM32F4xx_HAL_Driver/Src/stm32f4xx_ll_usb.c ****   }  
 1511              		.loc 1 151 5 is_stmt 1 view .LVU423
 151:ThirdParty/STM32F4xx_HAL_Driver/Src/stm32f4xx_ll_usb.c ****   }  
 1512              		.loc 1 151 19 is_stmt 0 view .LVU424
 1513 0072 A368     		ldr	r3, [r4, #8]
 1514 0074 43F02003 		orr	r3, r3, #32
 1515 0078 A360     		str	r3, [r4, #8]
 1516 007a E1E7     		b	.L67
 1517              		.cfi_endproc
 1518              	.LFE133:
 1520              		.section	.text.USB_EnableGlobalInt,"ax",%progbits
 1521              		.align	1
 1522              		.global	USB_EnableGlobalInt
 1523              		.syntax unified
 1524              		.thumb
 1525              		.thumb_func
 1527              	USB_EnableGlobalInt:
 1528              	.LVL116:
 1529              	.LFB134:
 164:ThirdParty/STM32F4xx_HAL_Driver/Src/stm32f4xx_ll_usb.c ****   USBx->GAHBCFG |= USB_OTG_GAHBCFG_GINT;
 1530              		.loc 1 164 1 is_stmt 1 view -0
 1531              		.cfi_startproc
 1532              		@ args = 0, pretend = 0, frame = 0
 1533              		@ frame_needed = 0, uses_anonymous_args = 0
 1534              		@ link register save eliminated.
 165:ThirdParty/STM32F4xx_HAL_Driver/Src/stm32f4xx_ll_usb.c ****   return HAL_OK;
 1535              		.loc 1 165 3 view .LVU426
 165:ThirdParty/STM32F4xx_HAL_Driver/Src/stm32f4xx_ll_usb.c ****   return HAL_OK;
 1536              		.loc 1 165 17 is_stmt 0 view .LVU427
 1537 0000 8368     		ldr	r3, [r0, #8]
 1538 0002 43F00103 		orr	r3, r3, #1
ARM GAS  /tmp/ccCoVfPP.s 			page 61


 1539 0006 8360     		str	r3, [r0, #8]
 166:ThirdParty/STM32F4xx_HAL_Driver/Src/stm32f4xx_ll_usb.c **** }
 1540              		.loc 1 166 3 is_stmt 1 view .LVU428
 167:ThirdParty/STM32F4xx_HAL_Driver/Src/stm32f4xx_ll_usb.c **** 
 1541              		.loc 1 167 1 is_stmt 0 view .LVU429
 1542 0008 0020     		movs	r0, #0
 1543              	.LVL117:
 167:ThirdParty/STM32F4xx_HAL_Driver/Src/stm32f4xx_ll_usb.c **** 
 1544              		.loc 1 167 1 view .LVU430
 1545 000a 7047     		bx	lr
 1546              		.cfi_endproc
 1547              	.LFE134:
 1549              		.section	.text.USB_DisableGlobalInt,"ax",%progbits
 1550              		.align	1
 1551              		.global	USB_DisableGlobalInt
 1552              		.syntax unified
 1553              		.thumb
 1554              		.thumb_func
 1556              	USB_DisableGlobalInt:
 1557              	.LVL118:
 1558              	.LFB135:
 177:ThirdParty/STM32F4xx_HAL_Driver/Src/stm32f4xx_ll_usb.c ****   USBx->GAHBCFG &= ~USB_OTG_GAHBCFG_GINT;
 1559              		.loc 1 177 1 is_stmt 1 view -0
 1560              		.cfi_startproc
 1561              		@ args = 0, pretend = 0, frame = 0
 1562              		@ frame_needed = 0, uses_anonymous_args = 0
 1563              		@ link register save eliminated.
 178:ThirdParty/STM32F4xx_HAL_Driver/Src/stm32f4xx_ll_usb.c ****   return HAL_OK;
 1564              		.loc 1 178 3 view .LVU432
 178:ThirdParty/STM32F4xx_HAL_Driver/Src/stm32f4xx_ll_usb.c ****   return HAL_OK;
 1565              		.loc 1 178 17 is_stmt 0 view .LVU433
 1566 0000 8368     		ldr	r3, [r0, #8]
 1567 0002 23F00103 		bic	r3, r3, #1
 1568 0006 8360     		str	r3, [r0, #8]
 179:ThirdParty/STM32F4xx_HAL_Driver/Src/stm32f4xx_ll_usb.c **** }
 1569              		.loc 1 179 3 is_stmt 1 view .LVU434
 180:ThirdParty/STM32F4xx_HAL_Driver/Src/stm32f4xx_ll_usb.c ****    
 1570              		.loc 1 180 1 is_stmt 0 view .LVU435
 1571 0008 0020     		movs	r0, #0
 1572              	.LVL119:
 180:ThirdParty/STM32F4xx_HAL_Driver/Src/stm32f4xx_ll_usb.c ****    
 1573              		.loc 1 180 1 view .LVU436
 1574 000a 7047     		bx	lr
 1575              		.cfi_endproc
 1576              	.LFE135:
 1578              		.section	.text.USB_SetCurrentMode,"ax",%progbits
 1579              		.align	1
 1580              		.global	USB_SetCurrentMode
 1581              		.syntax unified
 1582              		.thumb
 1583              		.thumb_func
 1585              	USB_SetCurrentMode:
 1586              	.LVL120:
 1587              	.LFB136:
 193:ThirdParty/STM32F4xx_HAL_Driver/Src/stm32f4xx_ll_usb.c ****   USBx->GUSBCFG &= ~(USB_OTG_GUSBCFG_FHMOD | USB_OTG_GUSBCFG_FDMOD); 
 1588              		.loc 1 193 1 is_stmt 1 view -0
 1589              		.cfi_startproc
ARM GAS  /tmp/ccCoVfPP.s 			page 62


 1590              		@ args = 0, pretend = 0, frame = 0
 1591              		@ frame_needed = 0, uses_anonymous_args = 0
 193:ThirdParty/STM32F4xx_HAL_Driver/Src/stm32f4xx_ll_usb.c ****   USBx->GUSBCFG &= ~(USB_OTG_GUSBCFG_FHMOD | USB_OTG_GUSBCFG_FDMOD); 
 1592              		.loc 1 193 1 is_stmt 0 view .LVU438
 1593 0000 08B5     		push	{r3, lr}
 1594              	.LCFI33:
 1595              		.cfi_def_cfa_offset 8
 1596              		.cfi_offset 3, -8
 1597              		.cfi_offset 14, -4
 194:ThirdParty/STM32F4xx_HAL_Driver/Src/stm32f4xx_ll_usb.c ****   
 1598              		.loc 1 194 3 is_stmt 1 view .LVU439
 194:ThirdParty/STM32F4xx_HAL_Driver/Src/stm32f4xx_ll_usb.c ****   
 1599              		.loc 1 194 17 is_stmt 0 view .LVU440
 1600 0002 C368     		ldr	r3, [r0, #12]
 1601 0004 23F0C043 		bic	r3, r3, #1610612736
 1602 0008 C360     		str	r3, [r0, #12]
 196:ThirdParty/STM32F4xx_HAL_Driver/Src/stm32f4xx_ll_usb.c ****   {
 1603              		.loc 1 196 3 is_stmt 1 view .LVU441
 196:ThirdParty/STM32F4xx_HAL_Driver/Src/stm32f4xx_ll_usb.c ****   {
 1604              		.loc 1 196 6 is_stmt 0 view .LVU442
 1605 000a 0129     		cmp	r1, #1
 1606 000c 05D0     		beq	.L77
 200:ThirdParty/STM32F4xx_HAL_Driver/Src/stm32f4xx_ll_usb.c ****   {
 1607              		.loc 1 200 8 is_stmt 1 view .LVU443
 200:ThirdParty/STM32F4xx_HAL_Driver/Src/stm32f4xx_ll_usb.c ****   {
 1608              		.loc 1 200 11 is_stmt 0 view .LVU444
 1609 000e 41B9     		cbnz	r1, .L75
 202:ThirdParty/STM32F4xx_HAL_Driver/Src/stm32f4xx_ll_usb.c ****   }
 1610              		.loc 1 202 5 is_stmt 1 view .LVU445
 202:ThirdParty/STM32F4xx_HAL_Driver/Src/stm32f4xx_ll_usb.c ****   }
 1611              		.loc 1 202 19 is_stmt 0 view .LVU446
 1612 0010 C368     		ldr	r3, [r0, #12]
 1613 0012 43F08043 		orr	r3, r3, #1073741824
 1614 0016 C360     		str	r3, [r0, #12]
 1615 0018 03E0     		b	.L75
 1616              	.L77:
 198:ThirdParty/STM32F4xx_HAL_Driver/Src/stm32f4xx_ll_usb.c ****   }
 1617              		.loc 1 198 5 is_stmt 1 view .LVU447
 198:ThirdParty/STM32F4xx_HAL_Driver/Src/stm32f4xx_ll_usb.c ****   }
 1618              		.loc 1 198 19 is_stmt 0 view .LVU448
 1619 001a C368     		ldr	r3, [r0, #12]
 1620 001c 43F00053 		orr	r3, r3, #536870912
 1621 0020 C360     		str	r3, [r0, #12]
 1622              	.L75:
 204:ThirdParty/STM32F4xx_HAL_Driver/Src/stm32f4xx_ll_usb.c ****   
 1623              		.loc 1 204 3 is_stmt 1 view .LVU449
 1624 0022 3220     		movs	r0, #50
 1625              	.LVL121:
 204:ThirdParty/STM32F4xx_HAL_Driver/Src/stm32f4xx_ll_usb.c ****   
 1626              		.loc 1 204 3 is_stmt 0 view .LVU450
 1627 0024 FFF7FEFF 		bl	HAL_Delay
 1628              	.LVL122:
 206:ThirdParty/STM32F4xx_HAL_Driver/Src/stm32f4xx_ll_usb.c **** }
 1629              		.loc 1 206 3 is_stmt 1 view .LVU451
 207:ThirdParty/STM32F4xx_HAL_Driver/Src/stm32f4xx_ll_usb.c **** 
 1630              		.loc 1 207 1 is_stmt 0 view .LVU452
 1631 0028 0020     		movs	r0, #0
ARM GAS  /tmp/ccCoVfPP.s 			page 63


 1632 002a 08BD     		pop	{r3, pc}
 1633              		.cfi_endproc
 1634              	.LFE136:
 1636              		.section	.text.USB_FlushTxFifo,"ax",%progbits
 1637              		.align	1
 1638              		.global	USB_FlushTxFifo
 1639              		.syntax unified
 1640              		.thumb
 1641              		.thumb_func
 1643              	USB_FlushTxFifo:
 1644              	.LVL123:
 1645              	.LFB138:
 364:ThirdParty/STM32F4xx_HAL_Driver/Src/stm32f4xx_ll_usb.c ****   uint32_t count = 0;
 1646              		.loc 1 364 1 is_stmt 1 view -0
 1647              		.cfi_startproc
 1648              		@ args = 0, pretend = 0, frame = 0
 1649              		@ frame_needed = 0, uses_anonymous_args = 0
 1650              		@ link register save eliminated.
 365:ThirdParty/STM32F4xx_HAL_Driver/Src/stm32f4xx_ll_usb.c ****   
 1651              		.loc 1 365 3 view .LVU454
 367:ThirdParty/STM32F4xx_HAL_Driver/Src/stm32f4xx_ll_usb.c ****   
 1652              		.loc 1 367 3 view .LVU455
 367:ThirdParty/STM32F4xx_HAL_Driver/Src/stm32f4xx_ll_usb.c ****   
 1653              		.loc 1 367 62 is_stmt 0 view .LVU456
 1654 0000 8901     		lsls	r1, r1, #6
 1655              	.LVL124:
 367:ThirdParty/STM32F4xx_HAL_Driver/Src/stm32f4xx_ll_usb.c ****   
 1656              		.loc 1 367 45 view .LVU457
 1657 0002 41F02001 		orr	r1, r1, #32
 367:ThirdParty/STM32F4xx_HAL_Driver/Src/stm32f4xx_ll_usb.c ****   
 1658              		.loc 1 367 17 view .LVU458
 1659 0006 0161     		str	r1, [r0, #16]
 365:ThirdParty/STM32F4xx_HAL_Driver/Src/stm32f4xx_ll_usb.c ****   
 1660              		.loc 1 365 12 view .LVU459
 1661 0008 0023     		movs	r3, #0
 1662              	.LVL125:
 1663              	.L80:
 369:ThirdParty/STM32F4xx_HAL_Driver/Src/stm32f4xx_ll_usb.c ****   {
 1664              		.loc 1 369 3 is_stmt 1 view .LVU460
 371:ThirdParty/STM32F4xx_HAL_Driver/Src/stm32f4xx_ll_usb.c ****     {
 1665              		.loc 1 371 5 view .LVU461
 371:ThirdParty/STM32F4xx_HAL_Driver/Src/stm32f4xx_ll_usb.c ****     {
 1666              		.loc 1 371 8 is_stmt 0 view .LVU462
 1667 000a 0133     		adds	r3, r3, #1
 1668              	.LVL126:
 371:ThirdParty/STM32F4xx_HAL_Driver/Src/stm32f4xx_ll_usb.c ****     {
 1669              		.loc 1 371 8 view .LVU463
 1670 000c 054A     		ldr	r2, .L82
 1671 000e 9342     		cmp	r3, r2
 1672 0010 05D8     		bhi	.L81
 376:ThirdParty/STM32F4xx_HAL_Driver/Src/stm32f4xx_ll_usb.c ****   
 1673              		.loc 1 376 9 is_stmt 1 view .LVU464
 376:ThirdParty/STM32F4xx_HAL_Driver/Src/stm32f4xx_ll_usb.c ****   
 1674              		.loc 1 376 15 is_stmt 0 view .LVU465
 1675 0012 0269     		ldr	r2, [r0, #16]
 376:ThirdParty/STM32F4xx_HAL_Driver/Src/stm32f4xx_ll_usb.c ****   
 1676              		.loc 1 376 3 view .LVU466
ARM GAS  /tmp/ccCoVfPP.s 			page 64


 1677 0014 12F0200F 		tst	r2, #32
 1678 0018 F7D1     		bne	.L80
 378:ThirdParty/STM32F4xx_HAL_Driver/Src/stm32f4xx_ll_usb.c **** }
 1679              		.loc 1 378 10 view .LVU467
 1680 001a 0020     		movs	r0, #0
 1681              	.LVL127:
 378:ThirdParty/STM32F4xx_HAL_Driver/Src/stm32f4xx_ll_usb.c **** }
 1682              		.loc 1 378 10 view .LVU468
 1683 001c 7047     		bx	lr
 1684              	.LVL128:
 1685              	.L81:
 373:ThirdParty/STM32F4xx_HAL_Driver/Src/stm32f4xx_ll_usb.c ****     }
 1686              		.loc 1 373 14 view .LVU469
 1687 001e 0320     		movs	r0, #3
 1688              	.LVL129:
 379:ThirdParty/STM32F4xx_HAL_Driver/Src/stm32f4xx_ll_usb.c **** 
 1689              		.loc 1 379 1 view .LVU470
 1690 0020 7047     		bx	lr
 1691              	.L83:
 1692 0022 00BF     		.align	2
 1693              	.L82:
 1694 0024 400D0300 		.word	200000
 1695              		.cfi_endproc
 1696              	.LFE138:
 1698              		.section	.text.USB_FlushRxFifo,"ax",%progbits
 1699              		.align	1
 1700              		.global	USB_FlushRxFifo
 1701              		.syntax unified
 1702              		.thumb
 1703              		.thumb_func
 1705              	USB_FlushRxFifo:
 1706              	.LVL130:
 1707              	.LFB139:
 388:ThirdParty/STM32F4xx_HAL_Driver/Src/stm32f4xx_ll_usb.c ****   uint32_t count = 0;
 1708              		.loc 1 388 1 is_stmt 1 view -0
 1709              		.cfi_startproc
 1710              		@ args = 0, pretend = 0, frame = 0
 1711              		@ frame_needed = 0, uses_anonymous_args = 0
 1712              		@ link register save eliminated.
 389:ThirdParty/STM32F4xx_HAL_Driver/Src/stm32f4xx_ll_usb.c ****   
 1713              		.loc 1 389 3 view .LVU472
 391:ThirdParty/STM32F4xx_HAL_Driver/Src/stm32f4xx_ll_usb.c ****   
 1714              		.loc 1 391 3 view .LVU473
 391:ThirdParty/STM32F4xx_HAL_Driver/Src/stm32f4xx_ll_usb.c ****   
 1715              		.loc 1 391 17 is_stmt 0 view .LVU474
 1716 0000 1023     		movs	r3, #16
 1717 0002 0361     		str	r3, [r0, #16]
 389:ThirdParty/STM32F4xx_HAL_Driver/Src/stm32f4xx_ll_usb.c ****   
 1718              		.loc 1 389 12 view .LVU475
 1719 0004 0023     		movs	r3, #0
 1720              	.LVL131:
 1721              	.L86:
 393:ThirdParty/STM32F4xx_HAL_Driver/Src/stm32f4xx_ll_usb.c ****   {
 1722              		.loc 1 393 3 is_stmt 1 view .LVU476
 395:ThirdParty/STM32F4xx_HAL_Driver/Src/stm32f4xx_ll_usb.c ****     {
 1723              		.loc 1 395 5 view .LVU477
 395:ThirdParty/STM32F4xx_HAL_Driver/Src/stm32f4xx_ll_usb.c ****     {
ARM GAS  /tmp/ccCoVfPP.s 			page 65


 1724              		.loc 1 395 8 is_stmt 0 view .LVU478
 1725 0006 0133     		adds	r3, r3, #1
 1726              	.LVL132:
 395:ThirdParty/STM32F4xx_HAL_Driver/Src/stm32f4xx_ll_usb.c ****     {
 1727              		.loc 1 395 8 view .LVU479
 1728 0008 054A     		ldr	r2, .L88
 1729 000a 9342     		cmp	r3, r2
 1730 000c 05D8     		bhi	.L87
 400:ThirdParty/STM32F4xx_HAL_Driver/Src/stm32f4xx_ll_usb.c ****   
 1731              		.loc 1 400 9 is_stmt 1 view .LVU480
 400:ThirdParty/STM32F4xx_HAL_Driver/Src/stm32f4xx_ll_usb.c ****   
 1732              		.loc 1 400 15 is_stmt 0 view .LVU481
 1733 000e 0269     		ldr	r2, [r0, #16]
 400:ThirdParty/STM32F4xx_HAL_Driver/Src/stm32f4xx_ll_usb.c ****   
 1734              		.loc 1 400 3 view .LVU482
 1735 0010 12F0100F 		tst	r2, #16
 1736 0014 F7D1     		bne	.L86
 402:ThirdParty/STM32F4xx_HAL_Driver/Src/stm32f4xx_ll_usb.c **** }
 1737              		.loc 1 402 10 view .LVU483
 1738 0016 0020     		movs	r0, #0
 1739              	.LVL133:
 402:ThirdParty/STM32F4xx_HAL_Driver/Src/stm32f4xx_ll_usb.c **** }
 1740              		.loc 1 402 10 view .LVU484
 1741 0018 7047     		bx	lr
 1742              	.LVL134:
 1743              	.L87:
 397:ThirdParty/STM32F4xx_HAL_Driver/Src/stm32f4xx_ll_usb.c ****     }
 1744              		.loc 1 397 14 view .LVU485
 1745 001a 0320     		movs	r0, #3
 1746              	.LVL135:
 403:ThirdParty/STM32F4xx_HAL_Driver/Src/stm32f4xx_ll_usb.c **** 
 1747              		.loc 1 403 1 view .LVU486
 1748 001c 7047     		bx	lr
 1749              	.L89:
 1750 001e 00BF     		.align	2
 1751              	.L88:
 1752 0020 400D0300 		.word	200000
 1753              		.cfi_endproc
 1754              	.LFE139:
 1756              		.section	.text.USB_SetDevSpeed,"ax",%progbits
 1757              		.align	1
 1758              		.global	USB_SetDevSpeed
 1759              		.syntax unified
 1760              		.thumb
 1761              		.thumb_func
 1763              	USB_SetDevSpeed:
 1764              	.LVL136:
 1765              	.LFB140:
 418:ThirdParty/STM32F4xx_HAL_Driver/Src/stm32f4xx_ll_usb.c ****   USBx_DEVICE->DCFG |= speed;
 1766              		.loc 1 418 1 is_stmt 1 view -0
 1767              		.cfi_startproc
 1768              		@ args = 0, pretend = 0, frame = 0
 1769              		@ frame_needed = 0, uses_anonymous_args = 0
 1770              		@ link register save eliminated.
 419:ThirdParty/STM32F4xx_HAL_Driver/Src/stm32f4xx_ll_usb.c ****   return HAL_OK;
 1771              		.loc 1 419 3 view .LVU488
 419:ThirdParty/STM32F4xx_HAL_Driver/Src/stm32f4xx_ll_usb.c ****   return HAL_OK;
ARM GAS  /tmp/ccCoVfPP.s 			page 66


 1772              		.loc 1 419 21 is_stmt 0 view .LVU489
 1773 0000 D0F80038 		ldr	r3, [r0, #2048]
 1774 0004 1943     		orrs	r1, r1, r3
 1775              	.LVL137:
 419:ThirdParty/STM32F4xx_HAL_Driver/Src/stm32f4xx_ll_usb.c ****   return HAL_OK;
 1776              		.loc 1 419 21 view .LVU490
 1777 0006 C0F80018 		str	r1, [r0, #2048]
 420:ThirdParty/STM32F4xx_HAL_Driver/Src/stm32f4xx_ll_usb.c **** }
 1778              		.loc 1 420 3 is_stmt 1 view .LVU491
 421:ThirdParty/STM32F4xx_HAL_Driver/Src/stm32f4xx_ll_usb.c **** 
 1779              		.loc 1 421 1 is_stmt 0 view .LVU492
 1780 000a 0020     		movs	r0, #0
 1781              	.LVL138:
 421:ThirdParty/STM32F4xx_HAL_Driver/Src/stm32f4xx_ll_usb.c **** 
 1782              		.loc 1 421 1 view .LVU493
 1783 000c 7047     		bx	lr
 1784              		.cfi_endproc
 1785              	.LFE140:
 1787              		.section	.text.USB_DevInit,"ax",%progbits
 1788              		.align	1
 1789              		.global	USB_DevInit
 1790              		.syntax unified
 1791              		.thumb
 1792              		.thumb_func
 1794              	USB_DevInit:
 1795              	.LVL139:
 1796              	.LFB137:
 218:ThirdParty/STM32F4xx_HAL_Driver/Src/stm32f4xx_ll_usb.c ****   uint32_t i = 0U;
 1797              		.loc 1 218 1 is_stmt 1 view -0
 1798              		.cfi_startproc
 1799              		@ args = 56, pretend = 16, frame = 0
 1800              		@ frame_needed = 0, uses_anonymous_args = 0
 218:ThirdParty/STM32F4xx_HAL_Driver/Src/stm32f4xx_ll_usb.c ****   uint32_t i = 0U;
 1801              		.loc 1 218 1 is_stmt 0 view .LVU495
 1802 0000 84B0     		sub	sp, sp, #16
 1803              	.LCFI34:
 1804              		.cfi_def_cfa_offset 16
 1805 0002 70B5     		push	{r4, r5, r6, lr}
 1806              	.LCFI35:
 1807              		.cfi_def_cfa_offset 32
 1808              		.cfi_offset 4, -32
 1809              		.cfi_offset 5, -28
 1810              		.cfi_offset 6, -24
 1811              		.cfi_offset 14, -20
 1812 0004 0446     		mov	r4, r0
 1813 0006 05A8     		add	r0, sp, #20
 1814 0008 80E80E00 		stm	r0, {r1, r2, r3}
 219:ThirdParty/STM32F4xx_HAL_Driver/Src/stm32f4xx_ll_usb.c **** 
 1815              		.loc 1 219 3 is_stmt 1 view .LVU496
 1816              	.LVL140:
 236:ThirdParty/STM32F4xx_HAL_Driver/Src/stm32f4xx_ll_usb.c ****   {
 1817              		.loc 1 236 3 view .LVU497
 236:ThirdParty/STM32F4xx_HAL_Driver/Src/stm32f4xx_ll_usb.c ****   {
 1818              		.loc 1 236 10 is_stmt 0 view .LVU498
 1819 000c 0F9E     		ldr	r6, [sp, #60]
 236:ThirdParty/STM32F4xx_HAL_Driver/Src/stm32f4xx_ll_usb.c ****   {
 1820              		.loc 1 236 6 view .LVU499
ARM GAS  /tmp/ccCoVfPP.s 			page 67


 1821 000e B6B9     		cbnz	r6, .L92
 238:ThirdParty/STM32F4xx_HAL_Driver/Src/stm32f4xx_ll_usb.c ****   }
 1822              		.loc 1 238 5 is_stmt 1 view .LVU500
 238:ThirdParty/STM32F4xx_HAL_Driver/Src/stm32f4xx_ll_usb.c ****   }
 1823              		.loc 1 238 17 is_stmt 0 view .LVU501
 1824 0010 A36B     		ldr	r3, [r4, #56]
 1825 0012 43F40013 		orr	r3, r3, #2097152
 1826 0016 A363     		str	r3, [r4, #56]
 1827              	.L93:
 248:ThirdParty/STM32F4xx_HAL_Driver/Src/stm32f4xx_ll_usb.c ****   
 1828              		.loc 1 248 3 is_stmt 1 view .LVU502
 248:ThirdParty/STM32F4xx_HAL_Driver/Src/stm32f4xx_ll_usb.c ****   
 1829              		.loc 1 248 16 is_stmt 0 view .LVU503
 1830 0018 0023     		movs	r3, #0
 1831 001a C4F8003E 		str	r3, [r4, #3584]
 251:ThirdParty/STM32F4xx_HAL_Driver/Src/stm32f4xx_ll_usb.c ****   
 1832              		.loc 1 251 3 is_stmt 1 view .LVU504
 251:ThirdParty/STM32F4xx_HAL_Driver/Src/stm32f4xx_ll_usb.c ****   
 1833              		.loc 1 251 21 is_stmt 0 view .LVU505
 1834 001e 04F50065 		add	r5, r4, #2048
 1835 0022 D4F80038 		ldr	r3, [r4, #2048]
 1836 0026 C4F80038 		str	r3, [r4, #2048]
 253:ThirdParty/STM32F4xx_HAL_Driver/Src/stm32f4xx_ll_usb.c ****   {
 1837              		.loc 1 253 3 is_stmt 1 view .LVU506
 253:ThirdParty/STM32F4xx_HAL_Driver/Src/stm32f4xx_ll_usb.c ****   {
 1838              		.loc 1 253 9 is_stmt 0 view .LVU507
 1839 002a 0A9B     		ldr	r3, [sp, #40]
 253:ThirdParty/STM32F4xx_HAL_Driver/Src/stm32f4xx_ll_usb.c ****   {
 1840              		.loc 1 253 5 view .LVU508
 1841 002c 012B     		cmp	r3, #1
 1842 002e 10D1     		bne	.L94
 255:ThirdParty/STM32F4xx_HAL_Driver/Src/stm32f4xx_ll_usb.c ****     {      
 1843              		.loc 1 255 5 is_stmt 1 view .LVU509
 255:ThirdParty/STM32F4xx_HAL_Driver/Src/stm32f4xx_ll_usb.c ****     {      
 1844              		.loc 1 255 11 is_stmt 0 view .LVU510
 1845 0030 079B     		ldr	r3, [sp, #28]
 255:ThirdParty/STM32F4xx_HAL_Driver/Src/stm32f4xx_ll_usb.c ****     {      
 1846              		.loc 1 255 7 view .LVU511
 1847 0032 4BB9     		cbnz	r3, .L95
 258:ThirdParty/STM32F4xx_HAL_Driver/Src/stm32f4xx_ll_usb.c ****     }
 1848              		.loc 1 258 7 is_stmt 1 view .LVU512
 1849 0034 0021     		movs	r1, #0
 1850 0036 2046     		mov	r0, r4
 1851              	.LVL141:
 258:ThirdParty/STM32F4xx_HAL_Driver/Src/stm32f4xx_ll_usb.c ****     }
 1852              		.loc 1 258 7 is_stmt 0 view .LVU513
 1853 0038 FFF7FEFF 		bl	USB_SetDevSpeed
 1854              	.LVL142:
 1855 003c 0DE0     		b	.L96
 1856              	.LVL143:
 1857              	.L92:
 243:ThirdParty/STM32F4xx_HAL_Driver/Src/stm32f4xx_ll_usb.c ****   }
 1858              		.loc 1 243 5 is_stmt 1 view .LVU514
 243:ThirdParty/STM32F4xx_HAL_Driver/Src/stm32f4xx_ll_usb.c ****   }
 1859              		.loc 1 243 17 is_stmt 0 view .LVU515
 1860 003e A36B     		ldr	r3, [r4, #56]
 1861 0040 43F40023 		orr	r3, r3, #524288
ARM GAS  /tmp/ccCoVfPP.s 			page 68


 1862 0044 A363     		str	r3, [r4, #56]
 1863 0046 E7E7     		b	.L93
 1864              	.L95:
 263:ThirdParty/STM32F4xx_HAL_Driver/Src/stm32f4xx_ll_usb.c ****     }
 1865              		.loc 1 263 7 is_stmt 1 view .LVU516
 1866 0048 0121     		movs	r1, #1
 1867 004a 2046     		mov	r0, r4
 1868              	.LVL144:
 263:ThirdParty/STM32F4xx_HAL_Driver/Src/stm32f4xx_ll_usb.c ****     }
 1869              		.loc 1 263 7 is_stmt 0 view .LVU517
 1870 004c FFF7FEFF 		bl	USB_SetDevSpeed
 1871              	.LVL145:
 1872 0050 03E0     		b	.L96
 1873              	.LVL146:
 1874              	.L94:
 269:ThirdParty/STM32F4xx_HAL_Driver/Src/stm32f4xx_ll_usb.c ****   }
 1875              		.loc 1 269 5 is_stmt 1 view .LVU518
 1876 0052 0321     		movs	r1, #3
 1877 0054 2046     		mov	r0, r4
 1878              	.LVL147:
 269:ThirdParty/STM32F4xx_HAL_Driver/Src/stm32f4xx_ll_usb.c ****   }
 1879              		.loc 1 269 5 is_stmt 0 view .LVU519
 1880 0056 FFF7FEFF 		bl	USB_SetDevSpeed
 1881              	.LVL148:
 1882              	.L96:
 273:ThirdParty/STM32F4xx_HAL_Driver/Src/stm32f4xx_ll_usb.c ****   USB_FlushRxFifo(USBx);
 1883              		.loc 1 273 3 is_stmt 1 view .LVU520
 1884 005a 1021     		movs	r1, #16
 1885 005c 2046     		mov	r0, r4
 1886 005e FFF7FEFF 		bl	USB_FlushTxFifo
 1887              	.LVL149:
 274:ThirdParty/STM32F4xx_HAL_Driver/Src/stm32f4xx_ll_usb.c ****   
 1888              		.loc 1 274 3 view .LVU521
 1889 0062 2046     		mov	r0, r4
 1890 0064 FFF7FEFF 		bl	USB_FlushRxFifo
 1891              	.LVL150:
 277:ThirdParty/STM32F4xx_HAL_Driver/Src/stm32f4xx_ll_usb.c ****   USBx_DEVICE->DOEPMSK = 0U;
 1892              		.loc 1 277 3 view .LVU522
 277:ThirdParty/STM32F4xx_HAL_Driver/Src/stm32f4xx_ll_usb.c ****   USBx_DEVICE->DOEPMSK = 0U;
 1893              		.loc 1 277 24 is_stmt 0 view .LVU523
 1894 0068 0023     		movs	r3, #0
 1895 006a 2B61     		str	r3, [r5, #16]
 278:ThirdParty/STM32F4xx_HAL_Driver/Src/stm32f4xx_ll_usb.c ****   USBx_DEVICE->DAINT = 0xFFFFFFFFU;
 1896              		.loc 1 278 3 is_stmt 1 view .LVU524
 278:ThirdParty/STM32F4xx_HAL_Driver/Src/stm32f4xx_ll_usb.c ****   USBx_DEVICE->DAINT = 0xFFFFFFFFU;
 1897              		.loc 1 278 24 is_stmt 0 view .LVU525
 1898 006c 6B61     		str	r3, [r5, #20]
 279:ThirdParty/STM32F4xx_HAL_Driver/Src/stm32f4xx_ll_usb.c ****   USBx_DEVICE->DAINTMSK = 0U;
 1899              		.loc 1 279 3 is_stmt 1 view .LVU526
 279:ThirdParty/STM32F4xx_HAL_Driver/Src/stm32f4xx_ll_usb.c ****   USBx_DEVICE->DAINTMSK = 0U;
 1900              		.loc 1 279 22 is_stmt 0 view .LVU527
 1901 006e 4FF0FF32 		mov	r2, #-1
 1902 0072 AA61     		str	r2, [r5, #24]
 280:ThirdParty/STM32F4xx_HAL_Driver/Src/stm32f4xx_ll_usb.c ****   
 1903              		.loc 1 280 3 is_stmt 1 view .LVU528
 280:ThirdParty/STM32F4xx_HAL_Driver/Src/stm32f4xx_ll_usb.c ****   
 1904              		.loc 1 280 25 is_stmt 0 view .LVU529
ARM GAS  /tmp/ccCoVfPP.s 			page 69


 1905 0074 EB61     		str	r3, [r5, #28]
 282:ThirdParty/STM32F4xx_HAL_Driver/Src/stm32f4xx_ll_usb.c ****   {
 1906              		.loc 1 282 3 is_stmt 1 view .LVU530
 282:ThirdParty/STM32F4xx_HAL_Driver/Src/stm32f4xx_ll_usb.c ****   {
 1907              		.loc 1 282 3 is_stmt 0 view .LVU531
 1908 0076 08E0     		b	.L97
 1909              	.LVL151:
 1910              	.L111:
 286:ThirdParty/STM32F4xx_HAL_Driver/Src/stm32f4xx_ll_usb.c ****     }
 1911              		.loc 1 286 7 is_stmt 1 view .LVU532
 286:ThirdParty/STM32F4xx_HAL_Driver/Src/stm32f4xx_ll_usb.c ****     }
 1912              		.loc 1 286 29 is_stmt 0 view .LVU533
 1913 0078 4FF09040 		mov	r0, #1207959552
 1914 007c C2F80009 		str	r0, [r2, #2304]
 1915              	.L99:
 293:ThirdParty/STM32F4xx_HAL_Driver/Src/stm32f4xx_ll_usb.c ****     USBx_INEP(i)->DIEPINT  = 0xFFU;
 1916              		.loc 1 293 5 is_stmt 1 discriminator 2 view .LVU534
 293:ThirdParty/STM32F4xx_HAL_Driver/Src/stm32f4xx_ll_usb.c ****     USBx_INEP(i)->DIEPINT  = 0xFFU;
 1917              		.loc 1 293 28 is_stmt 0 discriminator 2 view .LVU535
 1918 0080 0022     		movs	r2, #0
 1919 0082 0A61     		str	r2, [r1, #16]
 294:ThirdParty/STM32F4xx_HAL_Driver/Src/stm32f4xx_ll_usb.c ****   }
 1920              		.loc 1 294 5 is_stmt 1 discriminator 2 view .LVU536
 294:ThirdParty/STM32F4xx_HAL_Driver/Src/stm32f4xx_ll_usb.c ****   }
 1921              		.loc 1 294 28 is_stmt 0 discriminator 2 view .LVU537
 1922 0084 FF22     		movs	r2, #255
 1923 0086 8A60     		str	r2, [r1, #8]
 282:ThirdParty/STM32F4xx_HAL_Driver/Src/stm32f4xx_ll_usb.c ****   {
 1924              		.loc 1 282 39 is_stmt 1 discriminator 2 view .LVU538
 282:ThirdParty/STM32F4xx_HAL_Driver/Src/stm32f4xx_ll_usb.c ****   {
 1925              		.loc 1 282 40 is_stmt 0 discriminator 2 view .LVU539
 1926 0088 0133     		adds	r3, r3, #1
 1927              	.LVL152:
 1928              	.L97:
 282:ThirdParty/STM32F4xx_HAL_Driver/Src/stm32f4xx_ll_usb.c ****   {
 1929              		.loc 1 282 16 is_stmt 1 discriminator 1 view .LVU540
 282:ThirdParty/STM32F4xx_HAL_Driver/Src/stm32f4xx_ll_usb.c ****   {
 1930              		.loc 1 282 23 is_stmt 0 discriminator 1 view .LVU541
 1931 008a 0599     		ldr	r1, [sp, #20]
 282:ThirdParty/STM32F4xx_HAL_Driver/Src/stm32f4xx_ll_usb.c ****   {
 1932              		.loc 1 282 3 discriminator 1 view .LVU542
 1933 008c 9942     		cmp	r1, r3
 1934 008e 0BD9     		bls	.L110
 284:ThirdParty/STM32F4xx_HAL_Driver/Src/stm32f4xx_ll_usb.c ****     {
 1935              		.loc 1 284 5 is_stmt 1 view .LVU543
 284:ThirdParty/STM32F4xx_HAL_Driver/Src/stm32f4xx_ll_usb.c ****     {
 1936              		.loc 1 284 10 is_stmt 0 view .LVU544
 1937 0090 04EB4312 		add	r2, r4, r3, lsl #5
 1938 0094 02F51061 		add	r1, r2, #2304
 284:ThirdParty/STM32F4xx_HAL_Driver/Src/stm32f4xx_ll_usb.c ****     {
 1939              		.loc 1 284 22 view .LVU545
 1940 0098 D2F80009 		ldr	r0, [r2, #2304]
 284:ThirdParty/STM32F4xx_HAL_Driver/Src/stm32f4xx_ll_usb.c ****     {
 1941              		.loc 1 284 8 view .LVU546
 1942 009c 0028     		cmp	r0, #0
 1943 009e EBDB     		blt	.L111
 290:ThirdParty/STM32F4xx_HAL_Driver/Src/stm32f4xx_ll_usb.c ****     }
ARM GAS  /tmp/ccCoVfPP.s 			page 70


 1944              		.loc 1 290 7 is_stmt 1 view .LVU547
 290:ThirdParty/STM32F4xx_HAL_Driver/Src/stm32f4xx_ll_usb.c ****     }
 1945              		.loc 1 290 29 is_stmt 0 view .LVU548
 1946 00a0 0020     		movs	r0, #0
 1947 00a2 C2F80009 		str	r0, [r2, #2304]
 1948 00a6 EBE7     		b	.L99
 1949              	.L110:
 297:ThirdParty/STM32F4xx_HAL_Driver/Src/stm32f4xx_ll_usb.c ****   {
 1950              		.loc 1 297 10 view .LVU549
 1951 00a8 0023     		movs	r3, #0
 1952              	.LVL153:
 297:ThirdParty/STM32F4xx_HAL_Driver/Src/stm32f4xx_ll_usb.c ****   {
 1953              		.loc 1 297 10 view .LVU550
 1954 00aa 08E0     		b	.L101
 1955              	.LVL154:
 1956              	.L113:
 301:ThirdParty/STM32F4xx_HAL_Driver/Src/stm32f4xx_ll_usb.c ****     }
 1957              		.loc 1 301 7 is_stmt 1 view .LVU551
 301:ThirdParty/STM32F4xx_HAL_Driver/Src/stm32f4xx_ll_usb.c ****     }
 1958              		.loc 1 301 30 is_stmt 0 view .LVU552
 1959 00ac 4FF0904C 		mov	ip, #1207959552
 1960 00b0 C2F800CB 		str	ip, [r2, #2816]
 1961              	.L103:
 308:ThirdParty/STM32F4xx_HAL_Driver/Src/stm32f4xx_ll_usb.c ****     USBx_OUTEP(i)->DOEPINT  = 0xFFU;
 1962              		.loc 1 308 5 is_stmt 1 discriminator 2 view .LVU553
 308:ThirdParty/STM32F4xx_HAL_Driver/Src/stm32f4xx_ll_usb.c ****     USBx_OUTEP(i)->DOEPINT  = 0xFFU;
 1963              		.loc 1 308 29 is_stmt 0 discriminator 2 view .LVU554
 1964 00b4 0022     		movs	r2, #0
 1965 00b6 0261     		str	r2, [r0, #16]
 309:ThirdParty/STM32F4xx_HAL_Driver/Src/stm32f4xx_ll_usb.c ****   }
 1966              		.loc 1 309 5 is_stmt 1 discriminator 2 view .LVU555
 309:ThirdParty/STM32F4xx_HAL_Driver/Src/stm32f4xx_ll_usb.c ****   }
 1967              		.loc 1 309 29 is_stmt 0 discriminator 2 view .LVU556
 1968 00b8 FF22     		movs	r2, #255
 1969 00ba 8260     		str	r2, [r0, #8]
 297:ThirdParty/STM32F4xx_HAL_Driver/Src/stm32f4xx_ll_usb.c ****   {
 1970              		.loc 1 297 39 is_stmt 1 discriminator 2 view .LVU557
 297:ThirdParty/STM32F4xx_HAL_Driver/Src/stm32f4xx_ll_usb.c ****   {
 1971              		.loc 1 297 40 is_stmt 0 discriminator 2 view .LVU558
 1972 00bc 0133     		adds	r3, r3, #1
 1973              	.LVL155:
 1974              	.L101:
 297:ThirdParty/STM32F4xx_HAL_Driver/Src/stm32f4xx_ll_usb.c ****   {
 1975              		.loc 1 297 16 is_stmt 1 discriminator 1 view .LVU559
 297:ThirdParty/STM32F4xx_HAL_Driver/Src/stm32f4xx_ll_usb.c ****   {
 1976              		.loc 1 297 3 is_stmt 0 discriminator 1 view .LVU560
 1977 00be 9942     		cmp	r1, r3
 1978 00c0 0DD9     		bls	.L112
 299:ThirdParty/STM32F4xx_HAL_Driver/Src/stm32f4xx_ll_usb.c ****     {
 1979              		.loc 1 299 5 is_stmt 1 view .LVU561
 299:ThirdParty/STM32F4xx_HAL_Driver/Src/stm32f4xx_ll_usb.c ****     {
 1980              		.loc 1 299 10 is_stmt 0 view .LVU562
 1981 00c2 04EB4312 		add	r2, r4, r3, lsl #5
 1982 00c6 02F53060 		add	r0, r2, #2816
 299:ThirdParty/STM32F4xx_HAL_Driver/Src/stm32f4xx_ll_usb.c ****     {
 1983              		.loc 1 299 23 view .LVU563
 1984 00ca D2F800CB 		ldr	ip, [r2, #2816]
ARM GAS  /tmp/ccCoVfPP.s 			page 71


 299:ThirdParty/STM32F4xx_HAL_Driver/Src/stm32f4xx_ll_usb.c ****     {
 1985              		.loc 1 299 8 view .LVU564
 1986 00ce BCF1000F 		cmp	ip, #0
 1987 00d2 EBDB     		blt	.L113
 305:ThirdParty/STM32F4xx_HAL_Driver/Src/stm32f4xx_ll_usb.c ****     }
 1988              		.loc 1 305 7 is_stmt 1 view .LVU565
 305:ThirdParty/STM32F4xx_HAL_Driver/Src/stm32f4xx_ll_usb.c ****     }
 1989              		.loc 1 305 30 is_stmt 0 view .LVU566
 1990 00d4 4FF0000C 		mov	ip, #0
 1991 00d8 C2F800CB 		str	ip, [r2, #2816]
 1992 00dc EAE7     		b	.L103
 1993              	.L112:
 312:ThirdParty/STM32F4xx_HAL_Driver/Src/stm32f4xx_ll_usb.c ****   
 1994              		.loc 1 312 3 is_stmt 1 view .LVU567
 312:ThirdParty/STM32F4xx_HAL_Driver/Src/stm32f4xx_ll_usb.c ****   
 1995              		.loc 1 312 24 is_stmt 0 view .LVU568
 1996 00de 2B69     		ldr	r3, [r5, #16]
 1997              	.LVL156:
 312:ThirdParty/STM32F4xx_HAL_Driver/Src/stm32f4xx_ll_usb.c ****   
 1998              		.loc 1 312 24 view .LVU569
 1999 00e0 23F48073 		bic	r3, r3, #256
 2000 00e4 2B61     		str	r3, [r5, #16]
 314:ThirdParty/STM32F4xx_HAL_Driver/Src/stm32f4xx_ll_usb.c ****   {
 2001              		.loc 1 314 3 is_stmt 1 view .LVU570
 314:ThirdParty/STM32F4xx_HAL_Driver/Src/stm32f4xx_ll_usb.c ****   {
 2002              		.loc 1 314 10 is_stmt 0 view .LVU571
 2003 00e6 089B     		ldr	r3, [sp, #32]
 314:ThirdParty/STM32F4xx_HAL_Driver/Src/stm32f4xx_ll_usb.c ****   {
 2004              		.loc 1 314 6 view .LVU572
 2005 00e8 012B     		cmp	r3, #1
 2006 00ea 1AD0     		beq	.L114
 2007              	.L105:
 324:ThirdParty/STM32F4xx_HAL_Driver/Src/stm32f4xx_ll_usb.c ****   
 2008              		.loc 1 324 3 is_stmt 1 view .LVU573
 324:ThirdParty/STM32F4xx_HAL_Driver/Src/stm32f4xx_ll_usb.c ****   
 2009              		.loc 1 324 17 is_stmt 0 view .LVU574
 2010 00ec 0022     		movs	r2, #0
 2011 00ee A261     		str	r2, [r4, #24]
 327:ThirdParty/STM32F4xx_HAL_Driver/Src/stm32f4xx_ll_usb.c **** 
 2012              		.loc 1 327 3 is_stmt 1 view .LVU575
 327:ThirdParty/STM32F4xx_HAL_Driver/Src/stm32f4xx_ll_usb.c **** 
 2013              		.loc 1 327 17 is_stmt 0 view .LVU576
 2014 00f0 6FF08042 		mvn	r2, #1073741824
 2015 00f4 6261     		str	r2, [r4, #20]
 330:ThirdParty/STM32F4xx_HAL_Driver/Src/stm32f4xx_ll_usb.c ****   {
 2016              		.loc 1 330 3 is_stmt 1 view .LVU577
 330:ThirdParty/STM32F4xx_HAL_Driver/Src/stm32f4xx_ll_usb.c ****   {
 2017              		.loc 1 330 6 is_stmt 0 view .LVU578
 2018 00f6 1BB9     		cbnz	r3, .L106
 332:ThirdParty/STM32F4xx_HAL_Driver/Src/stm32f4xx_ll_usb.c ****   }
 2019              		.loc 1 332 5 is_stmt 1 view .LVU579
 332:ThirdParty/STM32F4xx_HAL_Driver/Src/stm32f4xx_ll_usb.c ****   }
 2020              		.loc 1 332 19 is_stmt 0 view .LVU580
 2021 00f8 A369     		ldr	r3, [r4, #24]
 2022 00fa 43F01003 		orr	r3, r3, #16
 2023 00fe A361     		str	r3, [r4, #24]
 2024              	.L106:
ARM GAS  /tmp/ccCoVfPP.s 			page 72


 336:ThirdParty/STM32F4xx_HAL_Driver/Src/stm32f4xx_ll_usb.c ****                     USB_OTG_GINTMSK_ENUMDNEM | USB_OTG_GINTMSK_IEPINT |\
 2025              		.loc 1 336 3 is_stmt 1 view .LVU581
 336:ThirdParty/STM32F4xx_HAL_Driver/Src/stm32f4xx_ll_usb.c ****                     USB_OTG_GINTMSK_ENUMDNEM | USB_OTG_GINTMSK_IEPINT |\
 2026              		.loc 1 336 17 is_stmt 0 view .LVU582
 2027 0100 A269     		ldr	r2, [r4, #24]
 2028 0102 104B     		ldr	r3, .L116
 2029 0104 1343     		orrs	r3, r3, r2
 2030 0106 A361     		str	r3, [r4, #24]
 341:ThirdParty/STM32F4xx_HAL_Driver/Src/stm32f4xx_ll_usb.c ****   {
 2031              		.loc 1 341 3 is_stmt 1 view .LVU583
 341:ThirdParty/STM32F4xx_HAL_Driver/Src/stm32f4xx_ll_usb.c ****   {
 2032              		.loc 1 341 9 is_stmt 0 view .LVU584
 2033 0108 0B9B     		ldr	r3, [sp, #44]
 341:ThirdParty/STM32F4xx_HAL_Driver/Src/stm32f4xx_ll_usb.c ****   {
 2034              		.loc 1 341 5 view .LVU585
 2035 010a 1BB1     		cbz	r3, .L107
 343:ThirdParty/STM32F4xx_HAL_Driver/Src/stm32f4xx_ll_usb.c ****   }
 2036              		.loc 1 343 5 is_stmt 1 view .LVU586
 343:ThirdParty/STM32F4xx_HAL_Driver/Src/stm32f4xx_ll_usb.c ****   }
 2037              		.loc 1 343 19 is_stmt 0 view .LVU587
 2038 010c A369     		ldr	r3, [r4, #24]
 2039 010e 43F00803 		orr	r3, r3, #8
 2040 0112 A361     		str	r3, [r4, #24]
 2041              	.L107:
 346:ThirdParty/STM32F4xx_HAL_Driver/Src/stm32f4xx_ll_usb.c ****   {
 2042              		.loc 1 346 3 is_stmt 1 view .LVU588
 346:ThirdParty/STM32F4xx_HAL_Driver/Src/stm32f4xx_ll_usb.c ****   {
 2043              		.loc 1 346 6 is_stmt 0 view .LVU589
 2044 0114 012E     		cmp	r6, #1
 2045 0116 0ED0     		beq	.L115
 2046              	.L108:
 351:ThirdParty/STM32F4xx_HAL_Driver/Src/stm32f4xx_ll_usb.c **** }
 2047              		.loc 1 351 3 is_stmt 1 view .LVU590
 352:ThirdParty/STM32F4xx_HAL_Driver/Src/stm32f4xx_ll_usb.c **** 
 2048              		.loc 1 352 1 is_stmt 0 view .LVU591
 2049 0118 0020     		movs	r0, #0
 2050 011a BDE87040 		pop	{r4, r5, r6, lr}
 2051              	.LCFI36:
 2052              		.cfi_remember_state
 2053              		.cfi_restore 14
 2054              		.cfi_restore 6
 2055              		.cfi_restore 5
 2056              		.cfi_restore 4
 2057              		.cfi_def_cfa_offset 16
 2058              	.LVL157:
 352:ThirdParty/STM32F4xx_HAL_Driver/Src/stm32f4xx_ll_usb.c **** 
 2059              		.loc 1 352 1 view .LVU592
 2060 011e 04B0     		add	sp, sp, #16
 2061              	.LCFI37:
 2062              		.cfi_def_cfa_offset 0
 2063 0120 7047     		bx	lr
 2064              	.LVL158:
 2065              	.L114:
 2066              	.LCFI38:
 2067              		.cfi_restore_state
 317:ThirdParty/STM32F4xx_HAL_Driver/Src/stm32f4xx_ll_usb.c ****     USBx_DEVICE->DTHRCTL |= (USB_OTG_DTHRCTL_RXTHREN | USB_OTG_DTHRCTL_ISOTHREN | USB_OTG_DTHRCTL_N
 2068              		.loc 1 317 5 is_stmt 1 view .LVU593
ARM GAS  /tmp/ccCoVfPP.s 			page 73


 317:ThirdParty/STM32F4xx_HAL_Driver/Src/stm32f4xx_ll_usb.c ****     USBx_DEVICE->DTHRCTL |= (USB_OTG_DTHRCTL_RXTHREN | USB_OTG_DTHRCTL_ISOTHREN | USB_OTG_DTHRCTL_N
 2069              		.loc 1 317 26 is_stmt 0 view .LVU594
 2070 0122 094A     		ldr	r2, .L116+4
 2071 0124 2A63     		str	r2, [r5, #48]
 318:ThirdParty/STM32F4xx_HAL_Driver/Src/stm32f4xx_ll_usb.c ****     
 2072              		.loc 1 318 5 is_stmt 1 view .LVU595
 318:ThirdParty/STM32F4xx_HAL_Driver/Src/stm32f4xx_ll_usb.c ****     
 2073              		.loc 1 318 26 is_stmt 0 view .LVU596
 2074 0126 2A6B     		ldr	r2, [r5, #48]
 2075 0128 42F48032 		orr	r2, r2, #65536
 2076 012c 42F00302 		orr	r2, r2, #3
 2077 0130 2A63     		str	r2, [r5, #48]
 320:ThirdParty/STM32F4xx_HAL_Driver/Src/stm32f4xx_ll_usb.c ****   }
 2078              		.loc 1 320 5 is_stmt 1 view .LVU597
 320:ThirdParty/STM32F4xx_HAL_Driver/Src/stm32f4xx_ll_usb.c ****   }
 2079              		.loc 1 320 6 is_stmt 0 view .LVU598
 2080 0132 2A6B     		ldr	r2, [r5, #48]
 320:ThirdParty/STM32F4xx_HAL_Driver/Src/stm32f4xx_ll_usb.c ****   }
 2081              		.loc 1 320 6 view .LVU599
 2082 0134 DAE7     		b	.L105
 2083              	.L115:
 348:ThirdParty/STM32F4xx_HAL_Driver/Src/stm32f4xx_ll_usb.c ****   }
 2084              		.loc 1 348 5 is_stmt 1 view .LVU600
 348:ThirdParty/STM32F4xx_HAL_Driver/Src/stm32f4xx_ll_usb.c ****   }
 2085              		.loc 1 348 19 is_stmt 0 view .LVU601
 2086 0136 A369     		ldr	r3, [r4, #24]
 2087 0138 43F08043 		orr	r3, r3, #1073741824
 2088 013c 43F00403 		orr	r3, r3, #4
 2089 0140 A361     		str	r3, [r4, #24]
 2090 0142 E9E7     		b	.L108
 2091              	.L117:
 2092              		.align	2
 2093              	.L116:
 2094 0144 00383C80 		.word	-2143537152
 2095 0148 00018000 		.word	8388864
 2096              		.cfi_endproc
 2097              	.LFE137:
 2099              		.section	.text.USB_GetDevSpeed,"ax",%progbits
 2100              		.align	1
 2101              		.global	USB_GetDevSpeed
 2102              		.syntax unified
 2103              		.thumb
 2104              		.thumb_func
 2106              	USB_GetDevSpeed:
 2107              	.LVL159:
 2108              	.LFB141:
 433:ThirdParty/STM32F4xx_HAL_Driver/Src/stm32f4xx_ll_usb.c ****   uint8_t speed = 0U;
 2109              		.loc 1 433 1 is_stmt 1 view -0
 2110              		.cfi_startproc
 2111              		@ args = 0, pretend = 0, frame = 0
 2112              		@ frame_needed = 0, uses_anonymous_args = 0
 2113              		@ link register save eliminated.
 434:ThirdParty/STM32F4xx_HAL_Driver/Src/stm32f4xx_ll_usb.c ****   
 2114              		.loc 1 434 3 view .LVU603
 436:ThirdParty/STM32F4xx_HAL_Driver/Src/stm32f4xx_ll_usb.c ****   {
 2115              		.loc 1 436 3 view .LVU604
 436:ThirdParty/STM32F4xx_HAL_Driver/Src/stm32f4xx_ll_usb.c ****   {
ARM GAS  /tmp/ccCoVfPP.s 			page 74


 2116              		.loc 1 436 18 is_stmt 0 view .LVU605
 2117 0000 D0F80838 		ldr	r3, [r0, #2056]
 436:ThirdParty/STM32F4xx_HAL_Driver/Src/stm32f4xx_ll_usb.c ****   {
 2118              		.loc 1 436 7 view .LVU606
 2119 0004 00F50060 		add	r0, r0, #2048
 2120              	.LVL160:
 436:ThirdParty/STM32F4xx_HAL_Driver/Src/stm32f4xx_ll_usb.c ****   {
 2121              		.loc 1 436 5 view .LVU607
 2122 0008 13F0060F 		tst	r3, #6
 2123 000c 10D0     		beq	.L120
 440:ThirdParty/STM32F4xx_HAL_Driver/Src/stm32f4xx_ll_usb.c ****            ((USBx_DEVICE->DSTS & USB_OTG_DSTS_ENUMSPD) == DSTS_ENUMSPD_FS_PHY_48MHZ))
 2124              		.loc 1 440 8 is_stmt 1 view .LVU608
 440:ThirdParty/STM32F4xx_HAL_Driver/Src/stm32f4xx_ll_usb.c ****            ((USBx_DEVICE->DSTS & USB_OTG_DSTS_ENUMSPD) == DSTS_ENUMSPD_FS_PHY_48MHZ))
 2125              		.loc 1 440 25 is_stmt 0 view .LVU609
 2126 000e 8368     		ldr	r3, [r0, #8]
 440:ThirdParty/STM32F4xx_HAL_Driver/Src/stm32f4xx_ll_usb.c ****            ((USBx_DEVICE->DSTS & USB_OTG_DSTS_ENUMSPD) == DSTS_ENUMSPD_FS_PHY_48MHZ))
 2127              		.loc 1 440 32 view .LVU610
 2128 0010 03F00603 		and	r3, r3, #6
 440:ThirdParty/STM32F4xx_HAL_Driver/Src/stm32f4xx_ll_usb.c ****            ((USBx_DEVICE->DSTS & USB_OTG_DSTS_ENUMSPD) == DSTS_ENUMSPD_FS_PHY_48MHZ))
 2129              		.loc 1 440 11 view .LVU611
 2130 0014 022B     		cmp	r3, #2
 2131 0016 0DD0     		beq	.L121
 441:ThirdParty/STM32F4xx_HAL_Driver/Src/stm32f4xx_ll_usb.c ****   {
 2132              		.loc 1 441 25 discriminator 1 view .LVU612
 2133 0018 8368     		ldr	r3, [r0, #8]
 441:ThirdParty/STM32F4xx_HAL_Driver/Src/stm32f4xx_ll_usb.c ****   {
 2134              		.loc 1 441 32 discriminator 1 view .LVU613
 2135 001a 03F00603 		and	r3, r3, #6
 440:ThirdParty/STM32F4xx_HAL_Driver/Src/stm32f4xx_ll_usb.c ****            ((USBx_DEVICE->DSTS & USB_OTG_DSTS_ENUMSPD) == DSTS_ENUMSPD_FS_PHY_48MHZ))
 2136              		.loc 1 440 94 discriminator 1 view .LVU614
 2137 001e 062B     		cmp	r3, #6
 2138 0020 0AD0     		beq	.L122
 445:ThirdParty/STM32F4xx_HAL_Driver/Src/stm32f4xx_ll_usb.c ****   {
 2139              		.loc 1 445 8 is_stmt 1 view .LVU615
 445:ThirdParty/STM32F4xx_HAL_Driver/Src/stm32f4xx_ll_usb.c ****   {
 2140              		.loc 1 445 23 is_stmt 0 view .LVU616
 2141 0022 8368     		ldr	r3, [r0, #8]
 445:ThirdParty/STM32F4xx_HAL_Driver/Src/stm32f4xx_ll_usb.c ****   {
 2142              		.loc 1 445 30 view .LVU617
 2143 0024 03F00603 		and	r3, r3, #6
 445:ThirdParty/STM32F4xx_HAL_Driver/Src/stm32f4xx_ll_usb.c ****   {
 2144              		.loc 1 445 10 view .LVU618
 2145 0028 042B     		cmp	r3, #4
 2146 002a 07D0     		beq	.L123
 434:ThirdParty/STM32F4xx_HAL_Driver/Src/stm32f4xx_ll_usb.c ****   
 2147              		.loc 1 434 11 view .LVU619
 2148 002c 0020     		movs	r0, #0
 2149              	.LVL161:
 434:ThirdParty/STM32F4xx_HAL_Driver/Src/stm32f4xx_ll_usb.c ****   
 2150              		.loc 1 434 11 view .LVU620
 2151 002e 7047     		bx	lr
 2152              	.L120:
 438:ThirdParty/STM32F4xx_HAL_Driver/Src/stm32f4xx_ll_usb.c ****   }
 2153              		.loc 1 438 11 view .LVU621
 2154 0030 0020     		movs	r0, #0
 2155 0032 7047     		bx	lr
 2156              	.L121:
ARM GAS  /tmp/ccCoVfPP.s 			page 75


 443:ThirdParty/STM32F4xx_HAL_Driver/Src/stm32f4xx_ll_usb.c ****   }
 2157              		.loc 1 443 11 view .LVU622
 2158 0034 0320     		movs	r0, #3
 2159 0036 7047     		bx	lr
 2160              	.L122:
 2161 0038 0320     		movs	r0, #3
 2162 003a 7047     		bx	lr
 2163              	.L123:
 447:ThirdParty/STM32F4xx_HAL_Driver/Src/stm32f4xx_ll_usb.c ****   }
 2164              		.loc 1 447 11 view .LVU623
 2165 003c 0220     		movs	r0, #2
 2166              	.LVL162:
 450:ThirdParty/STM32F4xx_HAL_Driver/Src/stm32f4xx_ll_usb.c **** }
 2167              		.loc 1 450 3 is_stmt 1 view .LVU624
 451:ThirdParty/STM32F4xx_HAL_Driver/Src/stm32f4xx_ll_usb.c **** 
 2168              		.loc 1 451 1 is_stmt 0 view .LVU625
 2169 003e 7047     		bx	lr
 2170              		.cfi_endproc
 2171              	.LFE141:
 2173              		.section	.text.USB_ActivateEndpoint,"ax",%progbits
 2174              		.align	1
 2175              		.global	USB_ActivateEndpoint
 2176              		.syntax unified
 2177              		.thumb
 2178              		.thumb_func
 2180              	USB_ActivateEndpoint:
 2181              	.LVL163:
 2182              	.LFB142:
 460:ThirdParty/STM32F4xx_HAL_Driver/Src/stm32f4xx_ll_usb.c ****   if (ep->is_in == 1U)
 2183              		.loc 1 460 1 is_stmt 1 view -0
 2184              		.cfi_startproc
 2185              		@ args = 0, pretend = 0, frame = 0
 2186              		@ frame_needed = 0, uses_anonymous_args = 0
 460:ThirdParty/STM32F4xx_HAL_Driver/Src/stm32f4xx_ll_usb.c ****   if (ep->is_in == 1U)
 2187              		.loc 1 460 1 is_stmt 0 view .LVU627
 2188 0000 00B5     		push	{lr}
 2189              	.LCFI39:
 2190              		.cfi_def_cfa_offset 4
 2191              		.cfi_offset 14, -4
 461:ThirdParty/STM32F4xx_HAL_Driver/Src/stm32f4xx_ll_usb.c ****   {
 2192              		.loc 1 461 3 is_stmt 1 view .LVU628
 461:ThirdParty/STM32F4xx_HAL_Driver/Src/stm32f4xx_ll_usb.c ****   {
 2193              		.loc 1 461 9 is_stmt 0 view .LVU629
 2194 0002 4B78     		ldrb	r3, [r1, #1]	@ zero_extendqisi2
 461:ThirdParty/STM32F4xx_HAL_Driver/Src/stm32f4xx_ll_usb.c ****   {
 2195              		.loc 1 461 6 view .LVU630
 2196 0004 012B     		cmp	r3, #1
 2197 0006 24D0     		beq	.L128
 473:ThirdParty/STM32F4xx_HAL_Driver/Src/stm32f4xx_ll_usb.c ****      
 2198              		.loc 1 473 6 is_stmt 1 view .LVU631
 473:ThirdParty/STM32F4xx_HAL_Driver/Src/stm32f4xx_ll_usb.c ****      
 2199              		.loc 1 473 28 is_stmt 0 view .LVU632
 2200 0008 D0F81C38 		ldr	r3, [r0, #2076]
 473:ThirdParty/STM32F4xx_HAL_Driver/Src/stm32f4xx_ll_usb.c ****      
 2201              		.loc 1 473 66 view .LVU633
 2202 000c 91F800E0 		ldrb	lr, [r1]	@ zero_extendqisi2
 473:ThirdParty/STM32F4xx_HAL_Driver/Src/stm32f4xx_ll_usb.c ****      
ARM GAS  /tmp/ccCoVfPP.s 			page 76


 2203              		.loc 1 473 60 view .LVU634
 2204 0010 0122     		movs	r2, #1
 2205 0012 02FA0EF2 		lsl	r2, r2, lr
 473:ThirdParty/STM32F4xx_HAL_Driver/Src/stm32f4xx_ll_usb.c ****      
 2206              		.loc 1 473 28 view .LVU635
 2207 0016 43EA0243 		orr	r3, r3, r2, lsl #16
 2208 001a C0F81C38 		str	r3, [r0, #2076]
 475:ThirdParty/STM32F4xx_HAL_Driver/Src/stm32f4xx_ll_usb.c ****     {
 2209              		.loc 1 475 5 is_stmt 1 view .LVU636
 475:ThirdParty/STM32F4xx_HAL_Driver/Src/stm32f4xx_ll_usb.c ****     {
 2210              		.loc 1 475 11 is_stmt 0 view .LVU637
 2211 001e 0B78     		ldrb	r3, [r1]	@ zero_extendqisi2
 2212 0020 00EB4310 		add	r0, r0, r3, lsl #5
 2213              	.LVL164:
 475:ThirdParty/STM32F4xx_HAL_Driver/Src/stm32f4xx_ll_usb.c ****     {
 2214              		.loc 1 475 30 view .LVU638
 2215 0024 D0F8003B 		ldr	r3, [r0, #2816]
 475:ThirdParty/STM32F4xx_HAL_Driver/Src/stm32f4xx_ll_usb.c ****     {
 2216              		.loc 1 475 8 view .LVU639
 2217 0028 13F4004F 		tst	r3, #32768
 2218 002c 0ED1     		bne	.L126
 477:ThirdParty/STM32F4xx_HAL_Driver/Src/stm32f4xx_ll_usb.c ****        (USB_OTG_DIEPCTL_SD0PID_SEVNFRM)| (USB_OTG_DOEPCTL_USBAEP));
 2219              		.loc 1 477 7 is_stmt 1 view .LVU640
 477:ThirdParty/STM32F4xx_HAL_Driver/Src/stm32f4xx_ll_usb.c ****        (USB_OTG_DIEPCTL_SD0PID_SEVNFRM)| (USB_OTG_DOEPCTL_USBAEP));
 2220              		.loc 1 477 36 is_stmt 0 view .LVU641
 2221 002e D0F8003B 		ldr	r3, [r0, #2816]
 477:ThirdParty/STM32F4xx_HAL_Driver/Src/stm32f4xx_ll_usb.c ****        (USB_OTG_DIEPCTL_SD0PID_SEVNFRM)| (USB_OTG_DOEPCTL_USBAEP));
 2222              		.loc 1 477 43 view .LVU642
 2223 0032 8A68     		ldr	r2, [r1, #8]
 477:ThirdParty/STM32F4xx_HAL_Driver/Src/stm32f4xx_ll_usb.c ****        (USB_OTG_DIEPCTL_SD0PID_SEVNFRM)| (USB_OTG_DOEPCTL_USBAEP));
 2224              		.loc 1 477 55 view .LVU643
 2225 0034 C2F30A02 		ubfx	r2, r2, #0, #11
 477:ThirdParty/STM32F4xx_HAL_Driver/Src/stm32f4xx_ll_usb.c ****        (USB_OTG_DIEPCTL_SD0PID_SEVNFRM)| (USB_OTG_DOEPCTL_USBAEP));
 2226              		.loc 1 477 86 view .LVU644
 2227 0038 C978     		ldrb	r1, [r1, #3]	@ zero_extendqisi2
 2228              	.LVL165:
 477:ThirdParty/STM32F4xx_HAL_Driver/Src/stm32f4xx_ll_usb.c ****        (USB_OTG_DIEPCTL_SD0PID_SEVNFRM)| (USB_OTG_DOEPCTL_USBAEP));
 2229              		.loc 1 477 81 view .LVU645
 2230 003a 42EA8142 		orr	r2, r2, r1, lsl #18
 477:ThirdParty/STM32F4xx_HAL_Driver/Src/stm32f4xx_ll_usb.c ****        (USB_OTG_DIEPCTL_SD0PID_SEVNFRM)| (USB_OTG_DOEPCTL_USBAEP));
 2231              		.loc 1 477 36 view .LVU646
 2232 003e 1343     		orrs	r3, r3, r2
 2233 0040 43F08053 		orr	r3, r3, #268435456
 2234 0044 43F40043 		orr	r3, r3, #32768
 2235 0048 C0F8003B 		str	r3, [r0, #2816]
 2236              	.L126:
 481:ThirdParty/STM32F4xx_HAL_Driver/Src/stm32f4xx_ll_usb.c **** }
 2237              		.loc 1 481 3 is_stmt 1 view .LVU647
 482:ThirdParty/STM32F4xx_HAL_Driver/Src/stm32f4xx_ll_usb.c **** /**
 2238              		.loc 1 482 1 is_stmt 0 view .LVU648
 2239 004c 0020     		movs	r0, #0
 2240 004e 5DF804FB 		ldr	pc, [sp], #4
 2241              	.LVL166:
 2242              	.L128:
 463:ThirdParty/STM32F4xx_HAL_Driver/Src/stm32f4xx_ll_usb.c ****    
 2243              		.loc 1 463 4 is_stmt 1 view .LVU649
 463:ThirdParty/STM32F4xx_HAL_Driver/Src/stm32f4xx_ll_usb.c ****    
ARM GAS  /tmp/ccCoVfPP.s 			page 77


 2244              		.loc 1 463 26 is_stmt 0 view .LVU650
 2245 0052 D0F81C28 		ldr	r2, [r0, #2076]
 463:ThirdParty/STM32F4xx_HAL_Driver/Src/stm32f4xx_ll_usb.c ****    
 2246              		.loc 1 463 64 view .LVU651
 2247 0056 91F800E0 		ldrb	lr, [r1]	@ zero_extendqisi2
 463:ThirdParty/STM32F4xx_HAL_Driver/Src/stm32f4xx_ll_usb.c ****    
 2248              		.loc 1 463 58 view .LVU652
 2249 005a 03FA0EF3 		lsl	r3, r3, lr
 463:ThirdParty/STM32F4xx_HAL_Driver/Src/stm32f4xx_ll_usb.c ****    
 2250              		.loc 1 463 51 view .LVU653
 2251 005e 9BB2     		uxth	r3, r3
 463:ThirdParty/STM32F4xx_HAL_Driver/Src/stm32f4xx_ll_usb.c ****    
 2252              		.loc 1 463 26 view .LVU654
 2253 0060 1343     		orrs	r3, r3, r2
 2254 0062 C0F81C38 		str	r3, [r0, #2076]
 465:ThirdParty/STM32F4xx_HAL_Driver/Src/stm32f4xx_ll_usb.c ****     {
 2255              		.loc 1 465 5 is_stmt 1 view .LVU655
 465:ThirdParty/STM32F4xx_HAL_Driver/Src/stm32f4xx_ll_usb.c ****     {
 2256              		.loc 1 465 11 is_stmt 0 view .LVU656
 2257 0066 91F800C0 		ldrb	ip, [r1]	@ zero_extendqisi2
 2258 006a 00EB4C10 		add	r0, r0, ip, lsl #5
 2259              	.LVL167:
 465:ThirdParty/STM32F4xx_HAL_Driver/Src/stm32f4xx_ll_usb.c ****     {
 2260              		.loc 1 465 29 view .LVU657
 2261 006e D0F80039 		ldr	r3, [r0, #2304]
 465:ThirdParty/STM32F4xx_HAL_Driver/Src/stm32f4xx_ll_usb.c ****     {
 2262              		.loc 1 465 8 view .LVU658
 2263 0072 13F4004F 		tst	r3, #32768
 2264 0076 E9D1     		bne	.L126
 467:ThirdParty/STM32F4xx_HAL_Driver/Src/stm32f4xx_ll_usb.c ****         ((ep->num) << 22U) | (USB_OTG_DIEPCTL_SD0PID_SEVNFRM) | (USB_OTG_DIEPCTL_USBAEP)); 
 2265              		.loc 1 467 7 is_stmt 1 view .LVU659
 467:ThirdParty/STM32F4xx_HAL_Driver/Src/stm32f4xx_ll_usb.c ****         ((ep->num) << 22U) | (USB_OTG_DIEPCTL_SD0PID_SEVNFRM) | (USB_OTG_DIEPCTL_USBAEP)); 
 2266              		.loc 1 467 35 is_stmt 0 view .LVU660
 2267 0078 D0F80039 		ldr	r3, [r0, #2304]
 467:ThirdParty/STM32F4xx_HAL_Driver/Src/stm32f4xx_ll_usb.c ****         ((ep->num) << 22U) | (USB_OTG_DIEPCTL_SD0PID_SEVNFRM) | (USB_OTG_DIEPCTL_USBAEP)); 
 2268              		.loc 1 467 42 view .LVU661
 2269 007c 8A68     		ldr	r2, [r1, #8]
 467:ThirdParty/STM32F4xx_HAL_Driver/Src/stm32f4xx_ll_usb.c ****         ((ep->num) << 22U) | (USB_OTG_DIEPCTL_SD0PID_SEVNFRM) | (USB_OTG_DIEPCTL_USBAEP)); 
 2270              		.loc 1 467 54 view .LVU662
 2271 007e C2F30A02 		ubfx	r2, r2, #0, #11
 467:ThirdParty/STM32F4xx_HAL_Driver/Src/stm32f4xx_ll_usb.c ****         ((ep->num) << 22U) | (USB_OTG_DIEPCTL_SD0PID_SEVNFRM) | (USB_OTG_DIEPCTL_USBAEP)); 
 2272              		.loc 1 467 85 view .LVU663
 2273 0082 C978     		ldrb	r1, [r1, #3]	@ zero_extendqisi2
 2274              	.LVL168:
 467:ThirdParty/STM32F4xx_HAL_Driver/Src/stm32f4xx_ll_usb.c ****         ((ep->num) << 22U) | (USB_OTG_DIEPCTL_SD0PID_SEVNFRM) | (USB_OTG_DIEPCTL_USBAEP)); 
 2275              		.loc 1 467 80 view .LVU664
 2276 0084 42EA8142 		orr	r2, r2, r1, lsl #18
 467:ThirdParty/STM32F4xx_HAL_Driver/Src/stm32f4xx_ll_usb.c ****         ((ep->num) << 22U) | (USB_OTG_DIEPCTL_SD0PID_SEVNFRM) | (USB_OTG_DIEPCTL_USBAEP)); 
 2277              		.loc 1 467 100 view .LVU665
 2278 0088 42EA8C52 		orr	r2, r2, ip, lsl #22
 467:ThirdParty/STM32F4xx_HAL_Driver/Src/stm32f4xx_ll_usb.c ****         ((ep->num) << 22U) | (USB_OTG_DIEPCTL_SD0PID_SEVNFRM) | (USB_OTG_DIEPCTL_USBAEP)); 
 2279              		.loc 1 467 35 view .LVU666
 2280 008c 1343     		orrs	r3, r3, r2
 2281 008e 43F08053 		orr	r3, r3, #268435456
 2282 0092 43F40043 		orr	r3, r3, #32768
 2283 0096 C0F80039 		str	r3, [r0, #2304]
 2284 009a D7E7     		b	.L126
ARM GAS  /tmp/ccCoVfPP.s 			page 78


 2285              		.cfi_endproc
 2286              	.LFE142:
 2288              		.section	.text.USB_ActivateDedicatedEndpoint,"ax",%progbits
 2289              		.align	1
 2290              		.global	USB_ActivateDedicatedEndpoint
 2291              		.syntax unified
 2292              		.thumb
 2293              		.thumb_func
 2295              	USB_ActivateDedicatedEndpoint:
 2296              	.LVL169:
 2297              	.LFB143:
 490:ThirdParty/STM32F4xx_HAL_Driver/Src/stm32f4xx_ll_usb.c ****   static __IO uint32_t debug = 0U;
 2298              		.loc 1 490 1 is_stmt 1 view -0
 2299              		.cfi_startproc
 2300              		@ args = 0, pretend = 0, frame = 0
 2301              		@ frame_needed = 0, uses_anonymous_args = 0
 490:ThirdParty/STM32F4xx_HAL_Driver/Src/stm32f4xx_ll_usb.c ****   static __IO uint32_t debug = 0U;
 2302              		.loc 1 490 1 is_stmt 0 view .LVU668
 2303 0000 10B5     		push	{r4, lr}
 2304              	.LCFI40:
 2305              		.cfi_def_cfa_offset 8
 2306              		.cfi_offset 4, -8
 2307              		.cfi_offset 14, -4
 491:ThirdParty/STM32F4xx_HAL_Driver/Src/stm32f4xx_ll_usb.c ****   
 2308              		.loc 1 491 3 is_stmt 1 view .LVU669
 494:ThirdParty/STM32F4xx_HAL_Driver/Src/stm32f4xx_ll_usb.c ****   {
 2309              		.loc 1 494 3 view .LVU670
 494:ThirdParty/STM32F4xx_HAL_Driver/Src/stm32f4xx_ll_usb.c ****   {
 2310              		.loc 1 494 9 is_stmt 0 view .LVU671
 2311 0002 4B78     		ldrb	r3, [r1, #1]	@ zero_extendqisi2
 494:ThirdParty/STM32F4xx_HAL_Driver/Src/stm32f4xx_ll_usb.c ****   {
 2312              		.loc 1 494 6 view .LVU672
 2313 0004 012B     		cmp	r3, #1
 2314 0006 3BD0     		beq	.L135
 510:ThirdParty/STM32F4xx_HAL_Driver/Src/stm32f4xx_ll_usb.c ****     {
 2315              		.loc 1 510 5 is_stmt 1 view .LVU673
 510:ThirdParty/STM32F4xx_HAL_Driver/Src/stm32f4xx_ll_usb.c ****     {
 2316              		.loc 1 510 11 is_stmt 0 view .LVU674
 2317 0008 91F800C0 		ldrb	ip, [r1]	@ zero_extendqisi2
 2318 000c 00EB4C12 		add	r2, r0, ip, lsl #5
 510:ThirdParty/STM32F4xx_HAL_Driver/Src/stm32f4xx_ll_usb.c ****     {
 2319              		.loc 1 510 30 view .LVU675
 2320 0010 D2F8003B 		ldr	r3, [r2, #2816]
 510:ThirdParty/STM32F4xx_HAL_Driver/Src/stm32f4xx_ll_usb.c ****     {
 2321              		.loc 1 510 8 view .LVU676
 2322 0014 13F4004F 		tst	r3, #32768
 2323 0018 27D1     		bne	.L133
 512:ThirdParty/STM32F4xx_HAL_Driver/Src/stm32f4xx_ll_usb.c ****         ((ep->num) << 22U) | (USB_OTG_DOEPCTL_USBAEP));
 2324              		.loc 1 512 7 is_stmt 1 view .LVU677
 512:ThirdParty/STM32F4xx_HAL_Driver/Src/stm32f4xx_ll_usb.c ****         ((ep->num) << 22U) | (USB_OTG_DOEPCTL_USBAEP));
 2325              		.loc 1 512 36 is_stmt 0 view .LVU678
 2326 001a D2F8004B 		ldr	r4, [r2, #2816]
 512:ThirdParty/STM32F4xx_HAL_Driver/Src/stm32f4xx_ll_usb.c ****         ((ep->num) << 22U) | (USB_OTG_DOEPCTL_USBAEP));
 2327              		.loc 1 512 43 view .LVU679
 2328 001e 8B68     		ldr	r3, [r1, #8]
 512:ThirdParty/STM32F4xx_HAL_Driver/Src/stm32f4xx_ll_usb.c ****         ((ep->num) << 22U) | (USB_OTG_DOEPCTL_USBAEP));
 2329              		.loc 1 512 55 view .LVU680
ARM GAS  /tmp/ccCoVfPP.s 			page 79


 2330 0020 C3F30A03 		ubfx	r3, r3, #0, #11
 512:ThirdParty/STM32F4xx_HAL_Driver/Src/stm32f4xx_ll_usb.c ****         ((ep->num) << 22U) | (USB_OTG_DOEPCTL_USBAEP));
 2331              		.loc 1 512 86 view .LVU681
 2332 0024 91F803E0 		ldrb	lr, [r1, #3]	@ zero_extendqisi2
 512:ThirdParty/STM32F4xx_HAL_Driver/Src/stm32f4xx_ll_usb.c ****         ((ep->num) << 22U) | (USB_OTG_DOEPCTL_USBAEP));
 2333              		.loc 1 512 81 view .LVU682
 2334 0028 43EA8E43 		orr	r3, r3, lr, lsl #18
 512:ThirdParty/STM32F4xx_HAL_Driver/Src/stm32f4xx_ll_usb.c ****         ((ep->num) << 22U) | (USB_OTG_DOEPCTL_USBAEP));
 2335              		.loc 1 512 101 view .LVU683
 2336 002c 43EA8C53 		orr	r3, r3, ip, lsl #22
 512:ThirdParty/STM32F4xx_HAL_Driver/Src/stm32f4xx_ll_usb.c ****         ((ep->num) << 22U) | (USB_OTG_DOEPCTL_USBAEP));
 2337              		.loc 1 512 36 view .LVU684
 2338 0030 2343     		orrs	r3, r3, r4
 2339 0032 43F40043 		orr	r3, r3, #32768
 2340 0036 C2F8003B 		str	r3, [r2, #2816]
 515:ThirdParty/STM32F4xx_HAL_Driver/Src/stm32f4xx_ll_usb.c ****       debug = (uint32_t )&USBx_OUTEP(ep->num)->DOEPCTL;
 2341              		.loc 1 515 7 is_stmt 1 view .LVU685
 515:ThirdParty/STM32F4xx_HAL_Driver/Src/stm32f4xx_ll_usb.c ****       debug = (uint32_t )&USBx_OUTEP(ep->num)->DOEPCTL;
 2342              		.loc 1 515 15 is_stmt 0 view .LVU686
 2343 003a 00F53063 		add	r3, r0, #2816
 515:ThirdParty/STM32F4xx_HAL_Driver/Src/stm32f4xx_ll_usb.c ****       debug = (uint32_t )&USBx_OUTEP(ep->num)->DOEPCTL;
 2344              		.loc 1 515 13 view .LVU687
 2345 003e 2B4A     		ldr	r2, .L136
 2346 0040 1360     		str	r3, [r2]
 516:ThirdParty/STM32F4xx_HAL_Driver/Src/stm32f4xx_ll_usb.c ****       debug |= ((ep->maxpacket & USB_OTG_DOEPCTL_MPSIZ ) | (ep->type << 18U) |\
 2347              		.loc 1 516 7 is_stmt 1 view .LVU688
 516:ThirdParty/STM32F4xx_HAL_Driver/Src/stm32f4xx_ll_usb.c ****       debug |= ((ep->maxpacket & USB_OTG_DOEPCTL_MPSIZ ) | (ep->type << 18U) |\
 2348              		.loc 1 516 27 is_stmt 0 view .LVU689
 2349 0042 91F800C0 		ldrb	ip, [r1]	@ zero_extendqisi2
 2350 0046 00EB4C14 		add	r4, r0, ip, lsl #5
 2351 004a 04F53064 		add	r4, r4, #2816
 516:ThirdParty/STM32F4xx_HAL_Driver/Src/stm32f4xx_ll_usb.c ****       debug |= ((ep->maxpacket & USB_OTG_DOEPCTL_MPSIZ ) | (ep->type << 18U) |\
 2352              		.loc 1 516 13 view .LVU690
 2353 004e 1460     		str	r4, [r2]
 517:ThirdParty/STM32F4xx_HAL_Driver/Src/stm32f4xx_ll_usb.c ****         ((ep->num) << 22U) | (USB_OTG_DOEPCTL_USBAEP)); 
 2354              		.loc 1 517 7 is_stmt 1 view .LVU691
 517:ThirdParty/STM32F4xx_HAL_Driver/Src/stm32f4xx_ll_usb.c ****         ((ep->num) << 22U) | (USB_OTG_DOEPCTL_USBAEP)); 
 2355              		.loc 1 517 20 is_stmt 0 view .LVU692
 2356 0050 8B68     		ldr	r3, [r1, #8]
 517:ThirdParty/STM32F4xx_HAL_Driver/Src/stm32f4xx_ll_usb.c ****         ((ep->num) << 22U) | (USB_OTG_DOEPCTL_USBAEP)); 
 2357              		.loc 1 517 32 view .LVU693
 2358 0052 C3F30A03 		ubfx	r3, r3, #0, #11
 517:ThirdParty/STM32F4xx_HAL_Driver/Src/stm32f4xx_ll_usb.c ****         ((ep->num) << 22U) | (USB_OTG_DOEPCTL_USBAEP)); 
 2359              		.loc 1 517 63 view .LVU694
 2360 0056 CC78     		ldrb	r4, [r1, #3]	@ zero_extendqisi2
 517:ThirdParty/STM32F4xx_HAL_Driver/Src/stm32f4xx_ll_usb.c ****         ((ep->num) << 22U) | (USB_OTG_DOEPCTL_USBAEP)); 
 2361              		.loc 1 517 58 view .LVU695
 2362 0058 43EA8443 		orr	r3, r3, r4, lsl #18
 517:ThirdParty/STM32F4xx_HAL_Driver/Src/stm32f4xx_ll_usb.c ****         ((ep->num) << 22U) | (USB_OTG_DOEPCTL_USBAEP)); 
 2363              		.loc 1 517 78 view .LVU696
 2364 005c 43EA8C53 		orr	r3, r3, ip, lsl #22
 517:ThirdParty/STM32F4xx_HAL_Driver/Src/stm32f4xx_ll_usb.c ****         ((ep->num) << 22U) | (USB_OTG_DOEPCTL_USBAEP)); 
 2365              		.loc 1 517 13 view .LVU697
 2366 0060 1468     		ldr	r4, [r2]
 2367 0062 2343     		orrs	r3, r3, r4
 2368 0064 43F40043 		orr	r3, r3, #32768
 2369 0068 1360     		str	r3, [r2]
ARM GAS  /tmp/ccCoVfPP.s 			page 80


 2370              	.L133:
 521:ThirdParty/STM32F4xx_HAL_Driver/Src/stm32f4xx_ll_usb.c ****   }
 2371              		.loc 1 521 6 is_stmt 1 view .LVU698
 521:ThirdParty/STM32F4xx_HAL_Driver/Src/stm32f4xx_ll_usb.c ****   }
 2372              		.loc 1 521 28 is_stmt 0 view .LVU699
 2373 006a D0F83C38 		ldr	r3, [r0, #2108]
 521:ThirdParty/STM32F4xx_HAL_Driver/Src/stm32f4xx_ll_usb.c ****   }
 2374              		.loc 1 521 66 view .LVU700
 2375 006e 0978     		ldrb	r1, [r1]	@ zero_extendqisi2
 2376              	.LVL170:
 521:ThirdParty/STM32F4xx_HAL_Driver/Src/stm32f4xx_ll_usb.c ****   }
 2377              		.loc 1 521 60 view .LVU701
 2378 0070 0122     		movs	r2, #1
 2379 0072 8A40     		lsls	r2, r2, r1
 521:ThirdParty/STM32F4xx_HAL_Driver/Src/stm32f4xx_ll_usb.c ****   }
 2380              		.loc 1 521 28 view .LVU702
 2381 0074 43EA0243 		orr	r3, r3, r2, lsl #16
 2382 0078 C0F83C38 		str	r3, [r0, #2108]
 2383              	.L132:
 524:ThirdParty/STM32F4xx_HAL_Driver/Src/stm32f4xx_ll_usb.c **** }
 2384              		.loc 1 524 3 is_stmt 1 view .LVU703
 525:ThirdParty/STM32F4xx_HAL_Driver/Src/stm32f4xx_ll_usb.c **** /**
 2385              		.loc 1 525 1 is_stmt 0 view .LVU704
 2386 007c 0020     		movs	r0, #0
 2387              	.LVL171:
 525:ThirdParty/STM32F4xx_HAL_Driver/Src/stm32f4xx_ll_usb.c **** /**
 2388              		.loc 1 525 1 view .LVU705
 2389 007e 10BD     		pop	{r4, pc}
 2390              	.LVL172:
 2391              	.L135:
 496:ThirdParty/STM32F4xx_HAL_Driver/Src/stm32f4xx_ll_usb.c ****     {
 2392              		.loc 1 496 5 is_stmt 1 view .LVU706
 496:ThirdParty/STM32F4xx_HAL_Driver/Src/stm32f4xx_ll_usb.c ****     {
 2393              		.loc 1 496 11 is_stmt 0 view .LVU707
 2394 0080 91F800C0 		ldrb	ip, [r1]	@ zero_extendqisi2
 2395 0084 00EB4C14 		add	r4, r0, ip, lsl #5
 496:ThirdParty/STM32F4xx_HAL_Driver/Src/stm32f4xx_ll_usb.c ****     {
 2396              		.loc 1 496 29 view .LVU708
 2397 0088 D4F80039 		ldr	r3, [r4, #2304]
 496:ThirdParty/STM32F4xx_HAL_Driver/Src/stm32f4xx_ll_usb.c ****     {
 2398              		.loc 1 496 8 view .LVU709
 2399 008c 13F4004F 		tst	r3, #32768
 2400 0090 11D1     		bne	.L131
 498:ThirdParty/STM32F4xx_HAL_Driver/Src/stm32f4xx_ll_usb.c ****         ((ep->num) << 22U) | (USB_OTG_DIEPCTL_SD0PID_SEVNFRM) | (USB_OTG_DIEPCTL_USBAEP)); 
 2401              		.loc 1 498 7 is_stmt 1 view .LVU710
 498:ThirdParty/STM32F4xx_HAL_Driver/Src/stm32f4xx_ll_usb.c ****         ((ep->num) << 22U) | (USB_OTG_DIEPCTL_SD0PID_SEVNFRM) | (USB_OTG_DIEPCTL_USBAEP)); 
 2402              		.loc 1 498 35 is_stmt 0 view .LVU711
 2403 0092 D4F80039 		ldr	r3, [r4, #2304]
 498:ThirdParty/STM32F4xx_HAL_Driver/Src/stm32f4xx_ll_usb.c ****         ((ep->num) << 22U) | (USB_OTG_DIEPCTL_SD0PID_SEVNFRM) | (USB_OTG_DIEPCTL_USBAEP)); 
 2404              		.loc 1 498 42 view .LVU712
 2405 0096 8A68     		ldr	r2, [r1, #8]
 498:ThirdParty/STM32F4xx_HAL_Driver/Src/stm32f4xx_ll_usb.c ****         ((ep->num) << 22U) | (USB_OTG_DIEPCTL_SD0PID_SEVNFRM) | (USB_OTG_DIEPCTL_USBAEP)); 
 2406              		.loc 1 498 54 view .LVU713
 2407 0098 C2F30A02 		ubfx	r2, r2, #0, #11
 498:ThirdParty/STM32F4xx_HAL_Driver/Src/stm32f4xx_ll_usb.c ****         ((ep->num) << 22U) | (USB_OTG_DIEPCTL_SD0PID_SEVNFRM) | (USB_OTG_DIEPCTL_USBAEP)); 
 2408              		.loc 1 498 85 view .LVU714
 2409 009c 91F803E0 		ldrb	lr, [r1, #3]	@ zero_extendqisi2
ARM GAS  /tmp/ccCoVfPP.s 			page 81


 498:ThirdParty/STM32F4xx_HAL_Driver/Src/stm32f4xx_ll_usb.c ****         ((ep->num) << 22U) | (USB_OTG_DIEPCTL_SD0PID_SEVNFRM) | (USB_OTG_DIEPCTL_USBAEP)); 
 2410              		.loc 1 498 80 view .LVU715
 2411 00a0 42EA8E42 		orr	r2, r2, lr, lsl #18
 498:ThirdParty/STM32F4xx_HAL_Driver/Src/stm32f4xx_ll_usb.c ****         ((ep->num) << 22U) | (USB_OTG_DIEPCTL_SD0PID_SEVNFRM) | (USB_OTG_DIEPCTL_USBAEP)); 
 2412              		.loc 1 498 100 view .LVU716
 2413 00a4 42EA8C52 		orr	r2, r2, ip, lsl #22
 498:ThirdParty/STM32F4xx_HAL_Driver/Src/stm32f4xx_ll_usb.c ****         ((ep->num) << 22U) | (USB_OTG_DIEPCTL_SD0PID_SEVNFRM) | (USB_OTG_DIEPCTL_USBAEP)); 
 2414              		.loc 1 498 35 view .LVU717
 2415 00a8 1343     		orrs	r3, r3, r2
 2416 00aa 43F08053 		orr	r3, r3, #268435456
 2417 00ae 43F40043 		orr	r3, r3, #32768
 2418 00b2 C4F80039 		str	r3, [r4, #2304]
 2419              	.L131:
 503:ThirdParty/STM32F4xx_HAL_Driver/Src/stm32f4xx_ll_usb.c ****         ((ep->num) << 22U) | (USB_OTG_DIEPCTL_SD0PID_SEVNFRM) | (USB_OTG_DIEPCTL_USBAEP)); 
 2420              		.loc 1 503 5 is_stmt 1 view .LVU718
 503:ThirdParty/STM32F4xx_HAL_Driver/Src/stm32f4xx_ll_usb.c ****         ((ep->num) << 22U) | (USB_OTG_DIEPCTL_SD0PID_SEVNFRM) | (USB_OTG_DIEPCTL_USBAEP)); 
 2421              		.loc 1 503 19 is_stmt 0 view .LVU719
 2422 00b6 8B68     		ldr	r3, [r1, #8]
 503:ThirdParty/STM32F4xx_HAL_Driver/Src/stm32f4xx_ll_usb.c ****         ((ep->num) << 22U) | (USB_OTG_DIEPCTL_SD0PID_SEVNFRM) | (USB_OTG_DIEPCTL_USBAEP)); 
 2423              		.loc 1 503 31 view .LVU720
 2424 00b8 C3F30A03 		ubfx	r3, r3, #0, #11
 503:ThirdParty/STM32F4xx_HAL_Driver/Src/stm32f4xx_ll_usb.c ****         ((ep->num) << 22U) | (USB_OTG_DIEPCTL_SD0PID_SEVNFRM) | (USB_OTG_DIEPCTL_USBAEP)); 
 2425              		.loc 1 503 62 view .LVU721
 2426 00bc CA78     		ldrb	r2, [r1, #3]	@ zero_extendqisi2
 503:ThirdParty/STM32F4xx_HAL_Driver/Src/stm32f4xx_ll_usb.c ****         ((ep->num) << 22U) | (USB_OTG_DIEPCTL_SD0PID_SEVNFRM) | (USB_OTG_DIEPCTL_USBAEP)); 
 2427              		.loc 1 503 57 view .LVU722
 2428 00be 43EA8243 		orr	r3, r3, r2, lsl #18
 504:ThirdParty/STM32F4xx_HAL_Driver/Src/stm32f4xx_ll_usb.c ****     
 2429              		.loc 1 504 13 view .LVU723
 2430 00c2 0978     		ldrb	r1, [r1]	@ zero_extendqisi2
 2431              	.LVL173:
 503:ThirdParty/STM32F4xx_HAL_Driver/Src/stm32f4xx_ll_usb.c ****         ((ep->num) << 22U) | (USB_OTG_DIEPCTL_SD0PID_SEVNFRM) | (USB_OTG_DIEPCTL_USBAEP)); 
 2432              		.loc 1 503 77 view .LVU724
 2433 00c4 43EA8153 		orr	r3, r3, r1, lsl #22
 503:ThirdParty/STM32F4xx_HAL_Driver/Src/stm32f4xx_ll_usb.c ****         ((ep->num) << 22U) | (USB_OTG_DIEPCTL_SD0PID_SEVNFRM) | (USB_OTG_DIEPCTL_USBAEP)); 
 2434              		.loc 1 503 12 view .LVU725
 2435 00c8 084A     		ldr	r2, .L136
 2436 00ca 1468     		ldr	r4, [r2]
 2437 00cc 2343     		orrs	r3, r3, r4
 2438 00ce 43F08053 		orr	r3, r3, #268435456
 2439 00d2 43F40043 		orr	r3, r3, #32768
 2440 00d6 1360     		str	r3, [r2]
 506:ThirdParty/STM32F4xx_HAL_Driver/Src/stm32f4xx_ll_usb.c ****   }
 2441              		.loc 1 506 4 is_stmt 1 view .LVU726
 506:ThirdParty/STM32F4xx_HAL_Driver/Src/stm32f4xx_ll_usb.c ****   }
 2442              		.loc 1 506 26 is_stmt 0 view .LVU727
 2443 00d8 D0F83C28 		ldr	r2, [r0, #2108]
 506:ThirdParty/STM32F4xx_HAL_Driver/Src/stm32f4xx_ll_usb.c ****   }
 2444              		.loc 1 506 58 view .LVU728
 2445 00dc 0123     		movs	r3, #1
 2446 00de 8B40     		lsls	r3, r3, r1
 506:ThirdParty/STM32F4xx_HAL_Driver/Src/stm32f4xx_ll_usb.c ****   }
 2447              		.loc 1 506 51 view .LVU729
 2448 00e0 9BB2     		uxth	r3, r3
 506:ThirdParty/STM32F4xx_HAL_Driver/Src/stm32f4xx_ll_usb.c ****   }
 2449              		.loc 1 506 26 view .LVU730
 2450 00e2 1343     		orrs	r3, r3, r2
ARM GAS  /tmp/ccCoVfPP.s 			page 82


 2451 00e4 C0F83C38 		str	r3, [r0, #2108]
 2452 00e8 C8E7     		b	.L132
 2453              	.L137:
 2454 00ea 00BF     		.align	2
 2455              	.L136:
 2456 00ec 00000000 		.word	.LANCHOR0
 2457              		.cfi_endproc
 2458              	.LFE143:
 2460              		.section	.text.USB_DeactivateEndpoint,"ax",%progbits
 2461              		.align	1
 2462              		.global	USB_DeactivateEndpoint
 2463              		.syntax unified
 2464              		.thumb
 2465              		.thumb_func
 2467              	USB_DeactivateEndpoint:
 2468              	.LVL174:
 2469              	.LFB144:
 533:ThirdParty/STM32F4xx_HAL_Driver/Src/stm32f4xx_ll_usb.c ****   uint32_t count = 0U;
 2470              		.loc 1 533 1 is_stmt 1 view -0
 2471              		.cfi_startproc
 2472              		@ args = 0, pretend = 0, frame = 0
 2473              		@ frame_needed = 0, uses_anonymous_args = 0
 533:ThirdParty/STM32F4xx_HAL_Driver/Src/stm32f4xx_ll_usb.c ****   uint32_t count = 0U;
 2474              		.loc 1 533 1 is_stmt 0 view .LVU732
 2475 0000 38B5     		push	{r3, r4, r5, lr}
 2476              	.LCFI41:
 2477              		.cfi_def_cfa_offset 16
 2478              		.cfi_offset 3, -16
 2479              		.cfi_offset 4, -12
 2480              		.cfi_offset 5, -8
 2481              		.cfi_offset 14, -4
 2482 0002 0446     		mov	r4, r0
 2483 0004 0D46     		mov	r5, r1
 534:ThirdParty/STM32F4xx_HAL_Driver/Src/stm32f4xx_ll_usb.c ****   
 2484              		.loc 1 534 3 is_stmt 1 view .LVU733
 2485              	.LVL175:
 537:ThirdParty/STM32F4xx_HAL_Driver/Src/stm32f4xx_ll_usb.c ****   {
 2486              		.loc 1 537 3 view .LVU734
 537:ThirdParty/STM32F4xx_HAL_Driver/Src/stm32f4xx_ll_usb.c ****   {
 2487              		.loc 1 537 9 is_stmt 0 view .LVU735
 2488 0006 4B78     		ldrb	r3, [r1, #1]	@ zero_extendqisi2
 537:ThirdParty/STM32F4xx_HAL_Driver/Src/stm32f4xx_ll_usb.c ****   {
 2489              		.loc 1 537 6 view .LVU736
 2490 0008 012B     		cmp	r3, #1
 2491 000a 35D0     		beq	.L146
 569:ThirdParty/STM32F4xx_HAL_Driver/Src/stm32f4xx_ll_usb.c ****     
 2492              		.loc 1 569 5 is_stmt 1 view .LVU737
 2493 000c 0B78     		ldrb	r3, [r1]	@ zero_extendqisi2
 569:ThirdParty/STM32F4xx_HAL_Driver/Src/stm32f4xx_ll_usb.c ****     
 2494              		.loc 1 569 34 is_stmt 0 view .LVU738
 2495 000e 00EB4313 		add	r3, r0, r3, lsl #5
 2496 0012 D3F8002B 		ldr	r2, [r3, #2816]
 2497 0016 22F40042 		bic	r2, r2, #32768
 2498 001a C3F8002B 		str	r2, [r3, #2816]
 572:ThirdParty/STM32F4xx_HAL_Driver/Src/stm32f4xx_ll_usb.c ****     
 2499              		.loc 1 572 5 is_stmt 1 view .LVU739
 2500 001e 0B78     		ldrb	r3, [r1]	@ zero_extendqisi2
ARM GAS  /tmp/ccCoVfPP.s 			page 83


 2501 0020 00EB4313 		add	r3, r0, r3, lsl #5
 572:ThirdParty/STM32F4xx_HAL_Driver/Src/stm32f4xx_ll_usb.c ****     
 2502              		.loc 1 572 34 is_stmt 0 view .LVU740
 2503 0024 4FF00062 		mov	r2, #134217728
 2504 0028 C3F8002B 		str	r2, [r3, #2816]
 575:ThirdParty/STM32F4xx_HAL_Driver/Src/stm32f4xx_ll_usb.c ****     
 2505              		.loc 1 575 5 is_stmt 1 view .LVU741
 2506 002c 0B78     		ldrb	r3, [r1]	@ zero_extendqisi2
 2507 002e 00EB4313 		add	r3, r0, r3, lsl #5
 575:ThirdParty/STM32F4xx_HAL_Driver/Src/stm32f4xx_ll_usb.c ****     
 2508              		.loc 1 575 34 is_stmt 0 view .LVU742
 2509 0032 4FF08042 		mov	r2, #1073741824
 2510 0036 C3F8002B 		str	r2, [r3, #2816]
 534:ThirdParty/STM32F4xx_HAL_Driver/Src/stm32f4xx_ll_usb.c ****   
 2511              		.loc 1 534 12 view .LVU743
 2512 003a 0022     		movs	r2, #0
 2513              	.LVL176:
 2514              	.L142:
 577:ThirdParty/STM32F4xx_HAL_Driver/Src/stm32f4xx_ll_usb.c ****     {
 2515              		.loc 1 577 5 is_stmt 1 view .LVU744
 579:ThirdParty/STM32F4xx_HAL_Driver/Src/stm32f4xx_ll_usb.c ****       {
 2516              		.loc 1 579 7 view .LVU745
 579:ThirdParty/STM32F4xx_HAL_Driver/Src/stm32f4xx_ll_usb.c ****       {
 2517              		.loc 1 579 10 is_stmt 0 view .LVU746
 2518 003c 0132     		adds	r2, r2, #1
 2519              	.LVL177:
 579:ThirdParty/STM32F4xx_HAL_Driver/Src/stm32f4xx_ll_usb.c ****       {
 2520              		.loc 1 579 10 view .LVU747
 2521 003e 2B4B     		ldr	r3, .L147
 2522 0040 9A42     		cmp	r2, r3
 2523 0042 50D8     		bhi	.L144
 586:ThirdParty/STM32F4xx_HAL_Driver/Src/stm32f4xx_ll_usb.c ****     
 2524              		.loc 1 586 11 is_stmt 1 view .LVU748
 586:ThirdParty/STM32F4xx_HAL_Driver/Src/stm32f4xx_ll_usb.c ****     
 2525              		.loc 1 586 13 is_stmt 0 view .LVU749
 2526 0044 2B78     		ldrb	r3, [r5]	@ zero_extendqisi2
 2527 0046 04EB4313 		add	r3, r4, r3, lsl #5
 2528 004a 03F53063 		add	r3, r3, #2816
 586:ThirdParty/STM32F4xx_HAL_Driver/Src/stm32f4xx_ll_usb.c ****     
 2529              		.loc 1 586 32 view .LVU750
 2530 004e 9B68     		ldr	r3, [r3, #8]
 586:ThirdParty/STM32F4xx_HAL_Driver/Src/stm32f4xx_ll_usb.c ****     
 2531              		.loc 1 586 5 view .LVU751
 2532 0050 13F0100F 		tst	r3, #16
 2533 0054 F2D1     		bne	.L142
 589:ThirdParty/STM32F4xx_HAL_Driver/Src/stm32f4xx_ll_usb.c ****     
 2534              		.loc 1 589 5 is_stmt 1 view .LVU752
 589:ThirdParty/STM32F4xx_HAL_Driver/Src/stm32f4xx_ll_usb.c ****     
 2535              		.loc 1 589 23 is_stmt 0 view .LVU753
 2536 0056 D4F80438 		ldr	r3, [r4, #2052]
 2537 005a 43F48063 		orr	r3, r3, #1024
 2538 005e C4F80438 		str	r3, [r4, #2052]
 592:ThirdParty/STM32F4xx_HAL_Driver/Src/stm32f4xx_ll_usb.c ****   }
 2539              		.loc 1 592 5 is_stmt 1 view .LVU754
 592:ThirdParty/STM32F4xx_HAL_Driver/Src/stm32f4xx_ll_usb.c ****   }
 2540              		.loc 1 592 27 is_stmt 0 view .LVU755
 2541 0062 D4F81C38 		ldr	r3, [r4, #2076]
ARM GAS  /tmp/ccCoVfPP.s 			page 84


 592:ThirdParty/STM32F4xx_HAL_Driver/Src/stm32f4xx_ll_usb.c ****   }
 2542              		.loc 1 592 67 view .LVU756
 2543 0066 2978     		ldrb	r1, [r5]	@ zero_extendqisi2
 2544              	.LVL178:
 592:ThirdParty/STM32F4xx_HAL_Driver/Src/stm32f4xx_ll_usb.c ****   }
 2545              		.loc 1 592 61 view .LVU757
 2546 0068 0122     		movs	r2, #1
 2547              	.LVL179:
 592:ThirdParty/STM32F4xx_HAL_Driver/Src/stm32f4xx_ll_usb.c ****   }
 2548              		.loc 1 592 61 view .LVU758
 2549 006a 8A40     		lsls	r2, r2, r1
 592:ThirdParty/STM32F4xx_HAL_Driver/Src/stm32f4xx_ll_usb.c ****   }
 2550              		.loc 1 592 27 view .LVU759
 2551 006c 23EA0243 		bic	r3, r3, r2, lsl #16
 2552 0070 C4F81C38 		str	r3, [r4, #2076]
 594:ThirdParty/STM32F4xx_HAL_Driver/Src/stm32f4xx_ll_usb.c **** }
 2553              		.loc 1 594 10 view .LVU760
 2554 0074 0020     		movs	r0, #0
 2555              	.LVL180:
 2556              	.L140:
 595:ThirdParty/STM32F4xx_HAL_Driver/Src/stm32f4xx_ll_usb.c **** 
 2557              		.loc 1 595 1 view .LVU761
 2558 0076 38BD     		pop	{r3, r4, r5, pc}
 2559              	.LVL181:
 2560              	.L146:
 539:ThirdParty/STM32F4xx_HAL_Driver/Src/stm32f4xx_ll_usb.c ****     
 2561              		.loc 1 539 5 is_stmt 1 view .LVU762
 2562 0078 0B78     		ldrb	r3, [r1]	@ zero_extendqisi2
 539:ThirdParty/STM32F4xx_HAL_Driver/Src/stm32f4xx_ll_usb.c ****     
 2563              		.loc 1 539 33 is_stmt 0 view .LVU763
 2564 007a 00EB4313 		add	r3, r0, r3, lsl #5
 2565 007e D3F80029 		ldr	r2, [r3, #2304]
 2566 0082 22F40042 		bic	r2, r2, #32768
 2567 0086 C3F80029 		str	r2, [r3, #2304]
 542:ThirdParty/STM32F4xx_HAL_Driver/Src/stm32f4xx_ll_usb.c ****     
 2568              		.loc 1 542 5 is_stmt 1 view .LVU764
 2569 008a 0B78     		ldrb	r3, [r1]	@ zero_extendqisi2
 2570 008c 00EB4313 		add	r3, r0, r3, lsl #5
 542:ThirdParty/STM32F4xx_HAL_Driver/Src/stm32f4xx_ll_usb.c ****     
 2571              		.loc 1 542 33 is_stmt 0 view .LVU765
 2572 0090 4FF00062 		mov	r2, #134217728
 2573 0094 C3F80029 		str	r2, [r3, #2304]
 545:ThirdParty/STM32F4xx_HAL_Driver/Src/stm32f4xx_ll_usb.c ****     
 2574              		.loc 1 545 5 is_stmt 1 view .LVU766
 2575 0098 0B78     		ldrb	r3, [r1]	@ zero_extendqisi2
 2576 009a 00EB4313 		add	r3, r0, r3, lsl #5
 545:ThirdParty/STM32F4xx_HAL_Driver/Src/stm32f4xx_ll_usb.c ****     
 2577              		.loc 1 545 33 is_stmt 0 view .LVU767
 2578 009e 4FF08042 		mov	r2, #1073741824
 2579 00a2 C3F80029 		str	r2, [r3, #2304]
 534:ThirdParty/STM32F4xx_HAL_Driver/Src/stm32f4xx_ll_usb.c ****   
 2580              		.loc 1 534 12 view .LVU768
 2581 00a6 0022     		movs	r2, #0
 2582              	.LVL182:
 2583              	.L141:
 547:ThirdParty/STM32F4xx_HAL_Driver/Src/stm32f4xx_ll_usb.c ****     {
 2584              		.loc 1 547 5 is_stmt 1 view .LVU769
ARM GAS  /tmp/ccCoVfPP.s 			page 85


 549:ThirdParty/STM32F4xx_HAL_Driver/Src/stm32f4xx_ll_usb.c ****       {
 2585              		.loc 1 549 7 view .LVU770
 549:ThirdParty/STM32F4xx_HAL_Driver/Src/stm32f4xx_ll_usb.c ****       {
 2586              		.loc 1 549 10 is_stmt 0 view .LVU771
 2587 00a8 0132     		adds	r2, r2, #1
 2588              	.LVL183:
 549:ThirdParty/STM32F4xx_HAL_Driver/Src/stm32f4xx_ll_usb.c ****       {
 2589              		.loc 1 549 10 view .LVU772
 2590 00aa 104B     		ldr	r3, .L147
 2591 00ac 9A42     		cmp	r2, r3
 2592 00ae 18D8     		bhi	.L143
 556:ThirdParty/STM32F4xx_HAL_Driver/Src/stm32f4xx_ll_usb.c ****     
 2593              		.loc 1 556 11 is_stmt 1 view .LVU773
 556:ThirdParty/STM32F4xx_HAL_Driver/Src/stm32f4xx_ll_usb.c ****     
 2594              		.loc 1 556 13 is_stmt 0 view .LVU774
 2595 00b0 2B78     		ldrb	r3, [r5]	@ zero_extendqisi2
 2596 00b2 04EB4313 		add	r3, r4, r3, lsl #5
 2597 00b6 03F51063 		add	r3, r3, #2304
 556:ThirdParty/STM32F4xx_HAL_Driver/Src/stm32f4xx_ll_usb.c ****     
 2598              		.loc 1 556 31 view .LVU775
 2599 00ba 9B68     		ldr	r3, [r3, #8]
 556:ThirdParty/STM32F4xx_HAL_Driver/Src/stm32f4xx_ll_usb.c ****     
 2600              		.loc 1 556 5 view .LVU776
 2601 00bc 13F0804F 		tst	r3, #1073741824
 2602 00c0 F2D1     		bne	.L141
 560:ThirdParty/STM32F4xx_HAL_Driver/Src/stm32f4xx_ll_usb.c ****     
 2603              		.loc 1 560 5 is_stmt 1 view .LVU777
 2604 00c2 1021     		movs	r1, #16
 2605              	.LVL184:
 560:ThirdParty/STM32F4xx_HAL_Driver/Src/stm32f4xx_ll_usb.c ****     
 2606              		.loc 1 560 5 is_stmt 0 view .LVU778
 2607 00c4 2046     		mov	r0, r4
 2608              	.LVL185:
 560:ThirdParty/STM32F4xx_HAL_Driver/Src/stm32f4xx_ll_usb.c ****     
 2609              		.loc 1 560 5 view .LVU779
 2610 00c6 FFF7FEFF 		bl	USB_FlushTxFifo
 2611              	.LVL186:
 563:ThirdParty/STM32F4xx_HAL_Driver/Src/stm32f4xx_ll_usb.c ****   
 2612              		.loc 1 563 5 is_stmt 1 view .LVU780
 563:ThirdParty/STM32F4xx_HAL_Driver/Src/stm32f4xx_ll_usb.c ****   
 2613              		.loc 1 563 27 is_stmt 0 view .LVU781
 2614 00ca D4F81C28 		ldr	r2, [r4, #2076]
 563:ThirdParty/STM32F4xx_HAL_Driver/Src/stm32f4xx_ll_usb.c ****   
 2615              		.loc 1 563 67 view .LVU782
 2616 00ce 2978     		ldrb	r1, [r5]	@ zero_extendqisi2
 563:ThirdParty/STM32F4xx_HAL_Driver/Src/stm32f4xx_ll_usb.c ****   
 2617              		.loc 1 563 61 view .LVU783
 2618 00d0 0123     		movs	r3, #1
 2619 00d2 8B40     		lsls	r3, r3, r1
 563:ThirdParty/STM32F4xx_HAL_Driver/Src/stm32f4xx_ll_usb.c ****   
 2620              		.loc 1 563 54 view .LVU784
 2621 00d4 9BB2     		uxth	r3, r3
 563:ThirdParty/STM32F4xx_HAL_Driver/Src/stm32f4xx_ll_usb.c ****   
 2622              		.loc 1 563 27 view .LVU785
 2623 00d6 22EA0303 		bic	r3, r2, r3
 2624 00da C4F81C38 		str	r3, [r4, #2076]
 594:ThirdParty/STM32F4xx_HAL_Driver/Src/stm32f4xx_ll_usb.c **** }
ARM GAS  /tmp/ccCoVfPP.s 			page 86


 2625              		.loc 1 594 10 view .LVU786
 2626 00de 0020     		movs	r0, #0
 2627 00e0 C9E7     		b	.L140
 2628              	.LVL187:
 2629              	.L143:
 551:ThirdParty/STM32F4xx_HAL_Driver/Src/stm32f4xx_ll_usb.c ****       }
 2630              		.loc 1 551 16 view .LVU787
 2631 00e2 0320     		movs	r0, #3
 2632              	.LVL188:
 551:ThirdParty/STM32F4xx_HAL_Driver/Src/stm32f4xx_ll_usb.c ****       }
 2633              		.loc 1 551 16 view .LVU788
 2634 00e4 C7E7     		b	.L140
 2635              	.LVL189:
 2636              	.L144:
 581:ThirdParty/STM32F4xx_HAL_Driver/Src/stm32f4xx_ll_usb.c ****       }
 2637              		.loc 1 581 16 view .LVU789
 2638 00e6 0320     		movs	r0, #3
 2639              	.LVL190:
 581:ThirdParty/STM32F4xx_HAL_Driver/Src/stm32f4xx_ll_usb.c ****       }
 2640              		.loc 1 581 16 view .LVU790
 2641 00e8 C5E7     		b	.L140
 2642              	.L148:
 2643 00ea 00BF     		.align	2
 2644              	.L147:
 2645 00ec 400D0300 		.word	200000
 2646              		.cfi_endproc
 2647              	.LFE144:
 2649              		.section	.text.USB_DeactivateDedicatedEndpoint,"ax",%progbits
 2650              		.align	1
 2651              		.global	USB_DeactivateDedicatedEndpoint
 2652              		.syntax unified
 2653              		.thumb
 2654              		.thumb_func
 2656              	USB_DeactivateDedicatedEndpoint:
 2657              	.LVL191:
 2658              	.LFB145:
 604:ThirdParty/STM32F4xx_HAL_Driver/Src/stm32f4xx_ll_usb.c ****   uint32_t count = 0U;
 2659              		.loc 1 604 1 is_stmt 1 view -0
 2660              		.cfi_startproc
 2661              		@ args = 0, pretend = 0, frame = 0
 2662              		@ frame_needed = 0, uses_anonymous_args = 0
 604:ThirdParty/STM32F4xx_HAL_Driver/Src/stm32f4xx_ll_usb.c ****   uint32_t count = 0U;
 2663              		.loc 1 604 1 is_stmt 0 view .LVU792
 2664 0000 38B5     		push	{r3, r4, r5, lr}
 2665              	.LCFI42:
 2666              		.cfi_def_cfa_offset 16
 2667              		.cfi_offset 3, -16
 2668              		.cfi_offset 4, -12
 2669              		.cfi_offset 5, -8
 2670              		.cfi_offset 14, -4
 2671 0002 0446     		mov	r4, r0
 2672 0004 0D46     		mov	r5, r1
 605:ThirdParty/STM32F4xx_HAL_Driver/Src/stm32f4xx_ll_usb.c ****   
 2673              		.loc 1 605 3 is_stmt 1 view .LVU793
 2674              	.LVL192:
 608:ThirdParty/STM32F4xx_HAL_Driver/Src/stm32f4xx_ll_usb.c ****   {
 2675              		.loc 1 608 3 view .LVU794
ARM GAS  /tmp/ccCoVfPP.s 			page 87


 608:ThirdParty/STM32F4xx_HAL_Driver/Src/stm32f4xx_ll_usb.c ****   {
 2676              		.loc 1 608 9 is_stmt 0 view .LVU795
 2677 0006 4B78     		ldrb	r3, [r1, #1]	@ zero_extendqisi2
 608:ThirdParty/STM32F4xx_HAL_Driver/Src/stm32f4xx_ll_usb.c ****   {
 2678              		.loc 1 608 6 view .LVU796
 2679 0008 012B     		cmp	r3, #1
 2680 000a 35D0     		beq	.L157
 640:ThirdParty/STM32F4xx_HAL_Driver/Src/stm32f4xx_ll_usb.c ****     
 2681              		.loc 1 640 5 is_stmt 1 view .LVU797
 2682 000c 0B78     		ldrb	r3, [r1]	@ zero_extendqisi2
 640:ThirdParty/STM32F4xx_HAL_Driver/Src/stm32f4xx_ll_usb.c ****     
 2683              		.loc 1 640 34 is_stmt 0 view .LVU798
 2684 000e 00EB4313 		add	r3, r0, r3, lsl #5
 2685 0012 D3F8002B 		ldr	r2, [r3, #2816]
 2686 0016 22F40042 		bic	r2, r2, #32768
 2687 001a C3F8002B 		str	r2, [r3, #2816]
 643:ThirdParty/STM32F4xx_HAL_Driver/Src/stm32f4xx_ll_usb.c ****     
 2688              		.loc 1 643 5 is_stmt 1 view .LVU799
 2689 001e 0B78     		ldrb	r3, [r1]	@ zero_extendqisi2
 2690 0020 00EB4313 		add	r3, r0, r3, lsl #5
 643:ThirdParty/STM32F4xx_HAL_Driver/Src/stm32f4xx_ll_usb.c ****     
 2691              		.loc 1 643 34 is_stmt 0 view .LVU800
 2692 0024 4FF00062 		mov	r2, #134217728
 2693 0028 C3F8002B 		str	r2, [r3, #2816]
 646:ThirdParty/STM32F4xx_HAL_Driver/Src/stm32f4xx_ll_usb.c ****     
 2694              		.loc 1 646 5 is_stmt 1 view .LVU801
 2695 002c 0B78     		ldrb	r3, [r1]	@ zero_extendqisi2
 2696 002e 00EB4313 		add	r3, r0, r3, lsl #5
 646:ThirdParty/STM32F4xx_HAL_Driver/Src/stm32f4xx_ll_usb.c ****     
 2697              		.loc 1 646 34 is_stmt 0 view .LVU802
 2698 0032 4FF08042 		mov	r2, #1073741824
 2699 0036 C3F8002B 		str	r2, [r3, #2816]
 605:ThirdParty/STM32F4xx_HAL_Driver/Src/stm32f4xx_ll_usb.c ****   
 2700              		.loc 1 605 12 view .LVU803
 2701 003a 0022     		movs	r2, #0
 2702              	.LVL193:
 2703              	.L153:
 648:ThirdParty/STM32F4xx_HAL_Driver/Src/stm32f4xx_ll_usb.c ****     {
 2704              		.loc 1 648 5 is_stmt 1 view .LVU804
 650:ThirdParty/STM32F4xx_HAL_Driver/Src/stm32f4xx_ll_usb.c ****       {
 2705              		.loc 1 650 7 view .LVU805
 650:ThirdParty/STM32F4xx_HAL_Driver/Src/stm32f4xx_ll_usb.c ****       {
 2706              		.loc 1 650 10 is_stmt 0 view .LVU806
 2707 003c 0132     		adds	r2, r2, #1
 2708              	.LVL194:
 650:ThirdParty/STM32F4xx_HAL_Driver/Src/stm32f4xx_ll_usb.c ****       {
 2709              		.loc 1 650 10 view .LVU807
 2710 003e 2B4B     		ldr	r3, .L158
 2711 0040 9A42     		cmp	r2, r3
 2712 0042 50D8     		bhi	.L155
 657:ThirdParty/STM32F4xx_HAL_Driver/Src/stm32f4xx_ll_usb.c ****     
 2713              		.loc 1 657 11 is_stmt 1 view .LVU808
 657:ThirdParty/STM32F4xx_HAL_Driver/Src/stm32f4xx_ll_usb.c ****     
 2714              		.loc 1 657 13 is_stmt 0 view .LVU809
 2715 0044 2B78     		ldrb	r3, [r5]	@ zero_extendqisi2
 2716 0046 04EB4313 		add	r3, r4, r3, lsl #5
 2717 004a 03F53063 		add	r3, r3, #2816
ARM GAS  /tmp/ccCoVfPP.s 			page 88


 657:ThirdParty/STM32F4xx_HAL_Driver/Src/stm32f4xx_ll_usb.c ****     
 2718              		.loc 1 657 32 view .LVU810
 2719 004e 9B68     		ldr	r3, [r3, #8]
 657:ThirdParty/STM32F4xx_HAL_Driver/Src/stm32f4xx_ll_usb.c ****     
 2720              		.loc 1 657 5 view .LVU811
 2721 0050 13F0100F 		tst	r3, #16
 2722 0054 F2D1     		bne	.L153
 660:ThirdParty/STM32F4xx_HAL_Driver/Src/stm32f4xx_ll_usb.c ****     
 2723              		.loc 1 660 5 is_stmt 1 view .LVU812
 660:ThirdParty/STM32F4xx_HAL_Driver/Src/stm32f4xx_ll_usb.c ****     
 2724              		.loc 1 660 23 is_stmt 0 view .LVU813
 2725 0056 D4F80438 		ldr	r3, [r4, #2052]
 2726 005a 43F48063 		orr	r3, r3, #1024
 2727 005e C4F80438 		str	r3, [r4, #2052]
 663:ThirdParty/STM32F4xx_HAL_Driver/Src/stm32f4xx_ll_usb.c ****   }
 2728              		.loc 1 663 5 is_stmt 1 view .LVU814
 663:ThirdParty/STM32F4xx_HAL_Driver/Src/stm32f4xx_ll_usb.c ****   }
 2729              		.loc 1 663 27 is_stmt 0 view .LVU815
 2730 0062 D4F81C38 		ldr	r3, [r4, #2076]
 663:ThirdParty/STM32F4xx_HAL_Driver/Src/stm32f4xx_ll_usb.c ****   }
 2731              		.loc 1 663 67 view .LVU816
 2732 0066 2978     		ldrb	r1, [r5]	@ zero_extendqisi2
 2733              	.LVL195:
 663:ThirdParty/STM32F4xx_HAL_Driver/Src/stm32f4xx_ll_usb.c ****   }
 2734              		.loc 1 663 61 view .LVU817
 2735 0068 0122     		movs	r2, #1
 2736              	.LVL196:
 663:ThirdParty/STM32F4xx_HAL_Driver/Src/stm32f4xx_ll_usb.c ****   }
 2737              		.loc 1 663 61 view .LVU818
 2738 006a 8A40     		lsls	r2, r2, r1
 663:ThirdParty/STM32F4xx_HAL_Driver/Src/stm32f4xx_ll_usb.c ****   }
 2739              		.loc 1 663 27 view .LVU819
 2740 006c 23EA0243 		bic	r3, r3, r2, lsl #16
 2741 0070 C4F81C38 		str	r3, [r4, #2076]
 665:ThirdParty/STM32F4xx_HAL_Driver/Src/stm32f4xx_ll_usb.c **** 
 2742              		.loc 1 665 10 view .LVU820
 2743 0074 0020     		movs	r0, #0
 2744              	.LVL197:
 2745              	.L151:
 667:ThirdParty/STM32F4xx_HAL_Driver/Src/stm32f4xx_ll_usb.c **** 
 2746              		.loc 1 667 1 view .LVU821
 2747 0076 38BD     		pop	{r3, r4, r5, pc}
 2748              	.LVL198:
 2749              	.L157:
 610:ThirdParty/STM32F4xx_HAL_Driver/Src/stm32f4xx_ll_usb.c ****     
 2750              		.loc 1 610 5 is_stmt 1 view .LVU822
 2751 0078 0B78     		ldrb	r3, [r1]	@ zero_extendqisi2
 610:ThirdParty/STM32F4xx_HAL_Driver/Src/stm32f4xx_ll_usb.c ****     
 2752              		.loc 1 610 33 is_stmt 0 view .LVU823
 2753 007a 00EB4313 		add	r3, r0, r3, lsl #5
 2754 007e D3F80029 		ldr	r2, [r3, #2304]
 2755 0082 22F40042 		bic	r2, r2, #32768
 2756 0086 C3F80029 		str	r2, [r3, #2304]
 613:ThirdParty/STM32F4xx_HAL_Driver/Src/stm32f4xx_ll_usb.c ****     
 2757              		.loc 1 613 5 is_stmt 1 view .LVU824
 2758 008a 0B78     		ldrb	r3, [r1]	@ zero_extendqisi2
 2759 008c 00EB4313 		add	r3, r0, r3, lsl #5
ARM GAS  /tmp/ccCoVfPP.s 			page 89


 613:ThirdParty/STM32F4xx_HAL_Driver/Src/stm32f4xx_ll_usb.c ****     
 2760              		.loc 1 613 33 is_stmt 0 view .LVU825
 2761 0090 4FF00062 		mov	r2, #134217728
 2762 0094 C3F80029 		str	r2, [r3, #2304]
 616:ThirdParty/STM32F4xx_HAL_Driver/Src/stm32f4xx_ll_usb.c ****     
 2763              		.loc 1 616 5 is_stmt 1 view .LVU826
 2764 0098 0B78     		ldrb	r3, [r1]	@ zero_extendqisi2
 2765 009a 00EB4313 		add	r3, r0, r3, lsl #5
 616:ThirdParty/STM32F4xx_HAL_Driver/Src/stm32f4xx_ll_usb.c ****     
 2766              		.loc 1 616 33 is_stmt 0 view .LVU827
 2767 009e 4FF08042 		mov	r2, #1073741824
 2768 00a2 C3F80029 		str	r2, [r3, #2304]
 605:ThirdParty/STM32F4xx_HAL_Driver/Src/stm32f4xx_ll_usb.c ****   
 2769              		.loc 1 605 12 view .LVU828
 2770 00a6 0022     		movs	r2, #0
 2771              	.LVL199:
 2772              	.L152:
 618:ThirdParty/STM32F4xx_HAL_Driver/Src/stm32f4xx_ll_usb.c ****     {
 2773              		.loc 1 618 5 is_stmt 1 view .LVU829
 620:ThirdParty/STM32F4xx_HAL_Driver/Src/stm32f4xx_ll_usb.c ****       {
 2774              		.loc 1 620 7 view .LVU830
 620:ThirdParty/STM32F4xx_HAL_Driver/Src/stm32f4xx_ll_usb.c ****       {
 2775              		.loc 1 620 10 is_stmt 0 view .LVU831
 2776 00a8 0132     		adds	r2, r2, #1
 2777              	.LVL200:
 620:ThirdParty/STM32F4xx_HAL_Driver/Src/stm32f4xx_ll_usb.c ****       {
 2778              		.loc 1 620 10 view .LVU832
 2779 00aa 104B     		ldr	r3, .L158
 2780 00ac 9A42     		cmp	r2, r3
 2781 00ae 18D8     		bhi	.L154
 627:ThirdParty/STM32F4xx_HAL_Driver/Src/stm32f4xx_ll_usb.c ****     
 2782              		.loc 1 627 11 is_stmt 1 view .LVU833
 627:ThirdParty/STM32F4xx_HAL_Driver/Src/stm32f4xx_ll_usb.c ****     
 2783              		.loc 1 627 13 is_stmt 0 view .LVU834
 2784 00b0 2B78     		ldrb	r3, [r5]	@ zero_extendqisi2
 2785 00b2 04EB4313 		add	r3, r4, r3, lsl #5
 2786 00b6 03F51063 		add	r3, r3, #2304
 627:ThirdParty/STM32F4xx_HAL_Driver/Src/stm32f4xx_ll_usb.c ****     
 2787              		.loc 1 627 31 view .LVU835
 2788 00ba 9B68     		ldr	r3, [r3, #8]
 627:ThirdParty/STM32F4xx_HAL_Driver/Src/stm32f4xx_ll_usb.c ****     
 2789              		.loc 1 627 5 view .LVU836
 2790 00bc 13F0804F 		tst	r3, #1073741824
 2791 00c0 F2D1     		bne	.L152
 631:ThirdParty/STM32F4xx_HAL_Driver/Src/stm32f4xx_ll_usb.c ****     
 2792              		.loc 1 631 5 is_stmt 1 view .LVU837
 2793 00c2 1021     		movs	r1, #16
 2794              	.LVL201:
 631:ThirdParty/STM32F4xx_HAL_Driver/Src/stm32f4xx_ll_usb.c ****     
 2795              		.loc 1 631 5 is_stmt 0 view .LVU838
 2796 00c4 2046     		mov	r0, r4
 2797              	.LVL202:
 631:ThirdParty/STM32F4xx_HAL_Driver/Src/stm32f4xx_ll_usb.c ****     
 2798              		.loc 1 631 5 view .LVU839
 2799 00c6 FFF7FEFF 		bl	USB_FlushTxFifo
 2800              	.LVL203:
 634:ThirdParty/STM32F4xx_HAL_Driver/Src/stm32f4xx_ll_usb.c ****   
ARM GAS  /tmp/ccCoVfPP.s 			page 90


 2801              		.loc 1 634 5 is_stmt 1 view .LVU840
 634:ThirdParty/STM32F4xx_HAL_Driver/Src/stm32f4xx_ll_usb.c ****   
 2802              		.loc 1 634 27 is_stmt 0 view .LVU841
 2803 00ca D4F81C28 		ldr	r2, [r4, #2076]
 634:ThirdParty/STM32F4xx_HAL_Driver/Src/stm32f4xx_ll_usb.c ****   
 2804              		.loc 1 634 67 view .LVU842
 2805 00ce 2978     		ldrb	r1, [r5]	@ zero_extendqisi2
 634:ThirdParty/STM32F4xx_HAL_Driver/Src/stm32f4xx_ll_usb.c ****   
 2806              		.loc 1 634 61 view .LVU843
 2807 00d0 0123     		movs	r3, #1
 2808 00d2 8B40     		lsls	r3, r3, r1
 634:ThirdParty/STM32F4xx_HAL_Driver/Src/stm32f4xx_ll_usb.c ****   
 2809              		.loc 1 634 54 view .LVU844
 2810 00d4 9BB2     		uxth	r3, r3
 634:ThirdParty/STM32F4xx_HAL_Driver/Src/stm32f4xx_ll_usb.c ****   
 2811              		.loc 1 634 27 view .LVU845
 2812 00d6 22EA0303 		bic	r3, r2, r3
 2813 00da C4F81C38 		str	r3, [r4, #2076]
 665:ThirdParty/STM32F4xx_HAL_Driver/Src/stm32f4xx_ll_usb.c **** 
 2814              		.loc 1 665 10 view .LVU846
 2815 00de 0020     		movs	r0, #0
 2816 00e0 C9E7     		b	.L151
 2817              	.LVL204:
 2818              	.L154:
 622:ThirdParty/STM32F4xx_HAL_Driver/Src/stm32f4xx_ll_usb.c ****       }
 2819              		.loc 1 622 16 view .LVU847
 2820 00e2 0320     		movs	r0, #3
 2821              	.LVL205:
 622:ThirdParty/STM32F4xx_HAL_Driver/Src/stm32f4xx_ll_usb.c ****       }
 2822              		.loc 1 622 16 view .LVU848
 2823 00e4 C7E7     		b	.L151
 2824              	.LVL206:
 2825              	.L155:
 652:ThirdParty/STM32F4xx_HAL_Driver/Src/stm32f4xx_ll_usb.c ****       }
 2826              		.loc 1 652 16 view .LVU849
 2827 00e6 0320     		movs	r0, #3
 2828              	.LVL207:
 652:ThirdParty/STM32F4xx_HAL_Driver/Src/stm32f4xx_ll_usb.c ****       }
 2829              		.loc 1 652 16 view .LVU850
 2830 00e8 C5E7     		b	.L151
 2831              	.L159:
 2832 00ea 00BF     		.align	2
 2833              	.L158:
 2834 00ec 400D0300 		.word	200000
 2835              		.cfi_endproc
 2836              	.LFE145:
 2838              		.section	.text.USB_EP0StartXfer,"ax",%progbits
 2839              		.align	1
 2840              		.global	USB_EP0StartXfer
 2841              		.syntax unified
 2842              		.thumb
 2843              		.thumb_func
 2845              	USB_EP0StartXfer:
 2846              	.LVL208:
 2847              	.LFB147:
 802:ThirdParty/STM32F4xx_HAL_Driver/Src/stm32f4xx_ll_usb.c ****   /* IN endpoint */
 2848              		.loc 1 802 1 is_stmt 1 view -0
ARM GAS  /tmp/ccCoVfPP.s 			page 91


 2849              		.cfi_startproc
 2850              		@ args = 0, pretend = 0, frame = 0
 2851              		@ frame_needed = 0, uses_anonymous_args = 0
 2852              		@ link register save eliminated.
 802:ThirdParty/STM32F4xx_HAL_Driver/Src/stm32f4xx_ll_usb.c ****   /* IN endpoint */
 2853              		.loc 1 802 1 is_stmt 0 view .LVU852
 2854 0000 30B4     		push	{r4, r5}
 2855              	.LCFI43:
 2856              		.cfi_def_cfa_offset 8
 2857              		.cfi_offset 4, -8
 2858              		.cfi_offset 5, -4
 804:ThirdParty/STM32F4xx_HAL_Driver/Src/stm32f4xx_ll_usb.c ****   {
 2859              		.loc 1 804 3 is_stmt 1 view .LVU853
 804:ThirdParty/STM32F4xx_HAL_Driver/Src/stm32f4xx_ll_usb.c ****   {
 2860              		.loc 1 804 9 is_stmt 0 view .LVU854
 2861 0002 4B78     		ldrb	r3, [r1, #1]	@ zero_extendqisi2
 804:ThirdParty/STM32F4xx_HAL_Driver/Src/stm32f4xx_ll_usb.c ****   {
 2862              		.loc 1 804 6 view .LVU855
 2863 0004 012B     		cmp	r3, #1
 2864 0006 3AD0     		beq	.L170
 855:ThirdParty/STM32F4xx_HAL_Driver/Src/stm32f4xx_ll_usb.c ****     USBx_OUTEP(ep->num)->DOEPTSIZ &= ~(USB_OTG_DOEPTSIZ_PKTCNT); 
 2865              		.loc 1 855 5 is_stmt 1 view .LVU856
 2866 0008 0B78     		ldrb	r3, [r1]	@ zero_extendqisi2
 855:ThirdParty/STM32F4xx_HAL_Driver/Src/stm32f4xx_ll_usb.c ****     USBx_OUTEP(ep->num)->DOEPTSIZ &= ~(USB_OTG_DOEPTSIZ_PKTCNT); 
 2867              		.loc 1 855 35 is_stmt 0 view .LVU857
 2868 000a 00EB4313 		add	r3, r0, r3, lsl #5
 2869 000e D3F8104B 		ldr	r4, [r3, #2832]
 2870 0012 E40C     		lsrs	r4, r4, #19
 2871 0014 E404     		lsls	r4, r4, #19
 2872 0016 C3F8104B 		str	r4, [r3, #2832]
 856:ThirdParty/STM32F4xx_HAL_Driver/Src/stm32f4xx_ll_usb.c ****       
 2873              		.loc 1 856 5 is_stmt 1 view .LVU858
 2874 001a 0B78     		ldrb	r3, [r1]	@ zero_extendqisi2
 856:ThirdParty/STM32F4xx_HAL_Driver/Src/stm32f4xx_ll_usb.c ****       
 2875              		.loc 1 856 35 is_stmt 0 view .LVU859
 2876 001c 00EB4313 		add	r3, r0, r3, lsl #5
 2877 0020 D3F8104B 		ldr	r4, [r3, #2832]
 2878 0024 24F0FF54 		bic	r4, r4, #534773760
 2879 0028 24F4C014 		bic	r4, r4, #1572864
 2880 002c C3F8104B 		str	r4, [r3, #2832]
 858:ThirdParty/STM32F4xx_HAL_Driver/Src/stm32f4xx_ll_usb.c ****     {
 2881              		.loc 1 858 5 is_stmt 1 view .LVU860
 858:ThirdParty/STM32F4xx_HAL_Driver/Src/stm32f4xx_ll_usb.c ****     {
 2882              		.loc 1 858 11 is_stmt 0 view .LVU861
 2883 0030 4B69     		ldr	r3, [r1, #20]
 858:ThirdParty/STM32F4xx_HAL_Driver/Src/stm32f4xx_ll_usb.c ****     {
 2884              		.loc 1 858 8 view .LVU862
 2885 0032 0BB1     		cbz	r3, .L167
 860:ThirdParty/STM32F4xx_HAL_Driver/Src/stm32f4xx_ll_usb.c ****     }
 2886              		.loc 1 860 7 is_stmt 1 view .LVU863
 860:ThirdParty/STM32F4xx_HAL_Driver/Src/stm32f4xx_ll_usb.c ****     }
 2887              		.loc 1 860 24 is_stmt 0 view .LVU864
 2888 0034 8B68     		ldr	r3, [r1, #8]
 860:ThirdParty/STM32F4xx_HAL_Driver/Src/stm32f4xx_ll_usb.c ****     }
 2889              		.loc 1 860 20 view .LVU865
 2890 0036 4B61     		str	r3, [r1, #20]
 2891              	.L167:
ARM GAS  /tmp/ccCoVfPP.s 			page 92


 863:ThirdParty/STM32F4xx_HAL_Driver/Src/stm32f4xx_ll_usb.c ****     USBx_OUTEP(ep->num)->DOEPTSIZ |= (USB_OTG_DOEPTSIZ_XFRSIZ & (ep->maxpacket)); 
 2892              		.loc 1 863 5 is_stmt 1 view .LVU866
 2893 0038 0B78     		ldrb	r3, [r1]	@ zero_extendqisi2
 863:ThirdParty/STM32F4xx_HAL_Driver/Src/stm32f4xx_ll_usb.c ****     USBx_OUTEP(ep->num)->DOEPTSIZ |= (USB_OTG_DOEPTSIZ_XFRSIZ & (ep->maxpacket)); 
 2894              		.loc 1 863 35 is_stmt 0 view .LVU867
 2895 003a 00EB4313 		add	r3, r0, r3, lsl #5
 2896 003e D3F8104B 		ldr	r4, [r3, #2832]
 2897 0042 44F40024 		orr	r4, r4, #524288
 2898 0046 C3F8104B 		str	r4, [r3, #2832]
 864:ThirdParty/STM32F4xx_HAL_Driver/Src/stm32f4xx_ll_usb.c ****     
 2899              		.loc 1 864 5 is_stmt 1 view .LVU868
 2900 004a 0B78     		ldrb	r3, [r1]	@ zero_extendqisi2
 864:ThirdParty/STM32F4xx_HAL_Driver/Src/stm32f4xx_ll_usb.c ****     
 2901              		.loc 1 864 35 is_stmt 0 view .LVU869
 2902 004c 00EB4313 		add	r3, r0, r3, lsl #5
 2903 0050 D3F8104B 		ldr	r4, [r3, #2832]
 864:ThirdParty/STM32F4xx_HAL_Driver/Src/stm32f4xx_ll_usb.c ****     
 2904              		.loc 1 864 63 view .LVU870
 2905 0054 8D68     		ldr	r5, [r1, #8]
 2906 0056 C5F3120C 		ubfx	ip, r5, #0, #19
 864:ThirdParty/STM32F4xx_HAL_Driver/Src/stm32f4xx_ll_usb.c ****     
 2907              		.loc 1 864 35 view .LVU871
 2908 005a 44EA0C04 		orr	r4, r4, ip
 2909 005e C3F8104B 		str	r4, [r3, #2832]
 867:ThirdParty/STM32F4xx_HAL_Driver/Src/stm32f4xx_ll_usb.c ****     {
 2910              		.loc 1 867 5 is_stmt 1 view .LVU872
 867:ThirdParty/STM32F4xx_HAL_Driver/Src/stm32f4xx_ll_usb.c ****     {
 2911              		.loc 1 867 8 is_stmt 0 view .LVU873
 2912 0062 012A     		cmp	r2, #1
 2913 0064 77D0     		beq	.L171
 2914              	.LVL209:
 2915              	.L168:
 873:ThirdParty/STM32F4xx_HAL_Driver/Src/stm32f4xx_ll_usb.c ****   }
 2916              		.loc 1 873 5 is_stmt 1 view .LVU874
 2917 0066 0B78     		ldrb	r3, [r1]	@ zero_extendqisi2
 873:ThirdParty/STM32F4xx_HAL_Driver/Src/stm32f4xx_ll_usb.c ****   }
 2918              		.loc 1 873 34 is_stmt 0 view .LVU875
 2919 0068 00EB4310 		add	r0, r0, r3, lsl #5
 2920              	.LVL210:
 873:ThirdParty/STM32F4xx_HAL_Driver/Src/stm32f4xx_ll_usb.c ****   }
 2921              		.loc 1 873 34 view .LVU876
 2922 006c D0F8003B 		ldr	r3, [r0, #2816]
 2923 0070 43F00443 		orr	r3, r3, #-2080374784
 2924 0074 C0F8003B 		str	r3, [r0, #2816]
 2925              	.LVL211:
 2926              	.L166:
 875:ThirdParty/STM32F4xx_HAL_Driver/Src/stm32f4xx_ll_usb.c **** }
 2927              		.loc 1 875 3 is_stmt 1 view .LVU877
 876:ThirdParty/STM32F4xx_HAL_Driver/Src/stm32f4xx_ll_usb.c **** 
 2928              		.loc 1 876 1 is_stmt 0 view .LVU878
 2929 0078 0020     		movs	r0, #0
 2930 007a 30BC     		pop	{r4, r5}
 2931              	.LCFI44:
 2932              		.cfi_remember_state
 2933              		.cfi_restore 5
 2934              		.cfi_restore 4
 2935              		.cfi_def_cfa_offset 0
ARM GAS  /tmp/ccCoVfPP.s 			page 93


 2936 007c 7047     		bx	lr
 2937              	.LVL212:
 2938              	.L170:
 2939              	.LCFI45:
 2940              		.cfi_restore_state
 807:ThirdParty/STM32F4xx_HAL_Driver/Src/stm32f4xx_ll_usb.c ****     {
 2941              		.loc 1 807 5 is_stmt 1 view .LVU879
 807:ThirdParty/STM32F4xx_HAL_Driver/Src/stm32f4xx_ll_usb.c ****     {
 2942              		.loc 1 807 11 is_stmt 0 view .LVU880
 2943 007e 4B69     		ldr	r3, [r1, #20]
 807:ThirdParty/STM32F4xx_HAL_Driver/Src/stm32f4xx_ll_usb.c ****     {
 2944              		.loc 1 807 8 view .LVU881
 2945 0080 9BBB     		cbnz	r3, .L162
 809:ThirdParty/STM32F4xx_HAL_Driver/Src/stm32f4xx_ll_usb.c ****       USBx_INEP(ep->num)->DIEPTSIZ |= (USB_OTG_DIEPTSIZ_PKTCNT & (1U << 19U)) ;
 2946              		.loc 1 809 7 is_stmt 1 view .LVU882
 2947 0082 0B78     		ldrb	r3, [r1]	@ zero_extendqisi2
 809:ThirdParty/STM32F4xx_HAL_Driver/Src/stm32f4xx_ll_usb.c ****       USBx_INEP(ep->num)->DIEPTSIZ |= (USB_OTG_DIEPTSIZ_PKTCNT & (1U << 19U)) ;
 2948              		.loc 1 809 36 is_stmt 0 view .LVU883
 2949 0084 00EB4313 		add	r3, r0, r3, lsl #5
 2950 0088 D3F81049 		ldr	r4, [r3, #2320]
 2951 008c 24F0FF54 		bic	r4, r4, #534773760
 2952 0090 24F4C014 		bic	r4, r4, #1572864
 2953 0094 C3F81049 		str	r4, [r3, #2320]
 810:ThirdParty/STM32F4xx_HAL_Driver/Src/stm32f4xx_ll_usb.c ****       USBx_INEP(ep->num)->DIEPTSIZ &= ~(USB_OTG_DIEPTSIZ_XFRSIZ); 
 2954              		.loc 1 810 7 is_stmt 1 view .LVU884
 2955 0098 0B78     		ldrb	r3, [r1]	@ zero_extendqisi2
 810:ThirdParty/STM32F4xx_HAL_Driver/Src/stm32f4xx_ll_usb.c ****       USBx_INEP(ep->num)->DIEPTSIZ &= ~(USB_OTG_DIEPTSIZ_XFRSIZ); 
 2956              		.loc 1 810 36 is_stmt 0 view .LVU885
 2957 009a 00EB4313 		add	r3, r0, r3, lsl #5
 2958 009e D3F81049 		ldr	r4, [r3, #2320]
 2959 00a2 44F40024 		orr	r4, r4, #524288
 2960 00a6 C3F81049 		str	r4, [r3, #2320]
 811:ThirdParty/STM32F4xx_HAL_Driver/Src/stm32f4xx_ll_usb.c ****     }
 2961              		.loc 1 811 7 is_stmt 1 view .LVU886
 2962 00aa 0B78     		ldrb	r3, [r1]	@ zero_extendqisi2
 811:ThirdParty/STM32F4xx_HAL_Driver/Src/stm32f4xx_ll_usb.c ****     }
 2963              		.loc 1 811 36 is_stmt 0 view .LVU887
 2964 00ac 00EB4313 		add	r3, r0, r3, lsl #5
 2965 00b0 D3F81049 		ldr	r4, [r3, #2320]
 2966 00b4 E40C     		lsrs	r4, r4, #19
 2967 00b6 E404     		lsls	r4, r4, #19
 2968 00b8 C3F81049 		str	r4, [r3, #2320]
 2969              	.L163:
 833:ThirdParty/STM32F4xx_HAL_Driver/Src/stm32f4xx_ll_usb.c ****     
 2970              		.loc 1 833 5 is_stmt 1 view .LVU888
 2971 00bc 0B78     		ldrb	r3, [r1]	@ zero_extendqisi2
 833:ThirdParty/STM32F4xx_HAL_Driver/Src/stm32f4xx_ll_usb.c ****     
 2972              		.loc 1 833 33 is_stmt 0 view .LVU889
 2973 00be 00EB4313 		add	r3, r0, r3, lsl #5
 2974 00c2 D3F80049 		ldr	r4, [r3, #2304]
 2975 00c6 44F00444 		orr	r4, r4, #-2080374784
 2976 00ca C3F80049 		str	r4, [r3, #2304]
 835:ThirdParty/STM32F4xx_HAL_Driver/Src/stm32f4xx_ll_usb.c ****     {
 2977              		.loc 1 835 5 is_stmt 1 view .LVU890
 835:ThirdParty/STM32F4xx_HAL_Driver/Src/stm32f4xx_ll_usb.c ****     {
 2978              		.loc 1 835 8 is_stmt 0 view .LVU891
 2979 00ce 012A     		cmp	r2, #1
ARM GAS  /tmp/ccCoVfPP.s 			page 94


 2980 00d0 3AD0     		beq	.L172
 842:ThirdParty/STM32F4xx_HAL_Driver/Src/stm32f4xx_ll_usb.c ****       {
 2981              		.loc 1 842 7 is_stmt 1 view .LVU892
 842:ThirdParty/STM32F4xx_HAL_Driver/Src/stm32f4xx_ll_usb.c ****       {
 2982              		.loc 1 842 13 is_stmt 0 view .LVU893
 2983 00d2 4B69     		ldr	r3, [r1, #20]
 842:ThirdParty/STM32F4xx_HAL_Driver/Src/stm32f4xx_ll_usb.c ****       {
 2984              		.loc 1 842 10 view .LVU894
 2985 00d4 002B     		cmp	r3, #0
 2986 00d6 CFD0     		beq	.L166
 844:ThirdParty/STM32F4xx_HAL_Driver/Src/stm32f4xx_ll_usb.c ****       }
 2987              		.loc 1 844 9 is_stmt 1 view .LVU895
 844:ThirdParty/STM32F4xx_HAL_Driver/Src/stm32f4xx_ll_usb.c ****       }
 2988              		.loc 1 844 33 is_stmt 0 view .LVU896
 2989 00d8 D0F83438 		ldr	r3, [r0, #2100]
 844:ThirdParty/STM32F4xx_HAL_Driver/Src/stm32f4xx_ll_usb.c ****       }
 2990              		.loc 1 844 45 view .LVU897
 2991 00dc 0978     		ldrb	r1, [r1]	@ zero_extendqisi2
 2992              	.LVL213:
 844:ThirdParty/STM32F4xx_HAL_Driver/Src/stm32f4xx_ll_usb.c ****       }
 2993              		.loc 1 844 39 view .LVU898
 2994 00de 0122     		movs	r2, #1
 2995              	.LVL214:
 844:ThirdParty/STM32F4xx_HAL_Driver/Src/stm32f4xx_ll_usb.c ****       }
 2996              		.loc 1 844 39 view .LVU899
 2997 00e0 8A40     		lsls	r2, r2, r1
 844:ThirdParty/STM32F4xx_HAL_Driver/Src/stm32f4xx_ll_usb.c ****       }
 2998              		.loc 1 844 33 view .LVU900
 2999 00e2 1343     		orrs	r3, r3, r2
 3000 00e4 C0F83438 		str	r3, [r0, #2100]
 3001 00e8 C6E7     		b	.L166
 3002              	.LVL215:
 3003              	.L162:
 820:ThirdParty/STM32F4xx_HAL_Driver/Src/stm32f4xx_ll_usb.c ****       USBx_INEP(ep->num)->DIEPTSIZ &= ~(USB_OTG_DIEPTSIZ_PKTCNT); 
 3004              		.loc 1 820 7 is_stmt 1 view .LVU901
 3005 00ea 0B78     		ldrb	r3, [r1]	@ zero_extendqisi2
 820:ThirdParty/STM32F4xx_HAL_Driver/Src/stm32f4xx_ll_usb.c ****       USBx_INEP(ep->num)->DIEPTSIZ &= ~(USB_OTG_DIEPTSIZ_PKTCNT); 
 3006              		.loc 1 820 36 is_stmt 0 view .LVU902
 3007 00ec 00EB4313 		add	r3, r0, r3, lsl #5
 3008 00f0 D3F81049 		ldr	r4, [r3, #2320]
 3009 00f4 E40C     		lsrs	r4, r4, #19
 3010 00f6 E404     		lsls	r4, r4, #19
 3011 00f8 C3F81049 		str	r4, [r3, #2320]
 821:ThirdParty/STM32F4xx_HAL_Driver/Src/stm32f4xx_ll_usb.c ****       
 3012              		.loc 1 821 7 is_stmt 1 view .LVU903
 3013 00fc 0B78     		ldrb	r3, [r1]	@ zero_extendqisi2
 821:ThirdParty/STM32F4xx_HAL_Driver/Src/stm32f4xx_ll_usb.c ****       
 3014              		.loc 1 821 36 is_stmt 0 view .LVU904
 3015 00fe 00EB4313 		add	r3, r0, r3, lsl #5
 3016 0102 D3F81049 		ldr	r4, [r3, #2320]
 3017 0106 24F0FF54 		bic	r4, r4, #534773760
 3018 010a 24F4C014 		bic	r4, r4, #1572864
 3019 010e C3F81049 		str	r4, [r3, #2320]
 823:ThirdParty/STM32F4xx_HAL_Driver/Src/stm32f4xx_ll_usb.c ****       {
 3020              		.loc 1 823 7 is_stmt 1 view .LVU905
 823:ThirdParty/STM32F4xx_HAL_Driver/Src/stm32f4xx_ll_usb.c ****       {
 3021              		.loc 1 823 12 is_stmt 0 view .LVU906
ARM GAS  /tmp/ccCoVfPP.s 			page 95


 3022 0112 4C69     		ldr	r4, [r1, #20]
 823:ThirdParty/STM32F4xx_HAL_Driver/Src/stm32f4xx_ll_usb.c ****       {
 3023              		.loc 1 823 27 view .LVU907
 3024 0114 8B68     		ldr	r3, [r1, #8]
 823:ThirdParty/STM32F4xx_HAL_Driver/Src/stm32f4xx_ll_usb.c ****       {
 3025              		.loc 1 823 9 view .LVU908
 3026 0116 9C42     		cmp	r4, r3
 3027 0118 00D9     		bls	.L164
 825:ThirdParty/STM32F4xx_HAL_Driver/Src/stm32f4xx_ll_usb.c ****       }
 3028              		.loc 1 825 9 is_stmt 1 view .LVU909
 825:ThirdParty/STM32F4xx_HAL_Driver/Src/stm32f4xx_ll_usb.c ****       }
 3029              		.loc 1 825 22 is_stmt 0 view .LVU910
 3030 011a 4B61     		str	r3, [r1, #20]
 3031              	.L164:
 827:ThirdParty/STM32F4xx_HAL_Driver/Src/stm32f4xx_ll_usb.c ****       USBx_INEP(ep->num)->DIEPTSIZ |= (USB_OTG_DIEPTSIZ_XFRSIZ & ep->xfer_len); 
 3032              		.loc 1 827 7 is_stmt 1 view .LVU911
 3033 011c 0B78     		ldrb	r3, [r1]	@ zero_extendqisi2
 827:ThirdParty/STM32F4xx_HAL_Driver/Src/stm32f4xx_ll_usb.c ****       USBx_INEP(ep->num)->DIEPTSIZ |= (USB_OTG_DIEPTSIZ_XFRSIZ & ep->xfer_len); 
 3034              		.loc 1 827 36 is_stmt 0 view .LVU912
 3035 011e 00EB4313 		add	r3, r0, r3, lsl #5
 3036 0122 D3F81049 		ldr	r4, [r3, #2320]
 3037 0126 44F40024 		orr	r4, r4, #524288
 3038 012a C3F81049 		str	r4, [r3, #2320]
 828:ThirdParty/STM32F4xx_HAL_Driver/Src/stm32f4xx_ll_usb.c ****     
 3039              		.loc 1 828 7 is_stmt 1 view .LVU913
 3040 012e 0B78     		ldrb	r3, [r1]	@ zero_extendqisi2
 828:ThirdParty/STM32F4xx_HAL_Driver/Src/stm32f4xx_ll_usb.c ****     
 3041              		.loc 1 828 36 is_stmt 0 view .LVU914
 3042 0130 00EB4313 		add	r3, r0, r3, lsl #5
 3043 0134 D3F81049 		ldr	r4, [r3, #2320]
 828:ThirdParty/STM32F4xx_HAL_Driver/Src/stm32f4xx_ll_usb.c ****     
 3044              		.loc 1 828 64 view .LVU915
 3045 0138 4D69     		ldr	r5, [r1, #20]
 3046 013a C5F3120C 		ubfx	ip, r5, #0, #19
 828:ThirdParty/STM32F4xx_HAL_Driver/Src/stm32f4xx_ll_usb.c ****     
 3047              		.loc 1 828 36 view .LVU916
 3048 013e 44EA0C04 		orr	r4, r4, ip
 3049 0142 C3F81049 		str	r4, [r3, #2320]
 3050 0146 B9E7     		b	.L163
 3051              	.L172:
 837:ThirdParty/STM32F4xx_HAL_Driver/Src/stm32f4xx_ll_usb.c ****     }
 3052              		.loc 1 837 7 is_stmt 1 view .LVU917
 3053 0148 0B78     		ldrb	r3, [r1]	@ zero_extendqisi2
 3054 014a 00EB4310 		add	r0, r0, r3, lsl #5
 3055              	.LVL216:
 837:ThirdParty/STM32F4xx_HAL_Driver/Src/stm32f4xx_ll_usb.c ****     }
 3056              		.loc 1 837 50 is_stmt 0 view .LVU918
 3057 014e 0B69     		ldr	r3, [r1, #16]
 837:ThirdParty/STM32F4xx_HAL_Driver/Src/stm32f4xx_ll_usb.c ****     }
 3058              		.loc 1 837 35 view .LVU919
 3059 0150 C0F81439 		str	r3, [r0, #2324]
 3060 0154 90E7     		b	.L166
 3061              	.LVL217:
 3062              	.L171:
 869:ThirdParty/STM32F4xx_HAL_Driver/Src/stm32f4xx_ll_usb.c ****     }
 3063              		.loc 1 869 7 is_stmt 1 view .LVU920
 869:ThirdParty/STM32F4xx_HAL_Driver/Src/stm32f4xx_ll_usb.c ****     }
ARM GAS  /tmp/ccCoVfPP.s 			page 96


 3064              		.loc 1 869 51 is_stmt 0 view .LVU921
 3065 0156 CA68     		ldr	r2, [r1, #12]
 3066              	.LVL218:
 869:ThirdParty/STM32F4xx_HAL_Driver/Src/stm32f4xx_ll_usb.c ****     }
 3067              		.loc 1 869 7 view .LVU922
 3068 0158 0B78     		ldrb	r3, [r1]	@ zero_extendqisi2
 3069 015a 00EB4313 		add	r3, r0, r3, lsl #5
 869:ThirdParty/STM32F4xx_HAL_Driver/Src/stm32f4xx_ll_usb.c ****     }
 3070              		.loc 1 869 36 view .LVU923
 3071 015e C3F8142B 		str	r2, [r3, #2836]
 3072 0162 80E7     		b	.L168
 3073              		.cfi_endproc
 3074              	.LFE147:
 3076              		.section	.text.USB_WritePacket,"ax",%progbits
 3077              		.align	1
 3078              		.global	USB_WritePacket
 3079              		.syntax unified
 3080              		.thumb
 3081              		.thumb_func
 3083              	USB_WritePacket:
 3084              	.LVL219:
 3085              	.LFB148:
 892:ThirdParty/STM32F4xx_HAL_Driver/Src/stm32f4xx_ll_usb.c ****   uint32_t count32b = 0U , i = 0U;
 3086              		.loc 1 892 1 is_stmt 1 view -0
 3087              		.cfi_startproc
 3088              		@ args = 4, pretend = 0, frame = 0
 3089              		@ frame_needed = 0, uses_anonymous_args = 0
 892:ThirdParty/STM32F4xx_HAL_Driver/Src/stm32f4xx_ll_usb.c ****   uint32_t count32b = 0U , i = 0U;
 3090              		.loc 1 892 1 is_stmt 0 view .LVU925
 3091 0000 10B5     		push	{r4, lr}
 3092              	.LCFI46:
 3093              		.cfi_def_cfa_offset 8
 3094              		.cfi_offset 4, -8
 3095              		.cfi_offset 14, -4
 3096 0002 9DF80840 		ldrb	r4, [sp, #8]	@ zero_extendqisi2
 893:ThirdParty/STM32F4xx_HAL_Driver/Src/stm32f4xx_ll_usb.c ****   
 3097              		.loc 1 893 3 is_stmt 1 view .LVU926
 3098              	.LVL220:
 895:ThirdParty/STM32F4xx_HAL_Driver/Src/stm32f4xx_ll_usb.c ****   {
 3099              		.loc 1 895 3 view .LVU927
 895:ThirdParty/STM32F4xx_HAL_Driver/Src/stm32f4xx_ll_usb.c ****   {
 3100              		.loc 1 895 6 is_stmt 0 view .LVU928
 3101 0006 84B9     		cbnz	r4, .L174
 897:ThirdParty/STM32F4xx_HAL_Driver/Src/stm32f4xx_ll_usb.c ****     for (i = 0U; i < count32b; i++, src += 4U)
 3102              		.loc 1 897 5 is_stmt 1 view .LVU929
 897:ThirdParty/STM32F4xx_HAL_Driver/Src/stm32f4xx_ll_usb.c ****     for (i = 0U; i < count32b; i++, src += 4U)
 3103              		.loc 1 897 22 is_stmt 0 view .LVU930
 3104 0008 0333     		adds	r3, r3, #3
 3105              	.LVL221:
 897:ThirdParty/STM32F4xx_HAL_Driver/Src/stm32f4xx_ll_usb.c ****     for (i = 0U; i < count32b; i++, src += 4U)
 3106              		.loc 1 897 14 view .LVU931
 3107 000a 4FEA930E 		lsr	lr, r3, #2
 3108              	.LVL222:
 898:ThirdParty/STM32F4xx_HAL_Driver/Src/stm32f4xx_ll_usb.c ****     {
 3109              		.loc 1 898 5 is_stmt 1 view .LVU932
 898:ThirdParty/STM32F4xx_HAL_Driver/Src/stm32f4xx_ll_usb.c ****     {
 3110              		.loc 1 898 12 is_stmt 0 view .LVU933
ARM GAS  /tmp/ccCoVfPP.s 			page 97


 3111 000e 4FF0000C 		mov	ip, #0
 898:ThirdParty/STM32F4xx_HAL_Driver/Src/stm32f4xx_ll_usb.c ****     {
 3112              		.loc 1 898 5 view .LVU934
 3113 0012 08E0     		b	.L175
 3114              	.LVL223:
 3115              	.L176:
 900:ThirdParty/STM32F4xx_HAL_Driver/Src/stm32f4xx_ll_usb.c ****     }
 3116              		.loc 1 900 7 is_stmt 1 discriminator 3 view .LVU935
 3117 0014 00EB0233 		add	r3, r0, r2, lsl #12
 3118 0018 03F58053 		add	r3, r3, #4096
 900:ThirdParty/STM32F4xx_HAL_Driver/Src/stm32f4xx_ll_usb.c ****     }
 3119              		.loc 1 900 31 is_stmt 0 discriminator 3 view .LVU936
 3120 001c 51F8044B 		ldr	r4, [r1], #4	@ unaligned
 3121              	.LVL224:
 900:ThirdParty/STM32F4xx_HAL_Driver/Src/stm32f4xx_ll_usb.c ****     }
 3122              		.loc 1 900 29 discriminator 3 view .LVU937
 3123 0020 1C60     		str	r4, [r3]
 898:ThirdParty/STM32F4xx_HAL_Driver/Src/stm32f4xx_ll_usb.c ****     {
 3124              		.loc 1 898 32 is_stmt 1 discriminator 3 view .LVU938
 898:ThirdParty/STM32F4xx_HAL_Driver/Src/stm32f4xx_ll_usb.c ****     {
 3125              		.loc 1 898 33 is_stmt 0 discriminator 3 view .LVU939
 3126 0022 0CF1010C 		add	ip, ip, #1
 3127              	.LVL225:
 3128              	.L175:
 898:ThirdParty/STM32F4xx_HAL_Driver/Src/stm32f4xx_ll_usb.c ****     {
 3129              		.loc 1 898 18 is_stmt 1 discriminator 1 view .LVU940
 898:ThirdParty/STM32F4xx_HAL_Driver/Src/stm32f4xx_ll_usb.c ****     {
 3130              		.loc 1 898 5 is_stmt 0 discriminator 1 view .LVU941
 3131 0026 F445     		cmp	ip, lr
 3132 0028 F4D3     		bcc	.L176
 3133              	.LVL226:
 3134              	.L174:
 903:ThirdParty/STM32F4xx_HAL_Driver/Src/stm32f4xx_ll_usb.c **** }
 3135              		.loc 1 903 3 is_stmt 1 view .LVU942
 904:ThirdParty/STM32F4xx_HAL_Driver/Src/stm32f4xx_ll_usb.c **** 
 3136              		.loc 1 904 1 is_stmt 0 view .LVU943
 3137 002a 0020     		movs	r0, #0
 3138              	.LVL227:
 904:ThirdParty/STM32F4xx_HAL_Driver/Src/stm32f4xx_ll_usb.c **** 
 3139              		.loc 1 904 1 view .LVU944
 3140 002c 10BD     		pop	{r4, pc}
 904:ThirdParty/STM32F4xx_HAL_Driver/Src/stm32f4xx_ll_usb.c **** 
 3141              		.loc 1 904 1 view .LVU945
 3142              		.cfi_endproc
 3143              	.LFE148:
 3145              		.section	.text.USB_EPStartXfer,"ax",%progbits
 3146              		.align	1
 3147              		.global	USB_EPStartXfer
 3148              		.syntax unified
 3149              		.thumb
 3150              		.thumb_func
 3152              	USB_EPStartXfer:
 3153              	.LVL228:
 3154              	.LFB146:
 680:ThirdParty/STM32F4xx_HAL_Driver/Src/stm32f4xx_ll_usb.c ****   uint16_t pktcnt = 0U;
 3155              		.loc 1 680 1 is_stmt 1 view -0
 3156              		.cfi_startproc
ARM GAS  /tmp/ccCoVfPP.s 			page 98


 3157              		@ args = 0, pretend = 0, frame = 0
 3158              		@ frame_needed = 0, uses_anonymous_args = 0
 680:ThirdParty/STM32F4xx_HAL_Driver/Src/stm32f4xx_ll_usb.c ****   uint16_t pktcnt = 0U;
 3159              		.loc 1 680 1 is_stmt 0 view .LVU947
 3160 0000 70B5     		push	{r4, r5, r6, lr}
 3161              	.LCFI47:
 3162              		.cfi_def_cfa_offset 16
 3163              		.cfi_offset 4, -16
 3164              		.cfi_offset 5, -12
 3165              		.cfi_offset 6, -8
 3166              		.cfi_offset 14, -4
 3167 0002 82B0     		sub	sp, sp, #8
 3168              	.LCFI48:
 3169              		.cfi_def_cfa_offset 24
 681:ThirdParty/STM32F4xx_HAL_Driver/Src/stm32f4xx_ll_usb.c ****   
 3170              		.loc 1 681 3 is_stmt 1 view .LVU948
 3171              	.LVL229:
 684:ThirdParty/STM32F4xx_HAL_Driver/Src/stm32f4xx_ll_usb.c ****   {
 3172              		.loc 1 684 3 view .LVU949
 684:ThirdParty/STM32F4xx_HAL_Driver/Src/stm32f4xx_ll_usb.c ****   {
 3173              		.loc 1 684 9 is_stmt 0 view .LVU950
 3174 0004 4B78     		ldrb	r3, [r1, #1]	@ zero_extendqisi2
 684:ThirdParty/STM32F4xx_HAL_Driver/Src/stm32f4xx_ll_usb.c ****   {
 3175              		.loc 1 684 6 view .LVU951
 3176 0006 012B     		cmp	r3, #1
 3177 0008 3ED0     		beq	.L193
 754:ThirdParty/STM32F4xx_HAL_Driver/Src/stm32f4xx_ll_usb.c ****     USBx_OUTEP(ep->num)->DOEPTSIZ &= ~(USB_OTG_DOEPTSIZ_PKTCNT); 
 3178              		.loc 1 754 5 is_stmt 1 view .LVU952
 3179 000a 0B78     		ldrb	r3, [r1]	@ zero_extendqisi2
 754:ThirdParty/STM32F4xx_HAL_Driver/Src/stm32f4xx_ll_usb.c ****     USBx_OUTEP(ep->num)->DOEPTSIZ &= ~(USB_OTG_DOEPTSIZ_PKTCNT); 
 3180              		.loc 1 754 35 is_stmt 0 view .LVU953
 3181 000c 00EB4313 		add	r3, r0, r3, lsl #5
 3182 0010 D3F8104B 		ldr	r4, [r3, #2832]
 3183 0014 E40C     		lsrs	r4, r4, #19
 3184 0016 E404     		lsls	r4, r4, #19
 3185 0018 C3F8104B 		str	r4, [r3, #2832]
 755:ThirdParty/STM32F4xx_HAL_Driver/Src/stm32f4xx_ll_usb.c **** 
 3186              		.loc 1 755 5 is_stmt 1 view .LVU954
 3187 001c 0B78     		ldrb	r3, [r1]	@ zero_extendqisi2
 755:ThirdParty/STM32F4xx_HAL_Driver/Src/stm32f4xx_ll_usb.c **** 
 3188              		.loc 1 755 35 is_stmt 0 view .LVU955
 3189 001e 00EB4313 		add	r3, r0, r3, lsl #5
 3190 0022 D3F8104B 		ldr	r4, [r3, #2832]
 3191 0026 24F0FF54 		bic	r4, r4, #534773760
 3192 002a 24F4C014 		bic	r4, r4, #1572864
 3193 002e C3F8104B 		str	r4, [r3, #2832]
 757:ThirdParty/STM32F4xx_HAL_Driver/Src/stm32f4xx_ll_usb.c ****     {
 3194              		.loc 1 757 5 is_stmt 1 view .LVU956
 757:ThirdParty/STM32F4xx_HAL_Driver/Src/stm32f4xx_ll_usb.c ****     {
 3195              		.loc 1 757 11 is_stmt 0 view .LVU957
 3196 0032 4B69     		ldr	r3, [r1, #20]
 757:ThirdParty/STM32F4xx_HAL_Driver/Src/stm32f4xx_ll_usb.c ****     {
 3197              		.loc 1 757 8 view .LVU958
 3198 0034 002B     		cmp	r3, #0
 3199 0036 40F0D380 		bne	.L187
 759:ThirdParty/STM32F4xx_HAL_Driver/Src/stm32f4xx_ll_usb.c ****       USBx_OUTEP(ep->num)->DOEPTSIZ |= (USB_OTG_DOEPTSIZ_PKTCNT & (1U << 19U));
 3200              		.loc 1 759 7 is_stmt 1 view .LVU959
ARM GAS  /tmp/ccCoVfPP.s 			page 99


 3201 003a 0B78     		ldrb	r3, [r1]	@ zero_extendqisi2
 759:ThirdParty/STM32F4xx_HAL_Driver/Src/stm32f4xx_ll_usb.c ****       USBx_OUTEP(ep->num)->DOEPTSIZ |= (USB_OTG_DOEPTSIZ_PKTCNT & (1U << 19U));
 3202              		.loc 1 759 37 is_stmt 0 view .LVU960
 3203 003c 00EB4313 		add	r3, r0, r3, lsl #5
 3204 0040 D3F8104B 		ldr	r4, [r3, #2832]
 759:ThirdParty/STM32F4xx_HAL_Driver/Src/stm32f4xx_ll_usb.c ****       USBx_OUTEP(ep->num)->DOEPTSIZ |= (USB_OTG_DOEPTSIZ_PKTCNT & (1U << 19U));
 3205              		.loc 1 759 69 view .LVU961
 3206 0044 8D68     		ldr	r5, [r1, #8]
 759:ThirdParty/STM32F4xx_HAL_Driver/Src/stm32f4xx_ll_usb.c ****       USBx_OUTEP(ep->num)->DOEPTSIZ |= (USB_OTG_DOEPTSIZ_PKTCNT & (1U << 19U));
 3207              		.loc 1 759 65 view .LVU962
 3208 0046 C5F31205 		ubfx	r5, r5, #0, #19
 759:ThirdParty/STM32F4xx_HAL_Driver/Src/stm32f4xx_ll_usb.c ****       USBx_OUTEP(ep->num)->DOEPTSIZ |= (USB_OTG_DOEPTSIZ_PKTCNT & (1U << 19U));
 3209              		.loc 1 759 37 view .LVU963
 3210 004a 2C43     		orrs	r4, r4, r5
 3211 004c C3F8104B 		str	r4, [r3, #2832]
 760:ThirdParty/STM32F4xx_HAL_Driver/Src/stm32f4xx_ll_usb.c ****     }
 3212              		.loc 1 760 7 is_stmt 1 view .LVU964
 3213 0050 0B78     		ldrb	r3, [r1]	@ zero_extendqisi2
 760:ThirdParty/STM32F4xx_HAL_Driver/Src/stm32f4xx_ll_usb.c ****     }
 3214              		.loc 1 760 37 is_stmt 0 view .LVU965
 3215 0052 00EB4313 		add	r3, r0, r3, lsl #5
 3216 0056 D3F8104B 		ldr	r4, [r3, #2832]
 3217 005a 44F40024 		orr	r4, r4, #524288
 3218 005e C3F8104B 		str	r4, [r3, #2832]
 3219              	.LVL230:
 3220              	.L188:
 769:ThirdParty/STM32F4xx_HAL_Driver/Src/stm32f4xx_ll_usb.c ****     {
 3221              		.loc 1 769 5 is_stmt 1 view .LVU966
 769:ThirdParty/STM32F4xx_HAL_Driver/Src/stm32f4xx_ll_usb.c ****     {
 3222              		.loc 1 769 8 is_stmt 0 view .LVU967
 3223 0062 012A     		cmp	r2, #1
 3224 0064 00F0DC80 		beq	.L194
 3225              	.LVL231:
 3226              	.L189:
 774:ThirdParty/STM32F4xx_HAL_Driver/Src/stm32f4xx_ll_usb.c ****     {
 3227              		.loc 1 774 5 is_stmt 1 view .LVU968
 774:ThirdParty/STM32F4xx_HAL_Driver/Src/stm32f4xx_ll_usb.c ****     {
 3228              		.loc 1 774 11 is_stmt 0 view .LVU969
 3229 0068 CB78     		ldrb	r3, [r1, #3]	@ zero_extendqisi2
 774:ThirdParty/STM32F4xx_HAL_Driver/Src/stm32f4xx_ll_usb.c ****     {
 3230              		.loc 1 774 8 view .LVU970
 3231 006a 012B     		cmp	r3, #1
 3232 006c 00F0DF80 		beq	.L195
 3233              	.L190:
 786:ThirdParty/STM32F4xx_HAL_Driver/Src/stm32f4xx_ll_usb.c ****   }
 3234              		.loc 1 786 5 is_stmt 1 view .LVU971
 3235 0070 0B78     		ldrb	r3, [r1]	@ zero_extendqisi2
 786:ThirdParty/STM32F4xx_HAL_Driver/Src/stm32f4xx_ll_usb.c ****   }
 3236              		.loc 1 786 34 is_stmt 0 view .LVU972
 3237 0072 00EB4310 		add	r0, r0, r3, lsl #5
 3238              	.LVL232:
 786:ThirdParty/STM32F4xx_HAL_Driver/Src/stm32f4xx_ll_usb.c ****   }
 3239              		.loc 1 786 34 view .LVU973
 3240 0076 D0F8003B 		ldr	r3, [r0, #2816]
 3241 007a 43F00443 		orr	r3, r3, #-2080374784
 3242 007e C0F8003B 		str	r3, [r0, #2816]
 3243              	.LVL233:
ARM GAS  /tmp/ccCoVfPP.s 			page 100


 3244              	.L186:
 788:ThirdParty/STM32F4xx_HAL_Driver/Src/stm32f4xx_ll_usb.c **** }
 3245              		.loc 1 788 3 is_stmt 1 view .LVU974
 789:ThirdParty/STM32F4xx_HAL_Driver/Src/stm32f4xx_ll_usb.c **** 
 3246              		.loc 1 789 1 is_stmt 0 view .LVU975
 3247 0082 0020     		movs	r0, #0
 3248 0084 02B0     		add	sp, sp, #8
 3249              	.LCFI49:
 3250              		.cfi_remember_state
 3251              		.cfi_def_cfa_offset 16
 3252              		@ sp needed
 3253 0086 70BD     		pop	{r4, r5, r6, pc}
 3254              	.LVL234:
 3255              	.L193:
 3256              	.LCFI50:
 3257              		.cfi_restore_state
 687:ThirdParty/STM32F4xx_HAL_Driver/Src/stm32f4xx_ll_usb.c ****     {
 3258              		.loc 1 687 5 is_stmt 1 view .LVU976
 687:ThirdParty/STM32F4xx_HAL_Driver/Src/stm32f4xx_ll_usb.c ****     {
 3259              		.loc 1 687 11 is_stmt 0 view .LVU977
 3260 0088 4B69     		ldr	r3, [r1, #20]
 687:ThirdParty/STM32F4xx_HAL_Driver/Src/stm32f4xx_ll_usb.c ****     {
 3261              		.loc 1 687 8 view .LVU978
 3262 008a 6BBB     		cbnz	r3, .L180
 689:ThirdParty/STM32F4xx_HAL_Driver/Src/stm32f4xx_ll_usb.c ****       USBx_INEP(ep->num)->DIEPTSIZ |= (USB_OTG_DIEPTSIZ_PKTCNT & (1U << 19U)) ;
 3263              		.loc 1 689 7 is_stmt 1 view .LVU979
 3264 008c 0B78     		ldrb	r3, [r1]	@ zero_extendqisi2
 689:ThirdParty/STM32F4xx_HAL_Driver/Src/stm32f4xx_ll_usb.c ****       USBx_INEP(ep->num)->DIEPTSIZ |= (USB_OTG_DIEPTSIZ_PKTCNT & (1U << 19U)) ;
 3265              		.loc 1 689 36 is_stmt 0 view .LVU980
 3266 008e 00EB4313 		add	r3, r0, r3, lsl #5
 3267 0092 D3F81049 		ldr	r4, [r3, #2320]
 3268 0096 24F0FF54 		bic	r4, r4, #534773760
 3269 009a 24F4C014 		bic	r4, r4, #1572864
 3270 009e C3F81049 		str	r4, [r3, #2320]
 690:ThirdParty/STM32F4xx_HAL_Driver/Src/stm32f4xx_ll_usb.c ****       USBx_INEP(ep->num)->DIEPTSIZ &= ~(USB_OTG_DIEPTSIZ_XFRSIZ); 
 3271              		.loc 1 690 7 is_stmt 1 view .LVU981
 3272 00a2 0B78     		ldrb	r3, [r1]	@ zero_extendqisi2
 690:ThirdParty/STM32F4xx_HAL_Driver/Src/stm32f4xx_ll_usb.c ****       USBx_INEP(ep->num)->DIEPTSIZ &= ~(USB_OTG_DIEPTSIZ_XFRSIZ); 
 3273              		.loc 1 690 36 is_stmt 0 view .LVU982
 3274 00a4 00EB4313 		add	r3, r0, r3, lsl #5
 3275 00a8 D3F81049 		ldr	r4, [r3, #2320]
 3276 00ac 44F40024 		orr	r4, r4, #524288
 3277 00b0 C3F81049 		str	r4, [r3, #2320]
 691:ThirdParty/STM32F4xx_HAL_Driver/Src/stm32f4xx_ll_usb.c ****     }
 3278              		.loc 1 691 7 is_stmt 1 view .LVU983
 3279 00b4 0B78     		ldrb	r3, [r1]	@ zero_extendqisi2
 691:ThirdParty/STM32F4xx_HAL_Driver/Src/stm32f4xx_ll_usb.c ****     }
 3280              		.loc 1 691 36 is_stmt 0 view .LVU984
 3281 00b6 00EB4313 		add	r3, r0, r3, lsl #5
 3282 00ba D3F81049 		ldr	r4, [r3, #2320]
 3283 00be E40C     		lsrs	r4, r4, #19
 3284 00c0 E404     		lsls	r4, r4, #19
 3285 00c2 C3F81049 		str	r4, [r3, #2320]
 3286              	.L181:
 712:ThirdParty/STM32F4xx_HAL_Driver/Src/stm32f4xx_ll_usb.c ****     {
 3287              		.loc 1 712 5 is_stmt 1 view .LVU985
 712:ThirdParty/STM32F4xx_HAL_Driver/Src/stm32f4xx_ll_usb.c ****     {
ARM GAS  /tmp/ccCoVfPP.s 			page 101


 3288              		.loc 1 712 8 is_stmt 0 view .LVU986
 3289 00c6 012A     		cmp	r2, #1
 3290 00c8 54D0     		beq	.L196
 718:ThirdParty/STM32F4xx_HAL_Driver/Src/stm32f4xx_ll_usb.c ****       {
 3291              		.loc 1 718 7 is_stmt 1 view .LVU987
 718:ThirdParty/STM32F4xx_HAL_Driver/Src/stm32f4xx_ll_usb.c ****       {
 3292              		.loc 1 718 13 is_stmt 0 view .LVU988
 3293 00ca CB78     		ldrb	r3, [r1, #3]	@ zero_extendqisi2
 718:ThirdParty/STM32F4xx_HAL_Driver/Src/stm32f4xx_ll_usb.c ****       {
 3294              		.loc 1 718 10 view .LVU989
 3295 00cc 012B     		cmp	r3, #1
 3296 00ce 57D0     		beq	.L183
 721:ThirdParty/STM32F4xx_HAL_Driver/Src/stm32f4xx_ll_usb.c ****         {
 3297              		.loc 1 721 9 is_stmt 1 view .LVU990
 721:ThirdParty/STM32F4xx_HAL_Driver/Src/stm32f4xx_ll_usb.c ****         {
 3298              		.loc 1 721 15 is_stmt 0 view .LVU991
 3299 00d0 4B69     		ldr	r3, [r1, #20]
 721:ThirdParty/STM32F4xx_HAL_Driver/Src/stm32f4xx_ll_usb.c ****         {
 3300              		.loc 1 721 12 view .LVU992
 3301 00d2 002B     		cmp	r3, #0
 3302 00d4 54D0     		beq	.L183
 723:ThirdParty/STM32F4xx_HAL_Driver/Src/stm32f4xx_ll_usb.c ****         }
 3303              		.loc 1 723 11 is_stmt 1 view .LVU993
 723:ThirdParty/STM32F4xx_HAL_Driver/Src/stm32f4xx_ll_usb.c ****         }
 3304              		.loc 1 723 35 is_stmt 0 view .LVU994
 3305 00d6 D0F83438 		ldr	r3, [r0, #2100]
 723:ThirdParty/STM32F4xx_HAL_Driver/Src/stm32f4xx_ll_usb.c ****         }
 3306              		.loc 1 723 46 view .LVU995
 3307 00da 0E78     		ldrb	r6, [r1]	@ zero_extendqisi2
 723:ThirdParty/STM32F4xx_HAL_Driver/Src/stm32f4xx_ll_usb.c ****         }
 3308              		.loc 1 723 41 view .LVU996
 3309 00dc 0124     		movs	r4, #1
 3310 00de B440     		lsls	r4, r4, r6
 723:ThirdParty/STM32F4xx_HAL_Driver/Src/stm32f4xx_ll_usb.c ****         }
 3311              		.loc 1 723 35 view .LVU997
 3312 00e0 2343     		orrs	r3, r3, r4
 3313 00e2 C0F83438 		str	r3, [r0, #2100]
 3314 00e6 4BE0     		b	.L183
 3315              	.L180:
 700:ThirdParty/STM32F4xx_HAL_Driver/Src/stm32f4xx_ll_usb.c ****       USBx_INEP(ep->num)->DIEPTSIZ &= ~(USB_OTG_DIEPTSIZ_PKTCNT); 
 3316              		.loc 1 700 7 is_stmt 1 view .LVU998
 3317 00e8 0B78     		ldrb	r3, [r1]	@ zero_extendqisi2
 700:ThirdParty/STM32F4xx_HAL_Driver/Src/stm32f4xx_ll_usb.c ****       USBx_INEP(ep->num)->DIEPTSIZ &= ~(USB_OTG_DIEPTSIZ_PKTCNT); 
 3318              		.loc 1 700 36 is_stmt 0 view .LVU999
 3319 00ea 00EB4313 		add	r3, r0, r3, lsl #5
 3320 00ee D3F81049 		ldr	r4, [r3, #2320]
 3321 00f2 E40C     		lsrs	r4, r4, #19
 3322 00f4 E404     		lsls	r4, r4, #19
 3323 00f6 C3F81049 		str	r4, [r3, #2320]
 701:ThirdParty/STM32F4xx_HAL_Driver/Src/stm32f4xx_ll_usb.c ****       USBx_INEP(ep->num)->DIEPTSIZ |= (USB_OTG_DIEPTSIZ_PKTCNT & (((ep->xfer_len + ep->maxpacket -1
 3324              		.loc 1 701 7 is_stmt 1 view .LVU1000
 3325 00fa 0B78     		ldrb	r3, [r1]	@ zero_extendqisi2
 701:ThirdParty/STM32F4xx_HAL_Driver/Src/stm32f4xx_ll_usb.c ****       USBx_INEP(ep->num)->DIEPTSIZ |= (USB_OTG_DIEPTSIZ_PKTCNT & (((ep->xfer_len + ep->maxpacket -1
 3326              		.loc 1 701 36 is_stmt 0 view .LVU1001
 3327 00fc 00EB4313 		add	r3, r0, r3, lsl #5
 3328 0100 D3F81049 		ldr	r4, [r3, #2320]
 3329 0104 24F0FF54 		bic	r4, r4, #534773760
ARM GAS  /tmp/ccCoVfPP.s 			page 102


 3330 0108 24F4C014 		bic	r4, r4, #1572864
 3331 010c C3F81049 		str	r4, [r3, #2320]
 702:ThirdParty/STM32F4xx_HAL_Driver/Src/stm32f4xx_ll_usb.c ****       USBx_INEP(ep->num)->DIEPTSIZ |= (USB_OTG_DIEPTSIZ_XFRSIZ & ep->xfer_len); 
 3332              		.loc 1 702 7 is_stmt 1 view .LVU1002
 3333 0110 0C78     		ldrb	r4, [r1]	@ zero_extendqisi2
 702:ThirdParty/STM32F4xx_HAL_Driver/Src/stm32f4xx_ll_usb.c ****       USBx_INEP(ep->num)->DIEPTSIZ |= (USB_OTG_DIEPTSIZ_XFRSIZ & ep->xfer_len); 
 3334              		.loc 1 702 36 is_stmt 0 view .LVU1003
 3335 0112 00EB4414 		add	r4, r0, r4, lsl #5
 3336 0116 D4F81059 		ldr	r5, [r4, #2320]
 702:ThirdParty/STM32F4xx_HAL_Driver/Src/stm32f4xx_ll_usb.c ****       USBx_INEP(ep->num)->DIEPTSIZ |= (USB_OTG_DIEPTSIZ_XFRSIZ & ep->xfer_len); 
 3337              		.loc 1 702 71 view .LVU1004
 3338 011a 4B69     		ldr	r3, [r1, #20]
 702:ThirdParty/STM32F4xx_HAL_Driver/Src/stm32f4xx_ll_usb.c ****       USBx_INEP(ep->num)->DIEPTSIZ |= (USB_OTG_DIEPTSIZ_XFRSIZ & ep->xfer_len); 
 3339              		.loc 1 702 86 view .LVU1005
 3340 011c 8E68     		ldr	r6, [r1, #8]
 702:ThirdParty/STM32F4xx_HAL_Driver/Src/stm32f4xx_ll_usb.c ****       USBx_INEP(ep->num)->DIEPTSIZ |= (USB_OTG_DIEPTSIZ_XFRSIZ & ep->xfer_len); 
 3341              		.loc 1 702 82 view .LVU1006
 3342 011e 3344     		add	r3, r3, r6
 702:ThirdParty/STM32F4xx_HAL_Driver/Src/stm32f4xx_ll_usb.c ****       USBx_INEP(ep->num)->DIEPTSIZ |= (USB_OTG_DIEPTSIZ_XFRSIZ & ep->xfer_len); 
 3343              		.loc 1 702 98 view .LVU1007
 3344 0120 013B     		subs	r3, r3, #1
 702:ThirdParty/STM32F4xx_HAL_Driver/Src/stm32f4xx_ll_usb.c ****       USBx_INEP(ep->num)->DIEPTSIZ |= (USB_OTG_DIEPTSIZ_XFRSIZ & ep->xfer_len); 
 3345              		.loc 1 702 102 view .LVU1008
 3346 0122 B3FBF6F3 		udiv	r3, r3, r6
 702:ThirdParty/STM32F4xx_HAL_Driver/Src/stm32f4xx_ll_usb.c ****       USBx_INEP(ep->num)->DIEPTSIZ |= (USB_OTG_DIEPTSIZ_XFRSIZ & ep->xfer_len); 
 3347              		.loc 1 702 64 view .LVU1009
 3348 0126 4E4E     		ldr	r6, .L198
 3349 0128 06EAC343 		and	r3, r6, r3, lsl #19
 702:ThirdParty/STM32F4xx_HAL_Driver/Src/stm32f4xx_ll_usb.c ****       USBx_INEP(ep->num)->DIEPTSIZ |= (USB_OTG_DIEPTSIZ_XFRSIZ & ep->xfer_len); 
 3350              		.loc 1 702 36 view .LVU1010
 3351 012c 2B43     		orrs	r3, r3, r5
 3352 012e C4F81039 		str	r3, [r4, #2320]
 703:ThirdParty/STM32F4xx_HAL_Driver/Src/stm32f4xx_ll_usb.c ****       
 3353              		.loc 1 703 7 is_stmt 1 view .LVU1011
 3354 0132 0B78     		ldrb	r3, [r1]	@ zero_extendqisi2
 703:ThirdParty/STM32F4xx_HAL_Driver/Src/stm32f4xx_ll_usb.c ****       
 3355              		.loc 1 703 36 is_stmt 0 view .LVU1012
 3356 0134 00EB4313 		add	r3, r0, r3, lsl #5
 3357 0138 D3F81049 		ldr	r4, [r3, #2320]
 703:ThirdParty/STM32F4xx_HAL_Driver/Src/stm32f4xx_ll_usb.c ****       
 3358              		.loc 1 703 68 view .LVU1013
 3359 013c 4D69     		ldr	r5, [r1, #20]
 703:ThirdParty/STM32F4xx_HAL_Driver/Src/stm32f4xx_ll_usb.c ****       
 3360              		.loc 1 703 64 view .LVU1014
 3361 013e C5F31205 		ubfx	r5, r5, #0, #19
 703:ThirdParty/STM32F4xx_HAL_Driver/Src/stm32f4xx_ll_usb.c ****       
 3362              		.loc 1 703 36 view .LVU1015
 3363 0142 2C43     		orrs	r4, r4, r5
 3364 0144 C3F81049 		str	r4, [r3, #2320]
 705:ThirdParty/STM32F4xx_HAL_Driver/Src/stm32f4xx_ll_usb.c ****       {
 3365              		.loc 1 705 7 is_stmt 1 view .LVU1016
 705:ThirdParty/STM32F4xx_HAL_Driver/Src/stm32f4xx_ll_usb.c ****       {
 3366              		.loc 1 705 13 is_stmt 0 view .LVU1017
 3367 0148 CB78     		ldrb	r3, [r1, #3]	@ zero_extendqisi2
 705:ThirdParty/STM32F4xx_HAL_Driver/Src/stm32f4xx_ll_usb.c ****       {
 3368              		.loc 1 705 10 view .LVU1018
 3369 014a 012B     		cmp	r3, #1
ARM GAS  /tmp/ccCoVfPP.s 			page 103


 3370 014c BBD1     		bne	.L181
 707:ThirdParty/STM32F4xx_HAL_Driver/Src/stm32f4xx_ll_usb.c ****         USBx_INEP(ep->num)->DIEPTSIZ |= (USB_OTG_DIEPTSIZ_MULCNT & (1U << 29U)); 
 3371              		.loc 1 707 9 is_stmt 1 view .LVU1019
 3372 014e 0B78     		ldrb	r3, [r1]	@ zero_extendqisi2
 707:ThirdParty/STM32F4xx_HAL_Driver/Src/stm32f4xx_ll_usb.c ****         USBx_INEP(ep->num)->DIEPTSIZ |= (USB_OTG_DIEPTSIZ_MULCNT & (1U << 29U)); 
 3373              		.loc 1 707 38 is_stmt 0 view .LVU1020
 3374 0150 00EB4313 		add	r3, r0, r3, lsl #5
 3375 0154 D3F81049 		ldr	r4, [r3, #2320]
 3376 0158 24F0C044 		bic	r4, r4, #1610612736
 3377 015c C3F81049 		str	r4, [r3, #2320]
 708:ThirdParty/STM32F4xx_HAL_Driver/Src/stm32f4xx_ll_usb.c ****       }       
 3378              		.loc 1 708 9 is_stmt 1 view .LVU1021
 3379 0160 0B78     		ldrb	r3, [r1]	@ zero_extendqisi2
 708:ThirdParty/STM32F4xx_HAL_Driver/Src/stm32f4xx_ll_usb.c ****       }       
 3380              		.loc 1 708 38 is_stmt 0 view .LVU1022
 3381 0162 00EB4313 		add	r3, r0, r3, lsl #5
 3382 0166 D3F81049 		ldr	r4, [r3, #2320]
 3383 016a 44F00054 		orr	r4, r4, #536870912
 3384 016e C3F81049 		str	r4, [r3, #2320]
 3385 0172 A8E7     		b	.L181
 3386              	.L196:
 714:ThirdParty/STM32F4xx_HAL_Driver/Src/stm32f4xx_ll_usb.c ****     }
 3387              		.loc 1 714 7 is_stmt 1 view .LVU1023
 3388 0174 0B78     		ldrb	r3, [r1]	@ zero_extendqisi2
 3389 0176 00EB4313 		add	r3, r0, r3, lsl #5
 714:ThirdParty/STM32F4xx_HAL_Driver/Src/stm32f4xx_ll_usb.c ****     }
 3390              		.loc 1 714 50 is_stmt 0 view .LVU1024
 3391 017a 0C69     		ldr	r4, [r1, #16]
 714:ThirdParty/STM32F4xx_HAL_Driver/Src/stm32f4xx_ll_usb.c ****     }
 3392              		.loc 1 714 35 view .LVU1025
 3393 017c C3F81449 		str	r4, [r3, #2324]
 3394              	.L183:
 728:ThirdParty/STM32F4xx_HAL_Driver/Src/stm32f4xx_ll_usb.c ****     {
 3395              		.loc 1 728 5 is_stmt 1 view .LVU1026
 728:ThirdParty/STM32F4xx_HAL_Driver/Src/stm32f4xx_ll_usb.c ****     {
 3396              		.loc 1 728 11 is_stmt 0 view .LVU1027
 3397 0180 CB78     		ldrb	r3, [r1, #3]	@ zero_extendqisi2
 728:ThirdParty/STM32F4xx_HAL_Driver/Src/stm32f4xx_ll_usb.c ****     {
 3398              		.loc 1 728 8 view .LVU1028
 3399 0182 012B     		cmp	r3, #1
 3400 0184 13D0     		beq	.L197
 3401              	.L184:
 741:ThirdParty/STM32F4xx_HAL_Driver/Src/stm32f4xx_ll_usb.c ****     
 3402              		.loc 1 741 5 is_stmt 1 view .LVU1029
 3403 0186 0B78     		ldrb	r3, [r1]	@ zero_extendqisi2
 741:ThirdParty/STM32F4xx_HAL_Driver/Src/stm32f4xx_ll_usb.c ****     
 3404              		.loc 1 741 33 is_stmt 0 view .LVU1030
 3405 0188 00EB4313 		add	r3, r0, r3, lsl #5
 3406 018c D3F80049 		ldr	r4, [r3, #2304]
 3407 0190 44F00444 		orr	r4, r4, #-2080374784
 3408 0194 C3F80049 		str	r4, [r3, #2304]
 743:ThirdParty/STM32F4xx_HAL_Driver/Src/stm32f4xx_ll_usb.c ****     {
 3409              		.loc 1 743 5 is_stmt 1 view .LVU1031
 743:ThirdParty/STM32F4xx_HAL_Driver/Src/stm32f4xx_ll_usb.c ****     {
 3410              		.loc 1 743 11 is_stmt 0 view .LVU1032
 3411 0198 CB78     		ldrb	r3, [r1, #3]	@ zero_extendqisi2
 743:ThirdParty/STM32F4xx_HAL_Driver/Src/stm32f4xx_ll_usb.c ****     {
ARM GAS  /tmp/ccCoVfPP.s 			page 104


 3412              		.loc 1 743 8 view .LVU1033
 3413 019a 012B     		cmp	r3, #1
 3414 019c 7FF471AF 		bne	.L186
 745:ThirdParty/STM32F4xx_HAL_Driver/Src/stm32f4xx_ll_usb.c ****     }    
 3415              		.loc 1 745 7 is_stmt 1 view .LVU1034
 3416 01a0 0092     		str	r2, [sp]
 3417 01a2 8B8A     		ldrh	r3, [r1, #20]
 3418 01a4 0A78     		ldrb	r2, [r1]	@ zero_extendqisi2
 3419              	.LVL235:
 745:ThirdParty/STM32F4xx_HAL_Driver/Src/stm32f4xx_ll_usb.c ****     }    
 3420              		.loc 1 745 7 is_stmt 0 view .LVU1035
 3421 01a6 C968     		ldr	r1, [r1, #12]
 3422              	.LVL236:
 745:ThirdParty/STM32F4xx_HAL_Driver/Src/stm32f4xx_ll_usb.c ****     }    
 3423              		.loc 1 745 7 view .LVU1036
 3424 01a8 FFF7FEFF 		bl	USB_WritePacket
 3425              	.LVL237:
 745:ThirdParty/STM32F4xx_HAL_Driver/Src/stm32f4xx_ll_usb.c ****     }    
 3426              		.loc 1 745 7 view .LVU1037
 3427 01ac 69E7     		b	.L186
 3428              	.LVL238:
 3429              	.L197:
 730:ThirdParty/STM32F4xx_HAL_Driver/Src/stm32f4xx_ll_usb.c ****       {
 3430              		.loc 1 730 7 is_stmt 1 view .LVU1038
 730:ThirdParty/STM32F4xx_HAL_Driver/Src/stm32f4xx_ll_usb.c ****       {
 3431              		.loc 1 730 23 is_stmt 0 view .LVU1039
 3432 01ae D0F80838 		ldr	r3, [r0, #2056]
 730:ThirdParty/STM32F4xx_HAL_Driver/Src/stm32f4xx_ll_usb.c ****       {
 3433              		.loc 1 730 10 view .LVU1040
 3434 01b2 13F4807F 		tst	r3, #256
 3435 01b6 09D1     		bne	.L185
 732:ThirdParty/STM32F4xx_HAL_Driver/Src/stm32f4xx_ll_usb.c ****       }
 3436              		.loc 1 732 9 is_stmt 1 view .LVU1041
 3437 01b8 0B78     		ldrb	r3, [r1]	@ zero_extendqisi2
 732:ThirdParty/STM32F4xx_HAL_Driver/Src/stm32f4xx_ll_usb.c ****       }
 3438              		.loc 1 732 37 is_stmt 0 view .LVU1042
 3439 01ba 00EB4313 		add	r3, r0, r3, lsl #5
 3440 01be D3F80049 		ldr	r4, [r3, #2304]
 3441 01c2 44F00054 		orr	r4, r4, #536870912
 3442 01c6 C3F80049 		str	r4, [r3, #2304]
 3443 01ca DCE7     		b	.L184
 3444              	.L185:
 736:ThirdParty/STM32F4xx_HAL_Driver/Src/stm32f4xx_ll_usb.c ****       }
 3445              		.loc 1 736 9 is_stmt 1 view .LVU1043
 3446 01cc 0B78     		ldrb	r3, [r1]	@ zero_extendqisi2
 736:ThirdParty/STM32F4xx_HAL_Driver/Src/stm32f4xx_ll_usb.c ****       }
 3447              		.loc 1 736 37 is_stmt 0 view .LVU1044
 3448 01ce 00EB4313 		add	r3, r0, r3, lsl #5
 3449 01d2 D3F80049 		ldr	r4, [r3, #2304]
 3450 01d6 44F08054 		orr	r4, r4, #268435456
 3451 01da C3F80049 		str	r4, [r3, #2304]
 3452 01de D2E7     		b	.L184
 3453              	.L187:
 764:ThirdParty/STM32F4xx_HAL_Driver/Src/stm32f4xx_ll_usb.c ****       USBx_OUTEP(ep->num)->DOEPTSIZ |= (USB_OTG_DOEPTSIZ_PKTCNT & (pktcnt << 19U));
 3454              		.loc 1 764 7 is_stmt 1 view .LVU1045
 764:ThirdParty/STM32F4xx_HAL_Driver/Src/stm32f4xx_ll_usb.c ****       USBx_OUTEP(ep->num)->DOEPTSIZ |= (USB_OTG_DOEPTSIZ_PKTCNT & (pktcnt << 19U));
 3455              		.loc 1 764 34 is_stmt 0 view .LVU1046
ARM GAS  /tmp/ccCoVfPP.s 			page 105


 3456 01e0 8D68     		ldr	r5, [r1, #8]
 764:ThirdParty/STM32F4xx_HAL_Driver/Src/stm32f4xx_ll_usb.c ****       USBx_OUTEP(ep->num)->DOEPTSIZ |= (USB_OTG_DOEPTSIZ_PKTCNT & (pktcnt << 19U));
 3457              		.loc 1 764 30 view .LVU1047
 3458 01e2 2B44     		add	r3, r3, r5
 764:ThirdParty/STM32F4xx_HAL_Driver/Src/stm32f4xx_ll_usb.c ****       USBx_OUTEP(ep->num)->DOEPTSIZ |= (USB_OTG_DOEPTSIZ_PKTCNT & (pktcnt << 19U));
 3459              		.loc 1 764 46 view .LVU1048
 3460 01e4 013B     		subs	r3, r3, #1
 764:ThirdParty/STM32F4xx_HAL_Driver/Src/stm32f4xx_ll_usb.c ****       USBx_OUTEP(ep->num)->DOEPTSIZ |= (USB_OTG_DOEPTSIZ_PKTCNT & (pktcnt << 19U));
 3461              		.loc 1 764 50 view .LVU1049
 3462 01e6 B3FBF5F3 		udiv	r3, r3, r5
 3463              	.LVL239:
 765:ThirdParty/STM32F4xx_HAL_Driver/Src/stm32f4xx_ll_usb.c ****       USBx_OUTEP(ep->num)->DOEPTSIZ |= (USB_OTG_DOEPTSIZ_XFRSIZ & (ep->maxpacket * pktcnt));
 3464              		.loc 1 765 7 is_stmt 1 view .LVU1050
 3465 01ea 0C78     		ldrb	r4, [r1]	@ zero_extendqisi2
 765:ThirdParty/STM32F4xx_HAL_Driver/Src/stm32f4xx_ll_usb.c ****       USBx_OUTEP(ep->num)->DOEPTSIZ |= (USB_OTG_DOEPTSIZ_XFRSIZ & (ep->maxpacket * pktcnt));
 3466              		.loc 1 765 37 is_stmt 0 view .LVU1051
 3467 01ec 00EB4414 		add	r4, r0, r4, lsl #5
 3468 01f0 D4F8105B 		ldr	r5, [r4, #2832]
 765:ThirdParty/STM32F4xx_HAL_Driver/Src/stm32f4xx_ll_usb.c ****       USBx_OUTEP(ep->num)->DOEPTSIZ |= (USB_OTG_DOEPTSIZ_XFRSIZ & (ep->maxpacket * pktcnt));
 3469              		.loc 1 765 65 view .LVU1052
 3470 01f4 1A4E     		ldr	r6, .L198
 3471 01f6 06EAC34C 		and	ip, r6, r3, lsl #19
 765:ThirdParty/STM32F4xx_HAL_Driver/Src/stm32f4xx_ll_usb.c ****       USBx_OUTEP(ep->num)->DOEPTSIZ |= (USB_OTG_DOEPTSIZ_XFRSIZ & (ep->maxpacket * pktcnt));
 3472              		.loc 1 765 37 view .LVU1053
 3473 01fa 45EA0C05 		orr	r5, r5, ip
 3474 01fe C4F8105B 		str	r5, [r4, #2832]
 766:ThirdParty/STM32F4xx_HAL_Driver/Src/stm32f4xx_ll_usb.c ****     }
 3475              		.loc 1 766 7 is_stmt 1 view .LVU1054
 3476 0202 0C78     		ldrb	r4, [r1]	@ zero_extendqisi2
 766:ThirdParty/STM32F4xx_HAL_Driver/Src/stm32f4xx_ll_usb.c ****     }
 3477              		.loc 1 766 37 is_stmt 0 view .LVU1055
 3478 0204 00EB4414 		add	r4, r0, r4, lsl #5
 3479 0208 D4F8105B 		ldr	r5, [r4, #2832]
 766:ThirdParty/STM32F4xx_HAL_Driver/Src/stm32f4xx_ll_usb.c ****     }
 3480              		.loc 1 766 82 view .LVU1056
 3481 020c 9BB2     		uxth	r3, r3
 766:ThirdParty/STM32F4xx_HAL_Driver/Src/stm32f4xx_ll_usb.c ****     }
 3482              		.loc 1 766 82 view .LVU1057
 3483 020e 8E68     		ldr	r6, [r1, #8]
 3484 0210 06FB03F3 		mul	r3, r6, r3
 3485              	.LVL240:
 766:ThirdParty/STM32F4xx_HAL_Driver/Src/stm32f4xx_ll_usb.c ****     }
 3486              		.loc 1 766 65 view .LVU1058
 3487 0214 C3F31203 		ubfx	r3, r3, #0, #19
 766:ThirdParty/STM32F4xx_HAL_Driver/Src/stm32f4xx_ll_usb.c ****     }
 3488              		.loc 1 766 37 view .LVU1059
 3489 0218 2B43     		orrs	r3, r3, r5
 3490 021a C4F8103B 		str	r3, [r4, #2832]
 3491 021e 20E7     		b	.L188
 3492              	.L194:
 771:ThirdParty/STM32F4xx_HAL_Driver/Src/stm32f4xx_ll_usb.c ****     }
 3493              		.loc 1 771 7 is_stmt 1 view .LVU1060
 771:ThirdParty/STM32F4xx_HAL_Driver/Src/stm32f4xx_ll_usb.c ****     }
 3494              		.loc 1 771 50 is_stmt 0 view .LVU1061
 3495 0220 CA68     		ldr	r2, [r1, #12]
 3496              	.LVL241:
 771:ThirdParty/STM32F4xx_HAL_Driver/Src/stm32f4xx_ll_usb.c ****     }
ARM GAS  /tmp/ccCoVfPP.s 			page 106


 3497              		.loc 1 771 7 view .LVU1062
 3498 0222 0B78     		ldrb	r3, [r1]	@ zero_extendqisi2
 3499 0224 00EB4313 		add	r3, r0, r3, lsl #5
 771:ThirdParty/STM32F4xx_HAL_Driver/Src/stm32f4xx_ll_usb.c ****     }
 3500              		.loc 1 771 36 view .LVU1063
 3501 0228 C3F8142B 		str	r2, [r3, #2836]
 3502 022c 1CE7     		b	.L189
 3503              	.L195:
 776:ThirdParty/STM32F4xx_HAL_Driver/Src/stm32f4xx_ll_usb.c ****       {
 3504              		.loc 1 776 7 is_stmt 1 view .LVU1064
 776:ThirdParty/STM32F4xx_HAL_Driver/Src/stm32f4xx_ll_usb.c ****       {
 3505              		.loc 1 776 23 is_stmt 0 view .LVU1065
 3506 022e D0F80838 		ldr	r3, [r0, #2056]
 776:ThirdParty/STM32F4xx_HAL_Driver/Src/stm32f4xx_ll_usb.c ****       {
 3507              		.loc 1 776 10 view .LVU1066
 3508 0232 13F4807F 		tst	r3, #256
 3509 0236 09D1     		bne	.L191
 778:ThirdParty/STM32F4xx_HAL_Driver/Src/stm32f4xx_ll_usb.c ****       }
 3510              		.loc 1 778 9 is_stmt 1 view .LVU1067
 3511 0238 0B78     		ldrb	r3, [r1]	@ zero_extendqisi2
 778:ThirdParty/STM32F4xx_HAL_Driver/Src/stm32f4xx_ll_usb.c ****       }
 3512              		.loc 1 778 38 is_stmt 0 view .LVU1068
 3513 023a 00EB4313 		add	r3, r0, r3, lsl #5
 3514 023e D3F8002B 		ldr	r2, [r3, #2816]
 3515 0242 42F00052 		orr	r2, r2, #536870912
 3516 0246 C3F8002B 		str	r2, [r3, #2816]
 3517 024a 11E7     		b	.L190
 3518              	.L191:
 782:ThirdParty/STM32F4xx_HAL_Driver/Src/stm32f4xx_ll_usb.c ****       }
 3519              		.loc 1 782 9 is_stmt 1 view .LVU1069
 3520 024c 0B78     		ldrb	r3, [r1]	@ zero_extendqisi2
 782:ThirdParty/STM32F4xx_HAL_Driver/Src/stm32f4xx_ll_usb.c ****       }
 3521              		.loc 1 782 38 is_stmt 0 view .LVU1070
 3522 024e 00EB4313 		add	r3, r0, r3, lsl #5
 3523 0252 D3F8002B 		ldr	r2, [r3, #2816]
 3524 0256 42F08052 		orr	r2, r2, #268435456
 3525 025a C3F8002B 		str	r2, [r3, #2816]
 3526 025e 07E7     		b	.L190
 3527              	.L199:
 3528              		.align	2
 3529              	.L198:
 3530 0260 0000F81F 		.word	536346624
 3531              		.cfi_endproc
 3532              	.LFE146:
 3534              		.section	.text.USB_ReadPacket,"ax",%progbits
 3535              		.align	1
 3536              		.global	USB_ReadPacket
 3537              		.syntax unified
 3538              		.thumb
 3539              		.thumb_func
 3541              	USB_ReadPacket:
 3542              	.LVL242:
 3543              	.LFB149:
 920:ThirdParty/STM32F4xx_HAL_Driver/Src/stm32f4xx_ll_usb.c ****   uint32_t i=0U;
 3544              		.loc 1 920 1 is_stmt 1 view -0
 3545              		.cfi_startproc
 3546              		@ args = 0, pretend = 0, frame = 0
ARM GAS  /tmp/ccCoVfPP.s 			page 107


 3547              		@ frame_needed = 0, uses_anonymous_args = 0
 3548              		@ link register save eliminated.
 920:ThirdParty/STM32F4xx_HAL_Driver/Src/stm32f4xx_ll_usb.c ****   uint32_t i=0U;
 3549              		.loc 1 920 1 is_stmt 0 view .LVU1072
 3550 0000 8446     		mov	ip, r0
 3551 0002 0846     		mov	r0, r1
 3552              	.LVL243:
 921:ThirdParty/STM32F4xx_HAL_Driver/Src/stm32f4xx_ll_usb.c ****   uint32_t count32b = (len + 3U) / 4U;
 3553              		.loc 1 921 3 is_stmt 1 view .LVU1073
 922:ThirdParty/STM32F4xx_HAL_Driver/Src/stm32f4xx_ll_usb.c ****   
 3554              		.loc 1 922 3 view .LVU1074
 922:ThirdParty/STM32F4xx_HAL_Driver/Src/stm32f4xx_ll_usb.c ****   
 3555              		.loc 1 922 28 is_stmt 0 view .LVU1075
 3556 0004 D11C     		adds	r1, r2, #3
 3557              	.LVL244:
 922:ThirdParty/STM32F4xx_HAL_Driver/Src/stm32f4xx_ll_usb.c ****   
 3558              		.loc 1 922 12 view .LVU1076
 3559 0006 8908     		lsrs	r1, r1, #2
 3560              	.LVL245:
 924:ThirdParty/STM32F4xx_HAL_Driver/Src/stm32f4xx_ll_usb.c ****   {
 3561              		.loc 1 924 3 is_stmt 1 view .LVU1077
 924:ThirdParty/STM32F4xx_HAL_Driver/Src/stm32f4xx_ll_usb.c ****   {
 3562              		.loc 1 924 11 is_stmt 0 view .LVU1078
 3563 0008 0023     		movs	r3, #0
 924:ThirdParty/STM32F4xx_HAL_Driver/Src/stm32f4xx_ll_usb.c ****   {
 3564              		.loc 1 924 3 view .LVU1079
 3565 000a 05E0     		b	.L201
 3566              	.LVL246:
 3567              	.L202:
 926:ThirdParty/STM32F4xx_HAL_Driver/Src/stm32f4xx_ll_usb.c ****     
 3568              		.loc 1 926 5 is_stmt 1 discriminator 3 view .LVU1080
 3569 000c 0CF58052 		add	r2, ip, #4096
 3570 0010 1268     		ldr	r2, [r2]
 3571 0012 40F8042B 		str	r2, [r0], #4	@ unaligned
 3572              	.LVL247:
 924:ThirdParty/STM32F4xx_HAL_Driver/Src/stm32f4xx_ll_usb.c ****   {
 3573              		.loc 1 924 31 discriminator 3 view .LVU1081
 924:ThirdParty/STM32F4xx_HAL_Driver/Src/stm32f4xx_ll_usb.c ****   {
 3574              		.loc 1 924 32 is_stmt 0 discriminator 3 view .LVU1082
 3575 0016 0133     		adds	r3, r3, #1
 3576              	.LVL248:
 3577              	.L201:
 924:ThirdParty/STM32F4xx_HAL_Driver/Src/stm32f4xx_ll_usb.c ****   {
 3578              		.loc 1 924 17 is_stmt 1 discriminator 1 view .LVU1083
 924:ThirdParty/STM32F4xx_HAL_Driver/Src/stm32f4xx_ll_usb.c ****   {
 3579              		.loc 1 924 3 is_stmt 0 discriminator 1 view .LVU1084
 3580 0018 8B42     		cmp	r3, r1
 3581 001a F7D3     		bcc	.L202
 929:ThirdParty/STM32F4xx_HAL_Driver/Src/stm32f4xx_ll_usb.c **** }
 3582              		.loc 1 929 3 is_stmt 1 view .LVU1085
 930:ThirdParty/STM32F4xx_HAL_Driver/Src/stm32f4xx_ll_usb.c **** 
 3583              		.loc 1 930 1 is_stmt 0 view .LVU1086
 3584 001c 7047     		bx	lr
 3585              		.cfi_endproc
 3586              	.LFE149:
 3588              		.section	.text.USB_EPSetStall,"ax",%progbits
 3589              		.align	1
ARM GAS  /tmp/ccCoVfPP.s 			page 108


 3590              		.global	USB_EPSetStall
 3591              		.syntax unified
 3592              		.thumb
 3593              		.thumb_func
 3595              	USB_EPSetStall:
 3596              	.LVL249:
 3597              	.LFB150:
 939:ThirdParty/STM32F4xx_HAL_Driver/Src/stm32f4xx_ll_usb.c ****   if (ep->is_in == 1U)
 3598              		.loc 1 939 1 is_stmt 1 view -0
 3599              		.cfi_startproc
 3600              		@ args = 0, pretend = 0, frame = 0
 3601              		@ frame_needed = 0, uses_anonymous_args = 0
 3602              		@ link register save eliminated.
 940:ThirdParty/STM32F4xx_HAL_Driver/Src/stm32f4xx_ll_usb.c ****   {
 3603              		.loc 1 940 3 view .LVU1088
 940:ThirdParty/STM32F4xx_HAL_Driver/Src/stm32f4xx_ll_usb.c ****   {
 3604              		.loc 1 940 9 is_stmt 0 view .LVU1089
 3605 0000 4B78     		ldrb	r3, [r1, #1]	@ zero_extendqisi2
 940:ThirdParty/STM32F4xx_HAL_Driver/Src/stm32f4xx_ll_usb.c ****   {
 3606              		.loc 1 940 6 view .LVU1090
 3607 0002 012B     		cmp	r3, #1
 3608 0004 17D0     		beq	.L208
 950:ThirdParty/STM32F4xx_HAL_Driver/Src/stm32f4xx_ll_usb.c ****     {
 3609              		.loc 1 950 5 is_stmt 1 view .LVU1091
 950:ThirdParty/STM32F4xx_HAL_Driver/Src/stm32f4xx_ll_usb.c ****     {
 3610              		.loc 1 950 11 is_stmt 0 view .LVU1092
 3611 0006 0B78     		ldrb	r3, [r1]	@ zero_extendqisi2
 3612 0008 00EB4313 		add	r3, r0, r3, lsl #5
 950:ThirdParty/STM32F4xx_HAL_Driver/Src/stm32f4xx_ll_usb.c ****     {
 3613              		.loc 1 950 30 view .LVU1093
 3614 000c D3F8002B 		ldr	r2, [r3, #2816]
 950:ThirdParty/STM32F4xx_HAL_Driver/Src/stm32f4xx_ll_usb.c ****     {
 3615              		.loc 1 950 8 view .LVU1094
 3616 0010 002A     		cmp	r2, #0
 3617 0012 05DB     		blt	.L207
 952:ThirdParty/STM32F4xx_HAL_Driver/Src/stm32f4xx_ll_usb.c ****     } 
 3618              		.loc 1 952 7 is_stmt 1 view .LVU1095
 952:ThirdParty/STM32F4xx_HAL_Driver/Src/stm32f4xx_ll_usb.c ****     } 
 3619              		.loc 1 952 36 is_stmt 0 view .LVU1096
 3620 0014 D3F8002B 		ldr	r2, [r3, #2816]
 3621 0018 22F08042 		bic	r2, r2, #1073741824
 3622 001c C3F8002B 		str	r2, [r3, #2816]
 3623              	.L207:
 954:ThirdParty/STM32F4xx_HAL_Driver/Src/stm32f4xx_ll_usb.c ****   }
 3624              		.loc 1 954 5 is_stmt 1 view .LVU1097
 3625 0020 0B78     		ldrb	r3, [r1]	@ zero_extendqisi2
 954:ThirdParty/STM32F4xx_HAL_Driver/Src/stm32f4xx_ll_usb.c ****   }
 3626              		.loc 1 954 34 is_stmt 0 view .LVU1098
 3627 0022 00EB4310 		add	r0, r0, r3, lsl #5
 3628              	.LVL250:
 954:ThirdParty/STM32F4xx_HAL_Driver/Src/stm32f4xx_ll_usb.c ****   }
 3629              		.loc 1 954 34 view .LVU1099
 3630 0026 D0F8003B 		ldr	r3, [r0, #2816]
 3631 002a 43F40013 		orr	r3, r3, #2097152
 3632 002e C0F8003B 		str	r3, [r0, #2816]
 3633              	.L206:
 956:ThirdParty/STM32F4xx_HAL_Driver/Src/stm32f4xx_ll_usb.c **** }
ARM GAS  /tmp/ccCoVfPP.s 			page 109


 3634              		.loc 1 956 3 is_stmt 1 view .LVU1100
 957:ThirdParty/STM32F4xx_HAL_Driver/Src/stm32f4xx_ll_usb.c **** 
 3635              		.loc 1 957 1 is_stmt 0 view .LVU1101
 3636 0032 0020     		movs	r0, #0
 3637 0034 7047     		bx	lr
 3638              	.LVL251:
 3639              	.L208:
 942:ThirdParty/STM32F4xx_HAL_Driver/Src/stm32f4xx_ll_usb.c ****     {
 3640              		.loc 1 942 5 is_stmt 1 view .LVU1102
 942:ThirdParty/STM32F4xx_HAL_Driver/Src/stm32f4xx_ll_usb.c ****     {
 3641              		.loc 1 942 11 is_stmt 0 view .LVU1103
 3642 0036 0B78     		ldrb	r3, [r1]	@ zero_extendqisi2
 3643 0038 00EB4313 		add	r3, r0, r3, lsl #5
 942:ThirdParty/STM32F4xx_HAL_Driver/Src/stm32f4xx_ll_usb.c ****     {
 3644              		.loc 1 942 29 view .LVU1104
 3645 003c D3F80029 		ldr	r2, [r3, #2304]
 942:ThirdParty/STM32F4xx_HAL_Driver/Src/stm32f4xx_ll_usb.c ****     {
 3646              		.loc 1 942 8 view .LVU1105
 3647 0040 002A     		cmp	r2, #0
 3648 0042 05DB     		blt	.L205
 944:ThirdParty/STM32F4xx_HAL_Driver/Src/stm32f4xx_ll_usb.c ****     } 
 3649              		.loc 1 944 7 is_stmt 1 view .LVU1106
 944:ThirdParty/STM32F4xx_HAL_Driver/Src/stm32f4xx_ll_usb.c ****     } 
 3650              		.loc 1 944 35 is_stmt 0 view .LVU1107
 3651 0044 D3F80029 		ldr	r2, [r3, #2304]
 3652 0048 22F08042 		bic	r2, r2, #1073741824
 3653 004c C3F80029 		str	r2, [r3, #2304]
 3654              	.L205:
 946:ThirdParty/STM32F4xx_HAL_Driver/Src/stm32f4xx_ll_usb.c ****   }
 3655              		.loc 1 946 5 is_stmt 1 view .LVU1108
 3656 0050 0B78     		ldrb	r3, [r1]	@ zero_extendqisi2
 946:ThirdParty/STM32F4xx_HAL_Driver/Src/stm32f4xx_ll_usb.c ****   }
 3657              		.loc 1 946 33 is_stmt 0 view .LVU1109
 3658 0052 00EB4310 		add	r0, r0, r3, lsl #5
 3659              	.LVL252:
 946:ThirdParty/STM32F4xx_HAL_Driver/Src/stm32f4xx_ll_usb.c ****   }
 3660              		.loc 1 946 33 view .LVU1110
 3661 0056 D0F80039 		ldr	r3, [r0, #2304]
 3662 005a 43F40013 		orr	r3, r3, #2097152
 3663 005e C0F80039 		str	r3, [r0, #2304]
 3664 0062 E6E7     		b	.L206
 3665              		.cfi_endproc
 3666              	.LFE150:
 3668              		.section	.text.USB_EPClearStall,"ax",%progbits
 3669              		.align	1
 3670              		.global	USB_EPClearStall
 3671              		.syntax unified
 3672              		.thumb
 3673              		.thumb_func
 3675              	USB_EPClearStall:
 3676              	.LVL253:
 3677              	.LFB151:
 967:ThirdParty/STM32F4xx_HAL_Driver/Src/stm32f4xx_ll_usb.c ****   if (ep->is_in == 1U)
 3678              		.loc 1 967 1 is_stmt 1 view -0
 3679              		.cfi_startproc
 3680              		@ args = 0, pretend = 0, frame = 0
 3681              		@ frame_needed = 0, uses_anonymous_args = 0
ARM GAS  /tmp/ccCoVfPP.s 			page 110


 3682              		@ link register save eliminated.
 968:ThirdParty/STM32F4xx_HAL_Driver/Src/stm32f4xx_ll_usb.c ****   {
 3683              		.loc 1 968 3 view .LVU1112
 968:ThirdParty/STM32F4xx_HAL_Driver/Src/stm32f4xx_ll_usb.c ****   {
 3684              		.loc 1 968 9 is_stmt 0 view .LVU1113
 3685 0000 4B78     		ldrb	r3, [r1, #1]	@ zero_extendqisi2
 968:ThirdParty/STM32F4xx_HAL_Driver/Src/stm32f4xx_ll_usb.c ****   {
 3686              		.loc 1 968 6 view .LVU1114
 3687 0002 012B     		cmp	r3, #1
 3688 0004 0FD0     		beq	.L212
 978:ThirdParty/STM32F4xx_HAL_Driver/Src/stm32f4xx_ll_usb.c ****     if (ep->type == EP_TYPE_INTR || ep->type == EP_TYPE_BULK)
 3689              		.loc 1 978 5 is_stmt 1 view .LVU1115
 3690 0006 0B78     		ldrb	r3, [r1]	@ zero_extendqisi2
 978:ThirdParty/STM32F4xx_HAL_Driver/Src/stm32f4xx_ll_usb.c ****     if (ep->type == EP_TYPE_INTR || ep->type == EP_TYPE_BULK)
 3691              		.loc 1 978 34 is_stmt 0 view .LVU1116
 3692 0008 00EB4313 		add	r3, r0, r3, lsl #5
 3693 000c D3F8002B 		ldr	r2, [r3, #2816]
 3694 0010 22F40012 		bic	r2, r2, #2097152
 3695 0014 C3F8002B 		str	r2, [r3, #2816]
 979:ThirdParty/STM32F4xx_HAL_Driver/Src/stm32f4xx_ll_usb.c ****     {
 3696              		.loc 1 979 5 is_stmt 1 view .LVU1117
 979:ThirdParty/STM32F4xx_HAL_Driver/Src/stm32f4xx_ll_usb.c ****     {
 3697              		.loc 1 979 11 is_stmt 0 view .LVU1118
 3698 0018 CB78     		ldrb	r3, [r1, #3]	@ zero_extendqisi2
 979:ThirdParty/STM32F4xx_HAL_Driver/Src/stm32f4xx_ll_usb.c ****     {
 3699              		.loc 1 979 34 view .LVU1119
 3700 001a 023B     		subs	r3, r3, #2
 3701 001c DBB2     		uxtb	r3, r3
 979:ThirdParty/STM32F4xx_HAL_Driver/Src/stm32f4xx_ll_usb.c ****     {
 3702              		.loc 1 979 8 view .LVU1120
 3703 001e 012B     		cmp	r3, #1
 3704 0020 19D9     		bls	.L213
 3705              	.LVL254:
 3706              	.L211:
 984:ThirdParty/STM32F4xx_HAL_Driver/Src/stm32f4xx_ll_usb.c **** }
 3707              		.loc 1 984 3 is_stmt 1 view .LVU1121
 985:ThirdParty/STM32F4xx_HAL_Driver/Src/stm32f4xx_ll_usb.c **** 
 3708              		.loc 1 985 1 is_stmt 0 view .LVU1122
 3709 0022 0020     		movs	r0, #0
 3710 0024 7047     		bx	lr
 3711              	.LVL255:
 3712              	.L212:
 970:ThirdParty/STM32F4xx_HAL_Driver/Src/stm32f4xx_ll_usb.c ****     if (ep->type == EP_TYPE_INTR || ep->type == EP_TYPE_BULK)
 3713              		.loc 1 970 5 is_stmt 1 view .LVU1123
 3714 0026 0B78     		ldrb	r3, [r1]	@ zero_extendqisi2
 970:ThirdParty/STM32F4xx_HAL_Driver/Src/stm32f4xx_ll_usb.c ****     if (ep->type == EP_TYPE_INTR || ep->type == EP_TYPE_BULK)
 3715              		.loc 1 970 33 is_stmt 0 view .LVU1124
 3716 0028 00EB4313 		add	r3, r0, r3, lsl #5
 3717 002c D3F80029 		ldr	r2, [r3, #2304]
 3718 0030 22F40012 		bic	r2, r2, #2097152
 3719 0034 C3F80029 		str	r2, [r3, #2304]
 971:ThirdParty/STM32F4xx_HAL_Driver/Src/stm32f4xx_ll_usb.c ****     {
 3720              		.loc 1 971 5 is_stmt 1 view .LVU1125
 971:ThirdParty/STM32F4xx_HAL_Driver/Src/stm32f4xx_ll_usb.c ****     {
 3721              		.loc 1 971 11 is_stmt 0 view .LVU1126
 3722 0038 CB78     		ldrb	r3, [r1, #3]	@ zero_extendqisi2
 971:ThirdParty/STM32F4xx_HAL_Driver/Src/stm32f4xx_ll_usb.c ****     {
ARM GAS  /tmp/ccCoVfPP.s 			page 111


 3723              		.loc 1 971 34 view .LVU1127
 3724 003a 023B     		subs	r3, r3, #2
 3725 003c DBB2     		uxtb	r3, r3
 971:ThirdParty/STM32F4xx_HAL_Driver/Src/stm32f4xx_ll_usb.c ****     {
 3726              		.loc 1 971 8 view .LVU1128
 3727 003e 012B     		cmp	r3, #1
 3728 0040 EFD8     		bhi	.L211
 973:ThirdParty/STM32F4xx_HAL_Driver/Src/stm32f4xx_ll_usb.c ****     }    
 3729              		.loc 1 973 8 is_stmt 1 view .LVU1129
 3730 0042 0B78     		ldrb	r3, [r1]	@ zero_extendqisi2
 973:ThirdParty/STM32F4xx_HAL_Driver/Src/stm32f4xx_ll_usb.c ****     }    
 3731              		.loc 1 973 36 is_stmt 0 view .LVU1130
 3732 0044 00EB4310 		add	r0, r0, r3, lsl #5
 3733              	.LVL256:
 973:ThirdParty/STM32F4xx_HAL_Driver/Src/stm32f4xx_ll_usb.c ****     }    
 3734              		.loc 1 973 36 view .LVU1131
 3735 0048 D0F80039 		ldr	r3, [r0, #2304]
 3736 004c 43F08053 		orr	r3, r3, #268435456
 3737 0050 C0F80039 		str	r3, [r0, #2304]
 3738 0054 E5E7     		b	.L211
 3739              	.LVL257:
 3740              	.L213:
 981:ThirdParty/STM32F4xx_HAL_Driver/Src/stm32f4xx_ll_usb.c ****     }    
 3741              		.loc 1 981 7 is_stmt 1 view .LVU1132
 3742 0056 0B78     		ldrb	r3, [r1]	@ zero_extendqisi2
 981:ThirdParty/STM32F4xx_HAL_Driver/Src/stm32f4xx_ll_usb.c ****     }    
 3743              		.loc 1 981 36 is_stmt 0 view .LVU1133
 3744 0058 00EB4310 		add	r0, r0, r3, lsl #5
 3745              	.LVL258:
 981:ThirdParty/STM32F4xx_HAL_Driver/Src/stm32f4xx_ll_usb.c ****     }    
 3746              		.loc 1 981 36 view .LVU1134
 3747 005c D0F8003B 		ldr	r3, [r0, #2816]
 3748 0060 43F08053 		orr	r3, r3, #268435456
 3749 0064 C0F8003B 		str	r3, [r0, #2816]
 3750 0068 DBE7     		b	.L211
 3751              		.cfi_endproc
 3752              	.LFE151:
 3754              		.section	.text.USB_StopDevice,"ax",%progbits
 3755              		.align	1
 3756              		.global	USB_StopDevice
 3757              		.syntax unified
 3758              		.thumb
 3759              		.thumb_func
 3761              	USB_StopDevice:
 3762              	.LVL259:
 3763              	.LFB152:
 993:ThirdParty/STM32F4xx_HAL_Driver/Src/stm32f4xx_ll_usb.c ****   uint32_t i;
 3764              		.loc 1 993 1 is_stmt 1 view -0
 3765              		.cfi_startproc
 3766              		@ args = 0, pretend = 0, frame = 0
 3767              		@ frame_needed = 0, uses_anonymous_args = 0
 993:ThirdParty/STM32F4xx_HAL_Driver/Src/stm32f4xx_ll_usb.c ****   uint32_t i;
 3768              		.loc 1 993 1 is_stmt 0 view .LVU1136
 3769 0000 38B5     		push	{r3, r4, r5, lr}
 3770              	.LCFI51:
 3771              		.cfi_def_cfa_offset 16
 3772              		.cfi_offset 3, -16
ARM GAS  /tmp/ccCoVfPP.s 			page 112


 3773              		.cfi_offset 4, -12
 3774              		.cfi_offset 5, -8
 3775              		.cfi_offset 14, -4
 3776 0002 0446     		mov	r4, r0
 994:ThirdParty/STM32F4xx_HAL_Driver/Src/stm32f4xx_ll_usb.c ****   
 3777              		.loc 1 994 3 is_stmt 1 view .LVU1137
 997:ThirdParty/STM32F4xx_HAL_Driver/Src/stm32f4xx_ll_usb.c ****   {
 3778              		.loc 1 997 3 view .LVU1138
 3779              	.LVL260:
 997:ThirdParty/STM32F4xx_HAL_Driver/Src/stm32f4xx_ll_usb.c ****   {
 3780              		.loc 1 997 10 is_stmt 0 view .LVU1139
 3781 0004 0022     		movs	r2, #0
 997:ThirdParty/STM32F4xx_HAL_Driver/Src/stm32f4xx_ll_usb.c ****   {
 3782              		.loc 1 997 3 view .LVU1140
 3783 0006 07E0     		b	.L215
 3784              	.LVL261:
 3785              	.L216:
 999:ThirdParty/STM32F4xx_HAL_Driver/Src/stm32f4xx_ll_usb.c ****     USBx_OUTEP(i)->DOEPINT  = 0xFFU;
 3786              		.loc 1 999 5 is_stmt 1 discriminator 3 view .LVU1141
 3787 0008 04EB4213 		add	r3, r4, r2, lsl #5
 999:ThirdParty/STM32F4xx_HAL_Driver/Src/stm32f4xx_ll_usb.c ****     USBx_OUTEP(i)->DOEPINT  = 0xFFU;
 3788              		.loc 1 999 28 is_stmt 0 discriminator 3 view .LVU1142
 3789 000c FF21     		movs	r1, #255
 3790 000e C3F80819 		str	r1, [r3, #2312]
1000:ThirdParty/STM32F4xx_HAL_Driver/Src/stm32f4xx_ll_usb.c ****   }
 3791              		.loc 1 1000 5 is_stmt 1 discriminator 3 view .LVU1143
1000:ThirdParty/STM32F4xx_HAL_Driver/Src/stm32f4xx_ll_usb.c ****   }
 3792              		.loc 1 1000 29 is_stmt 0 discriminator 3 view .LVU1144
 3793 0012 C3F8081B 		str	r1, [r3, #2824]
 997:ThirdParty/STM32F4xx_HAL_Driver/Src/stm32f4xx_ll_usb.c ****   {
 3794              		.loc 1 997 26 is_stmt 1 discriminator 3 view .LVU1145
 997:ThirdParty/STM32F4xx_HAL_Driver/Src/stm32f4xx_ll_usb.c ****   {
 3795              		.loc 1 997 27 is_stmt 0 discriminator 3 view .LVU1146
 3796 0016 0132     		adds	r2, r2, #1
 3797              	.LVL262:
 3798              	.L215:
 997:ThirdParty/STM32F4xx_HAL_Driver/Src/stm32f4xx_ll_usb.c ****   {
 3799              		.loc 1 997 16 is_stmt 1 discriminator 1 view .LVU1147
 997:ThirdParty/STM32F4xx_HAL_Driver/Src/stm32f4xx_ll_usb.c ****   {
 3800              		.loc 1 997 3 is_stmt 0 discriminator 1 view .LVU1148
 3801 0018 0E2A     		cmp	r2, #14
 3802 001a F5D9     		bls	.L216
1002:ThirdParty/STM32F4xx_HAL_Driver/Src/stm32f4xx_ll_usb.c ****   
 3803              		.loc 1 1002 3 is_stmt 1 view .LVU1149
1002:ThirdParty/STM32F4xx_HAL_Driver/Src/stm32f4xx_ll_usb.c ****   
 3804              		.loc 1 1002 22 is_stmt 0 view .LVU1150
 3805 001c 4FF0FF32 		mov	r2, #-1
 3806              	.LVL263:
1002:ThirdParty/STM32F4xx_HAL_Driver/Src/stm32f4xx_ll_usb.c ****   
 3807              		.loc 1 1002 22 view .LVU1151
 3808 0020 C4F81828 		str	r2, [r4, #2072]
1005:ThirdParty/STM32F4xx_HAL_Driver/Src/stm32f4xx_ll_usb.c ****   USBx_DEVICE->DOEPMSK  = 0U;
 3809              		.loc 1 1005 3 is_stmt 1 view .LVU1152
1005:ThirdParty/STM32F4xx_HAL_Driver/Src/stm32f4xx_ll_usb.c ****   USBx_DEVICE->DOEPMSK  = 0U;
 3810              		.loc 1 1005 25 is_stmt 0 view .LVU1153
 3811 0024 0025     		movs	r5, #0
 3812 0026 C4F81058 		str	r5, [r4, #2064]
ARM GAS  /tmp/ccCoVfPP.s 			page 113


1006:ThirdParty/STM32F4xx_HAL_Driver/Src/stm32f4xx_ll_usb.c ****   USBx_DEVICE->DAINTMSK = 0U;
 3813              		.loc 1 1006 3 is_stmt 1 view .LVU1154
1006:ThirdParty/STM32F4xx_HAL_Driver/Src/stm32f4xx_ll_usb.c ****   USBx_DEVICE->DAINTMSK = 0U;
 3814              		.loc 1 1006 25 is_stmt 0 view .LVU1155
 3815 002a C4F81458 		str	r5, [r4, #2068]
1007:ThirdParty/STM32F4xx_HAL_Driver/Src/stm32f4xx_ll_usb.c ****   
 3816              		.loc 1 1007 3 is_stmt 1 view .LVU1156
1007:ThirdParty/STM32F4xx_HAL_Driver/Src/stm32f4xx_ll_usb.c ****   
 3817              		.loc 1 1007 25 is_stmt 0 view .LVU1157
 3818 002e C4F81C58 		str	r5, [r4, #2076]
1010:ThirdParty/STM32F4xx_HAL_Driver/Src/stm32f4xx_ll_usb.c ****   USB_FlushTxFifo(USBx ,  0x10U);  
 3819              		.loc 1 1010 3 is_stmt 1 view .LVU1158
 3820 0032 2046     		mov	r0, r4
 3821              	.LVL264:
1010:ThirdParty/STM32F4xx_HAL_Driver/Src/stm32f4xx_ll_usb.c ****   USB_FlushTxFifo(USBx ,  0x10U);  
 3822              		.loc 1 1010 3 is_stmt 0 view .LVU1159
 3823 0034 FFF7FEFF 		bl	USB_FlushRxFifo
 3824              	.LVL265:
1011:ThirdParty/STM32F4xx_HAL_Driver/Src/stm32f4xx_ll_usb.c ****   
 3825              		.loc 1 1011 3 is_stmt 1 view .LVU1160
 3826 0038 1021     		movs	r1, #16
 3827 003a 2046     		mov	r0, r4
 3828 003c FFF7FEFF 		bl	USB_FlushTxFifo
 3829              	.LVL266:
1013:ThirdParty/STM32F4xx_HAL_Driver/Src/stm32f4xx_ll_usb.c **** }
 3830              		.loc 1 1013 3 view .LVU1161
1014:ThirdParty/STM32F4xx_HAL_Driver/Src/stm32f4xx_ll_usb.c **** 
 3831              		.loc 1 1014 1 is_stmt 0 view .LVU1162
 3832 0040 2846     		mov	r0, r5
 3833 0042 38BD     		pop	{r3, r4, r5, pc}
1014:ThirdParty/STM32F4xx_HAL_Driver/Src/stm32f4xx_ll_usb.c **** 
 3834              		.loc 1 1014 1 view .LVU1163
 3835              		.cfi_endproc
 3836              	.LFE152:
 3838              		.section	.text.USB_SetDevAddress,"ax",%progbits
 3839              		.align	1
 3840              		.global	USB_SetDevAddress
 3841              		.syntax unified
 3842              		.thumb
 3843              		.thumb_func
 3845              	USB_SetDevAddress:
 3846              	.LVL267:
 3847              	.LFB153:
1024:ThirdParty/STM32F4xx_HAL_Driver/Src/stm32f4xx_ll_usb.c ****   USBx_DEVICE->DCFG &= ~ (USB_OTG_DCFG_DAD);
 3848              		.loc 1 1024 1 is_stmt 1 view -0
 3849              		.cfi_startproc
 3850              		@ args = 0, pretend = 0, frame = 0
 3851              		@ frame_needed = 0, uses_anonymous_args = 0
 3852              		@ link register save eliminated.
1025:ThirdParty/STM32F4xx_HAL_Driver/Src/stm32f4xx_ll_usb.c ****   USBx_DEVICE->DCFG |= (address << 4U) & USB_OTG_DCFG_DAD ;
 3853              		.loc 1 1025 3 view .LVU1165
1025:ThirdParty/STM32F4xx_HAL_Driver/Src/stm32f4xx_ll_usb.c ****   USBx_DEVICE->DCFG |= (address << 4U) & USB_OTG_DCFG_DAD ;
 3854              		.loc 1 1025 21 is_stmt 0 view .LVU1166
 3855 0000 D0F80038 		ldr	r3, [r0, #2048]
 3856 0004 23F4FE63 		bic	r3, r3, #2032
 3857 0008 C0F80038 		str	r3, [r0, #2048]
1026:ThirdParty/STM32F4xx_HAL_Driver/Src/stm32f4xx_ll_usb.c ****   
ARM GAS  /tmp/ccCoVfPP.s 			page 114


 3858              		.loc 1 1026 3 is_stmt 1 view .LVU1167
1026:ThirdParty/STM32F4xx_HAL_Driver/Src/stm32f4xx_ll_usb.c ****   
 3859              		.loc 1 1026 21 is_stmt 0 view .LVU1168
 3860 000c D0F80038 		ldr	r3, [r0, #2048]
1026:ThirdParty/STM32F4xx_HAL_Driver/Src/stm32f4xx_ll_usb.c ****   
 3861              		.loc 1 1026 33 view .LVU1169
 3862 0010 0901     		lsls	r1, r1, #4
 3863              	.LVL268:
1026:ThirdParty/STM32F4xx_HAL_Driver/Src/stm32f4xx_ll_usb.c ****   
 3864              		.loc 1 1026 40 view .LVU1170
 3865 0012 01F4FE61 		and	r1, r1, #2032
1026:ThirdParty/STM32F4xx_HAL_Driver/Src/stm32f4xx_ll_usb.c ****   
 3866              		.loc 1 1026 21 view .LVU1171
 3867 0016 1943     		orrs	r1, r1, r3
 3868 0018 C0F80018 		str	r1, [r0, #2048]
1028:ThirdParty/STM32F4xx_HAL_Driver/Src/stm32f4xx_ll_usb.c **** }
 3869              		.loc 1 1028 3 is_stmt 1 view .LVU1172
1029:ThirdParty/STM32F4xx_HAL_Driver/Src/stm32f4xx_ll_usb.c **** 
 3870              		.loc 1 1029 1 is_stmt 0 view .LVU1173
 3871 001c 0020     		movs	r0, #0
 3872              	.LVL269:
1029:ThirdParty/STM32F4xx_HAL_Driver/Src/stm32f4xx_ll_usb.c **** 
 3873              		.loc 1 1029 1 view .LVU1174
 3874 001e 7047     		bx	lr
 3875              		.cfi_endproc
 3876              	.LFE153:
 3878              		.section	.text.USB_DevConnect,"ax",%progbits
 3879              		.align	1
 3880              		.global	USB_DevConnect
 3881              		.syntax unified
 3882              		.thumb
 3883              		.thumb_func
 3885              	USB_DevConnect:
 3886              	.LVL270:
 3887              	.LFB154:
1037:ThirdParty/STM32F4xx_HAL_Driver/Src/stm32f4xx_ll_usb.c ****   USBx_DEVICE->DCTL &= ~USB_OTG_DCTL_SDIS ;
 3888              		.loc 1 1037 1 is_stmt 1 view -0
 3889              		.cfi_startproc
 3890              		@ args = 0, pretend = 0, frame = 0
 3891              		@ frame_needed = 0, uses_anonymous_args = 0
1037:ThirdParty/STM32F4xx_HAL_Driver/Src/stm32f4xx_ll_usb.c ****   USBx_DEVICE->DCTL &= ~USB_OTG_DCTL_SDIS ;
 3892              		.loc 1 1037 1 is_stmt 0 view .LVU1176
 3893 0000 08B5     		push	{r3, lr}
 3894              	.LCFI52:
 3895              		.cfi_def_cfa_offset 8
 3896              		.cfi_offset 3, -8
 3897              		.cfi_offset 14, -4
1038:ThirdParty/STM32F4xx_HAL_Driver/Src/stm32f4xx_ll_usb.c ****   HAL_Delay(3U);
 3898              		.loc 1 1038 3 is_stmt 1 view .LVU1177
1038:ThirdParty/STM32F4xx_HAL_Driver/Src/stm32f4xx_ll_usb.c ****   HAL_Delay(3U);
 3899              		.loc 1 1038 21 is_stmt 0 view .LVU1178
 3900 0002 D0F80438 		ldr	r3, [r0, #2052]
 3901 0006 23F00203 		bic	r3, r3, #2
 3902 000a C0F80438 		str	r3, [r0, #2052]
1039:ThirdParty/STM32F4xx_HAL_Driver/Src/stm32f4xx_ll_usb.c ****   
 3903              		.loc 1 1039 3 is_stmt 1 view .LVU1179
 3904 000e 0320     		movs	r0, #3
ARM GAS  /tmp/ccCoVfPP.s 			page 115


 3905              	.LVL271:
1039:ThirdParty/STM32F4xx_HAL_Driver/Src/stm32f4xx_ll_usb.c ****   
 3906              		.loc 1 1039 3 is_stmt 0 view .LVU1180
 3907 0010 FFF7FEFF 		bl	HAL_Delay
 3908              	.LVL272:
1041:ThirdParty/STM32F4xx_HAL_Driver/Src/stm32f4xx_ll_usb.c **** }
 3909              		.loc 1 1041 3 is_stmt 1 view .LVU1181
1042:ThirdParty/STM32F4xx_HAL_Driver/Src/stm32f4xx_ll_usb.c **** 
 3910              		.loc 1 1042 1 is_stmt 0 view .LVU1182
 3911 0014 0020     		movs	r0, #0
 3912 0016 08BD     		pop	{r3, pc}
 3913              		.cfi_endproc
 3914              	.LFE154:
 3916              		.section	.text.USB_DevDisconnect,"ax",%progbits
 3917              		.align	1
 3918              		.global	USB_DevDisconnect
 3919              		.syntax unified
 3920              		.thumb
 3921              		.thumb_func
 3923              	USB_DevDisconnect:
 3924              	.LVL273:
 3925              	.LFB155:
1050:ThirdParty/STM32F4xx_HAL_Driver/Src/stm32f4xx_ll_usb.c ****   USBx_DEVICE->DCTL |= USB_OTG_DCTL_SDIS ;
 3926              		.loc 1 1050 1 is_stmt 1 view -0
 3927              		.cfi_startproc
 3928              		@ args = 0, pretend = 0, frame = 0
 3929              		@ frame_needed = 0, uses_anonymous_args = 0
1050:ThirdParty/STM32F4xx_HAL_Driver/Src/stm32f4xx_ll_usb.c ****   USBx_DEVICE->DCTL |= USB_OTG_DCTL_SDIS ;
 3930              		.loc 1 1050 1 is_stmt 0 view .LVU1184
 3931 0000 08B5     		push	{r3, lr}
 3932              	.LCFI53:
 3933              		.cfi_def_cfa_offset 8
 3934              		.cfi_offset 3, -8
 3935              		.cfi_offset 14, -4
1051:ThirdParty/STM32F4xx_HAL_Driver/Src/stm32f4xx_ll_usb.c ****   HAL_Delay(3U);
 3936              		.loc 1 1051 3 is_stmt 1 view .LVU1185
1051:ThirdParty/STM32F4xx_HAL_Driver/Src/stm32f4xx_ll_usb.c ****   HAL_Delay(3U);
 3937              		.loc 1 1051 21 is_stmt 0 view .LVU1186
 3938 0002 D0F80438 		ldr	r3, [r0, #2052]
 3939 0006 43F00203 		orr	r3, r3, #2
 3940 000a C0F80438 		str	r3, [r0, #2052]
1052:ThirdParty/STM32F4xx_HAL_Driver/Src/stm32f4xx_ll_usb.c ****   
 3941              		.loc 1 1052 3 is_stmt 1 view .LVU1187
 3942 000e 0320     		movs	r0, #3
 3943              	.LVL274:
1052:ThirdParty/STM32F4xx_HAL_Driver/Src/stm32f4xx_ll_usb.c ****   
 3944              		.loc 1 1052 3 is_stmt 0 view .LVU1188
 3945 0010 FFF7FEFF 		bl	HAL_Delay
 3946              	.LVL275:
1054:ThirdParty/STM32F4xx_HAL_Driver/Src/stm32f4xx_ll_usb.c **** }
 3947              		.loc 1 1054 3 is_stmt 1 view .LVU1189
1055:ThirdParty/STM32F4xx_HAL_Driver/Src/stm32f4xx_ll_usb.c **** 
 3948              		.loc 1 1055 1 is_stmt 0 view .LVU1190
 3949 0014 0020     		movs	r0, #0
 3950 0016 08BD     		pop	{r3, pc}
 3951              		.cfi_endproc
 3952              	.LFE155:
ARM GAS  /tmp/ccCoVfPP.s 			page 116


 3954              		.section	.text.USB_ReadInterrupts,"ax",%progbits
 3955              		.align	1
 3956              		.global	USB_ReadInterrupts
 3957              		.syntax unified
 3958              		.thumb
 3959              		.thumb_func
 3961              	USB_ReadInterrupts:
 3962              	.LVL276:
 3963              	.LFB156:
1063:ThirdParty/STM32F4xx_HAL_Driver/Src/stm32f4xx_ll_usb.c ****   uint32_t v = 0U;
 3964              		.loc 1 1063 1 is_stmt 1 view -0
 3965              		.cfi_startproc
 3966              		@ args = 0, pretend = 0, frame = 0
 3967              		@ frame_needed = 0, uses_anonymous_args = 0
 3968              		@ link register save eliminated.
1064:ThirdParty/STM32F4xx_HAL_Driver/Src/stm32f4xx_ll_usb.c ****   
 3969              		.loc 1 1064 3 view .LVU1192
1066:ThirdParty/STM32F4xx_HAL_Driver/Src/stm32f4xx_ll_usb.c ****   v &= USBx->GINTMSK;
 3970              		.loc 1 1066 3 view .LVU1193
1066:ThirdParty/STM32F4xx_HAL_Driver/Src/stm32f4xx_ll_usb.c ****   v &= USBx->GINTMSK;
 3971              		.loc 1 1066 5 is_stmt 0 view .LVU1194
 3972 0000 4269     		ldr	r2, [r0, #20]
 3973              	.LVL277:
1067:ThirdParty/STM32F4xx_HAL_Driver/Src/stm32f4xx_ll_usb.c ****   return v;  
 3974              		.loc 1 1067 3 is_stmt 1 view .LVU1195
1067:ThirdParty/STM32F4xx_HAL_Driver/Src/stm32f4xx_ll_usb.c ****   return v;  
 3975              		.loc 1 1067 12 is_stmt 0 view .LVU1196
 3976 0002 8069     		ldr	r0, [r0, #24]
 3977              	.LVL278:
1068:ThirdParty/STM32F4xx_HAL_Driver/Src/stm32f4xx_ll_usb.c **** }
 3978              		.loc 1 1068 3 is_stmt 1 view .LVU1197
1069:ThirdParty/STM32F4xx_HAL_Driver/Src/stm32f4xx_ll_usb.c **** 
 3979              		.loc 1 1069 1 is_stmt 0 view .LVU1198
 3980 0004 1040     		ands	r0, r0, r2
 3981              	.LVL279:
1069:ThirdParty/STM32F4xx_HAL_Driver/Src/stm32f4xx_ll_usb.c **** 
 3982              		.loc 1 1069 1 view .LVU1199
 3983 0006 7047     		bx	lr
 3984              		.cfi_endproc
 3985              	.LFE156:
 3987              		.section	.text.USB_ReadDevAllOutEpInterrupt,"ax",%progbits
 3988              		.align	1
 3989              		.global	USB_ReadDevAllOutEpInterrupt
 3990              		.syntax unified
 3991              		.thumb
 3992              		.thumb_func
 3994              	USB_ReadDevAllOutEpInterrupt:
 3995              	.LVL280:
 3996              	.LFB157:
1077:ThirdParty/STM32F4xx_HAL_Driver/Src/stm32f4xx_ll_usb.c ****   uint32_t v;
 3997              		.loc 1 1077 1 is_stmt 1 view -0
 3998              		.cfi_startproc
 3999              		@ args = 0, pretend = 0, frame = 0
 4000              		@ frame_needed = 0, uses_anonymous_args = 0
 4001              		@ link register save eliminated.
1078:ThirdParty/STM32F4xx_HAL_Driver/Src/stm32f4xx_ll_usb.c ****   v  = USBx_DEVICE->DAINT;
 4002              		.loc 1 1078 3 view .LVU1201
ARM GAS  /tmp/ccCoVfPP.s 			page 117


1079:ThirdParty/STM32F4xx_HAL_Driver/Src/stm32f4xx_ll_usb.c ****   v &= USBx_DEVICE->DAINTMSK;
 4003              		.loc 1 1079 3 view .LVU1202
1079:ThirdParty/STM32F4xx_HAL_Driver/Src/stm32f4xx_ll_usb.c ****   v &= USBx_DEVICE->DAINTMSK;
 4004              		.loc 1 1079 6 is_stmt 0 view .LVU1203
 4005 0000 D0F81838 		ldr	r3, [r0, #2072]
1079:ThirdParty/STM32F4xx_HAL_Driver/Src/stm32f4xx_ll_usb.c ****   v &= USBx_DEVICE->DAINTMSK;
 4006              		.loc 1 1079 8 view .LVU1204
 4007 0004 00F50060 		add	r0, r0, #2048
 4008              	.LVL281:
1080:ThirdParty/STM32F4xx_HAL_Driver/Src/stm32f4xx_ll_usb.c ****   return ((v & 0xffff0000U) >> 16U);
 4009              		.loc 1 1080 3 is_stmt 1 view .LVU1205
1080:ThirdParty/STM32F4xx_HAL_Driver/Src/stm32f4xx_ll_usb.c ****   return ((v & 0xffff0000U) >> 16U);
 4010              		.loc 1 1080 19 is_stmt 0 view .LVU1206
 4011 0008 C069     		ldr	r0, [r0, #28]
 4012              	.LVL282:
1080:ThirdParty/STM32F4xx_HAL_Driver/Src/stm32f4xx_ll_usb.c ****   return ((v & 0xffff0000U) >> 16U);
 4013              		.loc 1 1080 5 view .LVU1207
 4014 000a 1840     		ands	r0, r0, r3
 4015              	.LVL283:
1081:ThirdParty/STM32F4xx_HAL_Driver/Src/stm32f4xx_ll_usb.c **** }
 4016              		.loc 1 1081 3 is_stmt 1 view .LVU1208
1082:ThirdParty/STM32F4xx_HAL_Driver/Src/stm32f4xx_ll_usb.c **** 
 4017              		.loc 1 1082 1 is_stmt 0 view .LVU1209
 4018 000c 000C     		lsrs	r0, r0, #16
 4019              	.LVL284:
1082:ThirdParty/STM32F4xx_HAL_Driver/Src/stm32f4xx_ll_usb.c **** 
 4020              		.loc 1 1082 1 view .LVU1210
 4021 000e 7047     		bx	lr
 4022              		.cfi_endproc
 4023              	.LFE157:
 4025              		.section	.text.USB_ReadDevAllInEpInterrupt,"ax",%progbits
 4026              		.align	1
 4027              		.global	USB_ReadDevAllInEpInterrupt
 4028              		.syntax unified
 4029              		.thumb
 4030              		.thumb_func
 4032              	USB_ReadDevAllInEpInterrupt:
 4033              	.LVL285:
 4034              	.LFB158:
1090:ThirdParty/STM32F4xx_HAL_Driver/Src/stm32f4xx_ll_usb.c ****   uint32_t v;
 4035              		.loc 1 1090 1 is_stmt 1 view -0
 4036              		.cfi_startproc
 4037              		@ args = 0, pretend = 0, frame = 0
 4038              		@ frame_needed = 0, uses_anonymous_args = 0
 4039              		@ link register save eliminated.
1091:ThirdParty/STM32F4xx_HAL_Driver/Src/stm32f4xx_ll_usb.c ****   v  = USBx_DEVICE->DAINT;
 4040              		.loc 1 1091 3 view .LVU1212
1092:ThirdParty/STM32F4xx_HAL_Driver/Src/stm32f4xx_ll_usb.c ****   v &= USBx_DEVICE->DAINTMSK;
 4041              		.loc 1 1092 3 view .LVU1213
1092:ThirdParty/STM32F4xx_HAL_Driver/Src/stm32f4xx_ll_usb.c ****   v &= USBx_DEVICE->DAINTMSK;
 4042              		.loc 1 1092 6 is_stmt 0 view .LVU1214
 4043 0000 D0F81838 		ldr	r3, [r0, #2072]
1092:ThirdParty/STM32F4xx_HAL_Driver/Src/stm32f4xx_ll_usb.c ****   v &= USBx_DEVICE->DAINTMSK;
 4044              		.loc 1 1092 8 view .LVU1215
 4045 0004 00F50060 		add	r0, r0, #2048
 4046              	.LVL286:
1093:ThirdParty/STM32F4xx_HAL_Driver/Src/stm32f4xx_ll_usb.c ****   return ((v & 0xFFFFU));
ARM GAS  /tmp/ccCoVfPP.s 			page 118


 4047              		.loc 1 1093 3 is_stmt 1 view .LVU1216
1093:ThirdParty/STM32F4xx_HAL_Driver/Src/stm32f4xx_ll_usb.c ****   return ((v & 0xFFFFU));
 4048              		.loc 1 1093 19 is_stmt 0 view .LVU1217
 4049 0008 C069     		ldr	r0, [r0, #28]
 4050              	.LVL287:
1093:ThirdParty/STM32F4xx_HAL_Driver/Src/stm32f4xx_ll_usb.c ****   return ((v & 0xFFFFU));
 4051              		.loc 1 1093 5 view .LVU1218
 4052 000a 1840     		ands	r0, r0, r3
 4053              	.LVL288:
1094:ThirdParty/STM32F4xx_HAL_Driver/Src/stm32f4xx_ll_usb.c **** }
 4054              		.loc 1 1094 3 is_stmt 1 view .LVU1219
1095:ThirdParty/STM32F4xx_HAL_Driver/Src/stm32f4xx_ll_usb.c **** 
 4055              		.loc 1 1095 1 is_stmt 0 view .LVU1220
 4056 000c 80B2     		uxth	r0, r0
 4057              	.LVL289:
1095:ThirdParty/STM32F4xx_HAL_Driver/Src/stm32f4xx_ll_usb.c **** 
 4058              		.loc 1 1095 1 view .LVU1221
 4059 000e 7047     		bx	lr
 4060              		.cfi_endproc
 4061              	.LFE158:
 4063              		.section	.text.USB_ReadDevOutEPInterrupt,"ax",%progbits
 4064              		.align	1
 4065              		.global	USB_ReadDevOutEPInterrupt
 4066              		.syntax unified
 4067              		.thumb
 4068              		.thumb_func
 4070              	USB_ReadDevOutEPInterrupt:
 4071              	.LVL290:
 4072              	.LFB159:
1105:ThirdParty/STM32F4xx_HAL_Driver/Src/stm32f4xx_ll_usb.c ****   uint32_t v;
 4073              		.loc 1 1105 1 is_stmt 1 view -0
 4074              		.cfi_startproc
 4075              		@ args = 0, pretend = 0, frame = 0
 4076              		@ frame_needed = 0, uses_anonymous_args = 0
 4077              		@ link register save eliminated.
1106:ThirdParty/STM32F4xx_HAL_Driver/Src/stm32f4xx_ll_usb.c ****   v  = USBx_OUTEP(epnum)->DOEPINT;
 4078              		.loc 1 1106 3 view .LVU1223
1107:ThirdParty/STM32F4xx_HAL_Driver/Src/stm32f4xx_ll_usb.c ****   v &= USBx_DEVICE->DOEPMSK;
 4079              		.loc 1 1107 3 view .LVU1224
1107:ThirdParty/STM32F4xx_HAL_Driver/Src/stm32f4xx_ll_usb.c ****   v &= USBx_DEVICE->DOEPMSK;
 4080              		.loc 1 1107 8 is_stmt 0 view .LVU1225
 4081 0000 00EB4111 		add	r1, r0, r1, lsl #5
 4082              	.LVL291:
1107:ThirdParty/STM32F4xx_HAL_Driver/Src/stm32f4xx_ll_usb.c ****   v &= USBx_DEVICE->DOEPMSK;
 4083              		.loc 1 1107 6 view .LVU1226
 4084 0004 D1F8082B 		ldr	r2, [r1, #2824]
 4085              	.LVL292:
1108:ThirdParty/STM32F4xx_HAL_Driver/Src/stm32f4xx_ll_usb.c ****   return v;
 4086              		.loc 1 1108 3 is_stmt 1 view .LVU1227
1108:ThirdParty/STM32F4xx_HAL_Driver/Src/stm32f4xx_ll_usb.c ****   return v;
 4087              		.loc 1 1108 8 is_stmt 0 view .LVU1228
 4088 0008 00F50060 		add	r0, r0, #2048
 4089              	.LVL293:
1108:ThirdParty/STM32F4xx_HAL_Driver/Src/stm32f4xx_ll_usb.c ****   return v;
 4090              		.loc 1 1108 19 view .LVU1229
 4091 000c 4069     		ldr	r0, [r0, #20]
 4092              	.LVL294:
ARM GAS  /tmp/ccCoVfPP.s 			page 119


1109:ThirdParty/STM32F4xx_HAL_Driver/Src/stm32f4xx_ll_usb.c **** }
 4093              		.loc 1 1109 3 is_stmt 1 view .LVU1230
1110:ThirdParty/STM32F4xx_HAL_Driver/Src/stm32f4xx_ll_usb.c **** 
 4094              		.loc 1 1110 1 is_stmt 0 view .LVU1231
 4095 000e 1040     		ands	r0, r0, r2
 4096              	.LVL295:
1110:ThirdParty/STM32F4xx_HAL_Driver/Src/stm32f4xx_ll_usb.c **** 
 4097              		.loc 1 1110 1 view .LVU1232
 4098 0010 7047     		bx	lr
 4099              		.cfi_endproc
 4100              	.LFE159:
 4102              		.section	.text.USB_ReadDevInEPInterrupt,"ax",%progbits
 4103              		.align	1
 4104              		.global	USB_ReadDevInEPInterrupt
 4105              		.syntax unified
 4106              		.thumb
 4107              		.thumb_func
 4109              	USB_ReadDevInEPInterrupt:
 4110              	.LVL296:
 4111              	.LFB160:
1120:ThirdParty/STM32F4xx_HAL_Driver/Src/stm32f4xx_ll_usb.c ****   uint32_t v, msk, emp;
 4112              		.loc 1 1120 1 is_stmt 1 view -0
 4113              		.cfi_startproc
 4114              		@ args = 0, pretend = 0, frame = 0
 4115              		@ frame_needed = 0, uses_anonymous_args = 0
 4116              		@ link register save eliminated.
1120:ThirdParty/STM32F4xx_HAL_Driver/Src/stm32f4xx_ll_usb.c ****   uint32_t v, msk, emp;
 4117              		.loc 1 1120 1 is_stmt 0 view .LVU1234
 4118 0000 10B4     		push	{r4}
 4119              	.LCFI54:
 4120              		.cfi_def_cfa_offset 4
 4121              		.cfi_offset 4, -4
1121:ThirdParty/STM32F4xx_HAL_Driver/Src/stm32f4xx_ll_usb.c ****   
 4122              		.loc 1 1121 3 is_stmt 1 view .LVU1235
1123:ThirdParty/STM32F4xx_HAL_Driver/Src/stm32f4xx_ll_usb.c ****   emp = USBx_DEVICE->DIEPEMPMSK;
 4123              		.loc 1 1123 3 view .LVU1236
1123:ThirdParty/STM32F4xx_HAL_Driver/Src/stm32f4xx_ll_usb.c ****   emp = USBx_DEVICE->DIEPEMPMSK;
 4124              		.loc 1 1123 7 is_stmt 0 view .LVU1237
 4125 0002 D0F81048 		ldr	r4, [r0, #2064]
 4126              	.LVL297:
1124:ThirdParty/STM32F4xx_HAL_Driver/Src/stm32f4xx_ll_usb.c ****   msk |= ((emp >> epnum) & 0x1U) << 7U;
 4127              		.loc 1 1124 3 is_stmt 1 view .LVU1238
1124:ThirdParty/STM32F4xx_HAL_Driver/Src/stm32f4xx_ll_usb.c ****   msk |= ((emp >> epnum) & 0x1U) << 7U;
 4128              		.loc 1 1124 7 is_stmt 0 view .LVU1239
 4129 0006 D0F83438 		ldr	r3, [r0, #2100]
 4130              	.LVL298:
1125:ThirdParty/STM32F4xx_HAL_Driver/Src/stm32f4xx_ll_usb.c ****   v = USBx_INEP(epnum)->DIEPINT & msk;
 4131              		.loc 1 1125 3 is_stmt 1 view .LVU1240
1125:ThirdParty/STM32F4xx_HAL_Driver/Src/stm32f4xx_ll_usb.c ****   v = USBx_INEP(epnum)->DIEPINT & msk;
 4132              		.loc 1 1125 16 is_stmt 0 view .LVU1241
 4133 000a CB40     		lsrs	r3, r3, r1
 4134              	.LVL299:
1125:ThirdParty/STM32F4xx_HAL_Driver/Src/stm32f4xx_ll_usb.c ****   v = USBx_INEP(epnum)->DIEPINT & msk;
 4135              		.loc 1 1125 34 view .LVU1242
 4136 000c DB01     		lsls	r3, r3, #7
 4137 000e DBB2     		uxtb	r3, r3
1125:ThirdParty/STM32F4xx_HAL_Driver/Src/stm32f4xx_ll_usb.c ****   v = USBx_INEP(epnum)->DIEPINT & msk;
ARM GAS  /tmp/ccCoVfPP.s 			page 120


 4138              		.loc 1 1125 7 view .LVU1243
 4139 0010 2343     		orrs	r3, r3, r4
 4140              	.LVL300:
1126:ThirdParty/STM32F4xx_HAL_Driver/Src/stm32f4xx_ll_usb.c ****   return v;
 4141              		.loc 1 1126 3 is_stmt 1 view .LVU1244
1126:ThirdParty/STM32F4xx_HAL_Driver/Src/stm32f4xx_ll_usb.c ****   return v;
 4142              		.loc 1 1126 7 is_stmt 0 view .LVU1245
 4143 0012 00EB4110 		add	r0, r0, r1, lsl #5
 4144              	.LVL301:
1126:ThirdParty/STM32F4xx_HAL_Driver/Src/stm32f4xx_ll_usb.c ****   return v;
 4145              		.loc 1 1126 7 view .LVU1246
 4146 0016 00F51060 		add	r0, r0, #2304
1126:ThirdParty/STM32F4xx_HAL_Driver/Src/stm32f4xx_ll_usb.c ****   return v;
 4147              		.loc 1 1126 23 view .LVU1247
 4148 001a 8068     		ldr	r0, [r0, #8]
 4149              	.LVL302:
1127:ThirdParty/STM32F4xx_HAL_Driver/Src/stm32f4xx_ll_usb.c **** }
 4150              		.loc 1 1127 3 is_stmt 1 view .LVU1248
1128:ThirdParty/STM32F4xx_HAL_Driver/Src/stm32f4xx_ll_usb.c **** 
 4151              		.loc 1 1128 1 is_stmt 0 view .LVU1249
 4152 001c 1840     		ands	r0, r0, r3
 4153              	.LVL303:
1128:ThirdParty/STM32F4xx_HAL_Driver/Src/stm32f4xx_ll_usb.c **** 
 4154              		.loc 1 1128 1 view .LVU1250
 4155 001e 5DF8044B 		ldr	r4, [sp], #4
 4156              	.LCFI55:
 4157              		.cfi_restore 4
 4158              		.cfi_def_cfa_offset 0
 4159 0022 7047     		bx	lr
 4160              		.cfi_endproc
 4161              	.LFE160:
 4163              		.section	.text.USB_ClearInterrupts,"ax",%progbits
 4164              		.align	1
 4165              		.global	USB_ClearInterrupts
 4166              		.syntax unified
 4167              		.thumb
 4168              		.thumb_func
 4170              	USB_ClearInterrupts:
 4171              	.LVL304:
 4172              	.LFB161:
1137:ThirdParty/STM32F4xx_HAL_Driver/Src/stm32f4xx_ll_usb.c ****   USBx->GINTSTS |= interrupt; 
 4173              		.loc 1 1137 1 is_stmt 1 view -0
 4174              		.cfi_startproc
 4175              		@ args = 0, pretend = 0, frame = 0
 4176              		@ frame_needed = 0, uses_anonymous_args = 0
 4177              		@ link register save eliminated.
1138:ThirdParty/STM32F4xx_HAL_Driver/Src/stm32f4xx_ll_usb.c **** }
 4178              		.loc 1 1138 3 view .LVU1252
1138:ThirdParty/STM32F4xx_HAL_Driver/Src/stm32f4xx_ll_usb.c **** }
 4179              		.loc 1 1138 17 is_stmt 0 view .LVU1253
 4180 0000 4369     		ldr	r3, [r0, #20]
 4181 0002 0B43     		orrs	r3, r3, r1
 4182 0004 4361     		str	r3, [r0, #20]
1139:ThirdParty/STM32F4xx_HAL_Driver/Src/stm32f4xx_ll_usb.c **** 
 4183              		.loc 1 1139 1 view .LVU1254
 4184 0006 7047     		bx	lr
 4185              		.cfi_endproc
ARM GAS  /tmp/ccCoVfPP.s 			page 121


 4186              	.LFE161:
 4188              		.section	.text.USB_GetMode,"ax",%progbits
 4189              		.align	1
 4190              		.global	USB_GetMode
 4191              		.syntax unified
 4192              		.thumb
 4193              		.thumb_func
 4195              	USB_GetMode:
 4196              	.LVL305:
 4197              	.LFB162:
1150:ThirdParty/STM32F4xx_HAL_Driver/Src/stm32f4xx_ll_usb.c ****   return ((USBx->GINTSTS ) & 0x1U);
 4198              		.loc 1 1150 1 is_stmt 1 view -0
 4199              		.cfi_startproc
 4200              		@ args = 0, pretend = 0, frame = 0
 4201              		@ frame_needed = 0, uses_anonymous_args = 0
 4202              		@ link register save eliminated.
1151:ThirdParty/STM32F4xx_HAL_Driver/Src/stm32f4xx_ll_usb.c **** }
 4203              		.loc 1 1151 3 view .LVU1256
1151:ThirdParty/STM32F4xx_HAL_Driver/Src/stm32f4xx_ll_usb.c **** }
 4204              		.loc 1 1151 16 is_stmt 0 view .LVU1257
 4205 0000 4069     		ldr	r0, [r0, #20]
 4206              	.LVL306:
1152:ThirdParty/STM32F4xx_HAL_Driver/Src/stm32f4xx_ll_usb.c **** 
 4207              		.loc 1 1152 1 view .LVU1258
 4208 0002 00F00100 		and	r0, r0, #1
 4209 0006 7047     		bx	lr
 4210              		.cfi_endproc
 4211              	.LFE162:
 4213              		.section	.text.USB_ActivateSetup,"ax",%progbits
 4214              		.align	1
 4215              		.global	USB_ActivateSetup
 4216              		.syntax unified
 4217              		.thumb
 4218              		.thumb_func
 4220              	USB_ActivateSetup:
 4221              	.LVL307:
 4222              	.LFB163:
1161:ThirdParty/STM32F4xx_HAL_Driver/Src/stm32f4xx_ll_usb.c ****   /* Set the MPS of the IN EP based on the enumeration speed */
 4223              		.loc 1 1161 1 is_stmt 1 view -0
 4224              		.cfi_startproc
 4225              		@ args = 0, pretend = 0, frame = 0
 4226              		@ frame_needed = 0, uses_anonymous_args = 0
 4227              		@ link register save eliminated.
1163:ThirdParty/STM32F4xx_HAL_Driver/Src/stm32f4xx_ll_usb.c ****   
 4228              		.loc 1 1163 3 view .LVU1260
1163:ThirdParty/STM32F4xx_HAL_Driver/Src/stm32f4xx_ll_usb.c ****   
 4229              		.loc 1 1163 26 is_stmt 0 view .LVU1261
 4230 0000 D0F80039 		ldr	r3, [r0, #2304]
 4231 0004 23F4FF63 		bic	r3, r3, #2040
 4232 0008 23F00703 		bic	r3, r3, #7
 4233 000c C0F80039 		str	r3, [r0, #2304]
1165:ThirdParty/STM32F4xx_HAL_Driver/Src/stm32f4xx_ll_usb.c ****   {
 4234              		.loc 1 1165 3 is_stmt 1 view .LVU1262
1165:ThirdParty/STM32F4xx_HAL_Driver/Src/stm32f4xx_ll_usb.c ****   {
 4235              		.loc 1 1165 7 is_stmt 0 view .LVU1263
 4236 0010 00F50063 		add	r3, r0, #2048
1165:ThirdParty/STM32F4xx_HAL_Driver/Src/stm32f4xx_ll_usb.c ****   {
ARM GAS  /tmp/ccCoVfPP.s 			page 122


 4237              		.loc 1 1165 18 view .LVU1264
 4238 0014 9A68     		ldr	r2, [r3, #8]
1165:ThirdParty/STM32F4xx_HAL_Driver/Src/stm32f4xx_ll_usb.c ****   {
 4239              		.loc 1 1165 25 view .LVU1265
 4240 0016 02F00602 		and	r2, r2, #6
1165:ThirdParty/STM32F4xx_HAL_Driver/Src/stm32f4xx_ll_usb.c ****   {
 4241              		.loc 1 1165 5 view .LVU1266
 4242 001a 042A     		cmp	r2, #4
 4243 001c 05D0     		beq	.L233
 4244              	.L232:
1169:ThirdParty/STM32F4xx_HAL_Driver/Src/stm32f4xx_ll_usb.c **** 
 4245              		.loc 1 1169 3 is_stmt 1 view .LVU1267
1169:ThirdParty/STM32F4xx_HAL_Driver/Src/stm32f4xx_ll_usb.c **** 
 4246              		.loc 1 1169 21 is_stmt 0 view .LVU1268
 4247 001e 5A68     		ldr	r2, [r3, #4]
 4248 0020 42F48072 		orr	r2, r2, #256
 4249 0024 5A60     		str	r2, [r3, #4]
1171:ThirdParty/STM32F4xx_HAL_Driver/Src/stm32f4xx_ll_usb.c **** }
 4250              		.loc 1 1171 3 is_stmt 1 view .LVU1269
1172:ThirdParty/STM32F4xx_HAL_Driver/Src/stm32f4xx_ll_usb.c **** 
 4251              		.loc 1 1172 1 is_stmt 0 view .LVU1270
 4252 0026 0020     		movs	r0, #0
 4253              	.LVL308:
1172:ThirdParty/STM32F4xx_HAL_Driver/Src/stm32f4xx_ll_usb.c **** 
 4254              		.loc 1 1172 1 view .LVU1271
 4255 0028 7047     		bx	lr
 4256              	.LVL309:
 4257              	.L233:
1167:ThirdParty/STM32F4xx_HAL_Driver/Src/stm32f4xx_ll_usb.c ****   }
 4258              		.loc 1 1167 5 is_stmt 1 view .LVU1272
1167:ThirdParty/STM32F4xx_HAL_Driver/Src/stm32f4xx_ll_usb.c ****   }
 4259              		.loc 1 1167 28 is_stmt 0 view .LVU1273
 4260 002a D0F80029 		ldr	r2, [r0, #2304]
 4261 002e 42F00302 		orr	r2, r2, #3
 4262 0032 C0F80029 		str	r2, [r0, #2304]
 4263 0036 F2E7     		b	.L232
 4264              		.cfi_endproc
 4265              	.LFE163:
 4267              		.section	.text.USB_EP0_OutStart,"ax",%progbits
 4268              		.align	1
 4269              		.global	USB_EP0_OutStart
 4270              		.syntax unified
 4271              		.thumb
 4272              		.thumb_func
 4274              	USB_EP0_OutStart:
 4275              	.LVL310:
 4276              	.LFB164:
1186:ThirdParty/STM32F4xx_HAL_Driver/Src/stm32f4xx_ll_usb.c ****   USBx_OUTEP(0U)->DOEPTSIZ = 0U;
 4277              		.loc 1 1186 1 is_stmt 1 view -0
 4278              		.cfi_startproc
 4279              		@ args = 0, pretend = 0, frame = 0
 4280              		@ frame_needed = 0, uses_anonymous_args = 0
 4281              		@ link register save eliminated.
1186:ThirdParty/STM32F4xx_HAL_Driver/Src/stm32f4xx_ll_usb.c ****   USBx_OUTEP(0U)->DOEPTSIZ = 0U;
 4282              		.loc 1 1186 1 is_stmt 0 view .LVU1275
 4283 0000 10B4     		push	{r4}
 4284              	.LCFI56:
ARM GAS  /tmp/ccCoVfPP.s 			page 123


 4285              		.cfi_def_cfa_offset 4
 4286              		.cfi_offset 4, -4
1187:ThirdParty/STM32F4xx_HAL_Driver/Src/stm32f4xx_ll_usb.c ****   USBx_OUTEP(0U)->DOEPTSIZ |= (USB_OTG_DOEPTSIZ_PKTCNT & (1U << 19U)) ;
 4287              		.loc 1 1187 3 is_stmt 1 view .LVU1276
1187:ThirdParty/STM32F4xx_HAL_Driver/Src/stm32f4xx_ll_usb.c ****   USBx_OUTEP(0U)->DOEPTSIZ |= (USB_OTG_DOEPTSIZ_PKTCNT & (1U << 19U)) ;
 4288              		.loc 1 1187 28 is_stmt 0 view .LVU1277
 4289 0002 0024     		movs	r4, #0
 4290 0004 C0F8104B 		str	r4, [r0, #2832]
1188:ThirdParty/STM32F4xx_HAL_Driver/Src/stm32f4xx_ll_usb.c ****   USBx_OUTEP(0U)->DOEPTSIZ |= (3U * 8U);
 4291              		.loc 1 1188 3 is_stmt 1 view .LVU1278
1188:ThirdParty/STM32F4xx_HAL_Driver/Src/stm32f4xx_ll_usb.c ****   USBx_OUTEP(0U)->DOEPTSIZ |= (3U * 8U);
 4292              		.loc 1 1188 28 is_stmt 0 view .LVU1279
 4293 0008 D0F8104B 		ldr	r4, [r0, #2832]
 4294 000c 44F40024 		orr	r4, r4, #524288
 4295 0010 C0F8104B 		str	r4, [r0, #2832]
1189:ThirdParty/STM32F4xx_HAL_Driver/Src/stm32f4xx_ll_usb.c ****   USBx_OUTEP(0U)->DOEPTSIZ |=  USB_OTG_DOEPTSIZ_STUPCNT;  
 4296              		.loc 1 1189 3 is_stmt 1 view .LVU1280
1189:ThirdParty/STM32F4xx_HAL_Driver/Src/stm32f4xx_ll_usb.c ****   USBx_OUTEP(0U)->DOEPTSIZ |=  USB_OTG_DOEPTSIZ_STUPCNT;  
 4297              		.loc 1 1189 28 is_stmt 0 view .LVU1281
 4298 0014 D0F8104B 		ldr	r4, [r0, #2832]
 4299 0018 44F01804 		orr	r4, r4, #24
 4300 001c C0F8104B 		str	r4, [r0, #2832]
1190:ThirdParty/STM32F4xx_HAL_Driver/Src/stm32f4xx_ll_usb.c ****   
 4301              		.loc 1 1190 3 is_stmt 1 view .LVU1282
1190:ThirdParty/STM32F4xx_HAL_Driver/Src/stm32f4xx_ll_usb.c ****   
 4302              		.loc 1 1190 28 is_stmt 0 view .LVU1283
 4303 0020 D0F8104B 		ldr	r4, [r0, #2832]
 4304 0024 44F0C044 		orr	r4, r4, #1610612736
 4305 0028 C0F8104B 		str	r4, [r0, #2832]
1192:ThirdParty/STM32F4xx_HAL_Driver/Src/stm32f4xx_ll_usb.c ****   {
 4306              		.loc 1 1192 3 is_stmt 1 view .LVU1284
1192:ThirdParty/STM32F4xx_HAL_Driver/Src/stm32f4xx_ll_usb.c ****   {
 4307              		.loc 1 1192 6 is_stmt 0 view .LVU1285
 4308 002c 0129     		cmp	r1, #1
 4309 002e 03D0     		beq	.L237
 4310              	.L235:
1199:ThirdParty/STM32F4xx_HAL_Driver/Src/stm32f4xx_ll_usb.c **** }
 4311              		.loc 1 1199 3 is_stmt 1 view .LVU1286
1200:ThirdParty/STM32F4xx_HAL_Driver/Src/stm32f4xx_ll_usb.c **** 
 4312              		.loc 1 1200 1 is_stmt 0 view .LVU1287
 4313 0030 0020     		movs	r0, #0
 4314              	.LVL311:
1200:ThirdParty/STM32F4xx_HAL_Driver/Src/stm32f4xx_ll_usb.c **** 
 4315              		.loc 1 1200 1 view .LVU1288
 4316 0032 5DF8044B 		ldr	r4, [sp], #4
 4317              	.LCFI57:
 4318              		.cfi_remember_state
 4319              		.cfi_restore 4
 4320              		.cfi_def_cfa_offset 0
 4321 0036 7047     		bx	lr
 4322              	.LVL312:
 4323              	.L237:
 4324              	.LCFI58:
 4325              		.cfi_restore_state
1194:ThirdParty/STM32F4xx_HAL_Driver/Src/stm32f4xx_ll_usb.c ****     /* EP enable */
 4326              		.loc 1 1194 5 is_stmt 1 view .LVU1289
1194:ThirdParty/STM32F4xx_HAL_Driver/Src/stm32f4xx_ll_usb.c ****     /* EP enable */
ARM GAS  /tmp/ccCoVfPP.s 			page 124


 4327              		.loc 1 1194 29 is_stmt 0 view .LVU1290
 4328 0038 C0F8142B 		str	r2, [r0, #2836]
1196:ThirdParty/STM32F4xx_HAL_Driver/Src/stm32f4xx_ll_usb.c ****   }
 4329              		.loc 1 1196 5 is_stmt 1 view .LVU1291
1196:ThirdParty/STM32F4xx_HAL_Driver/Src/stm32f4xx_ll_usb.c ****   }
 4330              		.loc 1 1196 29 is_stmt 0 view .LVU1292
 4331 003c 4FF08023 		mov	r3, #-2147450880
 4332 0040 C0F8003B 		str	r3, [r0, #2816]
 4333 0044 F4E7     		b	.L235
 4334              		.cfi_endproc
 4335              	.LFE164:
 4337              		.section	.text.USB_InitFSLSPClkSel,"ax",%progbits
 4338              		.align	1
 4339              		.global	USB_InitFSLSPClkSel
 4340              		.syntax unified
 4341              		.thumb
 4342              		.thumb_func
 4344              	USB_InitFSLSPClkSel:
 4345              	.LVL313:
 4346              	.LFB167:
1337:ThirdParty/STM32F4xx_HAL_Driver/Src/stm32f4xx_ll_usb.c ****   USBx_HOST->HCFG &= ~(USB_OTG_HCFG_FSLSPCS);
 4347              		.loc 1 1337 1 is_stmt 1 view -0
 4348              		.cfi_startproc
 4349              		@ args = 0, pretend = 0, frame = 0
 4350              		@ frame_needed = 0, uses_anonymous_args = 0
 4351              		@ link register save eliminated.
1338:ThirdParty/STM32F4xx_HAL_Driver/Src/stm32f4xx_ll_usb.c ****   USBx_HOST->HCFG |= (freq & USB_OTG_HCFG_FSLSPCS);
 4352              		.loc 1 1338 3 view .LVU1294
1338:ThirdParty/STM32F4xx_HAL_Driver/Src/stm32f4xx_ll_usb.c ****   USBx_HOST->HCFG |= (freq & USB_OTG_HCFG_FSLSPCS);
 4353              		.loc 1 1338 19 is_stmt 0 view .LVU1295
 4354 0000 00F5806C 		add	ip, r0, #1024
 4355 0004 D0F80034 		ldr	r3, [r0, #1024]
 4356 0008 23F00303 		bic	r3, r3, #3
 4357 000c C0F80034 		str	r3, [r0, #1024]
1339:ThirdParty/STM32F4xx_HAL_Driver/Src/stm32f4xx_ll_usb.c ****   
 4358              		.loc 1 1339 3 is_stmt 1 view .LVU1296
1339:ThirdParty/STM32F4xx_HAL_Driver/Src/stm32f4xx_ll_usb.c ****   
 4359              		.loc 1 1339 19 is_stmt 0 view .LVU1297
 4360 0010 D0F80034 		ldr	r3, [r0, #1024]
1339:ThirdParty/STM32F4xx_HAL_Driver/Src/stm32f4xx_ll_usb.c ****   
 4361              		.loc 1 1339 28 view .LVU1298
 4362 0014 01F00302 		and	r2, r1, #3
1339:ThirdParty/STM32F4xx_HAL_Driver/Src/stm32f4xx_ll_usb.c ****   
 4363              		.loc 1 1339 19 view .LVU1299
 4364 0018 1343     		orrs	r3, r3, r2
 4365 001a C0F80034 		str	r3, [r0, #1024]
1341:ThirdParty/STM32F4xx_HAL_Driver/Src/stm32f4xx_ll_usb.c ****   {
 4366              		.loc 1 1341 3 is_stmt 1 view .LVU1300
1341:ThirdParty/STM32F4xx_HAL_Driver/Src/stm32f4xx_ll_usb.c ****   {
 4367              		.loc 1 1341 6 is_stmt 0 view .LVU1301
 4368 001e 0129     		cmp	r1, #1
 4369 0020 03D0     		beq	.L241
1345:ThirdParty/STM32F4xx_HAL_Driver/Src/stm32f4xx_ll_usb.c ****   {
 4370              		.loc 1 1345 8 is_stmt 1 view .LVU1302
1345:ThirdParty/STM32F4xx_HAL_Driver/Src/stm32f4xx_ll_usb.c ****   {
 4371              		.loc 1 1345 11 is_stmt 0 view .LVU1303
 4372 0022 0229     		cmp	r1, #2
ARM GAS  /tmp/ccCoVfPP.s 			page 125


 4373 0024 06D0     		beq	.L242
 4374              	.L240:
1349:ThirdParty/STM32F4xx_HAL_Driver/Src/stm32f4xx_ll_usb.c **** }
 4375              		.loc 1 1349 3 is_stmt 1 view .LVU1304
1350:ThirdParty/STM32F4xx_HAL_Driver/Src/stm32f4xx_ll_usb.c **** 
 4376              		.loc 1 1350 1 is_stmt 0 view .LVU1305
 4377 0026 0020     		movs	r0, #0
 4378              	.LVL314:
1350:ThirdParty/STM32F4xx_HAL_Driver/Src/stm32f4xx_ll_usb.c **** 
 4379              		.loc 1 1350 1 view .LVU1306
 4380 0028 7047     		bx	lr
 4381              	.LVL315:
 4382              	.L241:
1343:ThirdParty/STM32F4xx_HAL_Driver/Src/stm32f4xx_ll_usb.c ****   }
 4383              		.loc 1 1343 5 is_stmt 1 view .LVU1307
1343:ThirdParty/STM32F4xx_HAL_Driver/Src/stm32f4xx_ll_usb.c ****   }
 4384              		.loc 1 1343 21 is_stmt 0 view .LVU1308
 4385 002a 4BF68033 		movw	r3, #48000
 4386 002e CCF80430 		str	r3, [ip, #4]
 4387 0032 F8E7     		b	.L240
 4388              	.L242:
1347:ThirdParty/STM32F4xx_HAL_Driver/Src/stm32f4xx_ll_usb.c ****   } 
 4389              		.loc 1 1347 5 is_stmt 1 view .LVU1309
1347:ThirdParty/STM32F4xx_HAL_Driver/Src/stm32f4xx_ll_usb.c ****   } 
 4390              		.loc 1 1347 21 is_stmt 0 view .LVU1310
 4391 0034 41F27073 		movw	r3, #6000
 4392 0038 CCF80430 		str	r3, [ip, #4]
 4393 003c F3E7     		b	.L240
 4394              		.cfi_endproc
 4395              	.LFE167:
 4397              		.section	.text.USB_ResetPort,"ax",%progbits
 4398              		.align	1
 4399              		.global	USB_ResetPort
 4400              		.syntax unified
 4401              		.thumb
 4402              		.thumb_func
 4404              	USB_ResetPort:
 4405              	.LVL316:
 4406              	.LFB168:
1360:ThirdParty/STM32F4xx_HAL_Driver/Src/stm32f4xx_ll_usb.c ****   __IO uint32_t hprt0;
 4407              		.loc 1 1360 1 is_stmt 1 view -0
 4408              		.cfi_startproc
 4409              		@ args = 0, pretend = 0, frame = 8
 4410              		@ frame_needed = 0, uses_anonymous_args = 0
1360:ThirdParty/STM32F4xx_HAL_Driver/Src/stm32f4xx_ll_usb.c ****   __IO uint32_t hprt0;
 4411              		.loc 1 1360 1 is_stmt 0 view .LVU1312
 4412 0000 10B5     		push	{r4, lr}
 4413              	.LCFI59:
 4414              		.cfi_def_cfa_offset 8
 4415              		.cfi_offset 4, -8
 4416              		.cfi_offset 14, -4
 4417 0002 82B0     		sub	sp, sp, #8
 4418              	.LCFI60:
 4419              		.cfi_def_cfa_offset 16
 4420 0004 0446     		mov	r4, r0
1361:ThirdParty/STM32F4xx_HAL_Driver/Src/stm32f4xx_ll_usb.c ****   
 4421              		.loc 1 1361 3 is_stmt 1 view .LVU1313
ARM GAS  /tmp/ccCoVfPP.s 			page 126


1363:ThirdParty/STM32F4xx_HAL_Driver/Src/stm32f4xx_ll_usb.c ****   
 4422              		.loc 1 1363 3 view .LVU1314
1363:ThirdParty/STM32F4xx_HAL_Driver/Src/stm32f4xx_ll_usb.c ****   
 4423              		.loc 1 1363 11 is_stmt 0 view .LVU1315
 4424 0006 D0F84034 		ldr	r3, [r0, #1088]
1363:ThirdParty/STM32F4xx_HAL_Driver/Src/stm32f4xx_ll_usb.c ****   
 4425              		.loc 1 1363 9 view .LVU1316
 4426 000a 0193     		str	r3, [sp, #4]
1365:ThirdParty/STM32F4xx_HAL_Driver/Src/stm32f4xx_ll_usb.c ****     USB_OTG_HPRT_PENCHNG | USB_OTG_HPRT_POCCHNG );
 4427              		.loc 1 1365 3 is_stmt 1 view .LVU1317
1365:ThirdParty/STM32F4xx_HAL_Driver/Src/stm32f4xx_ll_usb.c ****     USB_OTG_HPRT_PENCHNG | USB_OTG_HPRT_POCCHNG );
 4428              		.loc 1 1365 9 is_stmt 0 view .LVU1318
 4429 000c 019B     		ldr	r3, [sp, #4]
 4430 000e 23F02E03 		bic	r3, r3, #46
 4431 0012 0193     		str	r3, [sp, #4]
1368:ThirdParty/STM32F4xx_HAL_Driver/Src/stm32f4xx_ll_usb.c ****   HAL_Delay (10U);                                /* See Note #1 */
 4432              		.loc 1 1368 3 is_stmt 1 view .LVU1319
1368:ThirdParty/STM32F4xx_HAL_Driver/Src/stm32f4xx_ll_usb.c ****   HAL_Delay (10U);                                /* See Note #1 */
 4433              		.loc 1 1368 35 is_stmt 0 view .LVU1320
 4434 0014 019B     		ldr	r3, [sp, #4]
 4435 0016 43F48073 		orr	r3, r3, #256
1368:ThirdParty/STM32F4xx_HAL_Driver/Src/stm32f4xx_ll_usb.c ****   HAL_Delay (10U);                                /* See Note #1 */
 4436              		.loc 1 1368 14 view .LVU1321
 4437 001a C0F84034 		str	r3, [r0, #1088]
1369:ThirdParty/STM32F4xx_HAL_Driver/Src/stm32f4xx_ll_usb.c ****   USBx_HPRT0 = ((~USB_OTG_HPRT_PRST) & hprt0); 
 4438              		.loc 1 1369 3 is_stmt 1 view .LVU1322
 4439 001e 0A20     		movs	r0, #10
 4440              	.LVL317:
1369:ThirdParty/STM32F4xx_HAL_Driver/Src/stm32f4xx_ll_usb.c ****   USBx_HPRT0 = ((~USB_OTG_HPRT_PRST) & hprt0); 
 4441              		.loc 1 1369 3 is_stmt 0 view .LVU1323
 4442 0020 FFF7FEFF 		bl	HAL_Delay
 4443              	.LVL318:
1370:ThirdParty/STM32F4xx_HAL_Driver/Src/stm32f4xx_ll_usb.c ****   return HAL_OK;
 4444              		.loc 1 1370 3 is_stmt 1 view .LVU1324
1370:ThirdParty/STM32F4xx_HAL_Driver/Src/stm32f4xx_ll_usb.c ****   return HAL_OK;
 4445              		.loc 1 1370 38 is_stmt 0 view .LVU1325
 4446 0024 019B     		ldr	r3, [sp, #4]
 4447 0026 23F48073 		bic	r3, r3, #256
1370:ThirdParty/STM32F4xx_HAL_Driver/Src/stm32f4xx_ll_usb.c ****   return HAL_OK;
 4448              		.loc 1 1370 14 view .LVU1326
 4449 002a C4F84034 		str	r3, [r4, #1088]
1371:ThirdParty/STM32F4xx_HAL_Driver/Src/stm32f4xx_ll_usb.c **** }
 4450              		.loc 1 1371 3 is_stmt 1 view .LVU1327
1372:ThirdParty/STM32F4xx_HAL_Driver/Src/stm32f4xx_ll_usb.c **** 
 4451              		.loc 1 1372 1 is_stmt 0 view .LVU1328
 4452 002e 0020     		movs	r0, #0
 4453 0030 02B0     		add	sp, sp, #8
 4454              	.LCFI61:
 4455              		.cfi_def_cfa_offset 8
 4456              		@ sp needed
 4457 0032 10BD     		pop	{r4, pc}
1372:ThirdParty/STM32F4xx_HAL_Driver/Src/stm32f4xx_ll_usb.c **** 
 4458              		.loc 1 1372 1 view .LVU1329
 4459              		.cfi_endproc
 4460              	.LFE168:
 4462              		.section	.text.USB_DriveVbus,"ax",%progbits
 4463              		.align	1
ARM GAS  /tmp/ccCoVfPP.s 			page 127


 4464              		.global	USB_DriveVbus
 4465              		.syntax unified
 4466              		.thumb
 4467              		.thumb_func
 4469              	USB_DriveVbus:
 4470              	.LVL319:
 4471              	.LFB169:
1383:ThirdParty/STM32F4xx_HAL_Driver/Src/stm32f4xx_ll_usb.c ****   __IO uint32_t hprt0;
 4472              		.loc 1 1383 1 is_stmt 1 view -0
 4473              		.cfi_startproc
 4474              		@ args = 0, pretend = 0, frame = 8
 4475              		@ frame_needed = 0, uses_anonymous_args = 0
 4476              		@ link register save eliminated.
1383:ThirdParty/STM32F4xx_HAL_Driver/Src/stm32f4xx_ll_usb.c ****   __IO uint32_t hprt0;
 4477              		.loc 1 1383 1 is_stmt 0 view .LVU1331
 4478 0000 82B0     		sub	sp, sp, #8
 4479              	.LCFI62:
 4480              		.cfi_def_cfa_offset 8
1384:ThirdParty/STM32F4xx_HAL_Driver/Src/stm32f4xx_ll_usb.c **** 
 4481              		.loc 1 1384 3 is_stmt 1 view .LVU1332
1386:ThirdParty/STM32F4xx_HAL_Driver/Src/stm32f4xx_ll_usb.c ****   hprt0 &= ~(USB_OTG_HPRT_PENA    | USB_OTG_HPRT_PCDET |\
 4482              		.loc 1 1386 3 view .LVU1333
1386:ThirdParty/STM32F4xx_HAL_Driver/Src/stm32f4xx_ll_usb.c ****   hprt0 &= ~(USB_OTG_HPRT_PENA    | USB_OTG_HPRT_PCDET |\
 4483              		.loc 1 1386 11 is_stmt 0 view .LVU1334
 4484 0002 D0F84034 		ldr	r3, [r0, #1088]
1386:ThirdParty/STM32F4xx_HAL_Driver/Src/stm32f4xx_ll_usb.c ****   hprt0 &= ~(USB_OTG_HPRT_PENA    | USB_OTG_HPRT_PCDET |\
 4485              		.loc 1 1386 9 view .LVU1335
 4486 0006 0193     		str	r3, [sp, #4]
1387:ThirdParty/STM32F4xx_HAL_Driver/Src/stm32f4xx_ll_usb.c ****                          USB_OTG_HPRT_PENCHNG | USB_OTG_HPRT_POCCHNG );
 4487              		.loc 1 1387 3 is_stmt 1 view .LVU1336
1387:ThirdParty/STM32F4xx_HAL_Driver/Src/stm32f4xx_ll_usb.c ****                          USB_OTG_HPRT_PENCHNG | USB_OTG_HPRT_POCCHNG );
 4488              		.loc 1 1387 9 is_stmt 0 view .LVU1337
 4489 0008 019B     		ldr	r3, [sp, #4]
 4490 000a 23F02E03 		bic	r3, r3, #46
 4491 000e 0193     		str	r3, [sp, #4]
1390:ThirdParty/STM32F4xx_HAL_Driver/Src/stm32f4xx_ll_usb.c ****   {
 4492              		.loc 1 1390 3 is_stmt 1 view .LVU1338
1390:ThirdParty/STM32F4xx_HAL_Driver/Src/stm32f4xx_ll_usb.c ****   {
 4493              		.loc 1 1390 15 is_stmt 0 view .LVU1339
 4494 0010 019B     		ldr	r3, [sp, #4]
1390:ThirdParty/STM32F4xx_HAL_Driver/Src/stm32f4xx_ll_usb.c ****   {
 4495              		.loc 1 1390 6 view .LVU1340
 4496 0012 13F4805F 		tst	r3, #4096
 4497 0016 01D1     		bne	.L246
1390:ThirdParty/STM32F4xx_HAL_Driver/Src/stm32f4xx_ll_usb.c ****   {
 4498              		.loc 1 1390 43 discriminator 1 view .LVU1341
 4499 0018 0129     		cmp	r1, #1
 4500 001a 0CD0     		beq	.L249
 4501              	.L246:
1394:ThirdParty/STM32F4xx_HAL_Driver/Src/stm32f4xx_ll_usb.c ****   {
 4502              		.loc 1 1394 3 is_stmt 1 view .LVU1342
1394:ThirdParty/STM32F4xx_HAL_Driver/Src/stm32f4xx_ll_usb.c ****   {
 4503              		.loc 1 1394 15 is_stmt 0 view .LVU1343
 4504 001c 019B     		ldr	r3, [sp, #4]
1394:ThirdParty/STM32F4xx_HAL_Driver/Src/stm32f4xx_ll_usb.c ****   {
 4505              		.loc 1 1394 6 view .LVU1344
 4506 001e 13F4805F 		tst	r3, #4096
ARM GAS  /tmp/ccCoVfPP.s 			page 128


 4507 0022 05D0     		beq	.L247
1394:ThirdParty/STM32F4xx_HAL_Driver/Src/stm32f4xx_ll_usb.c ****   {
 4508              		.loc 1 1394 58 discriminator 1 view .LVU1345
 4509 0024 21B9     		cbnz	r1, .L247
1396:ThirdParty/STM32F4xx_HAL_Driver/Src/stm32f4xx_ll_usb.c ****   }
 4510              		.loc 1 1396 5 is_stmt 1 view .LVU1346
1396:ThirdParty/STM32F4xx_HAL_Driver/Src/stm32f4xx_ll_usb.c ****   }
 4511              		.loc 1 1396 40 is_stmt 0 view .LVU1347
 4512 0026 019B     		ldr	r3, [sp, #4]
 4513 0028 23F48053 		bic	r3, r3, #4096
1396:ThirdParty/STM32F4xx_HAL_Driver/Src/stm32f4xx_ll_usb.c ****   }
 4514              		.loc 1 1396 16 view .LVU1348
 4515 002c C0F84034 		str	r3, [r0, #1088]
 4516              	.L247:
1398:ThirdParty/STM32F4xx_HAL_Driver/Src/stm32f4xx_ll_usb.c **** }
 4517              		.loc 1 1398 3 is_stmt 1 view .LVU1349
1399:ThirdParty/STM32F4xx_HAL_Driver/Src/stm32f4xx_ll_usb.c **** 
 4518              		.loc 1 1399 1 is_stmt 0 view .LVU1350
 4519 0030 0020     		movs	r0, #0
 4520              	.LVL320:
1399:ThirdParty/STM32F4xx_HAL_Driver/Src/stm32f4xx_ll_usb.c **** 
 4521              		.loc 1 1399 1 view .LVU1351
 4522 0032 02B0     		add	sp, sp, #8
 4523              	.LCFI63:
 4524              		.cfi_remember_state
 4525              		.cfi_def_cfa_offset 0
 4526              		@ sp needed
 4527 0034 7047     		bx	lr
 4528              	.LVL321:
 4529              	.L249:
 4530              	.LCFI64:
 4531              		.cfi_restore_state
1392:ThirdParty/STM32F4xx_HAL_Driver/Src/stm32f4xx_ll_usb.c ****   }
 4532              		.loc 1 1392 5 is_stmt 1 view .LVU1352
1392:ThirdParty/STM32F4xx_HAL_Driver/Src/stm32f4xx_ll_usb.c ****   }
 4533              		.loc 1 1392 37 is_stmt 0 view .LVU1353
 4534 0036 019B     		ldr	r3, [sp, #4]
 4535 0038 43F48053 		orr	r3, r3, #4096
1392:ThirdParty/STM32F4xx_HAL_Driver/Src/stm32f4xx_ll_usb.c ****   }
 4536              		.loc 1 1392 16 view .LVU1354
 4537 003c C0F84034 		str	r3, [r0, #1088]
 4538 0040 ECE7     		b	.L246
 4539              		.cfi_endproc
 4540              	.LFE169:
 4542              		.section	.text.USB_HostInit,"ax",%progbits
 4543              		.align	1
 4544              		.global	USB_HostInit
 4545              		.syntax unified
 4546              		.thumb
 4547              		.thumb_func
 4549              	USB_HostInit:
 4550              	.LVL322:
 4551              	.LFB166:
1248:ThirdParty/STM32F4xx_HAL_Driver/Src/stm32f4xx_ll_usb.c ****   uint32_t i;
 4552              		.loc 1 1248 1 is_stmt 1 view -0
 4553              		.cfi_startproc
 4554              		@ args = 56, pretend = 16, frame = 0
ARM GAS  /tmp/ccCoVfPP.s 			page 129


 4555              		@ frame_needed = 0, uses_anonymous_args = 0
1248:ThirdParty/STM32F4xx_HAL_Driver/Src/stm32f4xx_ll_usb.c ****   uint32_t i;
 4556              		.loc 1 1248 1 is_stmt 0 view .LVU1356
 4557 0000 84B0     		sub	sp, sp, #16
 4558              	.LCFI65:
 4559              		.cfi_def_cfa_offset 16
 4560 0002 10B5     		push	{r4, lr}
 4561              	.LCFI66:
 4562              		.cfi_def_cfa_offset 24
 4563              		.cfi_offset 4, -24
 4564              		.cfi_offset 14, -20
 4565 0004 0446     		mov	r4, r0
 4566 0006 03A8     		add	r0, sp, #12
 4567 0008 80E80E00 		stm	r0, {r1, r2, r3}
1249:ThirdParty/STM32F4xx_HAL_Driver/Src/stm32f4xx_ll_usb.c ****   
 4568              		.loc 1 1249 3 is_stmt 1 view .LVU1357
1252:ThirdParty/STM32F4xx_HAL_Driver/Src/stm32f4xx_ll_usb.c ****   
 4569              		.loc 1 1252 3 view .LVU1358
1252:ThirdParty/STM32F4xx_HAL_Driver/Src/stm32f4xx_ll_usb.c ****   
 4570              		.loc 1 1252 16 is_stmt 0 view .LVU1359
 4571 000c 0023     		movs	r3, #0
 4572 000e C4F8003E 		str	r3, [r4, #3584]
1259:ThirdParty/STM32F4xx_HAL_Driver/Src/stm32f4xx_ll_usb.c ****   USBx->GCCFG &=~ (USB_OTG_GCCFG_VBUSBSEN);
 4573              		.loc 1 1259 3 is_stmt 1 view .LVU1360
1259:ThirdParty/STM32F4xx_HAL_Driver/Src/stm32f4xx_ll_usb.c ****   USBx->GCCFG &=~ (USB_OTG_GCCFG_VBUSBSEN);
 4574              		.loc 1 1259 15 is_stmt 0 view .LVU1361
 4575 0012 A36B     		ldr	r3, [r4, #56]
 4576 0014 23F48023 		bic	r3, r3, #262144
 4577 0018 A363     		str	r3, [r4, #56]
1260:ThirdParty/STM32F4xx_HAL_Driver/Src/stm32f4xx_ll_usb.c ****   USBx->GCCFG |= USB_OTG_GCCFG_NOVBUSSENS;
 4578              		.loc 1 1260 3 is_stmt 1 view .LVU1362
1260:ThirdParty/STM32F4xx_HAL_Driver/Src/stm32f4xx_ll_usb.c ****   USBx->GCCFG |= USB_OTG_GCCFG_NOVBUSSENS;
 4579              		.loc 1 1260 15 is_stmt 0 view .LVU1363
 4580 001a A36B     		ldr	r3, [r4, #56]
 4581 001c 23F40023 		bic	r3, r3, #524288
 4582 0020 A363     		str	r3, [r4, #56]
1261:ThirdParty/STM32F4xx_HAL_Driver/Src/stm32f4xx_ll_usb.c **** #endif /* STM32F446xx || STM32F469xx || STM32F479xx || STM32F412Zx || STM32F412Rx || STM32F412Vx ||
 4583              		.loc 1 1261 3 is_stmt 1 view .LVU1364
1261:ThirdParty/STM32F4xx_HAL_Driver/Src/stm32f4xx_ll_usb.c **** #endif /* STM32F446xx || STM32F469xx || STM32F479xx || STM32F412Zx || STM32F412Rx || STM32F412Vx ||
 4584              		.loc 1 1261 15 is_stmt 0 view .LVU1365
 4585 0022 A36B     		ldr	r3, [r4, #56]
 4586 0024 43F40013 		orr	r3, r3, #2097152
 4587 0028 A363     		str	r3, [r4, #56]
1265:ThirdParty/STM32F4xx_HAL_Driver/Src/stm32f4xx_ll_usb.c ****      (USBx != USB_OTG_FS))
 4588              		.loc 1 1265 3 is_stmt 1 view .LVU1366
1265:ThirdParty/STM32F4xx_HAL_Driver/Src/stm32f4xx_ll_usb.c ****      (USBx != USB_OTG_FS))
 4589              		.loc 1 1265 10 is_stmt 0 view .LVU1367
 4590 002a 059B     		ldr	r3, [sp, #20]
1265:ThirdParty/STM32F4xx_HAL_Driver/Src/stm32f4xx_ll_usb.c ****      (USBx != USB_OTG_FS))
 4591              		.loc 1 1265 5 view .LVU1368
 4592 002c 032B     		cmp	r3, #3
 4593 002e 0ED0     		beq	.L259
 4594              	.L251:
1272:ThirdParty/STM32F4xx_HAL_Driver/Src/stm32f4xx_ll_usb.c ****   }
 4595              		.loc 1 1272 5 is_stmt 1 view .LVU1369
1272:ThirdParty/STM32F4xx_HAL_Driver/Src/stm32f4xx_ll_usb.c ****   }
 4596              		.loc 1 1272 21 is_stmt 0 view .LVU1370
ARM GAS  /tmp/ccCoVfPP.s 			page 130


 4597 0030 D4F80034 		ldr	r3, [r4, #1024]
 4598 0034 23F00403 		bic	r3, r3, #4
 4599 0038 C4F80034 		str	r3, [r4, #1024]
 4600              	.L252:
1276:ThirdParty/STM32F4xx_HAL_Driver/Src/stm32f4xx_ll_usb.c ****   USB_FlushRxFifo(USBx);
 4601              		.loc 1 1276 3 is_stmt 1 view .LVU1371
 4602 003c 1021     		movs	r1, #16
 4603 003e 2046     		mov	r0, r4
 4604              	.LVL323:
1276:ThirdParty/STM32F4xx_HAL_Driver/Src/stm32f4xx_ll_usb.c ****   USB_FlushRxFifo(USBx);
 4605              		.loc 1 1276 3 is_stmt 0 view .LVU1372
 4606 0040 FFF7FEFF 		bl	USB_FlushTxFifo
 4607              	.LVL324:
1277:ThirdParty/STM32F4xx_HAL_Driver/Src/stm32f4xx_ll_usb.c **** 
 4608              		.loc 1 1277 3 is_stmt 1 view .LVU1373
 4609 0044 2046     		mov	r0, r4
 4610 0046 FFF7FEFF 		bl	USB_FlushRxFifo
 4611              	.LVL325:
1280:ThirdParty/STM32F4xx_HAL_Driver/Src/stm32f4xx_ll_usb.c ****   {
 4612              		.loc 1 1280 3 view .LVU1374
1280:ThirdParty/STM32F4xx_HAL_Driver/Src/stm32f4xx_ll_usb.c ****   {
 4613              		.loc 1 1280 10 is_stmt 0 view .LVU1375
 4614 004a 0022     		movs	r2, #0
1280:ThirdParty/STM32F4xx_HAL_Driver/Src/stm32f4xx_ll_usb.c ****   {
 4615              		.loc 1 1280 3 view .LVU1376
 4616 004c 13E0     		b	.L253
 4617              	.LVL326:
 4618              	.L259:
1265:ThirdParty/STM32F4xx_HAL_Driver/Src/stm32f4xx_ll_usb.c ****      (USBx != USB_OTG_FS))
 4619              		.loc 1 1265 39 discriminator 1 view .LVU1377
 4620 004e B4F1A04F 		cmp	r4, #1342177280
 4621 0052 EDD0     		beq	.L251
1268:ThirdParty/STM32F4xx_HAL_Driver/Src/stm32f4xx_ll_usb.c ****   }
 4622              		.loc 1 1268 5 is_stmt 1 view .LVU1378
1268:ThirdParty/STM32F4xx_HAL_Driver/Src/stm32f4xx_ll_usb.c ****   }
 4623              		.loc 1 1268 21 is_stmt 0 view .LVU1379
 4624 0054 D4F80034 		ldr	r3, [r4, #1024]
 4625 0058 43F00403 		orr	r3, r3, #4
 4626 005c C4F80034 		str	r3, [r4, #1024]
 4627 0060 ECE7     		b	.L252
 4628              	.LVL327:
 4629              	.L254:
1282:ThirdParty/STM32F4xx_HAL_Driver/Src/stm32f4xx_ll_usb.c ****     USBx_HC(i)->HCINTMSK = 0U;
 4630              		.loc 1 1282 5 is_stmt 1 discriminator 3 view .LVU1380
 4631 0062 04EB4213 		add	r3, r4, r2, lsl #5
1282:ThirdParty/STM32F4xx_HAL_Driver/Src/stm32f4xx_ll_usb.c ****     USBx_HC(i)->HCINTMSK = 0U;
 4632              		.loc 1 1282 23 is_stmt 0 discriminator 3 view .LVU1381
 4633 0066 4FF0FF31 		mov	r1, #-1
 4634 006a C3F80815 		str	r1, [r3, #1288]
1283:ThirdParty/STM32F4xx_HAL_Driver/Src/stm32f4xx_ll_usb.c ****   }
 4635              		.loc 1 1283 5 is_stmt 1 discriminator 3 view .LVU1382
1283:ThirdParty/STM32F4xx_HAL_Driver/Src/stm32f4xx_ll_usb.c ****   }
 4636              		.loc 1 1283 26 is_stmt 0 discriminator 3 view .LVU1383
 4637 006e 0021     		movs	r1, #0
 4638 0070 C3F80C15 		str	r1, [r3, #1292]
1280:ThirdParty/STM32F4xx_HAL_Driver/Src/stm32f4xx_ll_usb.c ****   {
 4639              		.loc 1 1280 39 is_stmt 1 discriminator 3 view .LVU1384
ARM GAS  /tmp/ccCoVfPP.s 			page 131


1280:ThirdParty/STM32F4xx_HAL_Driver/Src/stm32f4xx_ll_usb.c ****   {
 4640              		.loc 1 1280 40 is_stmt 0 discriminator 3 view .LVU1385
 4641 0074 0132     		adds	r2, r2, #1
 4642              	.LVL328:
 4643              	.L253:
1280:ThirdParty/STM32F4xx_HAL_Driver/Src/stm32f4xx_ll_usb.c ****   {
 4644              		.loc 1 1280 16 is_stmt 1 discriminator 1 view .LVU1386
1280:ThirdParty/STM32F4xx_HAL_Driver/Src/stm32f4xx_ll_usb.c ****   {
 4645              		.loc 1 1280 23 is_stmt 0 discriminator 1 view .LVU1387
 4646 0076 049B     		ldr	r3, [sp, #16]
1280:ThirdParty/STM32F4xx_HAL_Driver/Src/stm32f4xx_ll_usb.c ****   {
 4647              		.loc 1 1280 3 discriminator 1 view .LVU1388
 4648 0078 9342     		cmp	r3, r2
 4649 007a F2D8     		bhi	.L254
1287:ThirdParty/STM32F4xx_HAL_Driver/Src/stm32f4xx_ll_usb.c ****   
 4650              		.loc 1 1287 3 is_stmt 1 view .LVU1389
 4651 007c 0121     		movs	r1, #1
 4652 007e 2046     		mov	r0, r4
 4653 0080 FFF7FEFF 		bl	USB_DriveVbus
 4654              	.LVL329:
1289:ThirdParty/STM32F4xx_HAL_Driver/Src/stm32f4xx_ll_usb.c ****   
 4655              		.loc 1 1289 3 view .LVU1390
 4656 0084 C820     		movs	r0, #200
 4657 0086 FFF7FEFF 		bl	HAL_Delay
 4658              	.LVL330:
1292:ThirdParty/STM32F4xx_HAL_Driver/Src/stm32f4xx_ll_usb.c ****   
 4659              		.loc 1 1292 3 view .LVU1391
1292:ThirdParty/STM32F4xx_HAL_Driver/Src/stm32f4xx_ll_usb.c ****   
 4660              		.loc 1 1292 17 is_stmt 0 view .LVU1392
 4661 008a 0023     		movs	r3, #0
 4662 008c A361     		str	r3, [r4, #24]
1295:ThirdParty/STM32F4xx_HAL_Driver/Src/stm32f4xx_ll_usb.c ****   
 4663              		.loc 1 1295 3 is_stmt 1 view .LVU1393
1295:ThirdParty/STM32F4xx_HAL_Driver/Src/stm32f4xx_ll_usb.c ****   
 4664              		.loc 1 1295 17 is_stmt 0 view .LVU1394
 4665 008e 4FF0FF33 		mov	r3, #-1
 4666 0092 6361     		str	r3, [r4, #20]
1297:ThirdParty/STM32F4xx_HAL_Driver/Src/stm32f4xx_ll_usb.c ****   {
 4667              		.loc 1 1297 3 is_stmt 1 view .LVU1395
1297:ThirdParty/STM32F4xx_HAL_Driver/Src/stm32f4xx_ll_usb.c ****   {
 4668              		.loc 1 1297 5 is_stmt 0 view .LVU1396
 4669 0094 B4F1A04F 		cmp	r4, #1342177280
 4670 0098 17D0     		beq	.L260
1307:ThirdParty/STM32F4xx_HAL_Driver/Src/stm32f4xx_ll_usb.c ****     USBx->DIEPTXF0_HNPTXFSIZ = (uint32_t )(((0x100U << 16U)& USB_OTG_NPTXFD) | 0x200U);
 4671              		.loc 1 1307 5 is_stmt 1 view .LVU1397
1307:ThirdParty/STM32F4xx_HAL_Driver/Src/stm32f4xx_ll_usb.c ****     USBx->DIEPTXF0_HNPTXFSIZ = (uint32_t )(((0x100U << 16U)& USB_OTG_NPTXFD) | 0x200U);
 4672              		.loc 1 1307 20 is_stmt 0 view .LVU1398
 4673 009a 4FF40073 		mov	r3, #512
 4674 009e 6362     		str	r3, [r4, #36]
1308:ThirdParty/STM32F4xx_HAL_Driver/Src/stm32f4xx_ll_usb.c ****     USBx->HPTXFSIZ = (uint32_t )(((0xE0U << 16U)& USB_OTG_HPTXFSIZ_PTXFD) | 0x300U);
 4675              		.loc 1 1308 5 is_stmt 1 view .LVU1399
1308:ThirdParty/STM32F4xx_HAL_Driver/Src/stm32f4xx_ll_usb.c ****     USBx->HPTXFSIZ = (uint32_t )(((0xE0U << 16U)& USB_OTG_HPTXFSIZ_PTXFD) | 0x300U);
 4676              		.loc 1 1308 30 is_stmt 0 view .LVU1400
 4677 00a0 03F18073 		add	r3, r3, #16777216
 4678 00a4 A362     		str	r3, [r4, #40]
1309:ThirdParty/STM32F4xx_HAL_Driver/Src/stm32f4xx_ll_usb.c ****   }
 4679              		.loc 1 1309 5 is_stmt 1 view .LVU1401
ARM GAS  /tmp/ccCoVfPP.s 			page 132


1309:ThirdParty/STM32F4xx_HAL_Driver/Src/stm32f4xx_ll_usb.c ****   }
 4680              		.loc 1 1309 20 is_stmt 0 view .LVU1402
 4681 00a6 0D4B     		ldr	r3, .L261
 4682 00a8 C4F80031 		str	r3, [r4, #256]
 4683              	.L256:
1313:ThirdParty/STM32F4xx_HAL_Driver/Src/stm32f4xx_ll_usb.c ****   {
 4684              		.loc 1 1313 3 is_stmt 1 view .LVU1403
1313:ThirdParty/STM32F4xx_HAL_Driver/Src/stm32f4xx_ll_usb.c ****   {
 4685              		.loc 1 1313 10 is_stmt 0 view .LVU1404
 4686 00ac 069B     		ldr	r3, [sp, #24]
1313:ThirdParty/STM32F4xx_HAL_Driver/Src/stm32f4xx_ll_usb.c ****   {
 4687              		.loc 1 1313 6 view .LVU1405
 4688 00ae 1BB9     		cbnz	r3, .L257
1315:ThirdParty/STM32F4xx_HAL_Driver/Src/stm32f4xx_ll_usb.c ****   }
 4689              		.loc 1 1315 5 is_stmt 1 view .LVU1406
1315:ThirdParty/STM32F4xx_HAL_Driver/Src/stm32f4xx_ll_usb.c ****   }
 4690              		.loc 1 1315 19 is_stmt 0 view .LVU1407
 4691 00b0 A369     		ldr	r3, [r4, #24]
 4692 00b2 43F01003 		orr	r3, r3, #16
 4693 00b6 A361     		str	r3, [r4, #24]
 4694              	.L257:
1319:ThirdParty/STM32F4xx_HAL_Driver/Src/stm32f4xx_ll_usb.c ****                     USB_OTG_GINTMSK_SOFM             |USB_OTG_GINTSTS_DISCINT|\
 4695              		.loc 1 1319 3 is_stmt 1 view .LVU1408
1319:ThirdParty/STM32F4xx_HAL_Driver/Src/stm32f4xx_ll_usb.c ****                     USB_OTG_GINTMSK_SOFM             |USB_OTG_GINTSTS_DISCINT|\
 4696              		.loc 1 1319 17 is_stmt 0 view .LVU1409
 4697 00b8 A269     		ldr	r2, [r4, #24]
 4698 00ba 094B     		ldr	r3, .L261+4
 4699 00bc 1343     		orrs	r3, r3, r2
 4700 00be A361     		str	r3, [r4, #24]
1323:ThirdParty/STM32F4xx_HAL_Driver/Src/stm32f4xx_ll_usb.c **** }
 4701              		.loc 1 1323 3 is_stmt 1 view .LVU1410
1324:ThirdParty/STM32F4xx_HAL_Driver/Src/stm32f4xx_ll_usb.c **** 
 4702              		.loc 1 1324 1 is_stmt 0 view .LVU1411
 4703 00c0 0020     		movs	r0, #0
 4704 00c2 BDE81040 		pop	{r4, lr}
 4705              	.LCFI67:
 4706              		.cfi_remember_state
 4707              		.cfi_restore 14
 4708              		.cfi_restore 4
 4709              		.cfi_def_cfa_offset 16
 4710              	.LVL331:
1324:ThirdParty/STM32F4xx_HAL_Driver/Src/stm32f4xx_ll_usb.c **** 
 4711              		.loc 1 1324 1 view .LVU1412
 4712 00c6 04B0     		add	sp, sp, #16
 4713              	.LCFI68:
 4714              		.cfi_def_cfa_offset 0
 4715 00c8 7047     		bx	lr
 4716              	.LVL332:
 4717              	.L260:
 4718              	.LCFI69:
 4719              		.cfi_restore_state
1300:ThirdParty/STM32F4xx_HAL_Driver/Src/stm32f4xx_ll_usb.c ****     USBx->DIEPTXF0_HNPTXFSIZ = (uint32_t )(((0x60U << 16U)& USB_OTG_NPTXFD) | 0x80U);
 4720              		.loc 1 1300 5 is_stmt 1 view .LVU1413
1300:ThirdParty/STM32F4xx_HAL_Driver/Src/stm32f4xx_ll_usb.c ****     USBx->DIEPTXF0_HNPTXFSIZ = (uint32_t )(((0x60U << 16U)& USB_OTG_NPTXFD) | 0x80U);
 4721              		.loc 1 1300 20 is_stmt 0 view .LVU1414
 4722 00ca 8023     		movs	r3, #128
 4723 00cc 6362     		str	r3, [r4, #36]
ARM GAS  /tmp/ccCoVfPP.s 			page 133


1301:ThirdParty/STM32F4xx_HAL_Driver/Src/stm32f4xx_ll_usb.c ****     USBx->HPTXFSIZ = (uint32_t )(((0x40U << 16U)& USB_OTG_HPTXFSIZ_PTXFD) | 0xE0U);
 4724              		.loc 1 1301 5 is_stmt 1 view .LVU1415
1301:ThirdParty/STM32F4xx_HAL_Driver/Src/stm32f4xx_ll_usb.c ****     USBx->HPTXFSIZ = (uint32_t )(((0x40U << 16U)& USB_OTG_HPTXFSIZ_PTXFD) | 0xE0U);
 4725              		.loc 1 1301 30 is_stmt 0 view .LVU1416
 4726 00ce 03F5C003 		add	r3, r3, #6291456
 4727 00d2 A362     		str	r3, [r4, #40]
1302:ThirdParty/STM32F4xx_HAL_Driver/Src/stm32f4xx_ll_usb.c ****   }
 4728              		.loc 1 1302 5 is_stmt 1 view .LVU1417
1302:ThirdParty/STM32F4xx_HAL_Driver/Src/stm32f4xx_ll_usb.c ****   }
 4729              		.loc 1 1302 20 is_stmt 0 view .LVU1418
 4730 00d4 034B     		ldr	r3, .L261+8
 4731 00d6 C4F80031 		str	r3, [r4, #256]
 4732 00da E7E7     		b	.L256
 4733              	.L262:
 4734              		.align	2
 4735              	.L261:
 4736 00dc 0003E000 		.word	14680832
 4737 00e0 080020A3 		.word	-1558183928
 4738 00e4 E0004000 		.word	4194528
 4739              		.cfi_endproc
 4740              	.LFE166:
 4742              		.section	.text.USB_GetHostSpeed,"ax",%progbits
 4743              		.align	1
 4744              		.global	USB_GetHostSpeed
 4745              		.syntax unified
 4746              		.thumb
 4747              		.thumb_func
 4749              	USB_GetHostSpeed:
 4750              	.LVL333:
 4751              	.LFB170:
1411:ThirdParty/STM32F4xx_HAL_Driver/Src/stm32f4xx_ll_usb.c ****   __IO uint32_t hprt0;
 4752              		.loc 1 1411 1 is_stmt 1 view -0
 4753              		.cfi_startproc
 4754              		@ args = 0, pretend = 0, frame = 8
 4755              		@ frame_needed = 0, uses_anonymous_args = 0
 4756              		@ link register save eliminated.
1411:ThirdParty/STM32F4xx_HAL_Driver/Src/stm32f4xx_ll_usb.c ****   __IO uint32_t hprt0;
 4757              		.loc 1 1411 1 is_stmt 0 view .LVU1420
 4758 0000 82B0     		sub	sp, sp, #8
 4759              	.LCFI70:
 4760              		.cfi_def_cfa_offset 8
1412:ThirdParty/STM32F4xx_HAL_Driver/Src/stm32f4xx_ll_usb.c ****   
 4761              		.loc 1 1412 3 is_stmt 1 view .LVU1421
1414:ThirdParty/STM32F4xx_HAL_Driver/Src/stm32f4xx_ll_usb.c ****   return ((hprt0 & USB_OTG_HPRT_PSPD) >> 17U);
 4762              		.loc 1 1414 3 view .LVU1422
1414:ThirdParty/STM32F4xx_HAL_Driver/Src/stm32f4xx_ll_usb.c ****   return ((hprt0 & USB_OTG_HPRT_PSPD) >> 17U);
 4763              		.loc 1 1414 11 is_stmt 0 view .LVU1423
 4764 0002 D0F84034 		ldr	r3, [r0, #1088]
1414:ThirdParty/STM32F4xx_HAL_Driver/Src/stm32f4xx_ll_usb.c ****   return ((hprt0 & USB_OTG_HPRT_PSPD) >> 17U);
 4765              		.loc 1 1414 9 view .LVU1424
 4766 0006 0193     		str	r3, [sp, #4]
1415:ThirdParty/STM32F4xx_HAL_Driver/Src/stm32f4xx_ll_usb.c **** }
 4767              		.loc 1 1415 3 is_stmt 1 view .LVU1425
1415:ThirdParty/STM32F4xx_HAL_Driver/Src/stm32f4xx_ll_usb.c **** }
 4768              		.loc 1 1415 39 is_stmt 0 view .LVU1426
 4769 0008 0198     		ldr	r0, [sp, #4]
 4770              	.LVL334:
ARM GAS  /tmp/ccCoVfPP.s 			page 134


1416:ThirdParty/STM32F4xx_HAL_Driver/Src/stm32f4xx_ll_usb.c **** 
 4771              		.loc 1 1416 1 view .LVU1427
 4772 000a C0F34140 		ubfx	r0, r0, #17, #2
 4773 000e 02B0     		add	sp, sp, #8
 4774              	.LCFI71:
 4775              		.cfi_def_cfa_offset 0
 4776              		@ sp needed
 4777 0010 7047     		bx	lr
 4778              		.cfi_endproc
 4779              	.LFE170:
 4781              		.section	.text.USB_GetCurrentFrame,"ax",%progbits
 4782              		.align	1
 4783              		.global	USB_GetCurrentFrame
 4784              		.syntax unified
 4785              		.thumb
 4786              		.thumb_func
 4788              	USB_GetCurrentFrame:
 4789              	.LVL335:
 4790              	.LFB171:
1424:ThirdParty/STM32F4xx_HAL_Driver/Src/stm32f4xx_ll_usb.c ****   return (USBx_HOST->HFNUM & USB_OTG_HFNUM_FRNUM);
 4791              		.loc 1 1424 1 is_stmt 1 view -0
 4792              		.cfi_startproc
 4793              		@ args = 0, pretend = 0, frame = 0
 4794              		@ frame_needed = 0, uses_anonymous_args = 0
 4795              		@ link register save eliminated.
1425:ThirdParty/STM32F4xx_HAL_Driver/Src/stm32f4xx_ll_usb.c **** }
 4796              		.loc 1 1425 3 view .LVU1429
1425:ThirdParty/STM32F4xx_HAL_Driver/Src/stm32f4xx_ll_usb.c **** }
 4797              		.loc 1 1425 11 is_stmt 0 view .LVU1430
 4798 0000 00F58060 		add	r0, r0, #1024
 4799              	.LVL336:
1425:ThirdParty/STM32F4xx_HAL_Driver/Src/stm32f4xx_ll_usb.c **** }
 4800              		.loc 1 1425 20 view .LVU1431
 4801 0004 8068     		ldr	r0, [r0, #8]
 4802              	.LVL337:
1426:ThirdParty/STM32F4xx_HAL_Driver/Src/stm32f4xx_ll_usb.c **** 
 4803              		.loc 1 1426 1 view .LVU1432
 4804 0006 80B2     		uxth	r0, r0
 4805 0008 7047     		bx	lr
 4806              		.cfi_endproc
 4807              	.LFE171:
 4809              		.section	.text.USB_HC_Init,"ax",%progbits
 4810              		.align	1
 4811              		.global	USB_HC_Init
 4812              		.syntax unified
 4813              		.thumb
 4814              		.thumb_func
 4816              	USB_HC_Init:
 4817              	.LVL338:
 4818              	.LFB172:
1459:ThirdParty/STM32F4xx_HAL_Driver/Src/stm32f4xx_ll_usb.c ****     
 4819              		.loc 1 1459 1 is_stmt 1 view -0
 4820              		.cfi_startproc
 4821              		@ args = 12, pretend = 0, frame = 0
 4822              		@ frame_needed = 0, uses_anonymous_args = 0
1459:ThirdParty/STM32F4xx_HAL_Driver/Src/stm32f4xx_ll_usb.c ****     
 4823              		.loc 1 1459 1 is_stmt 0 view .LVU1434
ARM GAS  /tmp/ccCoVfPP.s 			page 135


 4824 0000 70B5     		push	{r4, r5, r6, lr}
 4825              	.LCFI72:
 4826              		.cfi_def_cfa_offset 16
 4827              		.cfi_offset 4, -16
 4828              		.cfi_offset 5, -12
 4829              		.cfi_offset 6, -8
 4830              		.cfi_offset 14, -4
 4831 0002 9DF814C0 		ldrb	ip, [sp, #20]	@ zero_extendqisi2
1462:ThirdParty/STM32F4xx_HAL_Driver/Src/stm32f4xx_ll_usb.c ****   
 4832              		.loc 1 1462 3 is_stmt 1 view .LVU1435
 4833 0006 00EB411E 		add	lr, r0, r1, lsl #5
 4834 000a 0EF5A064 		add	r4, lr, #1280
1462:ThirdParty/STM32F4xx_HAL_Driver/Src/stm32f4xx_ll_usb.c ****   
 4835              		.loc 1 1462 26 is_stmt 0 view .LVU1436
 4836 000e 4FF0FF35 		mov	r5, #-1
 4837 0012 A560     		str	r5, [r4, #8]
1465:ThirdParty/STM32F4xx_HAL_Driver/Src/stm32f4xx_ll_usb.c ****   {
 4838              		.loc 1 1465 3 is_stmt 1 view .LVU1437
 4839 0014 BCF1030F 		cmp	ip, #3
 4840 0018 1CD8     		bhi	.L267
 4841 001a DFE80CF0 		tbb	[pc, ip]
 4842              	.L269:
 4843 001e 02       		.byte	(.L270-.L269)/2
 4844 001f 4E       		.byte	(.L271-.L269)/2
 4845 0020 02       		.byte	(.L270-.L269)/2
 4846 0021 15       		.byte	(.L268-.L269)/2
 4847              		.p2align 1
 4848              	.L270:
1470:ThirdParty/STM32F4xx_HAL_Driver/Src/stm32f4xx_ll_usb.c ****                                 USB_OTG_HCINTMSK_STALLM |\
 4849              		.loc 1 1470 5 view .LVU1438
1470:ThirdParty/STM32F4xx_HAL_Driver/Src/stm32f4xx_ll_usb.c ****                                 USB_OTG_HCINTMSK_STALLM |\
 4850              		.loc 1 1470 31 is_stmt 0 view .LVU1439
 4851 0022 40F29D45 		movw	r5, #1181
 4852 0026 E560     		str	r5, [r4, #12]
1477:ThirdParty/STM32F4xx_HAL_Driver/Src/stm32f4xx_ll_usb.c ****     {
 4853              		.loc 1 1477 5 is_stmt 1 view .LVU1440
1477:ThirdParty/STM32F4xx_HAL_Driver/Src/stm32f4xx_ll_usb.c ****     {
 4854              		.loc 1 1477 8 is_stmt 0 view .LVU1441
 4855 0028 12F0800F 		tst	r2, #128
 4856 002c 07D1     		bne	.L277
1483:ThirdParty/STM32F4xx_HAL_Driver/Src/stm32f4xx_ll_usb.c ****       {
 4857              		.loc 1 1483 7 is_stmt 1 view .LVU1442
1483:ThirdParty/STM32F4xx_HAL_Driver/Src/stm32f4xx_ll_usb.c ****       {
 4858              		.loc 1 1483 9 is_stmt 0 view .LVU1443
 4859 002e B0F1A04F 		cmp	r0, #1342177280
 4860 0032 0FD0     		beq	.L267
1485:ThirdParty/STM32F4xx_HAL_Driver/Src/stm32f4xx_ll_usb.c ****       }
 4861              		.loc 1 1485 9 is_stmt 1 view .LVU1444
1485:ThirdParty/STM32F4xx_HAL_Driver/Src/stm32f4xx_ll_usb.c ****       }
 4862              		.loc 1 1485 35 is_stmt 0 view .LVU1445
 4863 0034 E568     		ldr	r5, [r4, #12]
 4864 0036 45F06005 		orr	r5, r5, #96
 4865 003a E560     		str	r5, [r4, #12]
 4866 003c 0AE0     		b	.L267
 4867              	.L277:
1479:ThirdParty/STM32F4xx_HAL_Driver/Src/stm32f4xx_ll_usb.c ****     } 
 4868              		.loc 1 1479 7 is_stmt 1 view .LVU1446
ARM GAS  /tmp/ccCoVfPP.s 			page 136


1479:ThirdParty/STM32F4xx_HAL_Driver/Src/stm32f4xx_ll_usb.c ****     } 
 4869              		.loc 1 1479 33 is_stmt 0 view .LVU1447
 4870 003e E568     		ldr	r5, [r4, #12]
 4871 0040 45F48075 		orr	r5, r5, #256
 4872 0044 E560     		str	r5, [r4, #12]
 4873 0046 05E0     		b	.L267
 4874              	.L268:
1492:ThirdParty/STM32F4xx_HAL_Driver/Src/stm32f4xx_ll_usb.c ****                                 USB_OTG_HCINTMSK_STALLM |\
 4875              		.loc 1 1492 5 is_stmt 1 view .LVU1448
1492:ThirdParty/STM32F4xx_HAL_Driver/Src/stm32f4xx_ll_usb.c ****                                 USB_OTG_HCINTMSK_STALLM |\
 4876              		.loc 1 1492 31 is_stmt 0 view .LVU1449
 4877 0048 40F29D65 		movw	r5, #1693
 4878 004c E560     		str	r5, [r4, #12]
1500:ThirdParty/STM32F4xx_HAL_Driver/Src/stm32f4xx_ll_usb.c ****     {
 4879              		.loc 1 1500 5 is_stmt 1 view .LVU1450
1500:ThirdParty/STM32F4xx_HAL_Driver/Src/stm32f4xx_ll_usb.c ****     {
 4880              		.loc 1 1500 8 is_stmt 0 view .LVU1451
 4881 004e 12F0800F 		tst	r2, #128
 4882 0052 2DD1     		bne	.L278
 4883              	.L267:
1521:ThirdParty/STM32F4xx_HAL_Driver/Src/stm32f4xx_ll_usb.c ****   
 4884              		.loc 1 1521 3 is_stmt 1 view .LVU1452
1521:ThirdParty/STM32F4xx_HAL_Driver/Src/stm32f4xx_ll_usb.c ****   
 4885              		.loc 1 1521 23 is_stmt 0 view .LVU1453
 4886 0054 D0F81844 		ldr	r4, [r0, #1048]
1521:ThirdParty/STM32F4xx_HAL_Driver/Src/stm32f4xx_ll_usb.c ****   
 4887              		.loc 1 1521 29 view .LVU1454
 4888 0058 0125     		movs	r5, #1
 4889 005a 05FA01F1 		lsl	r1, r5, r1
 4890              	.LVL339:
1521:ThirdParty/STM32F4xx_HAL_Driver/Src/stm32f4xx_ll_usb.c ****   
 4891              		.loc 1 1521 23 view .LVU1455
 4892 005e 2143     		orrs	r1, r1, r4
 4893 0060 C0F81814 		str	r1, [r0, #1048]
1524:ThirdParty/STM32F4xx_HAL_Driver/Src/stm32f4xx_ll_usb.c ****   
 4894              		.loc 1 1524 3 is_stmt 1 view .LVU1456
1524:ThirdParty/STM32F4xx_HAL_Driver/Src/stm32f4xx_ll_usb.c ****   
 4895              		.loc 1 1524 17 is_stmt 0 view .LVU1457
 4896 0064 8169     		ldr	r1, [r0, #24]
 4897 0066 41F00071 		orr	r1, r1, #33554432
 4898 006a 8161     		str	r1, [r0, #24]
1527:ThirdParty/STM32F4xx_HAL_Driver/Src/stm32f4xx_ll_usb.c ****                              (((epnum & 0x7FU)<< 11U) & USB_OTG_HCCHAR_EPNUM)|\
 4899              		.loc 1 1527 3 is_stmt 1 view .LVU1458
1527:ThirdParty/STM32F4xx_HAL_Driver/Src/stm32f4xx_ll_usb.c ****                              (((epnum & 0x7FU)<< 11U) & USB_OTG_HCCHAR_EPNUM)|\
 4900              		.loc 1 1527 44 is_stmt 0 view .LVU1459
 4901 006c 9B05     		lsls	r3, r3, #22
 4902              	.LVL340:
1527:ThirdParty/STM32F4xx_HAL_Driver/Src/stm32f4xx_ll_usb.c ****                              (((epnum & 0x7FU)<< 11U) & USB_OTG_HCCHAR_EPNUM)|\
 4903              		.loc 1 1527 52 view .LVU1460
 4904 006e 03F0FE53 		and	r3, r3, #532676608
1528:ThirdParty/STM32F4xx_HAL_Driver/Src/stm32f4xx_ll_usb.c ****                              ((((epnum & 0x80U) == 0x80U)<< 15U) & USB_OTG_HCCHAR_EPDIR)|\
 4905              		.loc 1 1528 47 view .LVU1461
 4906 0072 D102     		lsls	r1, r2, #11
1528:ThirdParty/STM32F4xx_HAL_Driver/Src/stm32f4xx_ll_usb.c ****                              ((((epnum & 0x80U) == 0x80U)<< 15U) & USB_OTG_HCCHAR_EPDIR)|\
 4907              		.loc 1 1528 55 view .LVU1462
 4908 0074 01F4F041 		and	r1, r1, #30720
1527:ThirdParty/STM32F4xx_HAL_Driver/Src/stm32f4xx_ll_usb.c ****                              (((epnum & 0x7FU)<< 11U) & USB_OTG_HCCHAR_EPNUM)|\
ARM GAS  /tmp/ccCoVfPP.s 			page 137


 4909              		.loc 1 1527 75 view .LVU1463
 4910 0078 0B43     		orrs	r3, r3, r1
1529:ThirdParty/STM32F4xx_HAL_Driver/Src/stm32f4xx_ll_usb.c ****                              (((speed == USB_OTG_SPEED_LOW)<< 17U) & USB_OTG_HCCHAR_LSDEV)|\
 4911              		.loc 1 1529 49 view .LVU1464
 4912 007a 52B2     		sxtb	r2, r2
1529:ThirdParty/STM32F4xx_HAL_Driver/Src/stm32f4xx_ll_usb.c ****                              (((speed == USB_OTG_SPEED_LOW)<< 17U) & USB_OTG_HCCHAR_LSDEV)|\
 4913              		.loc 1 1529 66 view .LVU1465
 4914 007c 02F40042 		and	r2, r2, #32768
 4915              	.LVL341:
1528:ThirdParty/STM32F4xx_HAL_Driver/Src/stm32f4xx_ll_usb.c ****                              ((((epnum & 0x80U) == 0x80U)<< 15U) & USB_OTG_HCCHAR_EPDIR)|\
 4916              		.loc 1 1528 78 view .LVU1466
 4917 0080 1343     		orrs	r3, r3, r2
1530:ThirdParty/STM32F4xx_HAL_Driver/Src/stm32f4xx_ll_usb.c ****                              ((ep_type << 18U) & USB_OTG_HCCHAR_EPTYP)|\
 4918              		.loc 1 1530 68 view .LVU1467
 4919 0082 9DF81020 		ldrb	r2, [sp, #16]	@ zero_extendqisi2
 4920 0086 022A     		cmp	r2, #2
 4921 0088 22D0     		beq	.L279
 4922 008a 0022     		movs	r2, #0
 4923              	.L273:
1529:ThirdParty/STM32F4xx_HAL_Driver/Src/stm32f4xx_ll_usb.c ****                              (((speed == USB_OTG_SPEED_LOW)<< 17U) & USB_OTG_HCCHAR_LSDEV)|\
 4924              		.loc 1 1529 89 view .LVU1468
 4925 008c 1343     		orrs	r3, r3, r2
1531:ThirdParty/STM32F4xx_HAL_Driver/Src/stm32f4xx_ll_usb.c ****                              (mps & USB_OTG_HCCHAR_MPSIZ));
 4926              		.loc 1 1531 40 view .LVU1469
 4927 008e 4FEA8C42 		lsl	r2, ip, #18
1531:ThirdParty/STM32F4xx_HAL_Driver/Src/stm32f4xx_ll_usb.c ****                              (mps & USB_OTG_HCCHAR_MPSIZ));
 4928              		.loc 1 1531 48 view .LVU1470
 4929 0092 02F44022 		and	r2, r2, #786432
1530:ThirdParty/STM32F4xx_HAL_Driver/Src/stm32f4xx_ll_usb.c ****                              ((ep_type << 18U) & USB_OTG_HCCHAR_EPTYP)|\
 4930              		.loc 1 1530 91 view .LVU1471
 4931 0096 1343     		orrs	r3, r3, r2
1532:ThirdParty/STM32F4xx_HAL_Driver/Src/stm32f4xx_ll_usb.c ****     
 4932              		.loc 1 1532 35 view .LVU1472
 4933 0098 BDF81820 		ldrh	r2, [sp, #24]
 4934 009c C2F30A02 		ubfx	r2, r2, #0, #11
1531:ThirdParty/STM32F4xx_HAL_Driver/Src/stm32f4xx_ll_usb.c ****                              (mps & USB_OTG_HCCHAR_MPSIZ));
 4935              		.loc 1 1531 71 view .LVU1473
 4936 00a0 1343     		orrs	r3, r3, r2
1527:ThirdParty/STM32F4xx_HAL_Driver/Src/stm32f4xx_ll_usb.c ****                              (((epnum & 0x7FU)<< 11U) & USB_OTG_HCCHAR_EPNUM)|\
 4937              		.loc 1 1527 27 view .LVU1474
 4938 00a2 CEF80035 		str	r3, [lr, #1280]
1534:ThirdParty/STM32F4xx_HAL_Driver/Src/stm32f4xx_ll_usb.c ****   {
 4939              		.loc 1 1534 3 is_stmt 1 view .LVU1475
1534:ThirdParty/STM32F4xx_HAL_Driver/Src/stm32f4xx_ll_usb.c ****   {
 4940              		.loc 1 1534 6 is_stmt 0 view .LVU1476
 4941 00a6 BCF1030F 		cmp	ip, #3
 4942 00aa 14D0     		beq	.L280
 4943              	.L274:
1539:ThirdParty/STM32F4xx_HAL_Driver/Src/stm32f4xx_ll_usb.c **** }
 4944              		.loc 1 1539 3 is_stmt 1 view .LVU1477
1540:ThirdParty/STM32F4xx_HAL_Driver/Src/stm32f4xx_ll_usb.c **** 
 4945              		.loc 1 1540 1 is_stmt 0 view .LVU1478
 4946 00ac 0020     		movs	r0, #0
 4947              	.LVL342:
1540:ThirdParty/STM32F4xx_HAL_Driver/Src/stm32f4xx_ll_usb.c **** 
 4948              		.loc 1 1540 1 view .LVU1479
 4949 00ae 70BD     		pop	{r4, r5, r6, pc}
ARM GAS  /tmp/ccCoVfPP.s 			page 138


 4950              	.LVL343:
 4951              	.L278:
1502:ThirdParty/STM32F4xx_HAL_Driver/Src/stm32f4xx_ll_usb.c ****     }
 4952              		.loc 1 1502 7 is_stmt 1 view .LVU1480
1502:ThirdParty/STM32F4xx_HAL_Driver/Src/stm32f4xx_ll_usb.c ****     }
 4953              		.loc 1 1502 33 is_stmt 0 view .LVU1481
 4954 00b0 E568     		ldr	r5, [r4, #12]
 4955 00b2 45F48075 		orr	r5, r5, #256
 4956 00b6 E560     		str	r5, [r4, #12]
 4957 00b8 CCE7     		b	.L267
 4958              	.L271:
1508:ThirdParty/STM32F4xx_HAL_Driver/Src/stm32f4xx_ll_usb.c ****                                 USB_OTG_HCINTMSK_ACKM   |\
 4959              		.loc 1 1508 5 is_stmt 1 view .LVU1482
1508:ThirdParty/STM32F4xx_HAL_Driver/Src/stm32f4xx_ll_usb.c ****                                 USB_OTG_HCINTMSK_ACKM   |\
 4960              		.loc 1 1508 31 is_stmt 0 view .LVU1483
 4961 00ba 40F22525 		movw	r5, #549
 4962 00be E560     		str	r5, [r4, #12]
1513:ThirdParty/STM32F4xx_HAL_Driver/Src/stm32f4xx_ll_usb.c ****     {
 4963              		.loc 1 1513 5 is_stmt 1 view .LVU1484
1513:ThirdParty/STM32F4xx_HAL_Driver/Src/stm32f4xx_ll_usb.c ****     {
 4964              		.loc 1 1513 8 is_stmt 0 view .LVU1485
 4965 00c0 12F0800F 		tst	r2, #128
 4966 00c4 C6D0     		beq	.L267
1515:ThirdParty/STM32F4xx_HAL_Driver/Src/stm32f4xx_ll_usb.c ****     }
 4967              		.loc 1 1515 7 is_stmt 1 view .LVU1486
1515:ThirdParty/STM32F4xx_HAL_Driver/Src/stm32f4xx_ll_usb.c ****     }
 4968              		.loc 1 1515 33 is_stmt 0 view .LVU1487
 4969 00c6 E568     		ldr	r5, [r4, #12]
 4970 00c8 45F4C075 		orr	r5, r5, #384
 4971 00cc E560     		str	r5, [r4, #12]
 4972 00ce C1E7     		b	.L267
 4973              	.LVL344:
 4974              	.L279:
1530:ThirdParty/STM32F4xx_HAL_Driver/Src/stm32f4xx_ll_usb.c ****                              ((ep_type << 18U) & USB_OTG_HCCHAR_EPTYP)|\
 4975              		.loc 1 1530 68 view .LVU1488
 4976 00d0 4FF40032 		mov	r2, #131072
 4977 00d4 DAE7     		b	.L273
 4978              	.L280:
1536:ThirdParty/STM32F4xx_HAL_Driver/Src/stm32f4xx_ll_usb.c ****   }
 4979              		.loc 1 1536 5 is_stmt 1 view .LVU1489
1536:ThirdParty/STM32F4xx_HAL_Driver/Src/stm32f4xx_ll_usb.c ****   }
 4980              		.loc 1 1536 29 is_stmt 0 view .LVU1490
 4981 00d6 DEF80035 		ldr	r3, [lr, #1280]
 4982 00da 43F00053 		orr	r3, r3, #536870912
 4983 00de CEF80035 		str	r3, [lr, #1280]
 4984 00e2 E3E7     		b	.L274
 4985              		.cfi_endproc
 4986              	.LFE172:
 4988              		.section	.bss.debug.0,"aw",%nobits
 4989              		.align	2
 4990              		.set	.LANCHOR0,. + 0
 4993              	debug.0:
 4994 0000 00000000 		.space	4
 4995              		.text
 4996              	.Letext0:
 4997              		.file 2 "/opt/gcc-arm-none-eabi/arm-none-eabi/include/machine/_default_types.h"
 4998              		.file 3 "/opt/gcc-arm-none-eabi/arm-none-eabi/include/sys/_stdint.h"
ARM GAS  /tmp/ccCoVfPP.s 			page 139


 4999              		.file 4 "ThirdParty/CMSIS/Include/cmsis_gcc.h"
 5000              		.file 5 "ThirdParty/CMSIS/Device/ST/STM32F4xx/Include/stm32f405xx.h"
 5001              		.file 6 "ThirdParty/CMSIS/Device/ST/STM32F4xx/Include/stm32f4xx.h"
 5002              		.file 7 "ThirdParty/STM32F4xx_HAL_Driver/Inc/stm32f4xx_hal_def.h"
 5003              		.file 8 "ThirdParty/STM32F4xx_HAL_Driver/Inc/stm32f4xx_ll_usb.h"
 5004              		.file 9 "ThirdParty/STM32F4xx_HAL_Driver/Inc/stm32f4xx_hal.h"
ARM GAS  /tmp/ccCoVfPP.s 			page 140


DEFINED SYMBOLS
                            *ABS*:0000000000000000 stm32f4xx_ll_usb.c
     /tmp/ccCoVfPP.s:20     .text.USB_HC_StartXfer:0000000000000000 $t
     /tmp/ccCoVfPP.s:26     .text.USB_HC_StartXfer:0000000000000000 USB_HC_StartXfer
     /tmp/ccCoVfPP.s:927    .text.USB_DoPing:0000000000000000 USB_DoPing
     /tmp/ccCoVfPP.s:426    .text.USB_HC_StartXfer:00000000000001e4 $d
     /tmp/ccCoVfPP.s:430    .text.USB_HC_StartXfer:00000000000001f4 $t
     /tmp/ccCoVfPP.s:3083   .text.USB_WritePacket:0000000000000000 USB_WritePacket
     /tmp/ccCoVfPP.s:546    .text.USB_HC_StartXfer:000000000000026c $d
     /tmp/ccCoVfPP.s:551    .text.USB_HC_ReadInterrupt:0000000000000000 $t
     /tmp/ccCoVfPP.s:557    .text.USB_HC_ReadInterrupt:0000000000000000 USB_HC_ReadInterrupt
     /tmp/ccCoVfPP.s:609    .text.USB_HC_Halt:0000000000000000 $t
     /tmp/ccCoVfPP.s:615    .text.USB_HC_Halt:0000000000000000 USB_HC_Halt
     /tmp/ccCoVfPP.s:921    .text.USB_DoPing:0000000000000000 $t
     /tmp/ccCoVfPP.s:1046   .text.USB_DoPing:0000000000000070 $d
     /tmp/ccCoVfPP.s:1051   .text.USB_StopHost:0000000000000000 $t
     /tmp/ccCoVfPP.s:1057   .text.USB_StopHost:0000000000000000 USB_StopHost
     /tmp/ccCoVfPP.s:1556   .text.USB_DisableGlobalInt:0000000000000000 USB_DisableGlobalInt
     /tmp/ccCoVfPP.s:1643   .text.USB_FlushTxFifo:0000000000000000 USB_FlushTxFifo
     /tmp/ccCoVfPP.s:1705   .text.USB_FlushRxFifo:0000000000000000 USB_FlushRxFifo
     /tmp/ccCoVfPP.s:1527   .text.USB_EnableGlobalInt:0000000000000000 USB_EnableGlobalInt
     /tmp/ccCoVfPP.s:1309   .text.USB_CoreReset:0000000000000000 $t
     /tmp/ccCoVfPP.s:1314   .text.USB_CoreReset:0000000000000000 USB_CoreReset
     /tmp/ccCoVfPP.s:1390   .text.USB_CoreReset:0000000000000038 $d
     /tmp/ccCoVfPP.s:1395   .text.USB_CoreInit:0000000000000000 $t
     /tmp/ccCoVfPP.s:1401   .text.USB_CoreInit:0000000000000000 USB_CoreInit
     /tmp/ccCoVfPP.s:1521   .text.USB_EnableGlobalInt:0000000000000000 $t
     /tmp/ccCoVfPP.s:1550   .text.USB_DisableGlobalInt:0000000000000000 $t
     /tmp/ccCoVfPP.s:1579   .text.USB_SetCurrentMode:0000000000000000 $t
     /tmp/ccCoVfPP.s:1585   .text.USB_SetCurrentMode:0000000000000000 USB_SetCurrentMode
     /tmp/ccCoVfPP.s:1637   .text.USB_FlushTxFifo:0000000000000000 $t
     /tmp/ccCoVfPP.s:1694   .text.USB_FlushTxFifo:0000000000000024 $d
     /tmp/ccCoVfPP.s:1699   .text.USB_FlushRxFifo:0000000000000000 $t
     /tmp/ccCoVfPP.s:1752   .text.USB_FlushRxFifo:0000000000000020 $d
     /tmp/ccCoVfPP.s:1757   .text.USB_SetDevSpeed:0000000000000000 $t
     /tmp/ccCoVfPP.s:1763   .text.USB_SetDevSpeed:0000000000000000 USB_SetDevSpeed
     /tmp/ccCoVfPP.s:1788   .text.USB_DevInit:0000000000000000 $t
     /tmp/ccCoVfPP.s:1794   .text.USB_DevInit:0000000000000000 USB_DevInit
     /tmp/ccCoVfPP.s:2094   .text.USB_DevInit:0000000000000144 $d
     /tmp/ccCoVfPP.s:2100   .text.USB_GetDevSpeed:0000000000000000 $t
     /tmp/ccCoVfPP.s:2106   .text.USB_GetDevSpeed:0000000000000000 USB_GetDevSpeed
     /tmp/ccCoVfPP.s:2174   .text.USB_ActivateEndpoint:0000000000000000 $t
     /tmp/ccCoVfPP.s:2180   .text.USB_ActivateEndpoint:0000000000000000 USB_ActivateEndpoint
     /tmp/ccCoVfPP.s:2289   .text.USB_ActivateDedicatedEndpoint:0000000000000000 $t
     /tmp/ccCoVfPP.s:2295   .text.USB_ActivateDedicatedEndpoint:0000000000000000 USB_ActivateDedicatedEndpoint
     /tmp/ccCoVfPP.s:2456   .text.USB_ActivateDedicatedEndpoint:00000000000000ec $d
     /tmp/ccCoVfPP.s:2461   .text.USB_DeactivateEndpoint:0000000000000000 $t
     /tmp/ccCoVfPP.s:2467   .text.USB_DeactivateEndpoint:0000000000000000 USB_DeactivateEndpoint
     /tmp/ccCoVfPP.s:2645   .text.USB_DeactivateEndpoint:00000000000000ec $d
     /tmp/ccCoVfPP.s:2650   .text.USB_DeactivateDedicatedEndpoint:0000000000000000 $t
     /tmp/ccCoVfPP.s:2656   .text.USB_DeactivateDedicatedEndpoint:0000000000000000 USB_DeactivateDedicatedEndpoint
     /tmp/ccCoVfPP.s:2834   .text.USB_DeactivateDedicatedEndpoint:00000000000000ec $d
     /tmp/ccCoVfPP.s:2839   .text.USB_EP0StartXfer:0000000000000000 $t
     /tmp/ccCoVfPP.s:2845   .text.USB_EP0StartXfer:0000000000000000 USB_EP0StartXfer
     /tmp/ccCoVfPP.s:3077   .text.USB_WritePacket:0000000000000000 $t
     /tmp/ccCoVfPP.s:3146   .text.USB_EPStartXfer:0000000000000000 $t
     /tmp/ccCoVfPP.s:3152   .text.USB_EPStartXfer:0000000000000000 USB_EPStartXfer
ARM GAS  /tmp/ccCoVfPP.s 			page 141


     /tmp/ccCoVfPP.s:3530   .text.USB_EPStartXfer:0000000000000260 $d
     /tmp/ccCoVfPP.s:3535   .text.USB_ReadPacket:0000000000000000 $t
     /tmp/ccCoVfPP.s:3541   .text.USB_ReadPacket:0000000000000000 USB_ReadPacket
     /tmp/ccCoVfPP.s:3589   .text.USB_EPSetStall:0000000000000000 $t
     /tmp/ccCoVfPP.s:3595   .text.USB_EPSetStall:0000000000000000 USB_EPSetStall
     /tmp/ccCoVfPP.s:3669   .text.USB_EPClearStall:0000000000000000 $t
     /tmp/ccCoVfPP.s:3675   .text.USB_EPClearStall:0000000000000000 USB_EPClearStall
     /tmp/ccCoVfPP.s:3755   .text.USB_StopDevice:0000000000000000 $t
     /tmp/ccCoVfPP.s:3761   .text.USB_StopDevice:0000000000000000 USB_StopDevice
     /tmp/ccCoVfPP.s:3839   .text.USB_SetDevAddress:0000000000000000 $t
     /tmp/ccCoVfPP.s:3845   .text.USB_SetDevAddress:0000000000000000 USB_SetDevAddress
     /tmp/ccCoVfPP.s:3879   .text.USB_DevConnect:0000000000000000 $t
     /tmp/ccCoVfPP.s:3885   .text.USB_DevConnect:0000000000000000 USB_DevConnect
     /tmp/ccCoVfPP.s:3917   .text.USB_DevDisconnect:0000000000000000 $t
     /tmp/ccCoVfPP.s:3923   .text.USB_DevDisconnect:0000000000000000 USB_DevDisconnect
     /tmp/ccCoVfPP.s:3955   .text.USB_ReadInterrupts:0000000000000000 $t
     /tmp/ccCoVfPP.s:3961   .text.USB_ReadInterrupts:0000000000000000 USB_ReadInterrupts
     /tmp/ccCoVfPP.s:3988   .text.USB_ReadDevAllOutEpInterrupt:0000000000000000 $t
     /tmp/ccCoVfPP.s:3994   .text.USB_ReadDevAllOutEpInterrupt:0000000000000000 USB_ReadDevAllOutEpInterrupt
     /tmp/ccCoVfPP.s:4026   .text.USB_ReadDevAllInEpInterrupt:0000000000000000 $t
     /tmp/ccCoVfPP.s:4032   .text.USB_ReadDevAllInEpInterrupt:0000000000000000 USB_ReadDevAllInEpInterrupt
     /tmp/ccCoVfPP.s:4064   .text.USB_ReadDevOutEPInterrupt:0000000000000000 $t
     /tmp/ccCoVfPP.s:4070   .text.USB_ReadDevOutEPInterrupt:0000000000000000 USB_ReadDevOutEPInterrupt
     /tmp/ccCoVfPP.s:4103   .text.USB_ReadDevInEPInterrupt:0000000000000000 $t
     /tmp/ccCoVfPP.s:4109   .text.USB_ReadDevInEPInterrupt:0000000000000000 USB_ReadDevInEPInterrupt
     /tmp/ccCoVfPP.s:4164   .text.USB_ClearInterrupts:0000000000000000 $t
     /tmp/ccCoVfPP.s:4170   .text.USB_ClearInterrupts:0000000000000000 USB_ClearInterrupts
     /tmp/ccCoVfPP.s:4189   .text.USB_GetMode:0000000000000000 $t
     /tmp/ccCoVfPP.s:4195   .text.USB_GetMode:0000000000000000 USB_GetMode
     /tmp/ccCoVfPP.s:4214   .text.USB_ActivateSetup:0000000000000000 $t
     /tmp/ccCoVfPP.s:4220   .text.USB_ActivateSetup:0000000000000000 USB_ActivateSetup
     /tmp/ccCoVfPP.s:4268   .text.USB_EP0_OutStart:0000000000000000 $t
     /tmp/ccCoVfPP.s:4274   .text.USB_EP0_OutStart:0000000000000000 USB_EP0_OutStart
     /tmp/ccCoVfPP.s:4338   .text.USB_InitFSLSPClkSel:0000000000000000 $t
     /tmp/ccCoVfPP.s:4344   .text.USB_InitFSLSPClkSel:0000000000000000 USB_InitFSLSPClkSel
     /tmp/ccCoVfPP.s:4398   .text.USB_ResetPort:0000000000000000 $t
     /tmp/ccCoVfPP.s:4404   .text.USB_ResetPort:0000000000000000 USB_ResetPort
     /tmp/ccCoVfPP.s:4463   .text.USB_DriveVbus:0000000000000000 $t
     /tmp/ccCoVfPP.s:4469   .text.USB_DriveVbus:0000000000000000 USB_DriveVbus
     /tmp/ccCoVfPP.s:4543   .text.USB_HostInit:0000000000000000 $t
     /tmp/ccCoVfPP.s:4549   .text.USB_HostInit:0000000000000000 USB_HostInit
     /tmp/ccCoVfPP.s:4736   .text.USB_HostInit:00000000000000dc $d
     /tmp/ccCoVfPP.s:4743   .text.USB_GetHostSpeed:0000000000000000 $t
     /tmp/ccCoVfPP.s:4749   .text.USB_GetHostSpeed:0000000000000000 USB_GetHostSpeed
     /tmp/ccCoVfPP.s:4782   .text.USB_GetCurrentFrame:0000000000000000 $t
     /tmp/ccCoVfPP.s:4788   .text.USB_GetCurrentFrame:0000000000000000 USB_GetCurrentFrame
     /tmp/ccCoVfPP.s:4810   .text.USB_HC_Init:0000000000000000 $t
     /tmp/ccCoVfPP.s:4816   .text.USB_HC_Init:0000000000000000 USB_HC_Init
     /tmp/ccCoVfPP.s:4843   .text.USB_HC_Init:000000000000001e $d
     /tmp/ccCoVfPP.s:4847   .text.USB_HC_Init:0000000000000022 $t
     /tmp/ccCoVfPP.s:4989   .bss.debug.0:0000000000000000 $d
     /tmp/ccCoVfPP.s:4993   .bss.debug.0:0000000000000000 debug.0

UNDEFINED SYMBOLS
HAL_Delay
