ARM GAS  /tmp/cc6fvD8U.s 			page 1


   1              		.cpu cortex-m4
   2              		.arch armv7e-m
   3              		.fpu fpv4-sp-d16
   4              		.eabi_attribute 27, 1
   5              		.eabi_attribute 28, 1
   6              		.eabi_attribute 20, 1
   7              		.eabi_attribute 21, 1
   8              		.eabi_attribute 23, 3
   9              		.eabi_attribute 24, 1
  10              		.eabi_attribute 25, 1
  11              		.eabi_attribute 26, 1
  12              		.eabi_attribute 30, 1
  13              		.eabi_attribute 34, 1
  14              		.eabi_attribute 18, 4
  15              		.file	"stm32f4xx_hal_can.c"
  16              		.text
  17              	.Ltext0:
  18              		.cfi_sections	.debug_frame
  19              		.section	.text.HAL_CAN_MspInit,"ax",%progbits
  20              		.align	1
  21              		.weak	HAL_CAN_MspInit
  22              		.syntax unified
  23              		.thumb
  24              		.thumb_func
  26              	HAL_CAN_MspInit:
  27              	.LVL0:
  28              	.LFB135:
  29              		.file 1 "ThirdParty/STM32F4xx_HAL_Driver/Src/stm32f4xx_hal_can.c"
   1:ThirdParty/STM32F4xx_HAL_Driver/Src/stm32f4xx_hal_can.c **** /**
   2:ThirdParty/STM32F4xx_HAL_Driver/Src/stm32f4xx_hal_can.c ****   ******************************************************************************
   3:ThirdParty/STM32F4xx_HAL_Driver/Src/stm32f4xx_hal_can.c ****   * @file    stm32f4xx_hal_can.c
   4:ThirdParty/STM32F4xx_HAL_Driver/Src/stm32f4xx_hal_can.c ****   * @author  MCD Application Team
   5:ThirdParty/STM32F4xx_HAL_Driver/Src/stm32f4xx_hal_can.c ****   * @brief   CAN HAL module driver.
   6:ThirdParty/STM32F4xx_HAL_Driver/Src/stm32f4xx_hal_can.c ****   *          This file provides firmware functions to manage the following
   7:ThirdParty/STM32F4xx_HAL_Driver/Src/stm32f4xx_hal_can.c ****   *          functionalities of the Controller Area Network (CAN) peripheral:
   8:ThirdParty/STM32F4xx_HAL_Driver/Src/stm32f4xx_hal_can.c ****   *           + Initialization and de-initialization functions
   9:ThirdParty/STM32F4xx_HAL_Driver/Src/stm32f4xx_hal_can.c ****   *           + Configuration functions
  10:ThirdParty/STM32F4xx_HAL_Driver/Src/stm32f4xx_hal_can.c ****   *           + Control functions
  11:ThirdParty/STM32F4xx_HAL_Driver/Src/stm32f4xx_hal_can.c ****   *           + Interrupts management
  12:ThirdParty/STM32F4xx_HAL_Driver/Src/stm32f4xx_hal_can.c ****   *           + Callbacks functions
  13:ThirdParty/STM32F4xx_HAL_Driver/Src/stm32f4xx_hal_can.c ****   *           + Peripheral State and Error functions
  14:ThirdParty/STM32F4xx_HAL_Driver/Src/stm32f4xx_hal_can.c ****   *
  15:ThirdParty/STM32F4xx_HAL_Driver/Src/stm32f4xx_hal_can.c ****   @verbatim
  16:ThirdParty/STM32F4xx_HAL_Driver/Src/stm32f4xx_hal_can.c ****   ==============================================================================
  17:ThirdParty/STM32F4xx_HAL_Driver/Src/stm32f4xx_hal_can.c ****                         ##### How to use this driver #####
  18:ThirdParty/STM32F4xx_HAL_Driver/Src/stm32f4xx_hal_can.c ****   ==============================================================================
  19:ThirdParty/STM32F4xx_HAL_Driver/Src/stm32f4xx_hal_can.c ****     [..]
  20:ThirdParty/STM32F4xx_HAL_Driver/Src/stm32f4xx_hal_can.c ****       (#) Initialize the CAN low level resources by implementing the
  21:ThirdParty/STM32F4xx_HAL_Driver/Src/stm32f4xx_hal_can.c ****           HAL_CAN_MspInit():
  22:ThirdParty/STM32F4xx_HAL_Driver/Src/stm32f4xx_hal_can.c ****          (++) Enable the CAN interface clock using __HAL_RCC_CANx_CLK_ENABLE()
  23:ThirdParty/STM32F4xx_HAL_Driver/Src/stm32f4xx_hal_can.c ****          (++) Configure CAN pins
  24:ThirdParty/STM32F4xx_HAL_Driver/Src/stm32f4xx_hal_can.c ****              (+++) Enable the clock for the CAN GPIOs
  25:ThirdParty/STM32F4xx_HAL_Driver/Src/stm32f4xx_hal_can.c ****              (+++) Configure CAN pins as alternate function open-drain
  26:ThirdParty/STM32F4xx_HAL_Driver/Src/stm32f4xx_hal_can.c ****          (++) In case of using interrupts (e.g. HAL_CAN_ActivateNotification())
  27:ThirdParty/STM32F4xx_HAL_Driver/Src/stm32f4xx_hal_can.c ****              (+++) Configure the CAN interrupt priority using
  28:ThirdParty/STM32F4xx_HAL_Driver/Src/stm32f4xx_hal_can.c ****                    HAL_NVIC_SetPriority()
  29:ThirdParty/STM32F4xx_HAL_Driver/Src/stm32f4xx_hal_can.c ****              (+++) Enable the CAN IRQ handler using HAL_NVIC_EnableIRQ()
ARM GAS  /tmp/cc6fvD8U.s 			page 2


  30:ThirdParty/STM32F4xx_HAL_Driver/Src/stm32f4xx_hal_can.c ****              (+++) In CAN IRQ handler, call HAL_CAN_IRQHandler()
  31:ThirdParty/STM32F4xx_HAL_Driver/Src/stm32f4xx_hal_can.c **** 
  32:ThirdParty/STM32F4xx_HAL_Driver/Src/stm32f4xx_hal_can.c ****       (#) Initialize the CAN peripheral using HAL_CAN_Init() function. This
  33:ThirdParty/STM32F4xx_HAL_Driver/Src/stm32f4xx_hal_can.c ****           function resorts to HAL_CAN_MspInit() for low-level initialization.
  34:ThirdParty/STM32F4xx_HAL_Driver/Src/stm32f4xx_hal_can.c **** 
  35:ThirdParty/STM32F4xx_HAL_Driver/Src/stm32f4xx_hal_can.c ****       (#) Configure the reception filters using the following configuration
  36:ThirdParty/STM32F4xx_HAL_Driver/Src/stm32f4xx_hal_can.c ****           functions:
  37:ThirdParty/STM32F4xx_HAL_Driver/Src/stm32f4xx_hal_can.c ****             (++) HAL_CAN_ConfigFilter()
  38:ThirdParty/STM32F4xx_HAL_Driver/Src/stm32f4xx_hal_can.c **** 
  39:ThirdParty/STM32F4xx_HAL_Driver/Src/stm32f4xx_hal_can.c ****       (#) Start the CAN module using HAL_CAN_Start() function. At this level
  40:ThirdParty/STM32F4xx_HAL_Driver/Src/stm32f4xx_hal_can.c ****           the node is active on the bus: it receive messages, and can send
  41:ThirdParty/STM32F4xx_HAL_Driver/Src/stm32f4xx_hal_can.c ****           messages.
  42:ThirdParty/STM32F4xx_HAL_Driver/Src/stm32f4xx_hal_can.c **** 
  43:ThirdParty/STM32F4xx_HAL_Driver/Src/stm32f4xx_hal_can.c ****       (#) To manage messages transmission, the following Tx control functions
  44:ThirdParty/STM32F4xx_HAL_Driver/Src/stm32f4xx_hal_can.c ****           can be used:
  45:ThirdParty/STM32F4xx_HAL_Driver/Src/stm32f4xx_hal_can.c ****             (++) HAL_CAN_AddTxMessage() to request transmission of a new
  46:ThirdParty/STM32F4xx_HAL_Driver/Src/stm32f4xx_hal_can.c ****                  message.
  47:ThirdParty/STM32F4xx_HAL_Driver/Src/stm32f4xx_hal_can.c ****             (++) HAL_CAN_AbortTxRequest() to abort transmission of a pending
  48:ThirdParty/STM32F4xx_HAL_Driver/Src/stm32f4xx_hal_can.c ****                  message.
  49:ThirdParty/STM32F4xx_HAL_Driver/Src/stm32f4xx_hal_can.c ****             (++) HAL_CAN_GetTxMailboxesFreeLevel() to get the number of free Tx
  50:ThirdParty/STM32F4xx_HAL_Driver/Src/stm32f4xx_hal_can.c ****                  mailboxes.
  51:ThirdParty/STM32F4xx_HAL_Driver/Src/stm32f4xx_hal_can.c ****             (++) HAL_CAN_IsTxMessagePending() to check if a message is pending
  52:ThirdParty/STM32F4xx_HAL_Driver/Src/stm32f4xx_hal_can.c ****                  in a Tx mailbox.
  53:ThirdParty/STM32F4xx_HAL_Driver/Src/stm32f4xx_hal_can.c ****             (++) HAL_CAN_GetTxTimestamp() to get the timestamp of Tx message
  54:ThirdParty/STM32F4xx_HAL_Driver/Src/stm32f4xx_hal_can.c ****                  sent, if time triggered communication mode is enabled.
  55:ThirdParty/STM32F4xx_HAL_Driver/Src/stm32f4xx_hal_can.c **** 
  56:ThirdParty/STM32F4xx_HAL_Driver/Src/stm32f4xx_hal_can.c ****       (#) When a message is received into the CAN Rx FIFOs, it can be retrieved
  57:ThirdParty/STM32F4xx_HAL_Driver/Src/stm32f4xx_hal_can.c ****           using the HAL_CAN_GetRxMessage() function. The function
  58:ThirdParty/STM32F4xx_HAL_Driver/Src/stm32f4xx_hal_can.c ****           HAL_CAN_GetRxFifoFillLevel() allows to know how many Rx message are
  59:ThirdParty/STM32F4xx_HAL_Driver/Src/stm32f4xx_hal_can.c ****           stored in the Rx Fifo.
  60:ThirdParty/STM32F4xx_HAL_Driver/Src/stm32f4xx_hal_can.c **** 
  61:ThirdParty/STM32F4xx_HAL_Driver/Src/stm32f4xx_hal_can.c ****       (#) Calling the HAL_CAN_Stop() function stops the CAN module.
  62:ThirdParty/STM32F4xx_HAL_Driver/Src/stm32f4xx_hal_can.c **** 
  63:ThirdParty/STM32F4xx_HAL_Driver/Src/stm32f4xx_hal_can.c ****       (#) The deinitialization is achieved with HAL_CAN_DeInit() function.
  64:ThirdParty/STM32F4xx_HAL_Driver/Src/stm32f4xx_hal_can.c **** 
  65:ThirdParty/STM32F4xx_HAL_Driver/Src/stm32f4xx_hal_can.c **** 
  66:ThirdParty/STM32F4xx_HAL_Driver/Src/stm32f4xx_hal_can.c ****       *** Polling mode operation ***
  67:ThirdParty/STM32F4xx_HAL_Driver/Src/stm32f4xx_hal_can.c ****       ==============================
  68:ThirdParty/STM32F4xx_HAL_Driver/Src/stm32f4xx_hal_can.c ****     [..]
  69:ThirdParty/STM32F4xx_HAL_Driver/Src/stm32f4xx_hal_can.c ****       (#) Reception:
  70:ThirdParty/STM32F4xx_HAL_Driver/Src/stm32f4xx_hal_can.c ****             (++) Monitor reception of message using HAL_CAN_GetRxFifoFillLevel()
  71:ThirdParty/STM32F4xx_HAL_Driver/Src/stm32f4xx_hal_can.c ****                  until at least one message is received.
  72:ThirdParty/STM32F4xx_HAL_Driver/Src/stm32f4xx_hal_can.c ****             (++) Then get the message using HAL_CAN_GetRxMessage().
  73:ThirdParty/STM32F4xx_HAL_Driver/Src/stm32f4xx_hal_can.c **** 
  74:ThirdParty/STM32F4xx_HAL_Driver/Src/stm32f4xx_hal_can.c ****       (#) Transmission:
  75:ThirdParty/STM32F4xx_HAL_Driver/Src/stm32f4xx_hal_can.c ****             (++) Monitor the Tx mailboxes availability until at least one Tx
  76:ThirdParty/STM32F4xx_HAL_Driver/Src/stm32f4xx_hal_can.c ****                  mailbox is free, using HAL_CAN_GetTxMailboxesFreeLevel().
  77:ThirdParty/STM32F4xx_HAL_Driver/Src/stm32f4xx_hal_can.c ****             (++) Then request transmission of a message using
  78:ThirdParty/STM32F4xx_HAL_Driver/Src/stm32f4xx_hal_can.c ****                  HAL_CAN_AddTxMessage().
  79:ThirdParty/STM32F4xx_HAL_Driver/Src/stm32f4xx_hal_can.c **** 
  80:ThirdParty/STM32F4xx_HAL_Driver/Src/stm32f4xx_hal_can.c **** 
  81:ThirdParty/STM32F4xx_HAL_Driver/Src/stm32f4xx_hal_can.c ****       *** Interrupt mode operation ***
  82:ThirdParty/STM32F4xx_HAL_Driver/Src/stm32f4xx_hal_can.c ****       ================================
  83:ThirdParty/STM32F4xx_HAL_Driver/Src/stm32f4xx_hal_can.c ****     [..]
  84:ThirdParty/STM32F4xx_HAL_Driver/Src/stm32f4xx_hal_can.c ****       (#) Notifications are activated using HAL_CAN_ActivateNotification()
  85:ThirdParty/STM32F4xx_HAL_Driver/Src/stm32f4xx_hal_can.c ****           function. Then, the process can be controlled through the
  86:ThirdParty/STM32F4xx_HAL_Driver/Src/stm32f4xx_hal_can.c ****           available user callbacks: HAL_CAN_xxxCallback(), using same APIs
ARM GAS  /tmp/cc6fvD8U.s 			page 3


  87:ThirdParty/STM32F4xx_HAL_Driver/Src/stm32f4xx_hal_can.c ****           HAL_CAN_GetRxMessage() and HAL_CAN_AddTxMessage().
  88:ThirdParty/STM32F4xx_HAL_Driver/Src/stm32f4xx_hal_can.c **** 
  89:ThirdParty/STM32F4xx_HAL_Driver/Src/stm32f4xx_hal_can.c ****       (#) Notifications can be deactivated using
  90:ThirdParty/STM32F4xx_HAL_Driver/Src/stm32f4xx_hal_can.c ****           HAL_CAN_DeactivateNotification() function.
  91:ThirdParty/STM32F4xx_HAL_Driver/Src/stm32f4xx_hal_can.c **** 
  92:ThirdParty/STM32F4xx_HAL_Driver/Src/stm32f4xx_hal_can.c ****       (#) Special care should be taken for CAN_IT_RX_FIFO0_MSG_PENDING and
  93:ThirdParty/STM32F4xx_HAL_Driver/Src/stm32f4xx_hal_can.c ****           CAN_IT_RX_FIFO1_MSG_PENDING notifications. These notifications trig
  94:ThirdParty/STM32F4xx_HAL_Driver/Src/stm32f4xx_hal_can.c ****           the callbacks HAL_CAN_RxFIFO0MsgPendingCallback() and
  95:ThirdParty/STM32F4xx_HAL_Driver/Src/stm32f4xx_hal_can.c ****           HAL_CAN_RxFIFO1MsgPendingCallback(). User has two possible options
  96:ThirdParty/STM32F4xx_HAL_Driver/Src/stm32f4xx_hal_can.c ****           here.
  97:ThirdParty/STM32F4xx_HAL_Driver/Src/stm32f4xx_hal_can.c ****             (++) Directly get the Rx message in the callback, using
  98:ThirdParty/STM32F4xx_HAL_Driver/Src/stm32f4xx_hal_can.c ****                  HAL_CAN_GetRxMessage().
  99:ThirdParty/STM32F4xx_HAL_Driver/Src/stm32f4xx_hal_can.c ****             (++) Or deactivate the notification in the callback without
 100:ThirdParty/STM32F4xx_HAL_Driver/Src/stm32f4xx_hal_can.c ****                  getting the Rx message. The Rx message can then be got later
 101:ThirdParty/STM32F4xx_HAL_Driver/Src/stm32f4xx_hal_can.c ****                  using HAL_CAN_GetRxMessage(). Once the Rx message have been
 102:ThirdParty/STM32F4xx_HAL_Driver/Src/stm32f4xx_hal_can.c ****                  read, the notification can be activated again.
 103:ThirdParty/STM32F4xx_HAL_Driver/Src/stm32f4xx_hal_can.c **** 
 104:ThirdParty/STM32F4xx_HAL_Driver/Src/stm32f4xx_hal_can.c **** 
 105:ThirdParty/STM32F4xx_HAL_Driver/Src/stm32f4xx_hal_can.c ****       *** Sleep mode ***
 106:ThirdParty/STM32F4xx_HAL_Driver/Src/stm32f4xx_hal_can.c ****       ==================
 107:ThirdParty/STM32F4xx_HAL_Driver/Src/stm32f4xx_hal_can.c ****     [..]
 108:ThirdParty/STM32F4xx_HAL_Driver/Src/stm32f4xx_hal_can.c ****       (#) The CAN peripheral can be put in sleep mode (low power), using
 109:ThirdParty/STM32F4xx_HAL_Driver/Src/stm32f4xx_hal_can.c ****           HAL_CAN_RequestSleep(). The sleep mode will be entered as soon as the
 110:ThirdParty/STM32F4xx_HAL_Driver/Src/stm32f4xx_hal_can.c ****           current CAN activity (transmission or reception of a CAN frame) will
 111:ThirdParty/STM32F4xx_HAL_Driver/Src/stm32f4xx_hal_can.c ****           be completed.
 112:ThirdParty/STM32F4xx_HAL_Driver/Src/stm32f4xx_hal_can.c **** 
 113:ThirdParty/STM32F4xx_HAL_Driver/Src/stm32f4xx_hal_can.c ****       (#) A notification can be activated to be informed when the sleep mode
 114:ThirdParty/STM32F4xx_HAL_Driver/Src/stm32f4xx_hal_can.c ****           will be entered.
 115:ThirdParty/STM32F4xx_HAL_Driver/Src/stm32f4xx_hal_can.c **** 
 116:ThirdParty/STM32F4xx_HAL_Driver/Src/stm32f4xx_hal_can.c ****       (#) It can be checked if the sleep mode is entered using
 117:ThirdParty/STM32F4xx_HAL_Driver/Src/stm32f4xx_hal_can.c ****           HAL_CAN_IsSleepActive().
 118:ThirdParty/STM32F4xx_HAL_Driver/Src/stm32f4xx_hal_can.c ****           Note that the CAN state (accessible from the API HAL_CAN_GetState())
 119:ThirdParty/STM32F4xx_HAL_Driver/Src/stm32f4xx_hal_can.c ****           is HAL_CAN_STATE_SLEEP_PENDING as soon as the sleep mode request is
 120:ThirdParty/STM32F4xx_HAL_Driver/Src/stm32f4xx_hal_can.c ****           submitted (the sleep mode is not yet entered), and become
 121:ThirdParty/STM32F4xx_HAL_Driver/Src/stm32f4xx_hal_can.c ****           HAL_CAN_STATE_SLEEP_ACTIVE when the sleep mode is effective.
 122:ThirdParty/STM32F4xx_HAL_Driver/Src/stm32f4xx_hal_can.c **** 
 123:ThirdParty/STM32F4xx_HAL_Driver/Src/stm32f4xx_hal_can.c ****       (#) The wake-up from sleep mode can be trigged by two ways:
 124:ThirdParty/STM32F4xx_HAL_Driver/Src/stm32f4xx_hal_can.c ****             (++) Using HAL_CAN_WakeUp(). When returning from this function,
 125:ThirdParty/STM32F4xx_HAL_Driver/Src/stm32f4xx_hal_can.c ****                  the sleep mode is exited (if return status is HAL_OK).
 126:ThirdParty/STM32F4xx_HAL_Driver/Src/stm32f4xx_hal_can.c ****             (++) When a start of Rx CAN frame is detected by the CAN peripheral,
 127:ThirdParty/STM32F4xx_HAL_Driver/Src/stm32f4xx_hal_can.c ****                  if automatic wake up mode is enabled.
 128:ThirdParty/STM32F4xx_HAL_Driver/Src/stm32f4xx_hal_can.c **** 
 129:ThirdParty/STM32F4xx_HAL_Driver/Src/stm32f4xx_hal_can.c ****   @endverbatim
 130:ThirdParty/STM32F4xx_HAL_Driver/Src/stm32f4xx_hal_can.c ****   ******************************************************************************
 131:ThirdParty/STM32F4xx_HAL_Driver/Src/stm32f4xx_hal_can.c ****   * @attention
 132:ThirdParty/STM32F4xx_HAL_Driver/Src/stm32f4xx_hal_can.c ****   *
 133:ThirdParty/STM32F4xx_HAL_Driver/Src/stm32f4xx_hal_can.c ****   * <h2><center>&copy; COPYRIGHT(c) 2016 STMicroelectronics</center></h2>
 134:ThirdParty/STM32F4xx_HAL_Driver/Src/stm32f4xx_hal_can.c ****   *
 135:ThirdParty/STM32F4xx_HAL_Driver/Src/stm32f4xx_hal_can.c ****   * Redistribution and use in source and binary forms, with or without modification,
 136:ThirdParty/STM32F4xx_HAL_Driver/Src/stm32f4xx_hal_can.c ****   * are permitted provided that the following conditions are met:
 137:ThirdParty/STM32F4xx_HAL_Driver/Src/stm32f4xx_hal_can.c ****   *   1. Redistributions of source code must retain the above copyright notice,
 138:ThirdParty/STM32F4xx_HAL_Driver/Src/stm32f4xx_hal_can.c ****   *      this list of conditions and the following disclaimer.
 139:ThirdParty/STM32F4xx_HAL_Driver/Src/stm32f4xx_hal_can.c ****   *   2. Redistributions in binary form must reproduce the above copyright notice,
 140:ThirdParty/STM32F4xx_HAL_Driver/Src/stm32f4xx_hal_can.c ****   *      this list of conditions and the following disclaimer in the documentation
 141:ThirdParty/STM32F4xx_HAL_Driver/Src/stm32f4xx_hal_can.c ****   *      and/or other materials provided with the distribution.
 142:ThirdParty/STM32F4xx_HAL_Driver/Src/stm32f4xx_hal_can.c ****   *   3. Neither the name of STMicroelectronics nor the names of its contributors
 143:ThirdParty/STM32F4xx_HAL_Driver/Src/stm32f4xx_hal_can.c ****   *      may be used to endorse or promote products derived from this software
ARM GAS  /tmp/cc6fvD8U.s 			page 4


 144:ThirdParty/STM32F4xx_HAL_Driver/Src/stm32f4xx_hal_can.c ****   *      without specific prior written permission.
 145:ThirdParty/STM32F4xx_HAL_Driver/Src/stm32f4xx_hal_can.c ****   *
 146:ThirdParty/STM32F4xx_HAL_Driver/Src/stm32f4xx_hal_can.c ****   * THIS SOFTWARE IS PROVIDED BY THE COPYRIGHT HOLDERS AND CONTRIBUTORS "AS IS"
 147:ThirdParty/STM32F4xx_HAL_Driver/Src/stm32f4xx_hal_can.c ****   * AND ANY EXPRESS OR IMPLIED WARRANTIES, INCLUDING, BUT NOT LIMITED TO, THE
 148:ThirdParty/STM32F4xx_HAL_Driver/Src/stm32f4xx_hal_can.c ****   * IMPLIED WARRANTIES OF MERCHANTABILITY AND FITNESS FOR A PARTICULAR PURPOSE ARE
 149:ThirdParty/STM32F4xx_HAL_Driver/Src/stm32f4xx_hal_can.c ****   * DISCLAIMED. IN NO EVENT SHALL THE COPYRIGHT HOLDER OR CONTRIBUTORS BE LIABLE
 150:ThirdParty/STM32F4xx_HAL_Driver/Src/stm32f4xx_hal_can.c ****   * FOR ANY DIRECT, INDIRECT, INCIDENTAL, SPECIAL, EXEMPLARY, OR CONSEQUENTIAL
 151:ThirdParty/STM32F4xx_HAL_Driver/Src/stm32f4xx_hal_can.c ****   * DAMAGES (INCLUDING, BUT NOT LIMITED TO, PROCUREMENT OF SUBSTITUTE GOODS OR
 152:ThirdParty/STM32F4xx_HAL_Driver/Src/stm32f4xx_hal_can.c ****   * SERVICES; LOSS OF USE, DATA, OR PROFITS; OR BUSINESS INTERRUPTION) HOWEVER
 153:ThirdParty/STM32F4xx_HAL_Driver/Src/stm32f4xx_hal_can.c ****   * CAUSED AND ON ANY THEORY OF LIABILITY, WHETHER IN CONTRACT, STRICT LIABILITY,
 154:ThirdParty/STM32F4xx_HAL_Driver/Src/stm32f4xx_hal_can.c ****   * OR TORT (INCLUDING NEGLIGENCE OR OTHERWISE) ARISING IN ANY WAY OUT OF THE USE
 155:ThirdParty/STM32F4xx_HAL_Driver/Src/stm32f4xx_hal_can.c ****   * OF THIS SOFTWARE, EVEN IF ADVISED OF THE POSSIBILITY OF SUCH DAMAGE.
 156:ThirdParty/STM32F4xx_HAL_Driver/Src/stm32f4xx_hal_can.c ****   *
 157:ThirdParty/STM32F4xx_HAL_Driver/Src/stm32f4xx_hal_can.c ****   ******************************************************************************
 158:ThirdParty/STM32F4xx_HAL_Driver/Src/stm32f4xx_hal_can.c ****   */
 159:ThirdParty/STM32F4xx_HAL_Driver/Src/stm32f4xx_hal_can.c **** 
 160:ThirdParty/STM32F4xx_HAL_Driver/Src/stm32f4xx_hal_can.c **** /* Includes ------------------------------------------------------------------*/
 161:ThirdParty/STM32F4xx_HAL_Driver/Src/stm32f4xx_hal_can.c **** #include "stm32f4xx_hal.h"
 162:ThirdParty/STM32F4xx_HAL_Driver/Src/stm32f4xx_hal_can.c **** 
 163:ThirdParty/STM32F4xx_HAL_Driver/Src/stm32f4xx_hal_can.c **** /** @addtogroup STM32F4xx_HAL_Driver
 164:ThirdParty/STM32F4xx_HAL_Driver/Src/stm32f4xx_hal_can.c ****   * @{
 165:ThirdParty/STM32F4xx_HAL_Driver/Src/stm32f4xx_hal_can.c ****   */
 166:ThirdParty/STM32F4xx_HAL_Driver/Src/stm32f4xx_hal_can.c **** 
 167:ThirdParty/STM32F4xx_HAL_Driver/Src/stm32f4xx_hal_can.c **** #if defined(CAN1)
 168:ThirdParty/STM32F4xx_HAL_Driver/Src/stm32f4xx_hal_can.c **** 
 169:ThirdParty/STM32F4xx_HAL_Driver/Src/stm32f4xx_hal_can.c **** /** @defgroup CAN CAN
 170:ThirdParty/STM32F4xx_HAL_Driver/Src/stm32f4xx_hal_can.c ****   * @brief CAN driver modules
 171:ThirdParty/STM32F4xx_HAL_Driver/Src/stm32f4xx_hal_can.c ****   * @{
 172:ThirdParty/STM32F4xx_HAL_Driver/Src/stm32f4xx_hal_can.c ****   */
 173:ThirdParty/STM32F4xx_HAL_Driver/Src/stm32f4xx_hal_can.c **** 
 174:ThirdParty/STM32F4xx_HAL_Driver/Src/stm32f4xx_hal_can.c **** #ifdef HAL_CAN_MODULE_ENABLED
 175:ThirdParty/STM32F4xx_HAL_Driver/Src/stm32f4xx_hal_can.c **** 
 176:ThirdParty/STM32F4xx_HAL_Driver/Src/stm32f4xx_hal_can.c **** #ifdef HAL_CAN_LEGACY_MODULE_ENABLED
 177:ThirdParty/STM32F4xx_HAL_Driver/Src/stm32f4xx_hal_can.c ****   #error "The CAN driver cannot be used with its legacy, Please enable only one CAN module at once"
 178:ThirdParty/STM32F4xx_HAL_Driver/Src/stm32f4xx_hal_can.c **** #endif
 179:ThirdParty/STM32F4xx_HAL_Driver/Src/stm32f4xx_hal_can.c **** 
 180:ThirdParty/STM32F4xx_HAL_Driver/Src/stm32f4xx_hal_can.c **** /* Private typedef -----------------------------------------------------------*/
 181:ThirdParty/STM32F4xx_HAL_Driver/Src/stm32f4xx_hal_can.c **** /* Private define ------------------------------------------------------------*/
 182:ThirdParty/STM32F4xx_HAL_Driver/Src/stm32f4xx_hal_can.c **** /** @defgroup CAN_Private_Constants CAN Private Constants
 183:ThirdParty/STM32F4xx_HAL_Driver/Src/stm32f4xx_hal_can.c ****   * @{
 184:ThirdParty/STM32F4xx_HAL_Driver/Src/stm32f4xx_hal_can.c ****   */
 185:ThirdParty/STM32F4xx_HAL_Driver/Src/stm32f4xx_hal_can.c **** #define CAN_TIMEOUT_VALUE 10U
 186:ThirdParty/STM32F4xx_HAL_Driver/Src/stm32f4xx_hal_can.c **** /**
 187:ThirdParty/STM32F4xx_HAL_Driver/Src/stm32f4xx_hal_can.c ****   * @}
 188:ThirdParty/STM32F4xx_HAL_Driver/Src/stm32f4xx_hal_can.c ****   */
 189:ThirdParty/STM32F4xx_HAL_Driver/Src/stm32f4xx_hal_can.c **** /* Private macro -------------------------------------------------------------*/
 190:ThirdParty/STM32F4xx_HAL_Driver/Src/stm32f4xx_hal_can.c **** /* Private variables ---------------------------------------------------------*/
 191:ThirdParty/STM32F4xx_HAL_Driver/Src/stm32f4xx_hal_can.c **** /* Private function prototypes -----------------------------------------------*/
 192:ThirdParty/STM32F4xx_HAL_Driver/Src/stm32f4xx_hal_can.c **** /* Exported functions --------------------------------------------------------*/
 193:ThirdParty/STM32F4xx_HAL_Driver/Src/stm32f4xx_hal_can.c **** 
 194:ThirdParty/STM32F4xx_HAL_Driver/Src/stm32f4xx_hal_can.c **** /** @defgroup CAN_Exported_Functions CAN Exported Functions
 195:ThirdParty/STM32F4xx_HAL_Driver/Src/stm32f4xx_hal_can.c ****   * @{
 196:ThirdParty/STM32F4xx_HAL_Driver/Src/stm32f4xx_hal_can.c ****   */
 197:ThirdParty/STM32F4xx_HAL_Driver/Src/stm32f4xx_hal_can.c **** 
 198:ThirdParty/STM32F4xx_HAL_Driver/Src/stm32f4xx_hal_can.c **** /** @defgroup CAN_Exported_Functions_Group1 Initialization and de-initialization functions
 199:ThirdParty/STM32F4xx_HAL_Driver/Src/stm32f4xx_hal_can.c ****  *  @brief    Initialization and Configuration functions
 200:ThirdParty/STM32F4xx_HAL_Driver/Src/stm32f4xx_hal_can.c ****  *
ARM GAS  /tmp/cc6fvD8U.s 			page 5


 201:ThirdParty/STM32F4xx_HAL_Driver/Src/stm32f4xx_hal_can.c **** @verbatim
 202:ThirdParty/STM32F4xx_HAL_Driver/Src/stm32f4xx_hal_can.c ****   ==============================================================================
 203:ThirdParty/STM32F4xx_HAL_Driver/Src/stm32f4xx_hal_can.c ****               ##### Initialization and de-initialization functions #####
 204:ThirdParty/STM32F4xx_HAL_Driver/Src/stm32f4xx_hal_can.c ****   ==============================================================================
 205:ThirdParty/STM32F4xx_HAL_Driver/Src/stm32f4xx_hal_can.c ****     [..]  This section provides functions allowing to:
 206:ThirdParty/STM32F4xx_HAL_Driver/Src/stm32f4xx_hal_can.c ****       (+) HAL_CAN_Init                       : Initialize and configure the CAN.
 207:ThirdParty/STM32F4xx_HAL_Driver/Src/stm32f4xx_hal_can.c ****       (+) HAL_CAN_DeInit                     : De-initialize the CAN.
 208:ThirdParty/STM32F4xx_HAL_Driver/Src/stm32f4xx_hal_can.c ****       (+) HAL_CAN_MspInit                    : Initialize the CAN MSP.
 209:ThirdParty/STM32F4xx_HAL_Driver/Src/stm32f4xx_hal_can.c ****       (+) HAL_CAN_MspDeInit                  : DeInitialize the CAN MSP.
 210:ThirdParty/STM32F4xx_HAL_Driver/Src/stm32f4xx_hal_can.c **** 
 211:ThirdParty/STM32F4xx_HAL_Driver/Src/stm32f4xx_hal_can.c **** @endverbatim
 212:ThirdParty/STM32F4xx_HAL_Driver/Src/stm32f4xx_hal_can.c ****   * @{
 213:ThirdParty/STM32F4xx_HAL_Driver/Src/stm32f4xx_hal_can.c ****   */
 214:ThirdParty/STM32F4xx_HAL_Driver/Src/stm32f4xx_hal_can.c **** 
 215:ThirdParty/STM32F4xx_HAL_Driver/Src/stm32f4xx_hal_can.c **** /**
 216:ThirdParty/STM32F4xx_HAL_Driver/Src/stm32f4xx_hal_can.c ****   * @brief  Initializes the CAN peripheral according to the specified
 217:ThirdParty/STM32F4xx_HAL_Driver/Src/stm32f4xx_hal_can.c ****   *         parameters in the CAN_InitStruct.
 218:ThirdParty/STM32F4xx_HAL_Driver/Src/stm32f4xx_hal_can.c ****   * @param  hcan pointer to a CAN_HandleTypeDef structure that contains
 219:ThirdParty/STM32F4xx_HAL_Driver/Src/stm32f4xx_hal_can.c ****   *         the configuration information for the specified CAN.
 220:ThirdParty/STM32F4xx_HAL_Driver/Src/stm32f4xx_hal_can.c ****   * @retval HAL status
 221:ThirdParty/STM32F4xx_HAL_Driver/Src/stm32f4xx_hal_can.c ****   */
 222:ThirdParty/STM32F4xx_HAL_Driver/Src/stm32f4xx_hal_can.c **** HAL_StatusTypeDef HAL_CAN_Init(CAN_HandleTypeDef *hcan)
 223:ThirdParty/STM32F4xx_HAL_Driver/Src/stm32f4xx_hal_can.c **** {
 224:ThirdParty/STM32F4xx_HAL_Driver/Src/stm32f4xx_hal_can.c ****   uint32_t tickstart = 0U;
 225:ThirdParty/STM32F4xx_HAL_Driver/Src/stm32f4xx_hal_can.c **** 
 226:ThirdParty/STM32F4xx_HAL_Driver/Src/stm32f4xx_hal_can.c ****   /* Check CAN handle */
 227:ThirdParty/STM32F4xx_HAL_Driver/Src/stm32f4xx_hal_can.c ****   if (hcan == NULL)
 228:ThirdParty/STM32F4xx_HAL_Driver/Src/stm32f4xx_hal_can.c ****   {
 229:ThirdParty/STM32F4xx_HAL_Driver/Src/stm32f4xx_hal_can.c ****     return HAL_ERROR;
 230:ThirdParty/STM32F4xx_HAL_Driver/Src/stm32f4xx_hal_can.c ****   }
 231:ThirdParty/STM32F4xx_HAL_Driver/Src/stm32f4xx_hal_can.c **** 
 232:ThirdParty/STM32F4xx_HAL_Driver/Src/stm32f4xx_hal_can.c ****   /* Check the parameters */
 233:ThirdParty/STM32F4xx_HAL_Driver/Src/stm32f4xx_hal_can.c ****   assert_param(IS_CAN_ALL_INSTANCE(hcan->Instance));
 234:ThirdParty/STM32F4xx_HAL_Driver/Src/stm32f4xx_hal_can.c ****   assert_param(IS_FUNCTIONAL_STATE(hcan->Init.TimeTriggeredMode));
 235:ThirdParty/STM32F4xx_HAL_Driver/Src/stm32f4xx_hal_can.c ****   assert_param(IS_FUNCTIONAL_STATE(hcan->Init.AutoBusOff));
 236:ThirdParty/STM32F4xx_HAL_Driver/Src/stm32f4xx_hal_can.c ****   assert_param(IS_FUNCTIONAL_STATE(hcan->Init.AutoWakeUp));
 237:ThirdParty/STM32F4xx_HAL_Driver/Src/stm32f4xx_hal_can.c ****   assert_param(IS_FUNCTIONAL_STATE(hcan->Init.AutoRetransmission));
 238:ThirdParty/STM32F4xx_HAL_Driver/Src/stm32f4xx_hal_can.c ****   assert_param(IS_FUNCTIONAL_STATE(hcan->Init.ReceiveFifoLocked));
 239:ThirdParty/STM32F4xx_HAL_Driver/Src/stm32f4xx_hal_can.c ****   assert_param(IS_FUNCTIONAL_STATE(hcan->Init.TransmitFifoPriority));
 240:ThirdParty/STM32F4xx_HAL_Driver/Src/stm32f4xx_hal_can.c ****   assert_param(IS_CAN_MODE(hcan->Init.Mode));
 241:ThirdParty/STM32F4xx_HAL_Driver/Src/stm32f4xx_hal_can.c ****   assert_param(IS_CAN_SJW(hcan->Init.SyncJumpWidth));
 242:ThirdParty/STM32F4xx_HAL_Driver/Src/stm32f4xx_hal_can.c ****   assert_param(IS_CAN_BS1(hcan->Init.TimeSeg1));
 243:ThirdParty/STM32F4xx_HAL_Driver/Src/stm32f4xx_hal_can.c ****   assert_param(IS_CAN_BS2(hcan->Init.TimeSeg2));
 244:ThirdParty/STM32F4xx_HAL_Driver/Src/stm32f4xx_hal_can.c ****   assert_param(IS_CAN_PRESCALER(hcan->Init.Prescaler));
 245:ThirdParty/STM32F4xx_HAL_Driver/Src/stm32f4xx_hal_can.c **** 
 246:ThirdParty/STM32F4xx_HAL_Driver/Src/stm32f4xx_hal_can.c ****   if (hcan->State == HAL_CAN_STATE_RESET)
 247:ThirdParty/STM32F4xx_HAL_Driver/Src/stm32f4xx_hal_can.c ****   {
 248:ThirdParty/STM32F4xx_HAL_Driver/Src/stm32f4xx_hal_can.c ****     /* Init the low level hardware: CLOCK, NVIC */
 249:ThirdParty/STM32F4xx_HAL_Driver/Src/stm32f4xx_hal_can.c ****     HAL_CAN_MspInit(hcan);
 250:ThirdParty/STM32F4xx_HAL_Driver/Src/stm32f4xx_hal_can.c ****   }
 251:ThirdParty/STM32F4xx_HAL_Driver/Src/stm32f4xx_hal_can.c **** 
 252:ThirdParty/STM32F4xx_HAL_Driver/Src/stm32f4xx_hal_can.c ****   /* Exit from sleep mode */
 253:ThirdParty/STM32F4xx_HAL_Driver/Src/stm32f4xx_hal_can.c ****   CLEAR_BIT(hcan->Instance->MCR, CAN_MCR_SLEEP);
 254:ThirdParty/STM32F4xx_HAL_Driver/Src/stm32f4xx_hal_can.c **** 
 255:ThirdParty/STM32F4xx_HAL_Driver/Src/stm32f4xx_hal_can.c ****   /* Get tick */
 256:ThirdParty/STM32F4xx_HAL_Driver/Src/stm32f4xx_hal_can.c ****   tickstart = HAL_GetTick();
 257:ThirdParty/STM32F4xx_HAL_Driver/Src/stm32f4xx_hal_can.c **** 
ARM GAS  /tmp/cc6fvD8U.s 			page 6


 258:ThirdParty/STM32F4xx_HAL_Driver/Src/stm32f4xx_hal_can.c ****   /* Check Sleep mode leave acknowledge */
 259:ThirdParty/STM32F4xx_HAL_Driver/Src/stm32f4xx_hal_can.c ****   while ((hcan->Instance->MSR & CAN_MSR_SLAK) != RESET)
 260:ThirdParty/STM32F4xx_HAL_Driver/Src/stm32f4xx_hal_can.c ****   {
 261:ThirdParty/STM32F4xx_HAL_Driver/Src/stm32f4xx_hal_can.c ****     if ((HAL_GetTick() - tickstart) > CAN_TIMEOUT_VALUE)
 262:ThirdParty/STM32F4xx_HAL_Driver/Src/stm32f4xx_hal_can.c ****     {
 263:ThirdParty/STM32F4xx_HAL_Driver/Src/stm32f4xx_hal_can.c ****       /* Update error code */
 264:ThirdParty/STM32F4xx_HAL_Driver/Src/stm32f4xx_hal_can.c ****       hcan->ErrorCode |= HAL_CAN_ERROR_TIMEOUT;
 265:ThirdParty/STM32F4xx_HAL_Driver/Src/stm32f4xx_hal_can.c **** 
 266:ThirdParty/STM32F4xx_HAL_Driver/Src/stm32f4xx_hal_can.c ****       /* Change CAN state */
 267:ThirdParty/STM32F4xx_HAL_Driver/Src/stm32f4xx_hal_can.c ****       hcan->State = HAL_CAN_STATE_ERROR;
 268:ThirdParty/STM32F4xx_HAL_Driver/Src/stm32f4xx_hal_can.c **** 
 269:ThirdParty/STM32F4xx_HAL_Driver/Src/stm32f4xx_hal_can.c ****       return HAL_ERROR;
 270:ThirdParty/STM32F4xx_HAL_Driver/Src/stm32f4xx_hal_can.c ****     }
 271:ThirdParty/STM32F4xx_HAL_Driver/Src/stm32f4xx_hal_can.c ****   }
 272:ThirdParty/STM32F4xx_HAL_Driver/Src/stm32f4xx_hal_can.c **** 
 273:ThirdParty/STM32F4xx_HAL_Driver/Src/stm32f4xx_hal_can.c ****   /* Request initialisation */
 274:ThirdParty/STM32F4xx_HAL_Driver/Src/stm32f4xx_hal_can.c ****   SET_BIT(hcan->Instance->MCR, CAN_MCR_INRQ);
 275:ThirdParty/STM32F4xx_HAL_Driver/Src/stm32f4xx_hal_can.c **** 
 276:ThirdParty/STM32F4xx_HAL_Driver/Src/stm32f4xx_hal_can.c ****   /* Get tick */
 277:ThirdParty/STM32F4xx_HAL_Driver/Src/stm32f4xx_hal_can.c ****   tickstart = HAL_GetTick();
 278:ThirdParty/STM32F4xx_HAL_Driver/Src/stm32f4xx_hal_can.c **** 
 279:ThirdParty/STM32F4xx_HAL_Driver/Src/stm32f4xx_hal_can.c ****   /* Wait initialisation acknowledge */
 280:ThirdParty/STM32F4xx_HAL_Driver/Src/stm32f4xx_hal_can.c ****   while ((hcan->Instance->MSR & CAN_MSR_INAK) == RESET)
 281:ThirdParty/STM32F4xx_HAL_Driver/Src/stm32f4xx_hal_can.c ****   {
 282:ThirdParty/STM32F4xx_HAL_Driver/Src/stm32f4xx_hal_can.c ****     if ((HAL_GetTick() - tickstart) > CAN_TIMEOUT_VALUE)
 283:ThirdParty/STM32F4xx_HAL_Driver/Src/stm32f4xx_hal_can.c ****     {
 284:ThirdParty/STM32F4xx_HAL_Driver/Src/stm32f4xx_hal_can.c ****       /* Update error code */
 285:ThirdParty/STM32F4xx_HAL_Driver/Src/stm32f4xx_hal_can.c ****       hcan->ErrorCode |= HAL_CAN_ERROR_TIMEOUT;
 286:ThirdParty/STM32F4xx_HAL_Driver/Src/stm32f4xx_hal_can.c **** 
 287:ThirdParty/STM32F4xx_HAL_Driver/Src/stm32f4xx_hal_can.c ****       /* Change CAN state */
 288:ThirdParty/STM32F4xx_HAL_Driver/Src/stm32f4xx_hal_can.c ****       hcan->State = HAL_CAN_STATE_ERROR;
 289:ThirdParty/STM32F4xx_HAL_Driver/Src/stm32f4xx_hal_can.c **** 
 290:ThirdParty/STM32F4xx_HAL_Driver/Src/stm32f4xx_hal_can.c ****       return HAL_ERROR;
 291:ThirdParty/STM32F4xx_HAL_Driver/Src/stm32f4xx_hal_can.c ****     }
 292:ThirdParty/STM32F4xx_HAL_Driver/Src/stm32f4xx_hal_can.c ****   }
 293:ThirdParty/STM32F4xx_HAL_Driver/Src/stm32f4xx_hal_can.c **** 
 294:ThirdParty/STM32F4xx_HAL_Driver/Src/stm32f4xx_hal_can.c ****   /* Set the time triggered communication mode */
 295:ThirdParty/STM32F4xx_HAL_Driver/Src/stm32f4xx_hal_can.c ****   if (hcan->Init.TimeTriggeredMode == ENABLE)
 296:ThirdParty/STM32F4xx_HAL_Driver/Src/stm32f4xx_hal_can.c ****   {
 297:ThirdParty/STM32F4xx_HAL_Driver/Src/stm32f4xx_hal_can.c ****     SET_BIT(hcan->Instance->MCR, CAN_MCR_TTCM);
 298:ThirdParty/STM32F4xx_HAL_Driver/Src/stm32f4xx_hal_can.c ****   }
 299:ThirdParty/STM32F4xx_HAL_Driver/Src/stm32f4xx_hal_can.c ****   else
 300:ThirdParty/STM32F4xx_HAL_Driver/Src/stm32f4xx_hal_can.c ****   {
 301:ThirdParty/STM32F4xx_HAL_Driver/Src/stm32f4xx_hal_can.c ****     CLEAR_BIT(hcan->Instance->MCR, CAN_MCR_TTCM);
 302:ThirdParty/STM32F4xx_HAL_Driver/Src/stm32f4xx_hal_can.c ****   }
 303:ThirdParty/STM32F4xx_HAL_Driver/Src/stm32f4xx_hal_can.c **** 
 304:ThirdParty/STM32F4xx_HAL_Driver/Src/stm32f4xx_hal_can.c ****   /* Set the automatic bus-off management */
 305:ThirdParty/STM32F4xx_HAL_Driver/Src/stm32f4xx_hal_can.c ****   if (hcan->Init.AutoBusOff == ENABLE)
 306:ThirdParty/STM32F4xx_HAL_Driver/Src/stm32f4xx_hal_can.c ****   {
 307:ThirdParty/STM32F4xx_HAL_Driver/Src/stm32f4xx_hal_can.c ****     SET_BIT(hcan->Instance->MCR, CAN_MCR_ABOM);
 308:ThirdParty/STM32F4xx_HAL_Driver/Src/stm32f4xx_hal_can.c ****   }
 309:ThirdParty/STM32F4xx_HAL_Driver/Src/stm32f4xx_hal_can.c ****   else
 310:ThirdParty/STM32F4xx_HAL_Driver/Src/stm32f4xx_hal_can.c ****   {
 311:ThirdParty/STM32F4xx_HAL_Driver/Src/stm32f4xx_hal_can.c ****     CLEAR_BIT(hcan->Instance->MCR, CAN_MCR_ABOM);
 312:ThirdParty/STM32F4xx_HAL_Driver/Src/stm32f4xx_hal_can.c ****   }
 313:ThirdParty/STM32F4xx_HAL_Driver/Src/stm32f4xx_hal_can.c **** 
 314:ThirdParty/STM32F4xx_HAL_Driver/Src/stm32f4xx_hal_can.c ****   /* Set the automatic wake-up mode */
ARM GAS  /tmp/cc6fvD8U.s 			page 7


 315:ThirdParty/STM32F4xx_HAL_Driver/Src/stm32f4xx_hal_can.c ****   if (hcan->Init.AutoWakeUp == ENABLE)
 316:ThirdParty/STM32F4xx_HAL_Driver/Src/stm32f4xx_hal_can.c ****   {
 317:ThirdParty/STM32F4xx_HAL_Driver/Src/stm32f4xx_hal_can.c ****     SET_BIT(hcan->Instance->MCR, CAN_MCR_AWUM);
 318:ThirdParty/STM32F4xx_HAL_Driver/Src/stm32f4xx_hal_can.c ****   }
 319:ThirdParty/STM32F4xx_HAL_Driver/Src/stm32f4xx_hal_can.c ****   else
 320:ThirdParty/STM32F4xx_HAL_Driver/Src/stm32f4xx_hal_can.c ****   {
 321:ThirdParty/STM32F4xx_HAL_Driver/Src/stm32f4xx_hal_can.c ****     CLEAR_BIT(hcan->Instance->MCR, CAN_MCR_AWUM);
 322:ThirdParty/STM32F4xx_HAL_Driver/Src/stm32f4xx_hal_can.c ****   }
 323:ThirdParty/STM32F4xx_HAL_Driver/Src/stm32f4xx_hal_can.c **** 
 324:ThirdParty/STM32F4xx_HAL_Driver/Src/stm32f4xx_hal_can.c ****   /* Set the automatic retransmission */
 325:ThirdParty/STM32F4xx_HAL_Driver/Src/stm32f4xx_hal_can.c ****   if (hcan->Init.AutoRetransmission == ENABLE)
 326:ThirdParty/STM32F4xx_HAL_Driver/Src/stm32f4xx_hal_can.c ****   {
 327:ThirdParty/STM32F4xx_HAL_Driver/Src/stm32f4xx_hal_can.c ****     CLEAR_BIT(hcan->Instance->MCR, CAN_MCR_NART);
 328:ThirdParty/STM32F4xx_HAL_Driver/Src/stm32f4xx_hal_can.c ****   }
 329:ThirdParty/STM32F4xx_HAL_Driver/Src/stm32f4xx_hal_can.c ****   else
 330:ThirdParty/STM32F4xx_HAL_Driver/Src/stm32f4xx_hal_can.c ****   {
 331:ThirdParty/STM32F4xx_HAL_Driver/Src/stm32f4xx_hal_can.c ****     SET_BIT(hcan->Instance->MCR, CAN_MCR_NART);
 332:ThirdParty/STM32F4xx_HAL_Driver/Src/stm32f4xx_hal_can.c ****   }
 333:ThirdParty/STM32F4xx_HAL_Driver/Src/stm32f4xx_hal_can.c **** 
 334:ThirdParty/STM32F4xx_HAL_Driver/Src/stm32f4xx_hal_can.c ****   /* Set the receive FIFO locked mode */
 335:ThirdParty/STM32F4xx_HAL_Driver/Src/stm32f4xx_hal_can.c ****   if (hcan->Init.ReceiveFifoLocked == ENABLE)
 336:ThirdParty/STM32F4xx_HAL_Driver/Src/stm32f4xx_hal_can.c ****   {
 337:ThirdParty/STM32F4xx_HAL_Driver/Src/stm32f4xx_hal_can.c ****     SET_BIT(hcan->Instance->MCR, CAN_MCR_RFLM);
 338:ThirdParty/STM32F4xx_HAL_Driver/Src/stm32f4xx_hal_can.c ****   }
 339:ThirdParty/STM32F4xx_HAL_Driver/Src/stm32f4xx_hal_can.c ****   else
 340:ThirdParty/STM32F4xx_HAL_Driver/Src/stm32f4xx_hal_can.c ****   {
 341:ThirdParty/STM32F4xx_HAL_Driver/Src/stm32f4xx_hal_can.c ****     CLEAR_BIT(hcan->Instance->MCR, CAN_MCR_RFLM);
 342:ThirdParty/STM32F4xx_HAL_Driver/Src/stm32f4xx_hal_can.c ****   }
 343:ThirdParty/STM32F4xx_HAL_Driver/Src/stm32f4xx_hal_can.c **** 
 344:ThirdParty/STM32F4xx_HAL_Driver/Src/stm32f4xx_hal_can.c ****   /* Set the transmit FIFO priority */
 345:ThirdParty/STM32F4xx_HAL_Driver/Src/stm32f4xx_hal_can.c ****   if (hcan->Init.TransmitFifoPriority == ENABLE)
 346:ThirdParty/STM32F4xx_HAL_Driver/Src/stm32f4xx_hal_can.c ****   {
 347:ThirdParty/STM32F4xx_HAL_Driver/Src/stm32f4xx_hal_can.c ****     SET_BIT(hcan->Instance->MCR, CAN_MCR_TXFP);
 348:ThirdParty/STM32F4xx_HAL_Driver/Src/stm32f4xx_hal_can.c ****   }
 349:ThirdParty/STM32F4xx_HAL_Driver/Src/stm32f4xx_hal_can.c ****   else
 350:ThirdParty/STM32F4xx_HAL_Driver/Src/stm32f4xx_hal_can.c ****   {
 351:ThirdParty/STM32F4xx_HAL_Driver/Src/stm32f4xx_hal_can.c ****     CLEAR_BIT(hcan->Instance->MCR, CAN_MCR_TXFP);
 352:ThirdParty/STM32F4xx_HAL_Driver/Src/stm32f4xx_hal_can.c ****   }
 353:ThirdParty/STM32F4xx_HAL_Driver/Src/stm32f4xx_hal_can.c **** 
 354:ThirdParty/STM32F4xx_HAL_Driver/Src/stm32f4xx_hal_can.c ****   /* Set the bit timing register */
 355:ThirdParty/STM32F4xx_HAL_Driver/Src/stm32f4xx_hal_can.c ****   WRITE_REG(hcan->Instance->BTR, (uint32_t)(hcan->Init.Mode           |
 356:ThirdParty/STM32F4xx_HAL_Driver/Src/stm32f4xx_hal_can.c ****                                             hcan->Init.SyncJumpWidth  |
 357:ThirdParty/STM32F4xx_HAL_Driver/Src/stm32f4xx_hal_can.c ****                                             hcan->Init.TimeSeg1       |
 358:ThirdParty/STM32F4xx_HAL_Driver/Src/stm32f4xx_hal_can.c ****                                             hcan->Init.TimeSeg2       |
 359:ThirdParty/STM32F4xx_HAL_Driver/Src/stm32f4xx_hal_can.c ****                                             (hcan->Init.Prescaler - 1U)));
 360:ThirdParty/STM32F4xx_HAL_Driver/Src/stm32f4xx_hal_can.c **** 
 361:ThirdParty/STM32F4xx_HAL_Driver/Src/stm32f4xx_hal_can.c ****   /* Initialize the error code */
 362:ThirdParty/STM32F4xx_HAL_Driver/Src/stm32f4xx_hal_can.c ****   hcan->ErrorCode = HAL_CAN_ERROR_NONE;
 363:ThirdParty/STM32F4xx_HAL_Driver/Src/stm32f4xx_hal_can.c **** 
 364:ThirdParty/STM32F4xx_HAL_Driver/Src/stm32f4xx_hal_can.c ****   /* Initialize the CAN state */
 365:ThirdParty/STM32F4xx_HAL_Driver/Src/stm32f4xx_hal_can.c ****   hcan->State = HAL_CAN_STATE_READY;
 366:ThirdParty/STM32F4xx_HAL_Driver/Src/stm32f4xx_hal_can.c **** 
 367:ThirdParty/STM32F4xx_HAL_Driver/Src/stm32f4xx_hal_can.c ****   /* Return function status */
 368:ThirdParty/STM32F4xx_HAL_Driver/Src/stm32f4xx_hal_can.c ****   return HAL_OK;
 369:ThirdParty/STM32F4xx_HAL_Driver/Src/stm32f4xx_hal_can.c **** }
 370:ThirdParty/STM32F4xx_HAL_Driver/Src/stm32f4xx_hal_can.c **** 
 371:ThirdParty/STM32F4xx_HAL_Driver/Src/stm32f4xx_hal_can.c **** /**
ARM GAS  /tmp/cc6fvD8U.s 			page 8


 372:ThirdParty/STM32F4xx_HAL_Driver/Src/stm32f4xx_hal_can.c ****   * @brief  Deinitializes the CAN peripheral registers to their default
 373:ThirdParty/STM32F4xx_HAL_Driver/Src/stm32f4xx_hal_can.c ****   *         reset values.
 374:ThirdParty/STM32F4xx_HAL_Driver/Src/stm32f4xx_hal_can.c ****   * @param  hcan pointer to a CAN_HandleTypeDef structure that contains
 375:ThirdParty/STM32F4xx_HAL_Driver/Src/stm32f4xx_hal_can.c ****   *         the configuration information for the specified CAN.
 376:ThirdParty/STM32F4xx_HAL_Driver/Src/stm32f4xx_hal_can.c ****   * @retval HAL status
 377:ThirdParty/STM32F4xx_HAL_Driver/Src/stm32f4xx_hal_can.c ****   */
 378:ThirdParty/STM32F4xx_HAL_Driver/Src/stm32f4xx_hal_can.c **** HAL_StatusTypeDef HAL_CAN_DeInit(CAN_HandleTypeDef *hcan)
 379:ThirdParty/STM32F4xx_HAL_Driver/Src/stm32f4xx_hal_can.c **** {
 380:ThirdParty/STM32F4xx_HAL_Driver/Src/stm32f4xx_hal_can.c ****   /* Check CAN handle */
 381:ThirdParty/STM32F4xx_HAL_Driver/Src/stm32f4xx_hal_can.c ****   if (hcan == NULL)
 382:ThirdParty/STM32F4xx_HAL_Driver/Src/stm32f4xx_hal_can.c ****   {
 383:ThirdParty/STM32F4xx_HAL_Driver/Src/stm32f4xx_hal_can.c ****     return HAL_ERROR;
 384:ThirdParty/STM32F4xx_HAL_Driver/Src/stm32f4xx_hal_can.c ****   }
 385:ThirdParty/STM32F4xx_HAL_Driver/Src/stm32f4xx_hal_can.c **** 
 386:ThirdParty/STM32F4xx_HAL_Driver/Src/stm32f4xx_hal_can.c ****   /* Check the parameters */
 387:ThirdParty/STM32F4xx_HAL_Driver/Src/stm32f4xx_hal_can.c ****   assert_param(IS_CAN_ALL_INSTANCE(hcan->Instance));
 388:ThirdParty/STM32F4xx_HAL_Driver/Src/stm32f4xx_hal_can.c **** 
 389:ThirdParty/STM32F4xx_HAL_Driver/Src/stm32f4xx_hal_can.c ****   /* Stop the CAN module */
 390:ThirdParty/STM32F4xx_HAL_Driver/Src/stm32f4xx_hal_can.c ****   HAL_CAN_Stop(hcan);
 391:ThirdParty/STM32F4xx_HAL_Driver/Src/stm32f4xx_hal_can.c **** 
 392:ThirdParty/STM32F4xx_HAL_Driver/Src/stm32f4xx_hal_can.c ****   /* DeInit the low level hardware: CLOCK, NVIC */
 393:ThirdParty/STM32F4xx_HAL_Driver/Src/stm32f4xx_hal_can.c ****   HAL_CAN_MspDeInit(hcan);
 394:ThirdParty/STM32F4xx_HAL_Driver/Src/stm32f4xx_hal_can.c **** 
 395:ThirdParty/STM32F4xx_HAL_Driver/Src/stm32f4xx_hal_can.c ****   /* Reset the CAN peripheral */
 396:ThirdParty/STM32F4xx_HAL_Driver/Src/stm32f4xx_hal_can.c ****   SET_BIT(hcan->Instance->MCR, CAN_MCR_RESET);
 397:ThirdParty/STM32F4xx_HAL_Driver/Src/stm32f4xx_hal_can.c **** 
 398:ThirdParty/STM32F4xx_HAL_Driver/Src/stm32f4xx_hal_can.c ****   /* Reset the CAN ErrorCode */
 399:ThirdParty/STM32F4xx_HAL_Driver/Src/stm32f4xx_hal_can.c ****   hcan->ErrorCode = HAL_CAN_ERROR_NONE;
 400:ThirdParty/STM32F4xx_HAL_Driver/Src/stm32f4xx_hal_can.c **** 
 401:ThirdParty/STM32F4xx_HAL_Driver/Src/stm32f4xx_hal_can.c ****   /* Change CAN state */
 402:ThirdParty/STM32F4xx_HAL_Driver/Src/stm32f4xx_hal_can.c ****   hcan->State = HAL_CAN_STATE_RESET;
 403:ThirdParty/STM32F4xx_HAL_Driver/Src/stm32f4xx_hal_can.c **** 
 404:ThirdParty/STM32F4xx_HAL_Driver/Src/stm32f4xx_hal_can.c ****   /* Return function status */
 405:ThirdParty/STM32F4xx_HAL_Driver/Src/stm32f4xx_hal_can.c ****   return HAL_OK;
 406:ThirdParty/STM32F4xx_HAL_Driver/Src/stm32f4xx_hal_can.c **** }
 407:ThirdParty/STM32F4xx_HAL_Driver/Src/stm32f4xx_hal_can.c **** 
 408:ThirdParty/STM32F4xx_HAL_Driver/Src/stm32f4xx_hal_can.c **** /**
 409:ThirdParty/STM32F4xx_HAL_Driver/Src/stm32f4xx_hal_can.c ****   * @brief  Initializes the CAN MSP.
 410:ThirdParty/STM32F4xx_HAL_Driver/Src/stm32f4xx_hal_can.c ****   * @param  hcan pointer to a CAN_HandleTypeDef structure that contains
 411:ThirdParty/STM32F4xx_HAL_Driver/Src/stm32f4xx_hal_can.c ****   *         the configuration information for the specified CAN.
 412:ThirdParty/STM32F4xx_HAL_Driver/Src/stm32f4xx_hal_can.c ****   * @retval None
 413:ThirdParty/STM32F4xx_HAL_Driver/Src/stm32f4xx_hal_can.c ****   */
 414:ThirdParty/STM32F4xx_HAL_Driver/Src/stm32f4xx_hal_can.c **** __weak void HAL_CAN_MspInit(CAN_HandleTypeDef *hcan)
 415:ThirdParty/STM32F4xx_HAL_Driver/Src/stm32f4xx_hal_can.c **** {
  30              		.loc 1 415 1 view -0
  31              		.cfi_startproc
  32              		@ args = 0, pretend = 0, frame = 0
  33              		@ frame_needed = 0, uses_anonymous_args = 0
  34              		@ link register save eliminated.
 416:ThirdParty/STM32F4xx_HAL_Driver/Src/stm32f4xx_hal_can.c ****   /* Prevent unused argument(s) compilation warning */
 417:ThirdParty/STM32F4xx_HAL_Driver/Src/stm32f4xx_hal_can.c ****   UNUSED(hcan);
  35              		.loc 1 417 3 view .LVU1
 418:ThirdParty/STM32F4xx_HAL_Driver/Src/stm32f4xx_hal_can.c **** 
 419:ThirdParty/STM32F4xx_HAL_Driver/Src/stm32f4xx_hal_can.c ****   /* NOTE : This function Should not be modified, when the callback is needed,
 420:ThirdParty/STM32F4xx_HAL_Driver/Src/stm32f4xx_hal_can.c ****             the HAL_CAN_MspInit could be implemented in the user file
 421:ThirdParty/STM32F4xx_HAL_Driver/Src/stm32f4xx_hal_can.c ****    */
 422:ThirdParty/STM32F4xx_HAL_Driver/Src/stm32f4xx_hal_can.c **** }
ARM GAS  /tmp/cc6fvD8U.s 			page 9


  36              		.loc 1 422 1 is_stmt 0 view .LVU2
  37 0000 7047     		bx	lr
  38              		.cfi_endproc
  39              	.LFE135:
  41              		.section	.text.HAL_CAN_Init,"ax",%progbits
  42              		.align	1
  43              		.global	HAL_CAN_Init
  44              		.syntax unified
  45              		.thumb
  46              		.thumb_func
  48              	HAL_CAN_Init:
  49              	.LVL1:
  50              	.LFB133:
 223:ThirdParty/STM32F4xx_HAL_Driver/Src/stm32f4xx_hal_can.c ****   uint32_t tickstart = 0U;
  51              		.loc 1 223 1 is_stmt 1 view -0
  52              		.cfi_startproc
  53              		@ args = 0, pretend = 0, frame = 0
  54              		@ frame_needed = 0, uses_anonymous_args = 0
 224:ThirdParty/STM32F4xx_HAL_Driver/Src/stm32f4xx_hal_can.c **** 
  55              		.loc 1 224 3 view .LVU4
 227:ThirdParty/STM32F4xx_HAL_Driver/Src/stm32f4xx_hal_can.c ****   {
  56              		.loc 1 227 3 view .LVU5
 227:ThirdParty/STM32F4xx_HAL_Driver/Src/stm32f4xx_hal_can.c ****   {
  57              		.loc 1 227 6 is_stmt 0 view .LVU6
  58 0000 0028     		cmp	r0, #0
  59 0002 00F0A180 		beq	.L21
 223:ThirdParty/STM32F4xx_HAL_Driver/Src/stm32f4xx_hal_can.c ****   uint32_t tickstart = 0U;
  60              		.loc 1 223 1 view .LVU7
  61 0006 38B5     		push	{r3, r4, r5, lr}
  62              	.LCFI0:
  63              		.cfi_def_cfa_offset 16
  64              		.cfi_offset 3, -16
  65              		.cfi_offset 4, -12
  66              		.cfi_offset 5, -8
  67              		.cfi_offset 14, -4
  68 0008 0446     		mov	r4, r0
 233:ThirdParty/STM32F4xx_HAL_Driver/Src/stm32f4xx_hal_can.c ****   assert_param(IS_FUNCTIONAL_STATE(hcan->Init.TimeTriggeredMode));
  69              		.loc 1 233 3 is_stmt 1 view .LVU8
 234:ThirdParty/STM32F4xx_HAL_Driver/Src/stm32f4xx_hal_can.c ****   assert_param(IS_FUNCTIONAL_STATE(hcan->Init.AutoBusOff));
  70              		.loc 1 234 3 view .LVU9
 235:ThirdParty/STM32F4xx_HAL_Driver/Src/stm32f4xx_hal_can.c ****   assert_param(IS_FUNCTIONAL_STATE(hcan->Init.AutoWakeUp));
  71              		.loc 1 235 3 view .LVU10
 236:ThirdParty/STM32F4xx_HAL_Driver/Src/stm32f4xx_hal_can.c ****   assert_param(IS_FUNCTIONAL_STATE(hcan->Init.AutoRetransmission));
  72              		.loc 1 236 3 view .LVU11
 237:ThirdParty/STM32F4xx_HAL_Driver/Src/stm32f4xx_hal_can.c ****   assert_param(IS_FUNCTIONAL_STATE(hcan->Init.ReceiveFifoLocked));
  73              		.loc 1 237 3 view .LVU12
 238:ThirdParty/STM32F4xx_HAL_Driver/Src/stm32f4xx_hal_can.c ****   assert_param(IS_FUNCTIONAL_STATE(hcan->Init.TransmitFifoPriority));
  74              		.loc 1 238 3 view .LVU13
 239:ThirdParty/STM32F4xx_HAL_Driver/Src/stm32f4xx_hal_can.c ****   assert_param(IS_CAN_MODE(hcan->Init.Mode));
  75              		.loc 1 239 3 view .LVU14
 240:ThirdParty/STM32F4xx_HAL_Driver/Src/stm32f4xx_hal_can.c ****   assert_param(IS_CAN_SJW(hcan->Init.SyncJumpWidth));
  76              		.loc 1 240 3 view .LVU15
 241:ThirdParty/STM32F4xx_HAL_Driver/Src/stm32f4xx_hal_can.c ****   assert_param(IS_CAN_BS1(hcan->Init.TimeSeg1));
  77              		.loc 1 241 3 view .LVU16
 242:ThirdParty/STM32F4xx_HAL_Driver/Src/stm32f4xx_hal_can.c ****   assert_param(IS_CAN_BS2(hcan->Init.TimeSeg2));
  78              		.loc 1 242 3 view .LVU17
 243:ThirdParty/STM32F4xx_HAL_Driver/Src/stm32f4xx_hal_can.c ****   assert_param(IS_CAN_PRESCALER(hcan->Init.Prescaler));
ARM GAS  /tmp/cc6fvD8U.s 			page 10


  79              		.loc 1 243 3 view .LVU18
 244:ThirdParty/STM32F4xx_HAL_Driver/Src/stm32f4xx_hal_can.c **** 
  80              		.loc 1 244 3 view .LVU19
 246:ThirdParty/STM32F4xx_HAL_Driver/Src/stm32f4xx_hal_can.c ****   {
  81              		.loc 1 246 3 view .LVU20
 246:ThirdParty/STM32F4xx_HAL_Driver/Src/stm32f4xx_hal_can.c ****   {
  82              		.loc 1 246 11 is_stmt 0 view .LVU21
  83 000a 90F82030 		ldrb	r3, [r0, #32]	@ zero_extendqisi2
 246:ThirdParty/STM32F4xx_HAL_Driver/Src/stm32f4xx_hal_can.c ****   {
  84              		.loc 1 246 6 view .LVU22
  85 000e D3B1     		cbz	r3, .L26
  86              	.LVL2:
  87              	.L4:
 253:ThirdParty/STM32F4xx_HAL_Driver/Src/stm32f4xx_hal_can.c **** 
  88              		.loc 1 253 3 is_stmt 1 view .LVU23
  89 0010 2268     		ldr	r2, [r4]
  90 0012 1368     		ldr	r3, [r2]
  91 0014 23F00203 		bic	r3, r3, #2
  92 0018 1360     		str	r3, [r2]
 256:ThirdParty/STM32F4xx_HAL_Driver/Src/stm32f4xx_hal_can.c **** 
  93              		.loc 1 256 3 view .LVU24
 256:ThirdParty/STM32F4xx_HAL_Driver/Src/stm32f4xx_hal_can.c **** 
  94              		.loc 1 256 15 is_stmt 0 view .LVU25
  95 001a FFF7FEFF 		bl	HAL_GetTick
  96              	.LVL3:
  97 001e 0546     		mov	r5, r0
  98              	.LVL4:
 259:ThirdParty/STM32F4xx_HAL_Driver/Src/stm32f4xx_hal_can.c ****   {
  99              		.loc 1 259 3 is_stmt 1 view .LVU26
 100              	.L5:
 259:ThirdParty/STM32F4xx_HAL_Driver/Src/stm32f4xx_hal_can.c ****   {
 101              		.loc 1 259 9 view .LVU27
 259:ThirdParty/STM32F4xx_HAL_Driver/Src/stm32f4xx_hal_can.c ****   {
 102              		.loc 1 259 15 is_stmt 0 view .LVU28
 103 0020 2368     		ldr	r3, [r4]
 259:ThirdParty/STM32F4xx_HAL_Driver/Src/stm32f4xx_hal_can.c ****   {
 104              		.loc 1 259 25 view .LVU29
 105 0022 5A68     		ldr	r2, [r3, #4]
 259:ThirdParty/STM32F4xx_HAL_Driver/Src/stm32f4xx_hal_can.c ****   {
 106              		.loc 1 259 9 view .LVU30
 107 0024 12F0020F 		tst	r2, #2
 108 0028 10D0     		beq	.L27
 261:ThirdParty/STM32F4xx_HAL_Driver/Src/stm32f4xx_hal_can.c ****     {
 109              		.loc 1 261 5 is_stmt 1 view .LVU31
 261:ThirdParty/STM32F4xx_HAL_Driver/Src/stm32f4xx_hal_can.c ****     {
 110              		.loc 1 261 10 is_stmt 0 view .LVU32
 111 002a FFF7FEFF 		bl	HAL_GetTick
 112              	.LVL5:
 261:ThirdParty/STM32F4xx_HAL_Driver/Src/stm32f4xx_hal_can.c ****     {
 113              		.loc 1 261 24 view .LVU33
 114 002e 401B     		subs	r0, r0, r5
 261:ThirdParty/STM32F4xx_HAL_Driver/Src/stm32f4xx_hal_can.c ****     {
 115              		.loc 1 261 8 view .LVU34
 116 0030 0A28     		cmp	r0, #10
 117 0032 F5D9     		bls	.L5
 264:ThirdParty/STM32F4xx_HAL_Driver/Src/stm32f4xx_hal_can.c **** 
 118              		.loc 1 264 7 is_stmt 1 view .LVU35
ARM GAS  /tmp/cc6fvD8U.s 			page 11


 264:ThirdParty/STM32F4xx_HAL_Driver/Src/stm32f4xx_hal_can.c **** 
 119              		.loc 1 264 23 is_stmt 0 view .LVU36
 120 0034 636A     		ldr	r3, [r4, #36]
 121 0036 43F40033 		orr	r3, r3, #131072
 122 003a 6362     		str	r3, [r4, #36]
 267:ThirdParty/STM32F4xx_HAL_Driver/Src/stm32f4xx_hal_can.c **** 
 123              		.loc 1 267 7 is_stmt 1 view .LVU37
 267:ThirdParty/STM32F4xx_HAL_Driver/Src/stm32f4xx_hal_can.c **** 
 124              		.loc 1 267 19 is_stmt 0 view .LVU38
 125 003c 0523     		movs	r3, #5
 126 003e 84F82030 		strb	r3, [r4, #32]
 269:ThirdParty/STM32F4xx_HAL_Driver/Src/stm32f4xx_hal_can.c ****     }
 127              		.loc 1 269 7 is_stmt 1 view .LVU39
 269:ThirdParty/STM32F4xx_HAL_Driver/Src/stm32f4xx_hal_can.c ****     }
 128              		.loc 1 269 14 is_stmt 0 view .LVU40
 129 0042 0120     		movs	r0, #1
 130              	.L3:
 369:ThirdParty/STM32F4xx_HAL_Driver/Src/stm32f4xx_hal_can.c **** 
 131              		.loc 1 369 1 view .LVU41
 132 0044 38BD     		pop	{r3, r4, r5, pc}
 133              	.LVL6:
 134              	.L26:
 249:ThirdParty/STM32F4xx_HAL_Driver/Src/stm32f4xx_hal_can.c ****   }
 135              		.loc 1 249 5 is_stmt 1 view .LVU42
 136 0046 FFF7FEFF 		bl	HAL_CAN_MspInit
 137              	.LVL7:
 249:ThirdParty/STM32F4xx_HAL_Driver/Src/stm32f4xx_hal_can.c ****   }
 138              		.loc 1 249 5 is_stmt 0 view .LVU43
 139 004a E1E7     		b	.L4
 140              	.LVL8:
 141              	.L27:
 274:ThirdParty/STM32F4xx_HAL_Driver/Src/stm32f4xx_hal_can.c **** 
 142              		.loc 1 274 3 is_stmt 1 view .LVU44
 143 004c 1A68     		ldr	r2, [r3]
 144 004e 42F00102 		orr	r2, r2, #1
 145 0052 1A60     		str	r2, [r3]
 277:ThirdParty/STM32F4xx_HAL_Driver/Src/stm32f4xx_hal_can.c **** 
 146              		.loc 1 277 3 view .LVU45
 277:ThirdParty/STM32F4xx_HAL_Driver/Src/stm32f4xx_hal_can.c **** 
 147              		.loc 1 277 15 is_stmt 0 view .LVU46
 148 0054 FFF7FEFF 		bl	HAL_GetTick
 149              	.LVL9:
 150 0058 0546     		mov	r5, r0
 151              	.LVL10:
 280:ThirdParty/STM32F4xx_HAL_Driver/Src/stm32f4xx_hal_can.c ****   {
 152              		.loc 1 280 3 is_stmt 1 view .LVU47
 153              	.L7:
 280:ThirdParty/STM32F4xx_HAL_Driver/Src/stm32f4xx_hal_can.c ****   {
 154              		.loc 1 280 9 view .LVU48
 280:ThirdParty/STM32F4xx_HAL_Driver/Src/stm32f4xx_hal_can.c ****   {
 155              		.loc 1 280 15 is_stmt 0 view .LVU49
 156 005a 2368     		ldr	r3, [r4]
 280:ThirdParty/STM32F4xx_HAL_Driver/Src/stm32f4xx_hal_can.c ****   {
 157              		.loc 1 280 25 view .LVU50
 158 005c 5A68     		ldr	r2, [r3, #4]
 280:ThirdParty/STM32F4xx_HAL_Driver/Src/stm32f4xx_hal_can.c ****   {
 159              		.loc 1 280 9 view .LVU51
ARM GAS  /tmp/cc6fvD8U.s 			page 12


 160 005e 12F0010F 		tst	r2, #1
 161 0062 0DD1     		bne	.L28
 282:ThirdParty/STM32F4xx_HAL_Driver/Src/stm32f4xx_hal_can.c ****     {
 162              		.loc 1 282 5 is_stmt 1 view .LVU52
 282:ThirdParty/STM32F4xx_HAL_Driver/Src/stm32f4xx_hal_can.c ****     {
 163              		.loc 1 282 10 is_stmt 0 view .LVU53
 164 0064 FFF7FEFF 		bl	HAL_GetTick
 165              	.LVL11:
 282:ThirdParty/STM32F4xx_HAL_Driver/Src/stm32f4xx_hal_can.c ****     {
 166              		.loc 1 282 24 view .LVU54
 167 0068 401B     		subs	r0, r0, r5
 282:ThirdParty/STM32F4xx_HAL_Driver/Src/stm32f4xx_hal_can.c ****     {
 168              		.loc 1 282 8 view .LVU55
 169 006a 0A28     		cmp	r0, #10
 170 006c F5D9     		bls	.L7
 285:ThirdParty/STM32F4xx_HAL_Driver/Src/stm32f4xx_hal_can.c **** 
 171              		.loc 1 285 7 is_stmt 1 view .LVU56
 285:ThirdParty/STM32F4xx_HAL_Driver/Src/stm32f4xx_hal_can.c **** 
 172              		.loc 1 285 23 is_stmt 0 view .LVU57
 173 006e 636A     		ldr	r3, [r4, #36]
 174 0070 43F40033 		orr	r3, r3, #131072
 175 0074 6362     		str	r3, [r4, #36]
 288:ThirdParty/STM32F4xx_HAL_Driver/Src/stm32f4xx_hal_can.c **** 
 176              		.loc 1 288 7 is_stmt 1 view .LVU58
 288:ThirdParty/STM32F4xx_HAL_Driver/Src/stm32f4xx_hal_can.c **** 
 177              		.loc 1 288 19 is_stmt 0 view .LVU59
 178 0076 0523     		movs	r3, #5
 179 0078 84F82030 		strb	r3, [r4, #32]
 290:ThirdParty/STM32F4xx_HAL_Driver/Src/stm32f4xx_hal_can.c ****     }
 180              		.loc 1 290 7 is_stmt 1 view .LVU60
 290:ThirdParty/STM32F4xx_HAL_Driver/Src/stm32f4xx_hal_can.c ****     }
 181              		.loc 1 290 14 is_stmt 0 view .LVU61
 182 007c 0120     		movs	r0, #1
 183 007e E1E7     		b	.L3
 184              	.L28:
 295:ThirdParty/STM32F4xx_HAL_Driver/Src/stm32f4xx_hal_can.c ****   {
 185              		.loc 1 295 3 is_stmt 1 view .LVU62
 295:ThirdParty/STM32F4xx_HAL_Driver/Src/stm32f4xx_hal_can.c ****   {
 186              		.loc 1 295 17 is_stmt 0 view .LVU63
 187 0080 227E     		ldrb	r2, [r4, #24]	@ zero_extendqisi2
 295:ThirdParty/STM32F4xx_HAL_Driver/Src/stm32f4xx_hal_can.c ****   {
 188              		.loc 1 295 6 view .LVU64
 189 0082 012A     		cmp	r2, #1
 190 0084 3DD0     		beq	.L29
 301:ThirdParty/STM32F4xx_HAL_Driver/Src/stm32f4xx_hal_can.c ****   }
 191              		.loc 1 301 5 is_stmt 1 view .LVU65
 192 0086 1A68     		ldr	r2, [r3]
 193 0088 22F08002 		bic	r2, r2, #128
 194 008c 1A60     		str	r2, [r3]
 195              	.L10:
 305:ThirdParty/STM32F4xx_HAL_Driver/Src/stm32f4xx_hal_can.c ****   {
 196              		.loc 1 305 3 view .LVU66
 305:ThirdParty/STM32F4xx_HAL_Driver/Src/stm32f4xx_hal_can.c ****   {
 197              		.loc 1 305 17 is_stmt 0 view .LVU67
 198 008e 637E     		ldrb	r3, [r4, #25]	@ zero_extendqisi2
 305:ThirdParty/STM32F4xx_HAL_Driver/Src/stm32f4xx_hal_can.c ****   {
 199              		.loc 1 305 6 view .LVU68
ARM GAS  /tmp/cc6fvD8U.s 			page 13


 200 0090 012B     		cmp	r3, #1
 201 0092 3BD0     		beq	.L30
 311:ThirdParty/STM32F4xx_HAL_Driver/Src/stm32f4xx_hal_can.c ****   }
 202              		.loc 1 311 5 is_stmt 1 view .LVU69
 203 0094 2268     		ldr	r2, [r4]
 204 0096 1368     		ldr	r3, [r2]
 205 0098 23F04003 		bic	r3, r3, #64
 206 009c 1360     		str	r3, [r2]
 207              	.L12:
 315:ThirdParty/STM32F4xx_HAL_Driver/Src/stm32f4xx_hal_can.c ****   {
 208              		.loc 1 315 3 view .LVU70
 315:ThirdParty/STM32F4xx_HAL_Driver/Src/stm32f4xx_hal_can.c ****   {
 209              		.loc 1 315 17 is_stmt 0 view .LVU71
 210 009e A37E     		ldrb	r3, [r4, #26]	@ zero_extendqisi2
 315:ThirdParty/STM32F4xx_HAL_Driver/Src/stm32f4xx_hal_can.c ****   {
 211              		.loc 1 315 6 view .LVU72
 212 00a0 012B     		cmp	r3, #1
 213 00a2 39D0     		beq	.L31
 321:ThirdParty/STM32F4xx_HAL_Driver/Src/stm32f4xx_hal_can.c ****   }
 214              		.loc 1 321 5 is_stmt 1 view .LVU73
 215 00a4 2268     		ldr	r2, [r4]
 216 00a6 1368     		ldr	r3, [r2]
 217 00a8 23F02003 		bic	r3, r3, #32
 218 00ac 1360     		str	r3, [r2]
 219              	.L14:
 325:ThirdParty/STM32F4xx_HAL_Driver/Src/stm32f4xx_hal_can.c ****   {
 220              		.loc 1 325 3 view .LVU74
 325:ThirdParty/STM32F4xx_HAL_Driver/Src/stm32f4xx_hal_can.c ****   {
 221              		.loc 1 325 17 is_stmt 0 view .LVU75
 222 00ae E37E     		ldrb	r3, [r4, #27]	@ zero_extendqisi2
 325:ThirdParty/STM32F4xx_HAL_Driver/Src/stm32f4xx_hal_can.c ****   {
 223              		.loc 1 325 6 view .LVU76
 224 00b0 012B     		cmp	r3, #1
 225 00b2 37D0     		beq	.L32
 331:ThirdParty/STM32F4xx_HAL_Driver/Src/stm32f4xx_hal_can.c ****   }
 226              		.loc 1 331 5 is_stmt 1 view .LVU77
 227 00b4 2268     		ldr	r2, [r4]
 228 00b6 1368     		ldr	r3, [r2]
 229 00b8 43F01003 		orr	r3, r3, #16
 230 00bc 1360     		str	r3, [r2]
 231              	.L16:
 335:ThirdParty/STM32F4xx_HAL_Driver/Src/stm32f4xx_hal_can.c ****   {
 232              		.loc 1 335 3 view .LVU78
 335:ThirdParty/STM32F4xx_HAL_Driver/Src/stm32f4xx_hal_can.c ****   {
 233              		.loc 1 335 17 is_stmt 0 view .LVU79
 234 00be 237F     		ldrb	r3, [r4, #28]	@ zero_extendqisi2
 335:ThirdParty/STM32F4xx_HAL_Driver/Src/stm32f4xx_hal_can.c ****   {
 235              		.loc 1 335 6 view .LVU80
 236 00c0 012B     		cmp	r3, #1
 237 00c2 35D0     		beq	.L33
 341:ThirdParty/STM32F4xx_HAL_Driver/Src/stm32f4xx_hal_can.c ****   }
 238              		.loc 1 341 5 is_stmt 1 view .LVU81
 239 00c4 2268     		ldr	r2, [r4]
 240 00c6 1368     		ldr	r3, [r2]
 241 00c8 23F00803 		bic	r3, r3, #8
 242 00cc 1360     		str	r3, [r2]
 243              	.L18:
ARM GAS  /tmp/cc6fvD8U.s 			page 14


 345:ThirdParty/STM32F4xx_HAL_Driver/Src/stm32f4xx_hal_can.c ****   {
 244              		.loc 1 345 3 view .LVU82
 345:ThirdParty/STM32F4xx_HAL_Driver/Src/stm32f4xx_hal_can.c ****   {
 245              		.loc 1 345 17 is_stmt 0 view .LVU83
 246 00ce 637F     		ldrb	r3, [r4, #29]	@ zero_extendqisi2
 345:ThirdParty/STM32F4xx_HAL_Driver/Src/stm32f4xx_hal_can.c ****   {
 247              		.loc 1 345 6 view .LVU84
 248 00d0 012B     		cmp	r3, #1
 249 00d2 33D0     		beq	.L34
 351:ThirdParty/STM32F4xx_HAL_Driver/Src/stm32f4xx_hal_can.c ****   }
 250              		.loc 1 351 5 is_stmt 1 view .LVU85
 251 00d4 2268     		ldr	r2, [r4]
 252 00d6 1368     		ldr	r3, [r2]
 253 00d8 23F00403 		bic	r3, r3, #4
 254 00dc 1360     		str	r3, [r2]
 255              	.L20:
 355:ThirdParty/STM32F4xx_HAL_Driver/Src/stm32f4xx_hal_can.c ****                                             hcan->Init.SyncJumpWidth  |
 256              		.loc 1 355 3 view .LVU86
 257 00de A368     		ldr	r3, [r4, #8]
 258 00e0 E268     		ldr	r2, [r4, #12]
 259 00e2 1343     		orrs	r3, r3, r2
 260 00e4 2269     		ldr	r2, [r4, #16]
 261 00e6 1343     		orrs	r3, r3, r2
 262 00e8 6269     		ldr	r2, [r4, #20]
 263 00ea 1343     		orrs	r3, r3, r2
 264 00ec 6268     		ldr	r2, [r4, #4]
 265 00ee 013A     		subs	r2, r2, #1
 266 00f0 2168     		ldr	r1, [r4]
 267 00f2 1343     		orrs	r3, r3, r2
 268 00f4 CB61     		str	r3, [r1, #28]
 362:ThirdParty/STM32F4xx_HAL_Driver/Src/stm32f4xx_hal_can.c **** 
 269              		.loc 1 362 3 view .LVU87
 362:ThirdParty/STM32F4xx_HAL_Driver/Src/stm32f4xx_hal_can.c **** 
 270              		.loc 1 362 19 is_stmt 0 view .LVU88
 271 00f6 0020     		movs	r0, #0
 272 00f8 6062     		str	r0, [r4, #36]
 365:ThirdParty/STM32F4xx_HAL_Driver/Src/stm32f4xx_hal_can.c **** 
 273              		.loc 1 365 3 is_stmt 1 view .LVU89
 365:ThirdParty/STM32F4xx_HAL_Driver/Src/stm32f4xx_hal_can.c **** 
 274              		.loc 1 365 15 is_stmt 0 view .LVU90
 275 00fa 0123     		movs	r3, #1
 276 00fc 84F82030 		strb	r3, [r4, #32]
 368:ThirdParty/STM32F4xx_HAL_Driver/Src/stm32f4xx_hal_can.c **** }
 277              		.loc 1 368 3 is_stmt 1 view .LVU91
 368:ThirdParty/STM32F4xx_HAL_Driver/Src/stm32f4xx_hal_can.c **** }
 278              		.loc 1 368 10 is_stmt 0 view .LVU92
 279 0100 A0E7     		b	.L3
 280              	.L29:
 297:ThirdParty/STM32F4xx_HAL_Driver/Src/stm32f4xx_hal_can.c ****   }
 281              		.loc 1 297 5 is_stmt 1 view .LVU93
 282 0102 1A68     		ldr	r2, [r3]
 283 0104 42F08002 		orr	r2, r2, #128
 284 0108 1A60     		str	r2, [r3]
 285 010a C0E7     		b	.L10
 286              	.L30:
 307:ThirdParty/STM32F4xx_HAL_Driver/Src/stm32f4xx_hal_can.c ****   }
 287              		.loc 1 307 5 view .LVU94
ARM GAS  /tmp/cc6fvD8U.s 			page 15


 288 010c 2268     		ldr	r2, [r4]
 289 010e 1368     		ldr	r3, [r2]
 290 0110 43F04003 		orr	r3, r3, #64
 291 0114 1360     		str	r3, [r2]
 292 0116 C2E7     		b	.L12
 293              	.L31:
 317:ThirdParty/STM32F4xx_HAL_Driver/Src/stm32f4xx_hal_can.c ****   }
 294              		.loc 1 317 5 view .LVU95
 295 0118 2268     		ldr	r2, [r4]
 296 011a 1368     		ldr	r3, [r2]
 297 011c 43F02003 		orr	r3, r3, #32
 298 0120 1360     		str	r3, [r2]
 299 0122 C4E7     		b	.L14
 300              	.L32:
 327:ThirdParty/STM32F4xx_HAL_Driver/Src/stm32f4xx_hal_can.c ****   }
 301              		.loc 1 327 5 view .LVU96
 302 0124 2268     		ldr	r2, [r4]
 303 0126 1368     		ldr	r3, [r2]
 304 0128 23F01003 		bic	r3, r3, #16
 305 012c 1360     		str	r3, [r2]
 306 012e C6E7     		b	.L16
 307              	.L33:
 337:ThirdParty/STM32F4xx_HAL_Driver/Src/stm32f4xx_hal_can.c ****   }
 308              		.loc 1 337 5 view .LVU97
 309 0130 2268     		ldr	r2, [r4]
 310 0132 1368     		ldr	r3, [r2]
 311 0134 43F00803 		orr	r3, r3, #8
 312 0138 1360     		str	r3, [r2]
 313 013a C8E7     		b	.L18
 314              	.L34:
 347:ThirdParty/STM32F4xx_HAL_Driver/Src/stm32f4xx_hal_can.c ****   }
 315              		.loc 1 347 5 view .LVU98
 316 013c 2268     		ldr	r2, [r4]
 317 013e 1368     		ldr	r3, [r2]
 318 0140 43F00403 		orr	r3, r3, #4
 319 0144 1360     		str	r3, [r2]
 320 0146 CAE7     		b	.L20
 321              	.LVL12:
 322              	.L21:
 323              	.LCFI1:
 324              		.cfi_def_cfa_offset 0
 325              		.cfi_restore 3
 326              		.cfi_restore 4
 327              		.cfi_restore 5
 328              		.cfi_restore 14
 229:ThirdParty/STM32F4xx_HAL_Driver/Src/stm32f4xx_hal_can.c ****   }
 329              		.loc 1 229 12 is_stmt 0 view .LVU99
 330 0148 0120     		movs	r0, #1
 331              	.LVL13:
 369:ThirdParty/STM32F4xx_HAL_Driver/Src/stm32f4xx_hal_can.c **** 
 332              		.loc 1 369 1 view .LVU100
 333 014a 7047     		bx	lr
 334              		.cfi_endproc
 335              	.LFE133:
 337              		.section	.text.HAL_CAN_MspDeInit,"ax",%progbits
 338              		.align	1
 339              		.weak	HAL_CAN_MspDeInit
ARM GAS  /tmp/cc6fvD8U.s 			page 16


 340              		.syntax unified
 341              		.thumb
 342              		.thumb_func
 344              	HAL_CAN_MspDeInit:
 345              	.LVL14:
 346              	.LFB136:
 423:ThirdParty/STM32F4xx_HAL_Driver/Src/stm32f4xx_hal_can.c **** 
 424:ThirdParty/STM32F4xx_HAL_Driver/Src/stm32f4xx_hal_can.c **** /**
 425:ThirdParty/STM32F4xx_HAL_Driver/Src/stm32f4xx_hal_can.c ****   * @brief  DeInitializes the CAN MSP.
 426:ThirdParty/STM32F4xx_HAL_Driver/Src/stm32f4xx_hal_can.c ****   * @param  hcan pointer to a CAN_HandleTypeDef structure that contains
 427:ThirdParty/STM32F4xx_HAL_Driver/Src/stm32f4xx_hal_can.c ****   *         the configuration information for the specified CAN.
 428:ThirdParty/STM32F4xx_HAL_Driver/Src/stm32f4xx_hal_can.c ****   * @retval None
 429:ThirdParty/STM32F4xx_HAL_Driver/Src/stm32f4xx_hal_can.c ****   */
 430:ThirdParty/STM32F4xx_HAL_Driver/Src/stm32f4xx_hal_can.c **** __weak void HAL_CAN_MspDeInit(CAN_HandleTypeDef *hcan)
 431:ThirdParty/STM32F4xx_HAL_Driver/Src/stm32f4xx_hal_can.c **** {
 347              		.loc 1 431 1 is_stmt 1 view -0
 348              		.cfi_startproc
 349              		@ args = 0, pretend = 0, frame = 0
 350              		@ frame_needed = 0, uses_anonymous_args = 0
 351              		@ link register save eliminated.
 432:ThirdParty/STM32F4xx_HAL_Driver/Src/stm32f4xx_hal_can.c ****   /* Prevent unused argument(s) compilation warning */
 433:ThirdParty/STM32F4xx_HAL_Driver/Src/stm32f4xx_hal_can.c ****   UNUSED(hcan);
 352              		.loc 1 433 3 view .LVU102
 434:ThirdParty/STM32F4xx_HAL_Driver/Src/stm32f4xx_hal_can.c **** 
 435:ThirdParty/STM32F4xx_HAL_Driver/Src/stm32f4xx_hal_can.c ****   /* NOTE : This function Should not be modified, when the callback is needed,
 436:ThirdParty/STM32F4xx_HAL_Driver/Src/stm32f4xx_hal_can.c ****             the HAL_CAN_MspDeInit could be implemented in the user file
 437:ThirdParty/STM32F4xx_HAL_Driver/Src/stm32f4xx_hal_can.c ****    */
 438:ThirdParty/STM32F4xx_HAL_Driver/Src/stm32f4xx_hal_can.c **** }
 353              		.loc 1 438 1 is_stmt 0 view .LVU103
 354 0000 7047     		bx	lr
 355              		.cfi_endproc
 356              	.LFE136:
 358              		.section	.text.HAL_CAN_ConfigFilter,"ax",%progbits
 359              		.align	1
 360              		.global	HAL_CAN_ConfigFilter
 361              		.syntax unified
 362              		.thumb
 363              		.thumb_func
 365              	HAL_CAN_ConfigFilter:
 366              	.LVL15:
 367              	.LFB137:
 439:ThirdParty/STM32F4xx_HAL_Driver/Src/stm32f4xx_hal_can.c **** 
 440:ThirdParty/STM32F4xx_HAL_Driver/Src/stm32f4xx_hal_can.c **** 
 441:ThirdParty/STM32F4xx_HAL_Driver/Src/stm32f4xx_hal_can.c **** /**
 442:ThirdParty/STM32F4xx_HAL_Driver/Src/stm32f4xx_hal_can.c ****   * @}
 443:ThirdParty/STM32F4xx_HAL_Driver/Src/stm32f4xx_hal_can.c ****   */
 444:ThirdParty/STM32F4xx_HAL_Driver/Src/stm32f4xx_hal_can.c **** 
 445:ThirdParty/STM32F4xx_HAL_Driver/Src/stm32f4xx_hal_can.c **** /** @defgroup CAN_Exported_Functions_Group2 Configuration functions
 446:ThirdParty/STM32F4xx_HAL_Driver/Src/stm32f4xx_hal_can.c ****  *  @brief    Configuration functions.
 447:ThirdParty/STM32F4xx_HAL_Driver/Src/stm32f4xx_hal_can.c ****  *
 448:ThirdParty/STM32F4xx_HAL_Driver/Src/stm32f4xx_hal_can.c **** @verbatim
 449:ThirdParty/STM32F4xx_HAL_Driver/Src/stm32f4xx_hal_can.c ****   ==============================================================================
 450:ThirdParty/STM32F4xx_HAL_Driver/Src/stm32f4xx_hal_can.c ****               ##### Configuration functions #####
 451:ThirdParty/STM32F4xx_HAL_Driver/Src/stm32f4xx_hal_can.c ****   ==============================================================================
 452:ThirdParty/STM32F4xx_HAL_Driver/Src/stm32f4xx_hal_can.c ****     [..]  This section provides functions allowing to:
 453:ThirdParty/STM32F4xx_HAL_Driver/Src/stm32f4xx_hal_can.c ****       (+) HAL_CAN_ConfigFilter            : Configure the CAN reception filters
 454:ThirdParty/STM32F4xx_HAL_Driver/Src/stm32f4xx_hal_can.c **** 
ARM GAS  /tmp/cc6fvD8U.s 			page 17


 455:ThirdParty/STM32F4xx_HAL_Driver/Src/stm32f4xx_hal_can.c **** @endverbatim
 456:ThirdParty/STM32F4xx_HAL_Driver/Src/stm32f4xx_hal_can.c ****   * @{
 457:ThirdParty/STM32F4xx_HAL_Driver/Src/stm32f4xx_hal_can.c ****   */
 458:ThirdParty/STM32F4xx_HAL_Driver/Src/stm32f4xx_hal_can.c **** 
 459:ThirdParty/STM32F4xx_HAL_Driver/Src/stm32f4xx_hal_can.c **** /**
 460:ThirdParty/STM32F4xx_HAL_Driver/Src/stm32f4xx_hal_can.c ****   * @brief  Configures the CAN reception filter according to the specified
 461:ThirdParty/STM32F4xx_HAL_Driver/Src/stm32f4xx_hal_can.c ****   *         parameters in the CAN_FilterInitStruct.
 462:ThirdParty/STM32F4xx_HAL_Driver/Src/stm32f4xx_hal_can.c ****   * @param  hcan pointer to a CAN_HandleTypeDef structure that contains
 463:ThirdParty/STM32F4xx_HAL_Driver/Src/stm32f4xx_hal_can.c ****   *         the configuration information for the specified CAN.
 464:ThirdParty/STM32F4xx_HAL_Driver/Src/stm32f4xx_hal_can.c ****   * @param  sFilterConfig pointer to a CAN_FilterTypeDef structure that
 465:ThirdParty/STM32F4xx_HAL_Driver/Src/stm32f4xx_hal_can.c ****   *         contains the filter configuration information.
 466:ThirdParty/STM32F4xx_HAL_Driver/Src/stm32f4xx_hal_can.c ****   * @retval None
 467:ThirdParty/STM32F4xx_HAL_Driver/Src/stm32f4xx_hal_can.c ****   */
 468:ThirdParty/STM32F4xx_HAL_Driver/Src/stm32f4xx_hal_can.c **** HAL_StatusTypeDef HAL_CAN_ConfigFilter(CAN_HandleTypeDef *hcan, CAN_FilterTypeDef *sFilterConfig)
 469:ThirdParty/STM32F4xx_HAL_Driver/Src/stm32f4xx_hal_can.c **** {
 368              		.loc 1 469 1 is_stmt 1 view -0
 369              		.cfi_startproc
 370              		@ args = 0, pretend = 0, frame = 0
 371              		@ frame_needed = 0, uses_anonymous_args = 0
 470:ThirdParty/STM32F4xx_HAL_Driver/Src/stm32f4xx_hal_can.c ****   uint32_t filternbrbitpos = 0U;
 372              		.loc 1 470 3 view .LVU105
 471:ThirdParty/STM32F4xx_HAL_Driver/Src/stm32f4xx_hal_can.c ****   CAN_TypeDef *can_ip = hcan->Instance;
 373              		.loc 1 471 3 view .LVU106
 472:ThirdParty/STM32F4xx_HAL_Driver/Src/stm32f4xx_hal_can.c **** 
 473:ThirdParty/STM32F4xx_HAL_Driver/Src/stm32f4xx_hal_can.c ****   if ((hcan->State == HAL_CAN_STATE_READY) ||
 374              		.loc 1 473 3 view .LVU107
 375              		.loc 1 473 12 is_stmt 0 view .LVU108
 376 0000 90F82030 		ldrb	r3, [r0, #32]	@ zero_extendqisi2
 377 0004 DBB2     		uxtb	r3, r3
 378              		.loc 1 473 6 view .LVU109
 379 0006 012B     		cmp	r3, #1
 380 0008 0AD0     		beq	.L37
 474:ThirdParty/STM32F4xx_HAL_Driver/Src/stm32f4xx_hal_can.c ****       (hcan->State == HAL_CAN_STATE_LISTENING))
 381              		.loc 1 474 12 discriminator 1 view .LVU110
 382 000a 90F82030 		ldrb	r3, [r0, #32]	@ zero_extendqisi2
 383 000e DBB2     		uxtb	r3, r3
 473:ThirdParty/STM32F4xx_HAL_Driver/Src/stm32f4xx_hal_can.c ****       (hcan->State == HAL_CAN_STATE_LISTENING))
 384              		.loc 1 473 44 discriminator 1 view .LVU111
 385 0010 022B     		cmp	r3, #2
 386 0012 05D0     		beq	.L37
 475:ThirdParty/STM32F4xx_HAL_Driver/Src/stm32f4xx_hal_can.c ****   {
 476:ThirdParty/STM32F4xx_HAL_Driver/Src/stm32f4xx_hal_can.c ****     /* Check the parameters */
 477:ThirdParty/STM32F4xx_HAL_Driver/Src/stm32f4xx_hal_can.c ****     assert_param(IS_CAN_FILTER_ID_HALFWORD(sFilterConfig->FilterIdHigh));
 478:ThirdParty/STM32F4xx_HAL_Driver/Src/stm32f4xx_hal_can.c ****     assert_param(IS_CAN_FILTER_ID_HALFWORD(sFilterConfig->FilterIdLow));
 479:ThirdParty/STM32F4xx_HAL_Driver/Src/stm32f4xx_hal_can.c ****     assert_param(IS_CAN_FILTER_ID_HALFWORD(sFilterConfig->FilterMaskIdHigh));
 480:ThirdParty/STM32F4xx_HAL_Driver/Src/stm32f4xx_hal_can.c ****     assert_param(IS_CAN_FILTER_ID_HALFWORD(sFilterConfig->FilterMaskIdLow));
 481:ThirdParty/STM32F4xx_HAL_Driver/Src/stm32f4xx_hal_can.c ****     assert_param(IS_CAN_FILTER_MODE(sFilterConfig->FilterMode));
 482:ThirdParty/STM32F4xx_HAL_Driver/Src/stm32f4xx_hal_can.c ****     assert_param(IS_CAN_FILTER_SCALE(sFilterConfig->FilterScale));
 483:ThirdParty/STM32F4xx_HAL_Driver/Src/stm32f4xx_hal_can.c ****     assert_param(IS_CAN_FILTER_FIFO(sFilterConfig->FilterFIFOAssignment));
 484:ThirdParty/STM32F4xx_HAL_Driver/Src/stm32f4xx_hal_can.c ****     assert_param(IS_FUNCTIONAL_STATE(sFilterConfig->FilterActivation));
 485:ThirdParty/STM32F4xx_HAL_Driver/Src/stm32f4xx_hal_can.c **** 
 486:ThirdParty/STM32F4xx_HAL_Driver/Src/stm32f4xx_hal_can.c **** #if defined(CAN3)
 487:ThirdParty/STM32F4xx_HAL_Driver/Src/stm32f4xx_hal_can.c ****     /* Check the CAN instance */
 488:ThirdParty/STM32F4xx_HAL_Driver/Src/stm32f4xx_hal_can.c ****     if (hcan->Instance == CAN3)
 489:ThirdParty/STM32F4xx_HAL_Driver/Src/stm32f4xx_hal_can.c ****     {
 490:ThirdParty/STM32F4xx_HAL_Driver/Src/stm32f4xx_hal_can.c ****       /* CAN3 is single instance with 14 dedicated filters banks */
 491:ThirdParty/STM32F4xx_HAL_Driver/Src/stm32f4xx_hal_can.c **** 
ARM GAS  /tmp/cc6fvD8U.s 			page 18


 492:ThirdParty/STM32F4xx_HAL_Driver/Src/stm32f4xx_hal_can.c ****       /* Check the parameters */
 493:ThirdParty/STM32F4xx_HAL_Driver/Src/stm32f4xx_hal_can.c ****       assert_param(IS_CAN_FILTER_BANK_SINGLE(sFilterConfig->FilterBank));
 494:ThirdParty/STM32F4xx_HAL_Driver/Src/stm32f4xx_hal_can.c ****     }
 495:ThirdParty/STM32F4xx_HAL_Driver/Src/stm32f4xx_hal_can.c ****     else
 496:ThirdParty/STM32F4xx_HAL_Driver/Src/stm32f4xx_hal_can.c ****     {
 497:ThirdParty/STM32F4xx_HAL_Driver/Src/stm32f4xx_hal_can.c ****       /* CAN1 and CAN2 are dual instances with 28 common filters banks */
 498:ThirdParty/STM32F4xx_HAL_Driver/Src/stm32f4xx_hal_can.c ****       /* Select master instance to access the filter banks */
 499:ThirdParty/STM32F4xx_HAL_Driver/Src/stm32f4xx_hal_can.c ****       can_ip = CAN1;
 500:ThirdParty/STM32F4xx_HAL_Driver/Src/stm32f4xx_hal_can.c **** 
 501:ThirdParty/STM32F4xx_HAL_Driver/Src/stm32f4xx_hal_can.c ****       /* Check the parameters */
 502:ThirdParty/STM32F4xx_HAL_Driver/Src/stm32f4xx_hal_can.c ****       assert_param(IS_CAN_FILTER_BANK_DUAL(sFilterConfig->FilterBank));
 503:ThirdParty/STM32F4xx_HAL_Driver/Src/stm32f4xx_hal_can.c ****       assert_param(IS_CAN_FILTER_BANK_DUAL(sFilterConfig->SlaveStartFilterBank));
 504:ThirdParty/STM32F4xx_HAL_Driver/Src/stm32f4xx_hal_can.c ****     }
 505:ThirdParty/STM32F4xx_HAL_Driver/Src/stm32f4xx_hal_can.c **** #elif defined(CAN2)
 506:ThirdParty/STM32F4xx_HAL_Driver/Src/stm32f4xx_hal_can.c ****     /* CAN1 and CAN2 are dual instances with 28 common filters banks */
 507:ThirdParty/STM32F4xx_HAL_Driver/Src/stm32f4xx_hal_can.c ****     /* Select master instance to access the filter banks */
 508:ThirdParty/STM32F4xx_HAL_Driver/Src/stm32f4xx_hal_can.c ****     can_ip = CAN1;
 509:ThirdParty/STM32F4xx_HAL_Driver/Src/stm32f4xx_hal_can.c **** 
 510:ThirdParty/STM32F4xx_HAL_Driver/Src/stm32f4xx_hal_can.c ****     /* Check the parameters */
 511:ThirdParty/STM32F4xx_HAL_Driver/Src/stm32f4xx_hal_can.c ****     assert_param(IS_CAN_FILTER_BANK_DUAL(sFilterConfig->FilterBank));
 512:ThirdParty/STM32F4xx_HAL_Driver/Src/stm32f4xx_hal_can.c ****     assert_param(IS_CAN_FILTER_BANK_DUAL(sFilterConfig->SlaveStartFilterBank));
 513:ThirdParty/STM32F4xx_HAL_Driver/Src/stm32f4xx_hal_can.c **** #else
 514:ThirdParty/STM32F4xx_HAL_Driver/Src/stm32f4xx_hal_can.c ****     /* CAN1 is single instance with 14 dedicated filters banks */
 515:ThirdParty/STM32F4xx_HAL_Driver/Src/stm32f4xx_hal_can.c **** 
 516:ThirdParty/STM32F4xx_HAL_Driver/Src/stm32f4xx_hal_can.c ****     /* Check the parameters */
 517:ThirdParty/STM32F4xx_HAL_Driver/Src/stm32f4xx_hal_can.c ****     assert_param(IS_CAN_FILTER_BANK_SINGLE(sFilterConfig->FilterBank));
 518:ThirdParty/STM32F4xx_HAL_Driver/Src/stm32f4xx_hal_can.c **** #endif
 519:ThirdParty/STM32F4xx_HAL_Driver/Src/stm32f4xx_hal_can.c **** 
 520:ThirdParty/STM32F4xx_HAL_Driver/Src/stm32f4xx_hal_can.c ****     /* Initialisation mode for the filter */
 521:ThirdParty/STM32F4xx_HAL_Driver/Src/stm32f4xx_hal_can.c ****     SET_BIT(can_ip->FMR, CAN_FMR_FINIT);
 522:ThirdParty/STM32F4xx_HAL_Driver/Src/stm32f4xx_hal_can.c **** 
 523:ThirdParty/STM32F4xx_HAL_Driver/Src/stm32f4xx_hal_can.c **** #if defined(CAN3)
 524:ThirdParty/STM32F4xx_HAL_Driver/Src/stm32f4xx_hal_can.c ****     /* Check the CAN instance */
 525:ThirdParty/STM32F4xx_HAL_Driver/Src/stm32f4xx_hal_can.c ****     if (can_ip == CAN1)
 526:ThirdParty/STM32F4xx_HAL_Driver/Src/stm32f4xx_hal_can.c ****     {
 527:ThirdParty/STM32F4xx_HAL_Driver/Src/stm32f4xx_hal_can.c ****       /* Select the start filter number of CAN2 slave instance */
 528:ThirdParty/STM32F4xx_HAL_Driver/Src/stm32f4xx_hal_can.c ****       CLEAR_BIT(can_ip->FMR, CAN_FMR_CAN2SB);
 529:ThirdParty/STM32F4xx_HAL_Driver/Src/stm32f4xx_hal_can.c ****       SET_BIT(can_ip->FMR, sFilterConfig->SlaveStartFilterBank << CAN_FMR_CAN2SB_Pos);
 530:ThirdParty/STM32F4xx_HAL_Driver/Src/stm32f4xx_hal_can.c ****     }
 531:ThirdParty/STM32F4xx_HAL_Driver/Src/stm32f4xx_hal_can.c **** 
 532:ThirdParty/STM32F4xx_HAL_Driver/Src/stm32f4xx_hal_can.c **** #elif defined(CAN2)
 533:ThirdParty/STM32F4xx_HAL_Driver/Src/stm32f4xx_hal_can.c ****     /* Select the start filter number of CAN2 slave instance */
 534:ThirdParty/STM32F4xx_HAL_Driver/Src/stm32f4xx_hal_can.c ****     CLEAR_BIT(can_ip->FMR, CAN_FMR_CAN2SB);
 535:ThirdParty/STM32F4xx_HAL_Driver/Src/stm32f4xx_hal_can.c ****     SET_BIT(can_ip->FMR, sFilterConfig->SlaveStartFilterBank << CAN_FMR_CAN2SB_Pos);
 536:ThirdParty/STM32F4xx_HAL_Driver/Src/stm32f4xx_hal_can.c **** 
 537:ThirdParty/STM32F4xx_HAL_Driver/Src/stm32f4xx_hal_can.c **** #endif
 538:ThirdParty/STM32F4xx_HAL_Driver/Src/stm32f4xx_hal_can.c ****     /* Convert filter number into bit position */
 539:ThirdParty/STM32F4xx_HAL_Driver/Src/stm32f4xx_hal_can.c ****     filternbrbitpos = (1U) << sFilterConfig->FilterBank;
 540:ThirdParty/STM32F4xx_HAL_Driver/Src/stm32f4xx_hal_can.c **** 
 541:ThirdParty/STM32F4xx_HAL_Driver/Src/stm32f4xx_hal_can.c ****     /* Filter Deactivation */
 542:ThirdParty/STM32F4xx_HAL_Driver/Src/stm32f4xx_hal_can.c ****     CLEAR_BIT(can_ip->FA1R, filternbrbitpos);
 543:ThirdParty/STM32F4xx_HAL_Driver/Src/stm32f4xx_hal_can.c **** 
 544:ThirdParty/STM32F4xx_HAL_Driver/Src/stm32f4xx_hal_can.c ****     /* Filter Scale */
 545:ThirdParty/STM32F4xx_HAL_Driver/Src/stm32f4xx_hal_can.c ****     if (sFilterConfig->FilterScale == CAN_FILTERSCALE_16BIT)
 546:ThirdParty/STM32F4xx_HAL_Driver/Src/stm32f4xx_hal_can.c ****     {
 547:ThirdParty/STM32F4xx_HAL_Driver/Src/stm32f4xx_hal_can.c ****       /* 16-bit scale for the filter */
 548:ThirdParty/STM32F4xx_HAL_Driver/Src/stm32f4xx_hal_can.c ****       CLEAR_BIT(can_ip->FS1R, filternbrbitpos);
ARM GAS  /tmp/cc6fvD8U.s 			page 19


 549:ThirdParty/STM32F4xx_HAL_Driver/Src/stm32f4xx_hal_can.c **** 
 550:ThirdParty/STM32F4xx_HAL_Driver/Src/stm32f4xx_hal_can.c ****       /* First 16-bit identifier and First 16-bit mask */
 551:ThirdParty/STM32F4xx_HAL_Driver/Src/stm32f4xx_hal_can.c ****       /* Or First 16-bit identifier and Second 16-bit identifier */
 552:ThirdParty/STM32F4xx_HAL_Driver/Src/stm32f4xx_hal_can.c ****       can_ip->sFilterRegister[sFilterConfig->FilterBank].FR1 =
 553:ThirdParty/STM32F4xx_HAL_Driver/Src/stm32f4xx_hal_can.c ****         ((0x0000FFFFU & (uint32_t)sFilterConfig->FilterMaskIdLow) << 16U) |
 554:ThirdParty/STM32F4xx_HAL_Driver/Src/stm32f4xx_hal_can.c ****         (0x0000FFFFU & (uint32_t)sFilterConfig->FilterIdLow);
 555:ThirdParty/STM32F4xx_HAL_Driver/Src/stm32f4xx_hal_can.c **** 
 556:ThirdParty/STM32F4xx_HAL_Driver/Src/stm32f4xx_hal_can.c ****       /* Second 16-bit identifier and Second 16-bit mask */
 557:ThirdParty/STM32F4xx_HAL_Driver/Src/stm32f4xx_hal_can.c ****       /* Or Third 16-bit identifier and Fourth 16-bit identifier */
 558:ThirdParty/STM32F4xx_HAL_Driver/Src/stm32f4xx_hal_can.c ****       can_ip->sFilterRegister[sFilterConfig->FilterBank].FR2 =
 559:ThirdParty/STM32F4xx_HAL_Driver/Src/stm32f4xx_hal_can.c ****         ((0x0000FFFFU & (uint32_t)sFilterConfig->FilterMaskIdHigh) << 16U) |
 560:ThirdParty/STM32F4xx_HAL_Driver/Src/stm32f4xx_hal_can.c ****         (0x0000FFFFU & (uint32_t)sFilterConfig->FilterIdHigh);
 561:ThirdParty/STM32F4xx_HAL_Driver/Src/stm32f4xx_hal_can.c ****     }
 562:ThirdParty/STM32F4xx_HAL_Driver/Src/stm32f4xx_hal_can.c **** 
 563:ThirdParty/STM32F4xx_HAL_Driver/Src/stm32f4xx_hal_can.c ****     if (sFilterConfig->FilterScale == CAN_FILTERSCALE_32BIT)
 564:ThirdParty/STM32F4xx_HAL_Driver/Src/stm32f4xx_hal_can.c ****     {
 565:ThirdParty/STM32F4xx_HAL_Driver/Src/stm32f4xx_hal_can.c ****       /* 32-bit scale for the filter */
 566:ThirdParty/STM32F4xx_HAL_Driver/Src/stm32f4xx_hal_can.c ****       SET_BIT(can_ip->FS1R, filternbrbitpos);
 567:ThirdParty/STM32F4xx_HAL_Driver/Src/stm32f4xx_hal_can.c **** 
 568:ThirdParty/STM32F4xx_HAL_Driver/Src/stm32f4xx_hal_can.c ****       /* 32-bit identifier or First 32-bit identifier */
 569:ThirdParty/STM32F4xx_HAL_Driver/Src/stm32f4xx_hal_can.c ****       can_ip->sFilterRegister[sFilterConfig->FilterBank].FR1 =
 570:ThirdParty/STM32F4xx_HAL_Driver/Src/stm32f4xx_hal_can.c ****         ((0x0000FFFFU & (uint32_t)sFilterConfig->FilterIdHigh) << 16U) |
 571:ThirdParty/STM32F4xx_HAL_Driver/Src/stm32f4xx_hal_can.c ****         (0x0000FFFFU & (uint32_t)sFilterConfig->FilterIdLow);
 572:ThirdParty/STM32F4xx_HAL_Driver/Src/stm32f4xx_hal_can.c **** 
 573:ThirdParty/STM32F4xx_HAL_Driver/Src/stm32f4xx_hal_can.c ****       /* 32-bit mask or Second 32-bit identifier */
 574:ThirdParty/STM32F4xx_HAL_Driver/Src/stm32f4xx_hal_can.c ****       can_ip->sFilterRegister[sFilterConfig->FilterBank].FR2 =
 575:ThirdParty/STM32F4xx_HAL_Driver/Src/stm32f4xx_hal_can.c ****         ((0x0000FFFFU & (uint32_t)sFilterConfig->FilterMaskIdHigh) << 16U) |
 576:ThirdParty/STM32F4xx_HAL_Driver/Src/stm32f4xx_hal_can.c ****         (0x0000FFFFU & (uint32_t)sFilterConfig->FilterMaskIdLow);
 577:ThirdParty/STM32F4xx_HAL_Driver/Src/stm32f4xx_hal_can.c ****     }
 578:ThirdParty/STM32F4xx_HAL_Driver/Src/stm32f4xx_hal_can.c **** 
 579:ThirdParty/STM32F4xx_HAL_Driver/Src/stm32f4xx_hal_can.c ****     /* Filter Mode */
 580:ThirdParty/STM32F4xx_HAL_Driver/Src/stm32f4xx_hal_can.c ****     if (sFilterConfig->FilterMode == CAN_FILTERMODE_IDMASK)
 581:ThirdParty/STM32F4xx_HAL_Driver/Src/stm32f4xx_hal_can.c ****     {
 582:ThirdParty/STM32F4xx_HAL_Driver/Src/stm32f4xx_hal_can.c ****       /* Id/Mask mode for the filter*/
 583:ThirdParty/STM32F4xx_HAL_Driver/Src/stm32f4xx_hal_can.c ****       CLEAR_BIT(can_ip->FM1R, filternbrbitpos);
 584:ThirdParty/STM32F4xx_HAL_Driver/Src/stm32f4xx_hal_can.c ****     }
 585:ThirdParty/STM32F4xx_HAL_Driver/Src/stm32f4xx_hal_can.c ****     else /* CAN_FilterInitStruct->CAN_FilterMode == CAN_FilterMode_IdList */
 586:ThirdParty/STM32F4xx_HAL_Driver/Src/stm32f4xx_hal_can.c ****     {
 587:ThirdParty/STM32F4xx_HAL_Driver/Src/stm32f4xx_hal_can.c ****       /* Identifier list mode for the filter*/
 588:ThirdParty/STM32F4xx_HAL_Driver/Src/stm32f4xx_hal_can.c ****       SET_BIT(can_ip->FM1R, filternbrbitpos);
 589:ThirdParty/STM32F4xx_HAL_Driver/Src/stm32f4xx_hal_can.c ****     }
 590:ThirdParty/STM32F4xx_HAL_Driver/Src/stm32f4xx_hal_can.c **** 
 591:ThirdParty/STM32F4xx_HAL_Driver/Src/stm32f4xx_hal_can.c ****     /* Filter FIFO assignment */
 592:ThirdParty/STM32F4xx_HAL_Driver/Src/stm32f4xx_hal_can.c ****     if (sFilterConfig->FilterFIFOAssignment == CAN_FILTER_FIFO0)
 593:ThirdParty/STM32F4xx_HAL_Driver/Src/stm32f4xx_hal_can.c ****     {
 594:ThirdParty/STM32F4xx_HAL_Driver/Src/stm32f4xx_hal_can.c ****       /* FIFO 0 assignation for the filter */
 595:ThirdParty/STM32F4xx_HAL_Driver/Src/stm32f4xx_hal_can.c ****       CLEAR_BIT(can_ip->FFA1R, filternbrbitpos);
 596:ThirdParty/STM32F4xx_HAL_Driver/Src/stm32f4xx_hal_can.c ****     }
 597:ThirdParty/STM32F4xx_HAL_Driver/Src/stm32f4xx_hal_can.c ****     else
 598:ThirdParty/STM32F4xx_HAL_Driver/Src/stm32f4xx_hal_can.c ****     {
 599:ThirdParty/STM32F4xx_HAL_Driver/Src/stm32f4xx_hal_can.c ****       /* FIFO 1 assignation for the filter */
 600:ThirdParty/STM32F4xx_HAL_Driver/Src/stm32f4xx_hal_can.c ****       SET_BIT(can_ip->FFA1R, filternbrbitpos);
 601:ThirdParty/STM32F4xx_HAL_Driver/Src/stm32f4xx_hal_can.c ****     }
 602:ThirdParty/STM32F4xx_HAL_Driver/Src/stm32f4xx_hal_can.c **** 
 603:ThirdParty/STM32F4xx_HAL_Driver/Src/stm32f4xx_hal_can.c ****     /* Filter activation */
 604:ThirdParty/STM32F4xx_HAL_Driver/Src/stm32f4xx_hal_can.c ****     if (sFilterConfig->FilterActivation == ENABLE)
 605:ThirdParty/STM32F4xx_HAL_Driver/Src/stm32f4xx_hal_can.c ****     {
ARM GAS  /tmp/cc6fvD8U.s 			page 20


 606:ThirdParty/STM32F4xx_HAL_Driver/Src/stm32f4xx_hal_can.c ****       SET_BIT(can_ip->FA1R, filternbrbitpos);
 607:ThirdParty/STM32F4xx_HAL_Driver/Src/stm32f4xx_hal_can.c ****     }
 608:ThirdParty/STM32F4xx_HAL_Driver/Src/stm32f4xx_hal_can.c **** 
 609:ThirdParty/STM32F4xx_HAL_Driver/Src/stm32f4xx_hal_can.c ****     /* Leave the initialisation mode for the filter */
 610:ThirdParty/STM32F4xx_HAL_Driver/Src/stm32f4xx_hal_can.c ****     CLEAR_BIT(can_ip->FMR, CAN_FMR_FINIT);
 611:ThirdParty/STM32F4xx_HAL_Driver/Src/stm32f4xx_hal_can.c **** 
 612:ThirdParty/STM32F4xx_HAL_Driver/Src/stm32f4xx_hal_can.c ****     /* Return function status */
 613:ThirdParty/STM32F4xx_HAL_Driver/Src/stm32f4xx_hal_can.c ****     return HAL_OK;
 614:ThirdParty/STM32F4xx_HAL_Driver/Src/stm32f4xx_hal_can.c ****   }
 615:ThirdParty/STM32F4xx_HAL_Driver/Src/stm32f4xx_hal_can.c ****   else
 616:ThirdParty/STM32F4xx_HAL_Driver/Src/stm32f4xx_hal_can.c ****   {
 617:ThirdParty/STM32F4xx_HAL_Driver/Src/stm32f4xx_hal_can.c ****     /* Update error code */
 618:ThirdParty/STM32F4xx_HAL_Driver/Src/stm32f4xx_hal_can.c ****     hcan->ErrorCode |= HAL_CAN_ERROR_NOT_INITIALIZED;
 387              		.loc 1 618 5 is_stmt 1 view .LVU112
 388              		.loc 1 618 21 is_stmt 0 view .LVU113
 389 0014 436A     		ldr	r3, [r0, #36]
 390 0016 43F48023 		orr	r3, r3, #262144
 391 001a 4362     		str	r3, [r0, #36]
 619:ThirdParty/STM32F4xx_HAL_Driver/Src/stm32f4xx_hal_can.c **** 
 620:ThirdParty/STM32F4xx_HAL_Driver/Src/stm32f4xx_hal_can.c ****     return HAL_ERROR;
 392              		.loc 1 620 5 is_stmt 1 view .LVU114
 393              		.loc 1 620 12 is_stmt 0 view .LVU115
 394 001c 0120     		movs	r0, #1
 395              	.LVL16:
 621:ThirdParty/STM32F4xx_HAL_Driver/Src/stm32f4xx_hal_can.c ****   }
 622:ThirdParty/STM32F4xx_HAL_Driver/Src/stm32f4xx_hal_can.c **** }
 396              		.loc 1 622 1 view .LVU116
 397 001e 7047     		bx	lr
 398              	.LVL17:
 399              	.L37:
 469:ThirdParty/STM32F4xx_HAL_Driver/Src/stm32f4xx_hal_can.c ****   uint32_t filternbrbitpos = 0U;
 400              		.loc 1 469 1 view .LVU117
 401 0020 30B5     		push	{r4, r5, lr}
 402              	.LCFI2:
 403              		.cfi_def_cfa_offset 12
 404              		.cfi_offset 4, -12
 405              		.cfi_offset 5, -8
 406              		.cfi_offset 14, -4
 477:ThirdParty/STM32F4xx_HAL_Driver/Src/stm32f4xx_hal_can.c ****     assert_param(IS_CAN_FILTER_ID_HALFWORD(sFilterConfig->FilterIdLow));
 407              		.loc 1 477 5 is_stmt 1 view .LVU118
 478:ThirdParty/STM32F4xx_HAL_Driver/Src/stm32f4xx_hal_can.c ****     assert_param(IS_CAN_FILTER_ID_HALFWORD(sFilterConfig->FilterMaskIdHigh));
 408              		.loc 1 478 5 view .LVU119
 479:ThirdParty/STM32F4xx_HAL_Driver/Src/stm32f4xx_hal_can.c ****     assert_param(IS_CAN_FILTER_ID_HALFWORD(sFilterConfig->FilterMaskIdLow));
 409              		.loc 1 479 5 view .LVU120
 480:ThirdParty/STM32F4xx_HAL_Driver/Src/stm32f4xx_hal_can.c ****     assert_param(IS_CAN_FILTER_MODE(sFilterConfig->FilterMode));
 410              		.loc 1 480 5 view .LVU121
 481:ThirdParty/STM32F4xx_HAL_Driver/Src/stm32f4xx_hal_can.c ****     assert_param(IS_CAN_FILTER_SCALE(sFilterConfig->FilterScale));
 411              		.loc 1 481 5 view .LVU122
 482:ThirdParty/STM32F4xx_HAL_Driver/Src/stm32f4xx_hal_can.c ****     assert_param(IS_CAN_FILTER_FIFO(sFilterConfig->FilterFIFOAssignment));
 412              		.loc 1 482 5 view .LVU123
 483:ThirdParty/STM32F4xx_HAL_Driver/Src/stm32f4xx_hal_can.c ****     assert_param(IS_FUNCTIONAL_STATE(sFilterConfig->FilterActivation));
 413              		.loc 1 483 5 view .LVU124
 484:ThirdParty/STM32F4xx_HAL_Driver/Src/stm32f4xx_hal_can.c **** 
 414              		.loc 1 484 5 view .LVU125
 508:ThirdParty/STM32F4xx_HAL_Driver/Src/stm32f4xx_hal_can.c **** 
 415              		.loc 1 508 5 view .LVU126
 416              	.LVL18:
ARM GAS  /tmp/cc6fvD8U.s 			page 21


 511:ThirdParty/STM32F4xx_HAL_Driver/Src/stm32f4xx_hal_can.c ****     assert_param(IS_CAN_FILTER_BANK_DUAL(sFilterConfig->SlaveStartFilterBank));
 417              		.loc 1 511 5 view .LVU127
 512:ThirdParty/STM32F4xx_HAL_Driver/Src/stm32f4xx_hal_can.c **** #else
 418              		.loc 1 512 5 view .LVU128
 521:ThirdParty/STM32F4xx_HAL_Driver/Src/stm32f4xx_hal_can.c **** 
 419              		.loc 1 521 5 view .LVU129
 420 0022 454B     		ldr	r3, .L52
 421 0024 D3F80022 		ldr	r2, [r3, #512]
 422 0028 42F00102 		orr	r2, r2, #1
 423 002c C3F80022 		str	r2, [r3, #512]
 534:ThirdParty/STM32F4xx_HAL_Driver/Src/stm32f4xx_hal_can.c ****     SET_BIT(can_ip->FMR, sFilterConfig->SlaveStartFilterBank << CAN_FMR_CAN2SB_Pos);
 424              		.loc 1 534 5 view .LVU130
 425 0030 D3F80022 		ldr	r2, [r3, #512]
 426 0034 22F47C52 		bic	r2, r2, #16128
 427 0038 C3F80022 		str	r2, [r3, #512]
 535:ThirdParty/STM32F4xx_HAL_Driver/Src/stm32f4xx_hal_can.c **** 
 428              		.loc 1 535 5 view .LVU131
 429 003c D3F80022 		ldr	r2, [r3, #512]
 430 0040 486A     		ldr	r0, [r1, #36]
 431              	.LVL19:
 535:ThirdParty/STM32F4xx_HAL_Driver/Src/stm32f4xx_hal_can.c **** 
 432              		.loc 1 535 5 is_stmt 0 view .LVU132
 433 0042 42EA0022 		orr	r2, r2, r0, lsl #8
 434 0046 C3F80022 		str	r2, [r3, #512]
 539:ThirdParty/STM32F4xx_HAL_Driver/Src/stm32f4xx_hal_can.c **** 
 435              		.loc 1 539 5 is_stmt 1 view .LVU133
 539:ThirdParty/STM32F4xx_HAL_Driver/Src/stm32f4xx_hal_can.c **** 
 436              		.loc 1 539 44 is_stmt 0 view .LVU134
 437 004a 4A69     		ldr	r2, [r1, #20]
 539:ThirdParty/STM32F4xx_HAL_Driver/Src/stm32f4xx_hal_can.c **** 
 438              		.loc 1 539 21 view .LVU135
 439 004c 0120     		movs	r0, #1
 440 004e 00FA02F2 		lsl	r2, r0, r2
 441              	.LVL20:
 542:ThirdParty/STM32F4xx_HAL_Driver/Src/stm32f4xx_hal_can.c **** 
 442              		.loc 1 542 5 is_stmt 1 view .LVU136
 443 0052 D3F81C02 		ldr	r0, [r3, #540]
 444 0056 6FEA020C 		mvn	ip, r2
 445 005a 20EA0200 		bic	r0, r0, r2
 446 005e C3F81C02 		str	r0, [r3, #540]
 545:ThirdParty/STM32F4xx_HAL_Driver/Src/stm32f4xx_hal_can.c ****     {
 447              		.loc 1 545 5 view .LVU137
 545:ThirdParty/STM32F4xx_HAL_Driver/Src/stm32f4xx_hal_can.c ****     {
 448              		.loc 1 545 22 is_stmt 0 view .LVU138
 449 0062 CB69     		ldr	r3, [r1, #28]
 545:ThirdParty/STM32F4xx_HAL_Driver/Src/stm32f4xx_hal_can.c ****     {
 450              		.loc 1 545 8 view .LVU139
 451 0064 C3B9     		cbnz	r3, .L39
 548:ThirdParty/STM32F4xx_HAL_Driver/Src/stm32f4xx_hal_can.c **** 
 452              		.loc 1 548 7 is_stmt 1 view .LVU140
 453 0066 344B     		ldr	r3, .L52
 454 0068 D3F80C02 		ldr	r0, [r3, #524]
 455 006c 0CEA0000 		and	r0, ip, r0
 456 0070 C3F80C02 		str	r0, [r3, #524]
 552:ThirdParty/STM32F4xx_HAL_Driver/Src/stm32f4xx_hal_can.c ****         ((0x0000FFFFU & (uint32_t)sFilterConfig->FilterMaskIdLow) << 16U) |
 457              		.loc 1 552 7 view .LVU141
 554:ThirdParty/STM32F4xx_HAL_Driver/Src/stm32f4xx_hal_can.c **** 
ARM GAS  /tmp/cc6fvD8U.s 			page 22


 458              		.loc 1 554 22 is_stmt 0 view .LVU142
 459 0074 8C88     		ldrh	r4, [r1, #4]
 552:ThirdParty/STM32F4xx_HAL_Driver/Src/stm32f4xx_hal_can.c ****         ((0x0000FFFFU & (uint32_t)sFilterConfig->FilterMaskIdLow) << 16U) |
 460              		.loc 1 552 44 view .LVU143
 461 0076 4869     		ldr	r0, [r1, #20]
 553:ThirdParty/STM32F4xx_HAL_Driver/Src/stm32f4xx_hal_can.c ****         (0x0000FFFFU & (uint32_t)sFilterConfig->FilterIdLow);
 462              		.loc 1 553 75 view .LVU144
 463 0078 CD68     		ldr	r5, [r1, #12]
 464 007a 44EA0544 		orr	r4, r4, r5, lsl #16
 552:ThirdParty/STM32F4xx_HAL_Driver/Src/stm32f4xx_hal_can.c ****         ((0x0000FFFFU & (uint32_t)sFilterConfig->FilterMaskIdLow) << 16U) |
 465              		.loc 1 552 62 view .LVU145
 466 007e 4830     		adds	r0, r0, #72
 467 0080 43F83040 		str	r4, [r3, r0, lsl #3]
 558:ThirdParty/STM32F4xx_HAL_Driver/Src/stm32f4xx_hal_can.c ****         ((0x0000FFFFU & (uint32_t)sFilterConfig->FilterMaskIdHigh) << 16U) |
 468              		.loc 1 558 7 is_stmt 1 view .LVU146
 559:ThirdParty/STM32F4xx_HAL_Driver/Src/stm32f4xx_hal_can.c ****         (0x0000FFFFU & (uint32_t)sFilterConfig->FilterIdHigh);
 469              		.loc 1 559 48 is_stmt 0 view .LVU147
 470 0084 8C68     		ldr	r4, [r1, #8]
 560:ThirdParty/STM32F4xx_HAL_Driver/Src/stm32f4xx_hal_can.c ****     }
 471              		.loc 1 560 22 view .LVU148
 472 0086 0888     		ldrh	r0, [r1]
 559:ThirdParty/STM32F4xx_HAL_Driver/Src/stm32f4xx_hal_can.c ****         (0x0000FFFFU & (uint32_t)sFilterConfig->FilterIdHigh);
 473              		.loc 1 559 76 view .LVU149
 474 0088 40EA0440 		orr	r0, r0, r4, lsl #16
 558:ThirdParty/STM32F4xx_HAL_Driver/Src/stm32f4xx_hal_can.c ****         ((0x0000FFFFU & (uint32_t)sFilterConfig->FilterMaskIdHigh) << 16U) |
 475              		.loc 1 558 62 view .LVU150
 476 008c 4C69     		ldr	r4, [r1, #20]
 477 008e 04F1480E 		add	lr, r4, #72
 478 0092 03EBCE03 		add	r3, r3, lr, lsl #3
 479 0096 5860     		str	r0, [r3, #4]
 480              	.L39:
 563:ThirdParty/STM32F4xx_HAL_Driver/Src/stm32f4xx_hal_can.c ****     {
 481              		.loc 1 563 5 is_stmt 1 view .LVU151
 563:ThirdParty/STM32F4xx_HAL_Driver/Src/stm32f4xx_hal_can.c ****     {
 482              		.loc 1 563 22 is_stmt 0 view .LVU152
 483 0098 CB69     		ldr	r3, [r1, #28]
 563:ThirdParty/STM32F4xx_HAL_Driver/Src/stm32f4xx_hal_can.c ****     {
 484              		.loc 1 563 8 view .LVU153
 485 009a 012B     		cmp	r3, #1
 486 009c 1ED0     		beq	.L50
 487              	.L40:
 580:ThirdParty/STM32F4xx_HAL_Driver/Src/stm32f4xx_hal_can.c ****     {
 488              		.loc 1 580 5 is_stmt 1 view .LVU154
 580:ThirdParty/STM32F4xx_HAL_Driver/Src/stm32f4xx_hal_can.c ****     {
 489              		.loc 1 580 22 is_stmt 0 view .LVU155
 490 009e 8B69     		ldr	r3, [r1, #24]
 580:ThirdParty/STM32F4xx_HAL_Driver/Src/stm32f4xx_hal_can.c ****     {
 491              		.loc 1 580 8 view .LVU156
 492 00a0 002B     		cmp	r3, #0
 493 00a2 33D1     		bne	.L41
 583:ThirdParty/STM32F4xx_HAL_Driver/Src/stm32f4xx_hal_can.c ****     }
 494              		.loc 1 583 7 is_stmt 1 view .LVU157
 495 00a4 2448     		ldr	r0, .L52
 496 00a6 D0F80432 		ldr	r3, [r0, #516]
 497 00aa 0CEA0303 		and	r3, ip, r3
 498 00ae C0F80432 		str	r3, [r0, #516]
 499              	.L42:
ARM GAS  /tmp/cc6fvD8U.s 			page 23


 592:ThirdParty/STM32F4xx_HAL_Driver/Src/stm32f4xx_hal_can.c ****     {
 500              		.loc 1 592 5 view .LVU158
 592:ThirdParty/STM32F4xx_HAL_Driver/Src/stm32f4xx_hal_can.c ****     {
 501              		.loc 1 592 22 is_stmt 0 view .LVU159
 502 00b2 0B69     		ldr	r3, [r1, #16]
 592:ThirdParty/STM32F4xx_HAL_Driver/Src/stm32f4xx_hal_can.c ****     {
 503              		.loc 1 592 8 view .LVU160
 504 00b4 8BBB     		cbnz	r3, .L43
 595:ThirdParty/STM32F4xx_HAL_Driver/Src/stm32f4xx_hal_can.c ****     }
 505              		.loc 1 595 7 is_stmt 1 view .LVU161
 506 00b6 2048     		ldr	r0, .L52
 507 00b8 D0F81432 		ldr	r3, [r0, #532]
 508 00bc 0CEA0303 		and	r3, ip, r3
 509 00c0 C0F81432 		str	r3, [r0, #532]
 510              	.L44:
 604:ThirdParty/STM32F4xx_HAL_Driver/Src/stm32f4xx_hal_can.c ****     {
 511              		.loc 1 604 5 view .LVU162
 604:ThirdParty/STM32F4xx_HAL_Driver/Src/stm32f4xx_hal_can.c ****     {
 512              		.loc 1 604 22 is_stmt 0 view .LVU163
 513 00c4 0B6A     		ldr	r3, [r1, #32]
 604:ThirdParty/STM32F4xx_HAL_Driver/Src/stm32f4xx_hal_can.c ****     {
 514              		.loc 1 604 8 view .LVU164
 515 00c6 012B     		cmp	r3, #1
 516 00c8 2ED0     		beq	.L51
 517              	.LVL21:
 518              	.L45:
 610:ThirdParty/STM32F4xx_HAL_Driver/Src/stm32f4xx_hal_can.c **** 
 519              		.loc 1 610 5 is_stmt 1 view .LVU165
 520 00ca 1B4A     		ldr	r2, .L52
 521 00cc D2F80032 		ldr	r3, [r2, #512]
 522 00d0 23F00103 		bic	r3, r3, #1
 523 00d4 C2F80032 		str	r3, [r2, #512]
 613:ThirdParty/STM32F4xx_HAL_Driver/Src/stm32f4xx_hal_can.c ****   }
 524              		.loc 1 613 5 view .LVU166
 613:ThirdParty/STM32F4xx_HAL_Driver/Src/stm32f4xx_hal_can.c ****   }
 525              		.loc 1 613 12 is_stmt 0 view .LVU167
 526 00d8 0020     		movs	r0, #0
 527              		.loc 1 622 1 view .LVU168
 528 00da 30BD     		pop	{r4, r5, pc}
 529              	.LVL22:
 530              	.L50:
 566:ThirdParty/STM32F4xx_HAL_Driver/Src/stm32f4xx_hal_can.c **** 
 531              		.loc 1 566 7 is_stmt 1 view .LVU169
 532 00dc 164B     		ldr	r3, .L52
 533 00de D3F80C02 		ldr	r0, [r3, #524]
 534 00e2 1043     		orrs	r0, r0, r2
 535 00e4 C3F80C02 		str	r0, [r3, #524]
 569:ThirdParty/STM32F4xx_HAL_Driver/Src/stm32f4xx_hal_can.c ****         ((0x0000FFFFU & (uint32_t)sFilterConfig->FilterIdHigh) << 16U) |
 536              		.loc 1 569 7 view .LVU170
 571:ThirdParty/STM32F4xx_HAL_Driver/Src/stm32f4xx_hal_can.c **** 
 537              		.loc 1 571 22 is_stmt 0 view .LVU171
 538 00e8 8C88     		ldrh	r4, [r1, #4]
 569:ThirdParty/STM32F4xx_HAL_Driver/Src/stm32f4xx_hal_can.c ****         ((0x0000FFFFU & (uint32_t)sFilterConfig->FilterIdHigh) << 16U) |
 539              		.loc 1 569 44 view .LVU172
 540 00ea 4869     		ldr	r0, [r1, #20]
 570:ThirdParty/STM32F4xx_HAL_Driver/Src/stm32f4xx_hal_can.c ****         (0x0000FFFFU & (uint32_t)sFilterConfig->FilterIdLow);
 541              		.loc 1 570 72 view .LVU173
ARM GAS  /tmp/cc6fvD8U.s 			page 24


 542 00ec 0D68     		ldr	r5, [r1]
 543 00ee 44EA0544 		orr	r4, r4, r5, lsl #16
 569:ThirdParty/STM32F4xx_HAL_Driver/Src/stm32f4xx_hal_can.c ****         ((0x0000FFFFU & (uint32_t)sFilterConfig->FilterIdHigh) << 16U) |
 544              		.loc 1 569 62 view .LVU174
 545 00f2 4830     		adds	r0, r0, #72
 546 00f4 43F83040 		str	r4, [r3, r0, lsl #3]
 574:ThirdParty/STM32F4xx_HAL_Driver/Src/stm32f4xx_hal_can.c ****         ((0x0000FFFFU & (uint32_t)sFilterConfig->FilterMaskIdHigh) << 16U) |
 547              		.loc 1 574 7 is_stmt 1 view .LVU175
 576:ThirdParty/STM32F4xx_HAL_Driver/Src/stm32f4xx_hal_can.c ****     }
 548              		.loc 1 576 22 is_stmt 0 view .LVU176
 549 00f8 8889     		ldrh	r0, [r1, #12]
 574:ThirdParty/STM32F4xx_HAL_Driver/Src/stm32f4xx_hal_can.c ****         ((0x0000FFFFU & (uint32_t)sFilterConfig->FilterMaskIdHigh) << 16U) |
 550              		.loc 1 574 44 view .LVU177
 551 00fa 4C69     		ldr	r4, [r1, #20]
 575:ThirdParty/STM32F4xx_HAL_Driver/Src/stm32f4xx_hal_can.c ****         (0x0000FFFFU & (uint32_t)sFilterConfig->FilterMaskIdLow);
 552              		.loc 1 575 76 view .LVU178
 553 00fc 8D68     		ldr	r5, [r1, #8]
 554 00fe 40EA0540 		orr	r0, r0, r5, lsl #16
 574:ThirdParty/STM32F4xx_HAL_Driver/Src/stm32f4xx_hal_can.c ****         ((0x0000FFFFU & (uint32_t)sFilterConfig->FilterMaskIdHigh) << 16U) |
 555              		.loc 1 574 62 view .LVU179
 556 0102 4834     		adds	r4, r4, #72
 557 0104 03EBC403 		add	r3, r3, r4, lsl #3
 558 0108 5860     		str	r0, [r3, #4]
 559 010a C8E7     		b	.L40
 560              	.L41:
 588:ThirdParty/STM32F4xx_HAL_Driver/Src/stm32f4xx_hal_can.c ****     }
 561              		.loc 1 588 7 is_stmt 1 view .LVU180
 562 010c 0A48     		ldr	r0, .L52
 563 010e D0F80432 		ldr	r3, [r0, #516]
 564 0112 1343     		orrs	r3, r3, r2
 565 0114 C0F80432 		str	r3, [r0, #516]
 566 0118 CBE7     		b	.L42
 567              	.L43:
 600:ThirdParty/STM32F4xx_HAL_Driver/Src/stm32f4xx_hal_can.c ****     }
 568              		.loc 1 600 7 view .LVU181
 569 011a 0748     		ldr	r0, .L52
 570 011c D0F81432 		ldr	r3, [r0, #532]
 571 0120 1343     		orrs	r3, r3, r2
 572 0122 C0F81432 		str	r3, [r0, #532]
 573 0126 CDE7     		b	.L44
 574              	.L51:
 606:ThirdParty/STM32F4xx_HAL_Driver/Src/stm32f4xx_hal_can.c ****     }
 575              		.loc 1 606 7 view .LVU182
 576 0128 0349     		ldr	r1, .L52
 577              	.LVL23:
 606:ThirdParty/STM32F4xx_HAL_Driver/Src/stm32f4xx_hal_can.c ****     }
 578              		.loc 1 606 7 is_stmt 0 view .LVU183
 579 012a D1F81C32 		ldr	r3, [r1, #540]
 580 012e 1A43     		orrs	r2, r2, r3
 581              	.LVL24:
 606:ThirdParty/STM32F4xx_HAL_Driver/Src/stm32f4xx_hal_can.c ****     }
 582              		.loc 1 606 7 view .LVU184
 583 0130 C1F81C22 		str	r2, [r1, #540]
 584 0134 C9E7     		b	.L45
 585              	.L53:
 586 0136 00BF     		.align	2
 587              	.L52:
ARM GAS  /tmp/cc6fvD8U.s 			page 25


 588 0138 00640040 		.word	1073767424
 589              		.cfi_endproc
 590              	.LFE137:
 592              		.section	.text.HAL_CAN_Start,"ax",%progbits
 593              		.align	1
 594              		.global	HAL_CAN_Start
 595              		.syntax unified
 596              		.thumb
 597              		.thumb_func
 599              	HAL_CAN_Start:
 600              	.LVL25:
 601              	.LFB138:
 623:ThirdParty/STM32F4xx_HAL_Driver/Src/stm32f4xx_hal_can.c **** 
 624:ThirdParty/STM32F4xx_HAL_Driver/Src/stm32f4xx_hal_can.c **** /**
 625:ThirdParty/STM32F4xx_HAL_Driver/Src/stm32f4xx_hal_can.c ****   * @}
 626:ThirdParty/STM32F4xx_HAL_Driver/Src/stm32f4xx_hal_can.c ****   */
 627:ThirdParty/STM32F4xx_HAL_Driver/Src/stm32f4xx_hal_can.c **** 
 628:ThirdParty/STM32F4xx_HAL_Driver/Src/stm32f4xx_hal_can.c **** /** @defgroup CAN_Exported_Functions_Group3 Control functions
 629:ThirdParty/STM32F4xx_HAL_Driver/Src/stm32f4xx_hal_can.c ****  *  @brief    Control functions
 630:ThirdParty/STM32F4xx_HAL_Driver/Src/stm32f4xx_hal_can.c ****  *
 631:ThirdParty/STM32F4xx_HAL_Driver/Src/stm32f4xx_hal_can.c **** @verbatim
 632:ThirdParty/STM32F4xx_HAL_Driver/Src/stm32f4xx_hal_can.c ****   ==============================================================================
 633:ThirdParty/STM32F4xx_HAL_Driver/Src/stm32f4xx_hal_can.c ****                       ##### Control functions #####
 634:ThirdParty/STM32F4xx_HAL_Driver/Src/stm32f4xx_hal_can.c ****   ==============================================================================
 635:ThirdParty/STM32F4xx_HAL_Driver/Src/stm32f4xx_hal_can.c ****     [..]  This section provides functions allowing to:
 636:ThirdParty/STM32F4xx_HAL_Driver/Src/stm32f4xx_hal_can.c ****       (+) HAL_CAN_Start                    : Start the CAN module
 637:ThirdParty/STM32F4xx_HAL_Driver/Src/stm32f4xx_hal_can.c ****       (+) HAL_CAN_Stop                     : Stop the CAN module
 638:ThirdParty/STM32F4xx_HAL_Driver/Src/stm32f4xx_hal_can.c ****       (+) HAL_CAN_RequestSleep             : Request sleep mode entry.
 639:ThirdParty/STM32F4xx_HAL_Driver/Src/stm32f4xx_hal_can.c ****       (+) HAL_CAN_WakeUp                   : Wake up from sleep mode.
 640:ThirdParty/STM32F4xx_HAL_Driver/Src/stm32f4xx_hal_can.c ****       (+) HAL_CAN_IsSleepActive            : Check is sleep mode is active.
 641:ThirdParty/STM32F4xx_HAL_Driver/Src/stm32f4xx_hal_can.c ****       (+) HAL_CAN_AddTxMessage             : Add a message to the Tx mailboxes
 642:ThirdParty/STM32F4xx_HAL_Driver/Src/stm32f4xx_hal_can.c ****                                              and activate the corresponding
 643:ThirdParty/STM32F4xx_HAL_Driver/Src/stm32f4xx_hal_can.c ****                                              transmission request
 644:ThirdParty/STM32F4xx_HAL_Driver/Src/stm32f4xx_hal_can.c ****       (+) HAL_CAN_AbortTxRequest           : Abort transmission request
 645:ThirdParty/STM32F4xx_HAL_Driver/Src/stm32f4xx_hal_can.c ****       (+) HAL_CAN_GetTxMailboxesFreeLevel  : Return Tx mailboxes free level
 646:ThirdParty/STM32F4xx_HAL_Driver/Src/stm32f4xx_hal_can.c ****       (+) HAL_CAN_IsTxMessagePending       : Check if a transmission request is
 647:ThirdParty/STM32F4xx_HAL_Driver/Src/stm32f4xx_hal_can.c ****                                              pending on the selected Tx mailbox
 648:ThirdParty/STM32F4xx_HAL_Driver/Src/stm32f4xx_hal_can.c ****       (+) HAL_CAN_GetRxMessage             : Get a CAN frame from the Rx FIFO
 649:ThirdParty/STM32F4xx_HAL_Driver/Src/stm32f4xx_hal_can.c ****       (+) HAL_CAN_GetRxFifoFillLevel       : Return Rx FIFO fill level
 650:ThirdParty/STM32F4xx_HAL_Driver/Src/stm32f4xx_hal_can.c **** 
 651:ThirdParty/STM32F4xx_HAL_Driver/Src/stm32f4xx_hal_can.c **** @endverbatim
 652:ThirdParty/STM32F4xx_HAL_Driver/Src/stm32f4xx_hal_can.c ****   * @{
 653:ThirdParty/STM32F4xx_HAL_Driver/Src/stm32f4xx_hal_can.c ****   */
 654:ThirdParty/STM32F4xx_HAL_Driver/Src/stm32f4xx_hal_can.c **** 
 655:ThirdParty/STM32F4xx_HAL_Driver/Src/stm32f4xx_hal_can.c **** /**
 656:ThirdParty/STM32F4xx_HAL_Driver/Src/stm32f4xx_hal_can.c ****   * @brief  Start the CAN module.
 657:ThirdParty/STM32F4xx_HAL_Driver/Src/stm32f4xx_hal_can.c ****   * @param  hcan pointer to an CAN_HandleTypeDef structure that contains
 658:ThirdParty/STM32F4xx_HAL_Driver/Src/stm32f4xx_hal_can.c ****   *         the configuration information for the specified CAN.
 659:ThirdParty/STM32F4xx_HAL_Driver/Src/stm32f4xx_hal_can.c ****   * @retval HAL status
 660:ThirdParty/STM32F4xx_HAL_Driver/Src/stm32f4xx_hal_can.c ****   */
 661:ThirdParty/STM32F4xx_HAL_Driver/Src/stm32f4xx_hal_can.c **** HAL_StatusTypeDef HAL_CAN_Start(CAN_HandleTypeDef *hcan)
 662:ThirdParty/STM32F4xx_HAL_Driver/Src/stm32f4xx_hal_can.c **** {
 602              		.loc 1 662 1 is_stmt 1 view -0
 603              		.cfi_startproc
 604              		@ args = 0, pretend = 0, frame = 0
 605              		@ frame_needed = 0, uses_anonymous_args = 0
 606              		.loc 1 662 1 is_stmt 0 view .LVU186
ARM GAS  /tmp/cc6fvD8U.s 			page 26


 607 0000 70B5     		push	{r4, r5, r6, lr}
 608              	.LCFI3:
 609              		.cfi_def_cfa_offset 16
 610              		.cfi_offset 4, -16
 611              		.cfi_offset 5, -12
 612              		.cfi_offset 6, -8
 613              		.cfi_offset 14, -4
 614 0002 0446     		mov	r4, r0
 663:ThirdParty/STM32F4xx_HAL_Driver/Src/stm32f4xx_hal_can.c ****   uint32_t tickstart = 0U;
 615              		.loc 1 663 3 is_stmt 1 view .LVU187
 616              	.LVL26:
 664:ThirdParty/STM32F4xx_HAL_Driver/Src/stm32f4xx_hal_can.c **** 
 665:ThirdParty/STM32F4xx_HAL_Driver/Src/stm32f4xx_hal_can.c ****   if (hcan->State == HAL_CAN_STATE_READY)
 617              		.loc 1 665 3 view .LVU188
 618              		.loc 1 665 11 is_stmt 0 view .LVU189
 619 0004 90F82050 		ldrb	r5, [r0, #32]	@ zero_extendqisi2
 620 0008 EDB2     		uxtb	r5, r5
 621              		.loc 1 665 6 view .LVU190
 622 000a 012D     		cmp	r5, #1
 623 000c 06D0     		beq	.L60
 666:ThirdParty/STM32F4xx_HAL_Driver/Src/stm32f4xx_hal_can.c ****   {
 667:ThirdParty/STM32F4xx_HAL_Driver/Src/stm32f4xx_hal_can.c ****     /* Change CAN peripheral state */
 668:ThirdParty/STM32F4xx_HAL_Driver/Src/stm32f4xx_hal_can.c ****     hcan->State = HAL_CAN_STATE_LISTENING;
 669:ThirdParty/STM32F4xx_HAL_Driver/Src/stm32f4xx_hal_can.c **** 
 670:ThirdParty/STM32F4xx_HAL_Driver/Src/stm32f4xx_hal_can.c ****     /* Request leave initialisation */
 671:ThirdParty/STM32F4xx_HAL_Driver/Src/stm32f4xx_hal_can.c ****     CLEAR_BIT(hcan->Instance->MCR, CAN_MCR_INRQ);
 672:ThirdParty/STM32F4xx_HAL_Driver/Src/stm32f4xx_hal_can.c **** 
 673:ThirdParty/STM32F4xx_HAL_Driver/Src/stm32f4xx_hal_can.c ****     /* Get tick */
 674:ThirdParty/STM32F4xx_HAL_Driver/Src/stm32f4xx_hal_can.c ****     tickstart = HAL_GetTick();
 675:ThirdParty/STM32F4xx_HAL_Driver/Src/stm32f4xx_hal_can.c **** 
 676:ThirdParty/STM32F4xx_HAL_Driver/Src/stm32f4xx_hal_can.c ****     /* Wait the acknowledge */
 677:ThirdParty/STM32F4xx_HAL_Driver/Src/stm32f4xx_hal_can.c ****     while ((hcan->Instance->MSR & CAN_MSR_INAK) != RESET)
 678:ThirdParty/STM32F4xx_HAL_Driver/Src/stm32f4xx_hal_can.c ****     {
 679:ThirdParty/STM32F4xx_HAL_Driver/Src/stm32f4xx_hal_can.c ****       /* Check for the Timeout */
 680:ThirdParty/STM32F4xx_HAL_Driver/Src/stm32f4xx_hal_can.c ****       if ((HAL_GetTick() - tickstart) > CAN_TIMEOUT_VALUE)
 681:ThirdParty/STM32F4xx_HAL_Driver/Src/stm32f4xx_hal_can.c ****       {
 682:ThirdParty/STM32F4xx_HAL_Driver/Src/stm32f4xx_hal_can.c ****         /* Update error code */
 683:ThirdParty/STM32F4xx_HAL_Driver/Src/stm32f4xx_hal_can.c ****         hcan->ErrorCode |= HAL_CAN_ERROR_TIMEOUT;
 684:ThirdParty/STM32F4xx_HAL_Driver/Src/stm32f4xx_hal_can.c **** 
 685:ThirdParty/STM32F4xx_HAL_Driver/Src/stm32f4xx_hal_can.c ****         /* Change CAN state */
 686:ThirdParty/STM32F4xx_HAL_Driver/Src/stm32f4xx_hal_can.c ****         hcan->State = HAL_CAN_STATE_ERROR;
 687:ThirdParty/STM32F4xx_HAL_Driver/Src/stm32f4xx_hal_can.c **** 
 688:ThirdParty/STM32F4xx_HAL_Driver/Src/stm32f4xx_hal_can.c ****         return HAL_ERROR;
 689:ThirdParty/STM32F4xx_HAL_Driver/Src/stm32f4xx_hal_can.c ****       }
 690:ThirdParty/STM32F4xx_HAL_Driver/Src/stm32f4xx_hal_can.c ****     }
 691:ThirdParty/STM32F4xx_HAL_Driver/Src/stm32f4xx_hal_can.c **** 
 692:ThirdParty/STM32F4xx_HAL_Driver/Src/stm32f4xx_hal_can.c ****     /* Reset the CAN ErrorCode */
 693:ThirdParty/STM32F4xx_HAL_Driver/Src/stm32f4xx_hal_can.c ****     hcan->ErrorCode = HAL_CAN_ERROR_NONE;
 694:ThirdParty/STM32F4xx_HAL_Driver/Src/stm32f4xx_hal_can.c **** 
 695:ThirdParty/STM32F4xx_HAL_Driver/Src/stm32f4xx_hal_can.c ****     /* Return function status */
 696:ThirdParty/STM32F4xx_HAL_Driver/Src/stm32f4xx_hal_can.c ****     return HAL_OK;
 697:ThirdParty/STM32F4xx_HAL_Driver/Src/stm32f4xx_hal_can.c ****   }
 698:ThirdParty/STM32F4xx_HAL_Driver/Src/stm32f4xx_hal_can.c ****   else
 699:ThirdParty/STM32F4xx_HAL_Driver/Src/stm32f4xx_hal_can.c ****   {
 700:ThirdParty/STM32F4xx_HAL_Driver/Src/stm32f4xx_hal_can.c ****     /* Update error code */
 701:ThirdParty/STM32F4xx_HAL_Driver/Src/stm32f4xx_hal_can.c ****     hcan->ErrorCode |= HAL_CAN_ERROR_NOT_READY;
 624              		.loc 1 701 5 is_stmt 1 view .LVU191
ARM GAS  /tmp/cc6fvD8U.s 			page 27


 625              		.loc 1 701 21 is_stmt 0 view .LVU192
 626 000e 436A     		ldr	r3, [r0, #36]
 627 0010 43F40023 		orr	r3, r3, #524288
 628 0014 4362     		str	r3, [r0, #36]
 702:ThirdParty/STM32F4xx_HAL_Driver/Src/stm32f4xx_hal_can.c **** 
 703:ThirdParty/STM32F4xx_HAL_Driver/Src/stm32f4xx_hal_can.c ****     return HAL_ERROR;
 629              		.loc 1 703 5 is_stmt 1 view .LVU193
 630              		.loc 1 703 12 is_stmt 0 view .LVU194
 631 0016 0125     		movs	r5, #1
 632              	.LVL27:
 633              	.L57:
 704:ThirdParty/STM32F4xx_HAL_Driver/Src/stm32f4xx_hal_can.c ****   }
 705:ThirdParty/STM32F4xx_HAL_Driver/Src/stm32f4xx_hal_can.c **** }
 634              		.loc 1 705 1 view .LVU195
 635 0018 2846     		mov	r0, r5
 636 001a 70BD     		pop	{r4, r5, r6, pc}
 637              	.LVL28:
 638              	.L60:
 668:ThirdParty/STM32F4xx_HAL_Driver/Src/stm32f4xx_hal_can.c **** 
 639              		.loc 1 668 5 is_stmt 1 view .LVU196
 668:ThirdParty/STM32F4xx_HAL_Driver/Src/stm32f4xx_hal_can.c **** 
 640              		.loc 1 668 17 is_stmt 0 view .LVU197
 641 001c 0223     		movs	r3, #2
 642 001e 80F82030 		strb	r3, [r0, #32]
 671:ThirdParty/STM32F4xx_HAL_Driver/Src/stm32f4xx_hal_can.c **** 
 643              		.loc 1 671 5 is_stmt 1 view .LVU198
 644 0022 0268     		ldr	r2, [r0]
 645 0024 1368     		ldr	r3, [r2]
 646 0026 23F00103 		bic	r3, r3, #1
 647 002a 1360     		str	r3, [r2]
 674:ThirdParty/STM32F4xx_HAL_Driver/Src/stm32f4xx_hal_can.c **** 
 648              		.loc 1 674 5 view .LVU199
 674:ThirdParty/STM32F4xx_HAL_Driver/Src/stm32f4xx_hal_can.c **** 
 649              		.loc 1 674 17 is_stmt 0 view .LVU200
 650 002c FFF7FEFF 		bl	HAL_GetTick
 651              	.LVL29:
 674:ThirdParty/STM32F4xx_HAL_Driver/Src/stm32f4xx_hal_can.c **** 
 652              		.loc 1 674 17 view .LVU201
 653 0030 0646     		mov	r6, r0
 654              	.LVL30:
 677:ThirdParty/STM32F4xx_HAL_Driver/Src/stm32f4xx_hal_can.c ****     {
 655              		.loc 1 677 5 is_stmt 1 view .LVU202
 656              	.L56:
 677:ThirdParty/STM32F4xx_HAL_Driver/Src/stm32f4xx_hal_can.c ****     {
 657              		.loc 1 677 11 view .LVU203
 677:ThirdParty/STM32F4xx_HAL_Driver/Src/stm32f4xx_hal_can.c ****     {
 658              		.loc 1 677 17 is_stmt 0 view .LVU204
 659 0032 2368     		ldr	r3, [r4]
 677:ThirdParty/STM32F4xx_HAL_Driver/Src/stm32f4xx_hal_can.c ****     {
 660              		.loc 1 677 27 view .LVU205
 661 0034 5B68     		ldr	r3, [r3, #4]
 677:ThirdParty/STM32F4xx_HAL_Driver/Src/stm32f4xx_hal_can.c ****     {
 662              		.loc 1 677 11 view .LVU206
 663 0036 13F0010F 		tst	r3, #1
 664 003a 0CD0     		beq	.L61
 680:ThirdParty/STM32F4xx_HAL_Driver/Src/stm32f4xx_hal_can.c ****       {
 665              		.loc 1 680 7 is_stmt 1 view .LVU207
ARM GAS  /tmp/cc6fvD8U.s 			page 28


 680:ThirdParty/STM32F4xx_HAL_Driver/Src/stm32f4xx_hal_can.c ****       {
 666              		.loc 1 680 12 is_stmt 0 view .LVU208
 667 003c FFF7FEFF 		bl	HAL_GetTick
 668              	.LVL31:
 680:ThirdParty/STM32F4xx_HAL_Driver/Src/stm32f4xx_hal_can.c ****       {
 669              		.loc 1 680 26 view .LVU209
 670 0040 831B     		subs	r3, r0, r6
 680:ThirdParty/STM32F4xx_HAL_Driver/Src/stm32f4xx_hal_can.c ****       {
 671              		.loc 1 680 10 view .LVU210
 672 0042 0A2B     		cmp	r3, #10
 673 0044 F5D9     		bls	.L56
 683:ThirdParty/STM32F4xx_HAL_Driver/Src/stm32f4xx_hal_can.c **** 
 674              		.loc 1 683 9 is_stmt 1 view .LVU211
 683:ThirdParty/STM32F4xx_HAL_Driver/Src/stm32f4xx_hal_can.c **** 
 675              		.loc 1 683 25 is_stmt 0 view .LVU212
 676 0046 636A     		ldr	r3, [r4, #36]
 677 0048 43F40033 		orr	r3, r3, #131072
 678 004c 6362     		str	r3, [r4, #36]
 686:ThirdParty/STM32F4xx_HAL_Driver/Src/stm32f4xx_hal_can.c **** 
 679              		.loc 1 686 9 is_stmt 1 view .LVU213
 686:ThirdParty/STM32F4xx_HAL_Driver/Src/stm32f4xx_hal_can.c **** 
 680              		.loc 1 686 21 is_stmt 0 view .LVU214
 681 004e 0523     		movs	r3, #5
 682 0050 84F82030 		strb	r3, [r4, #32]
 688:ThirdParty/STM32F4xx_HAL_Driver/Src/stm32f4xx_hal_can.c ****       }
 683              		.loc 1 688 9 is_stmt 1 view .LVU215
 688:ThirdParty/STM32F4xx_HAL_Driver/Src/stm32f4xx_hal_can.c ****       }
 684              		.loc 1 688 16 is_stmt 0 view .LVU216
 685 0054 E0E7     		b	.L57
 686              	.L61:
 693:ThirdParty/STM32F4xx_HAL_Driver/Src/stm32f4xx_hal_can.c **** 
 687              		.loc 1 693 5 is_stmt 1 view .LVU217
 693:ThirdParty/STM32F4xx_HAL_Driver/Src/stm32f4xx_hal_can.c **** 
 688              		.loc 1 693 21 is_stmt 0 view .LVU218
 689 0056 0025     		movs	r5, #0
 690 0058 6562     		str	r5, [r4, #36]
 696:ThirdParty/STM32F4xx_HAL_Driver/Src/stm32f4xx_hal_can.c ****   }
 691              		.loc 1 696 5 is_stmt 1 view .LVU219
 696:ThirdParty/STM32F4xx_HAL_Driver/Src/stm32f4xx_hal_can.c ****   }
 692              		.loc 1 696 12 is_stmt 0 view .LVU220
 693 005a DDE7     		b	.L57
 694              		.cfi_endproc
 695              	.LFE138:
 697              		.section	.text.HAL_CAN_Stop,"ax",%progbits
 698              		.align	1
 699              		.global	HAL_CAN_Stop
 700              		.syntax unified
 701              		.thumb
 702              		.thumb_func
 704              	HAL_CAN_Stop:
 705              	.LVL32:
 706              	.LFB139:
 706:ThirdParty/STM32F4xx_HAL_Driver/Src/stm32f4xx_hal_can.c **** 
 707:ThirdParty/STM32F4xx_HAL_Driver/Src/stm32f4xx_hal_can.c **** /**
 708:ThirdParty/STM32F4xx_HAL_Driver/Src/stm32f4xx_hal_can.c ****   * @brief  Stop the CAN module and enable access to configuration registers.
 709:ThirdParty/STM32F4xx_HAL_Driver/Src/stm32f4xx_hal_can.c ****   * @param  hcan pointer to an CAN_HandleTypeDef structure that contains
 710:ThirdParty/STM32F4xx_HAL_Driver/Src/stm32f4xx_hal_can.c ****   *         the configuration information for the specified CAN.
ARM GAS  /tmp/cc6fvD8U.s 			page 29


 711:ThirdParty/STM32F4xx_HAL_Driver/Src/stm32f4xx_hal_can.c ****   * @retval HAL status
 712:ThirdParty/STM32F4xx_HAL_Driver/Src/stm32f4xx_hal_can.c ****   */
 713:ThirdParty/STM32F4xx_HAL_Driver/Src/stm32f4xx_hal_can.c **** HAL_StatusTypeDef HAL_CAN_Stop(CAN_HandleTypeDef *hcan)
 714:ThirdParty/STM32F4xx_HAL_Driver/Src/stm32f4xx_hal_can.c **** {
 707              		.loc 1 714 1 is_stmt 1 view -0
 708              		.cfi_startproc
 709              		@ args = 0, pretend = 0, frame = 0
 710              		@ frame_needed = 0, uses_anonymous_args = 0
 711              		.loc 1 714 1 is_stmt 0 view .LVU222
 712 0000 38B5     		push	{r3, r4, r5, lr}
 713              	.LCFI4:
 714              		.cfi_def_cfa_offset 16
 715              		.cfi_offset 3, -16
 716              		.cfi_offset 4, -12
 717              		.cfi_offset 5, -8
 718              		.cfi_offset 14, -4
 719 0002 0446     		mov	r4, r0
 715:ThirdParty/STM32F4xx_HAL_Driver/Src/stm32f4xx_hal_can.c ****   uint32_t tickstart = 0U;
 720              		.loc 1 715 3 is_stmt 1 view .LVU223
 721              	.LVL33:
 716:ThirdParty/STM32F4xx_HAL_Driver/Src/stm32f4xx_hal_can.c **** 
 717:ThirdParty/STM32F4xx_HAL_Driver/Src/stm32f4xx_hal_can.c ****   if (hcan->State == HAL_CAN_STATE_LISTENING)
 722              		.loc 1 717 3 view .LVU224
 723              		.loc 1 717 11 is_stmt 0 view .LVU225
 724 0004 90F82030 		ldrb	r3, [r0, #32]	@ zero_extendqisi2
 725 0008 DBB2     		uxtb	r3, r3
 726              		.loc 1 717 6 view .LVU226
 727 000a 022B     		cmp	r3, #2
 728 000c 05D0     		beq	.L68
 718:ThirdParty/STM32F4xx_HAL_Driver/Src/stm32f4xx_hal_can.c ****   {
 719:ThirdParty/STM32F4xx_HAL_Driver/Src/stm32f4xx_hal_can.c ****     /* Request initialisation */
 720:ThirdParty/STM32F4xx_HAL_Driver/Src/stm32f4xx_hal_can.c ****     SET_BIT(hcan->Instance->MCR, CAN_MCR_INRQ);
 721:ThirdParty/STM32F4xx_HAL_Driver/Src/stm32f4xx_hal_can.c **** 
 722:ThirdParty/STM32F4xx_HAL_Driver/Src/stm32f4xx_hal_can.c ****     /* Get tick */
 723:ThirdParty/STM32F4xx_HAL_Driver/Src/stm32f4xx_hal_can.c ****     tickstart = HAL_GetTick();
 724:ThirdParty/STM32F4xx_HAL_Driver/Src/stm32f4xx_hal_can.c **** 
 725:ThirdParty/STM32F4xx_HAL_Driver/Src/stm32f4xx_hal_can.c ****     /* Wait the acknowledge */
 726:ThirdParty/STM32F4xx_HAL_Driver/Src/stm32f4xx_hal_can.c ****     while ((hcan->Instance->MSR & CAN_MSR_INAK) == RESET)
 727:ThirdParty/STM32F4xx_HAL_Driver/Src/stm32f4xx_hal_can.c ****     {
 728:ThirdParty/STM32F4xx_HAL_Driver/Src/stm32f4xx_hal_can.c ****       /* Check for the Timeout */
 729:ThirdParty/STM32F4xx_HAL_Driver/Src/stm32f4xx_hal_can.c ****       if ((HAL_GetTick() - tickstart) > CAN_TIMEOUT_VALUE)
 730:ThirdParty/STM32F4xx_HAL_Driver/Src/stm32f4xx_hal_can.c ****       {
 731:ThirdParty/STM32F4xx_HAL_Driver/Src/stm32f4xx_hal_can.c ****         /* Update error code */
 732:ThirdParty/STM32F4xx_HAL_Driver/Src/stm32f4xx_hal_can.c ****         hcan->ErrorCode |= HAL_CAN_ERROR_TIMEOUT;
 733:ThirdParty/STM32F4xx_HAL_Driver/Src/stm32f4xx_hal_can.c **** 
 734:ThirdParty/STM32F4xx_HAL_Driver/Src/stm32f4xx_hal_can.c ****         /* Change CAN state */
 735:ThirdParty/STM32F4xx_HAL_Driver/Src/stm32f4xx_hal_can.c ****         hcan->State = HAL_CAN_STATE_ERROR;
 736:ThirdParty/STM32F4xx_HAL_Driver/Src/stm32f4xx_hal_can.c **** 
 737:ThirdParty/STM32F4xx_HAL_Driver/Src/stm32f4xx_hal_can.c ****         return HAL_ERROR;
 738:ThirdParty/STM32F4xx_HAL_Driver/Src/stm32f4xx_hal_can.c ****       }
 739:ThirdParty/STM32F4xx_HAL_Driver/Src/stm32f4xx_hal_can.c ****     }
 740:ThirdParty/STM32F4xx_HAL_Driver/Src/stm32f4xx_hal_can.c **** 
 741:ThirdParty/STM32F4xx_HAL_Driver/Src/stm32f4xx_hal_can.c ****     /* Exit from sleep mode */
 742:ThirdParty/STM32F4xx_HAL_Driver/Src/stm32f4xx_hal_can.c ****     CLEAR_BIT(hcan->Instance->MCR, CAN_MCR_SLEEP);
 743:ThirdParty/STM32F4xx_HAL_Driver/Src/stm32f4xx_hal_can.c **** 
 744:ThirdParty/STM32F4xx_HAL_Driver/Src/stm32f4xx_hal_can.c ****     /* Change CAN peripheral state */
 745:ThirdParty/STM32F4xx_HAL_Driver/Src/stm32f4xx_hal_can.c ****     hcan->State = HAL_CAN_STATE_READY;
ARM GAS  /tmp/cc6fvD8U.s 			page 30


 746:ThirdParty/STM32F4xx_HAL_Driver/Src/stm32f4xx_hal_can.c **** 
 747:ThirdParty/STM32F4xx_HAL_Driver/Src/stm32f4xx_hal_can.c ****     /* Return function status */
 748:ThirdParty/STM32F4xx_HAL_Driver/Src/stm32f4xx_hal_can.c ****     return HAL_OK;
 749:ThirdParty/STM32F4xx_HAL_Driver/Src/stm32f4xx_hal_can.c ****   }
 750:ThirdParty/STM32F4xx_HAL_Driver/Src/stm32f4xx_hal_can.c ****   else
 751:ThirdParty/STM32F4xx_HAL_Driver/Src/stm32f4xx_hal_can.c ****   {
 752:ThirdParty/STM32F4xx_HAL_Driver/Src/stm32f4xx_hal_can.c ****     /* Update error code */
 753:ThirdParty/STM32F4xx_HAL_Driver/Src/stm32f4xx_hal_can.c ****     hcan->ErrorCode |= HAL_CAN_ERROR_NOT_STARTED;
 729              		.loc 1 753 5 is_stmt 1 view .LVU227
 730              		.loc 1 753 21 is_stmt 0 view .LVU228
 731 000e 436A     		ldr	r3, [r0, #36]
 732 0010 43F48013 		orr	r3, r3, #1048576
 733 0014 4362     		str	r3, [r0, #36]
 754:ThirdParty/STM32F4xx_HAL_Driver/Src/stm32f4xx_hal_can.c **** 
 755:ThirdParty/STM32F4xx_HAL_Driver/Src/stm32f4xx_hal_can.c ****     return HAL_ERROR;
 734              		.loc 1 755 5 is_stmt 1 view .LVU229
 735              		.loc 1 755 12 is_stmt 0 view .LVU230
 736 0016 0120     		movs	r0, #1
 737              	.LVL34:
 738              	.L65:
 756:ThirdParty/STM32F4xx_HAL_Driver/Src/stm32f4xx_hal_can.c ****   }
 757:ThirdParty/STM32F4xx_HAL_Driver/Src/stm32f4xx_hal_can.c **** }
 739              		.loc 1 757 1 view .LVU231
 740 0018 38BD     		pop	{r3, r4, r5, pc}
 741              	.LVL35:
 742              	.L68:
 720:ThirdParty/STM32F4xx_HAL_Driver/Src/stm32f4xx_hal_can.c **** 
 743              		.loc 1 720 5 is_stmt 1 view .LVU232
 744 001a 0268     		ldr	r2, [r0]
 745 001c 1368     		ldr	r3, [r2]
 746 001e 43F00103 		orr	r3, r3, #1
 747 0022 1360     		str	r3, [r2]
 723:ThirdParty/STM32F4xx_HAL_Driver/Src/stm32f4xx_hal_can.c **** 
 748              		.loc 1 723 5 view .LVU233
 723:ThirdParty/STM32F4xx_HAL_Driver/Src/stm32f4xx_hal_can.c **** 
 749              		.loc 1 723 17 is_stmt 0 view .LVU234
 750 0024 FFF7FEFF 		bl	HAL_GetTick
 751              	.LVL36:
 723:ThirdParty/STM32F4xx_HAL_Driver/Src/stm32f4xx_hal_can.c **** 
 752              		.loc 1 723 17 view .LVU235
 753 0028 0546     		mov	r5, r0
 754              	.LVL37:
 726:ThirdParty/STM32F4xx_HAL_Driver/Src/stm32f4xx_hal_can.c ****     {
 755              		.loc 1 726 5 is_stmt 1 view .LVU236
 756              	.L64:
 726:ThirdParty/STM32F4xx_HAL_Driver/Src/stm32f4xx_hal_can.c ****     {
 757              		.loc 1 726 11 view .LVU237
 726:ThirdParty/STM32F4xx_HAL_Driver/Src/stm32f4xx_hal_can.c ****     {
 758              		.loc 1 726 17 is_stmt 0 view .LVU238
 759 002a 2368     		ldr	r3, [r4]
 726:ThirdParty/STM32F4xx_HAL_Driver/Src/stm32f4xx_hal_can.c ****     {
 760              		.loc 1 726 27 view .LVU239
 761 002c 5A68     		ldr	r2, [r3, #4]
 726:ThirdParty/STM32F4xx_HAL_Driver/Src/stm32f4xx_hal_can.c ****     {
 762              		.loc 1 726 11 view .LVU240
 763 002e 12F0010F 		tst	r2, #1
 764 0032 0DD1     		bne	.L69
ARM GAS  /tmp/cc6fvD8U.s 			page 31


 729:ThirdParty/STM32F4xx_HAL_Driver/Src/stm32f4xx_hal_can.c ****       {
 765              		.loc 1 729 7 is_stmt 1 view .LVU241
 729:ThirdParty/STM32F4xx_HAL_Driver/Src/stm32f4xx_hal_can.c ****       {
 766              		.loc 1 729 12 is_stmt 0 view .LVU242
 767 0034 FFF7FEFF 		bl	HAL_GetTick
 768              	.LVL38:
 729:ThirdParty/STM32F4xx_HAL_Driver/Src/stm32f4xx_hal_can.c ****       {
 769              		.loc 1 729 26 view .LVU243
 770 0038 431B     		subs	r3, r0, r5
 729:ThirdParty/STM32F4xx_HAL_Driver/Src/stm32f4xx_hal_can.c ****       {
 771              		.loc 1 729 10 view .LVU244
 772 003a 0A2B     		cmp	r3, #10
 773 003c F5D9     		bls	.L64
 732:ThirdParty/STM32F4xx_HAL_Driver/Src/stm32f4xx_hal_can.c **** 
 774              		.loc 1 732 9 is_stmt 1 view .LVU245
 732:ThirdParty/STM32F4xx_HAL_Driver/Src/stm32f4xx_hal_can.c **** 
 775              		.loc 1 732 25 is_stmt 0 view .LVU246
 776 003e 636A     		ldr	r3, [r4, #36]
 777 0040 43F40033 		orr	r3, r3, #131072
 778 0044 6362     		str	r3, [r4, #36]
 735:ThirdParty/STM32F4xx_HAL_Driver/Src/stm32f4xx_hal_can.c **** 
 779              		.loc 1 735 9 is_stmt 1 view .LVU247
 735:ThirdParty/STM32F4xx_HAL_Driver/Src/stm32f4xx_hal_can.c **** 
 780              		.loc 1 735 21 is_stmt 0 view .LVU248
 781 0046 0523     		movs	r3, #5
 782 0048 84F82030 		strb	r3, [r4, #32]
 737:ThirdParty/STM32F4xx_HAL_Driver/Src/stm32f4xx_hal_can.c ****       }
 783              		.loc 1 737 9 is_stmt 1 view .LVU249
 737:ThirdParty/STM32F4xx_HAL_Driver/Src/stm32f4xx_hal_can.c ****       }
 784              		.loc 1 737 16 is_stmt 0 view .LVU250
 785 004c 0120     		movs	r0, #1
 786 004e E3E7     		b	.L65
 787              	.L69:
 742:ThirdParty/STM32F4xx_HAL_Driver/Src/stm32f4xx_hal_can.c **** 
 788              		.loc 1 742 5 is_stmt 1 view .LVU251
 789 0050 1A68     		ldr	r2, [r3]
 790 0052 22F00202 		bic	r2, r2, #2
 791 0056 1A60     		str	r2, [r3]
 745:ThirdParty/STM32F4xx_HAL_Driver/Src/stm32f4xx_hal_can.c **** 
 792              		.loc 1 745 5 view .LVU252
 745:ThirdParty/STM32F4xx_HAL_Driver/Src/stm32f4xx_hal_can.c **** 
 793              		.loc 1 745 17 is_stmt 0 view .LVU253
 794 0058 0123     		movs	r3, #1
 795 005a 84F82030 		strb	r3, [r4, #32]
 748:ThirdParty/STM32F4xx_HAL_Driver/Src/stm32f4xx_hal_can.c ****   }
 796              		.loc 1 748 5 is_stmt 1 view .LVU254
 748:ThirdParty/STM32F4xx_HAL_Driver/Src/stm32f4xx_hal_can.c ****   }
 797              		.loc 1 748 12 is_stmt 0 view .LVU255
 798 005e 0020     		movs	r0, #0
 799 0060 DAE7     		b	.L65
 800              		.cfi_endproc
 801              	.LFE139:
 803              		.section	.text.HAL_CAN_DeInit,"ax",%progbits
 804              		.align	1
 805              		.global	HAL_CAN_DeInit
 806              		.syntax unified
 807              		.thumb
ARM GAS  /tmp/cc6fvD8U.s 			page 32


 808              		.thumb_func
 810              	HAL_CAN_DeInit:
 811              	.LVL39:
 812              	.LFB134:
 379:ThirdParty/STM32F4xx_HAL_Driver/Src/stm32f4xx_hal_can.c ****   /* Check CAN handle */
 813              		.loc 1 379 1 is_stmt 1 view -0
 814              		.cfi_startproc
 815              		@ args = 0, pretend = 0, frame = 0
 816              		@ frame_needed = 0, uses_anonymous_args = 0
 381:ThirdParty/STM32F4xx_HAL_Driver/Src/stm32f4xx_hal_can.c ****   {
 817              		.loc 1 381 3 view .LVU257
 381:ThirdParty/STM32F4xx_HAL_Driver/Src/stm32f4xx_hal_can.c ****   {
 818              		.loc 1 381 6 is_stmt 0 view .LVU258
 819 0000 80B1     		cbz	r0, .L72
 379:ThirdParty/STM32F4xx_HAL_Driver/Src/stm32f4xx_hal_can.c ****   /* Check CAN handle */
 820              		.loc 1 379 1 view .LVU259
 821 0002 10B5     		push	{r4, lr}
 822              	.LCFI5:
 823              		.cfi_def_cfa_offset 8
 824              		.cfi_offset 4, -8
 825              		.cfi_offset 14, -4
 826 0004 0446     		mov	r4, r0
 387:ThirdParty/STM32F4xx_HAL_Driver/Src/stm32f4xx_hal_can.c **** 
 827              		.loc 1 387 3 is_stmt 1 view .LVU260
 390:ThirdParty/STM32F4xx_HAL_Driver/Src/stm32f4xx_hal_can.c **** 
 828              		.loc 1 390 3 view .LVU261
 829 0006 FFF7FEFF 		bl	HAL_CAN_Stop
 830              	.LVL40:
 393:ThirdParty/STM32F4xx_HAL_Driver/Src/stm32f4xx_hal_can.c **** 
 831              		.loc 1 393 3 view .LVU262
 832 000a 2046     		mov	r0, r4
 833 000c FFF7FEFF 		bl	HAL_CAN_MspDeInit
 834              	.LVL41:
 396:ThirdParty/STM32F4xx_HAL_Driver/Src/stm32f4xx_hal_can.c **** 
 835              		.loc 1 396 3 view .LVU263
 836 0010 2268     		ldr	r2, [r4]
 837 0012 1368     		ldr	r3, [r2]
 838 0014 43F40043 		orr	r3, r3, #32768
 839 0018 1360     		str	r3, [r2]
 399:ThirdParty/STM32F4xx_HAL_Driver/Src/stm32f4xx_hal_can.c **** 
 840              		.loc 1 399 3 view .LVU264
 399:ThirdParty/STM32F4xx_HAL_Driver/Src/stm32f4xx_hal_can.c **** 
 841              		.loc 1 399 19 is_stmt 0 view .LVU265
 842 001a 0020     		movs	r0, #0
 843 001c 6062     		str	r0, [r4, #36]
 402:ThirdParty/STM32F4xx_HAL_Driver/Src/stm32f4xx_hal_can.c **** 
 844              		.loc 1 402 3 is_stmt 1 view .LVU266
 402:ThirdParty/STM32F4xx_HAL_Driver/Src/stm32f4xx_hal_can.c **** 
 845              		.loc 1 402 15 is_stmt 0 view .LVU267
 846 001e 84F82000 		strb	r0, [r4, #32]
 405:ThirdParty/STM32F4xx_HAL_Driver/Src/stm32f4xx_hal_can.c **** }
 847              		.loc 1 405 3 is_stmt 1 view .LVU268
 406:ThirdParty/STM32F4xx_HAL_Driver/Src/stm32f4xx_hal_can.c **** 
 848              		.loc 1 406 1 is_stmt 0 view .LVU269
 849 0022 10BD     		pop	{r4, pc}
 850              	.LVL42:
 851              	.L72:
ARM GAS  /tmp/cc6fvD8U.s 			page 33


 852              	.LCFI6:
 853              		.cfi_def_cfa_offset 0
 854              		.cfi_restore 4
 855              		.cfi_restore 14
 383:ThirdParty/STM32F4xx_HAL_Driver/Src/stm32f4xx_hal_can.c ****   }
 856              		.loc 1 383 12 view .LVU270
 857 0024 0120     		movs	r0, #1
 858              	.LVL43:
 406:ThirdParty/STM32F4xx_HAL_Driver/Src/stm32f4xx_hal_can.c **** 
 859              		.loc 1 406 1 view .LVU271
 860 0026 7047     		bx	lr
 861              		.cfi_endproc
 862              	.LFE134:
 864              		.section	.text.HAL_CAN_RequestSleep,"ax",%progbits
 865              		.align	1
 866              		.global	HAL_CAN_RequestSleep
 867              		.syntax unified
 868              		.thumb
 869              		.thumb_func
 871              	HAL_CAN_RequestSleep:
 872              	.LVL44:
 873              	.LFB140:
 758:ThirdParty/STM32F4xx_HAL_Driver/Src/stm32f4xx_hal_can.c **** 
 759:ThirdParty/STM32F4xx_HAL_Driver/Src/stm32f4xx_hal_can.c **** /**
 760:ThirdParty/STM32F4xx_HAL_Driver/Src/stm32f4xx_hal_can.c ****   * @brief  Request the sleep mode (low power) entry.
 761:ThirdParty/STM32F4xx_HAL_Driver/Src/stm32f4xx_hal_can.c ****   *         When returning from this function, Sleep mode will be entered
 762:ThirdParty/STM32F4xx_HAL_Driver/Src/stm32f4xx_hal_can.c ****   *         as soon as the current CAN activity (transmission or reception
 763:ThirdParty/STM32F4xx_HAL_Driver/Src/stm32f4xx_hal_can.c ****   *         of a CAN frame) has been completed.
 764:ThirdParty/STM32F4xx_HAL_Driver/Src/stm32f4xx_hal_can.c ****   * @param  hcan pointer to a CAN_HandleTypeDef structure that contains
 765:ThirdParty/STM32F4xx_HAL_Driver/Src/stm32f4xx_hal_can.c ****   *         the configuration information for the specified CAN.
 766:ThirdParty/STM32F4xx_HAL_Driver/Src/stm32f4xx_hal_can.c ****   * @retval HAL status.
 767:ThirdParty/STM32F4xx_HAL_Driver/Src/stm32f4xx_hal_can.c ****   */
 768:ThirdParty/STM32F4xx_HAL_Driver/Src/stm32f4xx_hal_can.c **** HAL_StatusTypeDef HAL_CAN_RequestSleep(CAN_HandleTypeDef *hcan)
 769:ThirdParty/STM32F4xx_HAL_Driver/Src/stm32f4xx_hal_can.c **** {
 874              		.loc 1 769 1 is_stmt 1 view -0
 875              		.cfi_startproc
 876              		@ args = 0, pretend = 0, frame = 0
 877              		@ frame_needed = 0, uses_anonymous_args = 0
 878              		@ link register save eliminated.
 770:ThirdParty/STM32F4xx_HAL_Driver/Src/stm32f4xx_hal_can.c ****   if ((hcan->State == HAL_CAN_STATE_READY) ||
 879              		.loc 1 770 3 view .LVU273
 880              		.loc 1 770 12 is_stmt 0 view .LVU274
 881 0000 90F82030 		ldrb	r3, [r0, #32]	@ zero_extendqisi2
 882 0004 DBB2     		uxtb	r3, r3
 883              		.loc 1 770 6 view .LVU275
 884 0006 012B     		cmp	r3, #1
 885 0008 0AD0     		beq	.L78
 771:ThirdParty/STM32F4xx_HAL_Driver/Src/stm32f4xx_hal_can.c ****       (hcan->State == HAL_CAN_STATE_LISTENING))
 886              		.loc 1 771 12 discriminator 1 view .LVU276
 887 000a 90F82030 		ldrb	r3, [r0, #32]	@ zero_extendqisi2
 888 000e DBB2     		uxtb	r3, r3
 770:ThirdParty/STM32F4xx_HAL_Driver/Src/stm32f4xx_hal_can.c ****   if ((hcan->State == HAL_CAN_STATE_READY) ||
 889              		.loc 1 770 44 discriminator 1 view .LVU277
 890 0010 022B     		cmp	r3, #2
 891 0012 05D0     		beq	.L78
 772:ThirdParty/STM32F4xx_HAL_Driver/Src/stm32f4xx_hal_can.c ****   {
 773:ThirdParty/STM32F4xx_HAL_Driver/Src/stm32f4xx_hal_can.c ****     /* Request Sleep mode */
ARM GAS  /tmp/cc6fvD8U.s 			page 34


 774:ThirdParty/STM32F4xx_HAL_Driver/Src/stm32f4xx_hal_can.c ****     SET_BIT(hcan->Instance->MCR, CAN_MCR_SLEEP);
 775:ThirdParty/STM32F4xx_HAL_Driver/Src/stm32f4xx_hal_can.c **** 
 776:ThirdParty/STM32F4xx_HAL_Driver/Src/stm32f4xx_hal_can.c ****     /* Return function status */
 777:ThirdParty/STM32F4xx_HAL_Driver/Src/stm32f4xx_hal_can.c ****     return HAL_OK;
 778:ThirdParty/STM32F4xx_HAL_Driver/Src/stm32f4xx_hal_can.c ****   }
 779:ThirdParty/STM32F4xx_HAL_Driver/Src/stm32f4xx_hal_can.c ****   else
 780:ThirdParty/STM32F4xx_HAL_Driver/Src/stm32f4xx_hal_can.c ****   {
 781:ThirdParty/STM32F4xx_HAL_Driver/Src/stm32f4xx_hal_can.c ****     /* Update error code */
 782:ThirdParty/STM32F4xx_HAL_Driver/Src/stm32f4xx_hal_can.c ****     hcan->ErrorCode |= HAL_CAN_ERROR_NOT_INITIALIZED;
 892              		.loc 1 782 5 is_stmt 1 view .LVU278
 893              		.loc 1 782 21 is_stmt 0 view .LVU279
 894 0014 436A     		ldr	r3, [r0, #36]
 895 0016 43F48023 		orr	r3, r3, #262144
 896 001a 4362     		str	r3, [r0, #36]
 783:ThirdParty/STM32F4xx_HAL_Driver/Src/stm32f4xx_hal_can.c **** 
 784:ThirdParty/STM32F4xx_HAL_Driver/Src/stm32f4xx_hal_can.c ****     /* Return function status */
 785:ThirdParty/STM32F4xx_HAL_Driver/Src/stm32f4xx_hal_can.c ****     return HAL_ERROR;
 897              		.loc 1 785 5 is_stmt 1 view .LVU280
 898              		.loc 1 785 12 is_stmt 0 view .LVU281
 899 001c 0120     		movs	r0, #1
 900              	.LVL45:
 786:ThirdParty/STM32F4xx_HAL_Driver/Src/stm32f4xx_hal_can.c ****   }
 787:ThirdParty/STM32F4xx_HAL_Driver/Src/stm32f4xx_hal_can.c **** }
 901              		.loc 1 787 1 view .LVU282
 902 001e 7047     		bx	lr
 903              	.LVL46:
 904              	.L78:
 774:ThirdParty/STM32F4xx_HAL_Driver/Src/stm32f4xx_hal_can.c **** 
 905              		.loc 1 774 5 is_stmt 1 view .LVU283
 906 0020 0268     		ldr	r2, [r0]
 907 0022 1368     		ldr	r3, [r2]
 908 0024 43F00203 		orr	r3, r3, #2
 909 0028 1360     		str	r3, [r2]
 777:ThirdParty/STM32F4xx_HAL_Driver/Src/stm32f4xx_hal_can.c ****   }
 910              		.loc 1 777 5 view .LVU284
 777:ThirdParty/STM32F4xx_HAL_Driver/Src/stm32f4xx_hal_can.c ****   }
 911              		.loc 1 777 12 is_stmt 0 view .LVU285
 912 002a 0020     		movs	r0, #0
 913              	.LVL47:
 777:ThirdParty/STM32F4xx_HAL_Driver/Src/stm32f4xx_hal_can.c ****   }
 914              		.loc 1 777 12 view .LVU286
 915 002c 7047     		bx	lr
 916              		.cfi_endproc
 917              	.LFE140:
 919              		.section	.text.HAL_CAN_WakeUp,"ax",%progbits
 920              		.align	1
 921              		.global	HAL_CAN_WakeUp
 922              		.syntax unified
 923              		.thumb
 924              		.thumb_func
 926              	HAL_CAN_WakeUp:
 927              	.LVL48:
 928              	.LFB141:
 788:ThirdParty/STM32F4xx_HAL_Driver/Src/stm32f4xx_hal_can.c **** 
 789:ThirdParty/STM32F4xx_HAL_Driver/Src/stm32f4xx_hal_can.c **** /**
 790:ThirdParty/STM32F4xx_HAL_Driver/Src/stm32f4xx_hal_can.c ****   * @brief  Wake up from sleep mode.
 791:ThirdParty/STM32F4xx_HAL_Driver/Src/stm32f4xx_hal_can.c ****   *         When returning with HAL_OK status from this function, Sleep mode
ARM GAS  /tmp/cc6fvD8U.s 			page 35


 792:ThirdParty/STM32F4xx_HAL_Driver/Src/stm32f4xx_hal_can.c ****   *         is exited.
 793:ThirdParty/STM32F4xx_HAL_Driver/Src/stm32f4xx_hal_can.c ****   * @param  hcan pointer to a CAN_HandleTypeDef structure that contains
 794:ThirdParty/STM32F4xx_HAL_Driver/Src/stm32f4xx_hal_can.c ****   *         the configuration information for the specified CAN.
 795:ThirdParty/STM32F4xx_HAL_Driver/Src/stm32f4xx_hal_can.c ****   * @retval HAL status.
 796:ThirdParty/STM32F4xx_HAL_Driver/Src/stm32f4xx_hal_can.c ****   */
 797:ThirdParty/STM32F4xx_HAL_Driver/Src/stm32f4xx_hal_can.c **** HAL_StatusTypeDef HAL_CAN_WakeUp(CAN_HandleTypeDef *hcan)
 798:ThirdParty/STM32F4xx_HAL_Driver/Src/stm32f4xx_hal_can.c **** {
 929              		.loc 1 798 1 is_stmt 1 view -0
 930              		.cfi_startproc
 931              		@ args = 0, pretend = 0, frame = 8
 932              		@ frame_needed = 0, uses_anonymous_args = 0
 933              		@ link register save eliminated.
 934              		.loc 1 798 1 is_stmt 0 view .LVU288
 935 0000 82B0     		sub	sp, sp, #8
 936              	.LCFI7:
 937              		.cfi_def_cfa_offset 8
 799:ThirdParty/STM32F4xx_HAL_Driver/Src/stm32f4xx_hal_can.c ****   __IO uint32_t count = 0;
 938              		.loc 1 799 3 is_stmt 1 view .LVU289
 939              		.loc 1 799 17 is_stmt 0 view .LVU290
 940 0002 0023     		movs	r3, #0
 941 0004 0193     		str	r3, [sp, #4]
 800:ThirdParty/STM32F4xx_HAL_Driver/Src/stm32f4xx_hal_can.c ****   uint32_t timeout = 1000000U;
 942              		.loc 1 800 3 is_stmt 1 view .LVU291
 943              	.LVL49:
 801:ThirdParty/STM32F4xx_HAL_Driver/Src/stm32f4xx_hal_can.c **** 
 802:ThirdParty/STM32F4xx_HAL_Driver/Src/stm32f4xx_hal_can.c ****   if ((hcan->State == HAL_CAN_STATE_READY) ||
 944              		.loc 1 802 3 view .LVU292
 945              		.loc 1 802 12 is_stmt 0 view .LVU293
 946 0006 90F82030 		ldrb	r3, [r0, #32]	@ zero_extendqisi2
 947 000a DBB2     		uxtb	r3, r3
 948              		.loc 1 802 6 view .LVU294
 949 000c 012B     		cmp	r3, #1
 950 000e 04D0     		beq	.L82
 803:ThirdParty/STM32F4xx_HAL_Driver/Src/stm32f4xx_hal_can.c ****       (hcan->State == HAL_CAN_STATE_LISTENING))
 951              		.loc 1 803 12 discriminator 1 view .LVU295
 952 0010 90F82030 		ldrb	r3, [r0, #32]	@ zero_extendqisi2
 953 0014 DBB2     		uxtb	r3, r3
 802:ThirdParty/STM32F4xx_HAL_Driver/Src/stm32f4xx_hal_can.c ****       (hcan->State == HAL_CAN_STATE_LISTENING))
 954              		.loc 1 802 44 discriminator 1 view .LVU296
 955 0016 022B     		cmp	r3, #2
 956 0018 18D1     		bne	.L83
 957              	.L82:
 804:ThirdParty/STM32F4xx_HAL_Driver/Src/stm32f4xx_hal_can.c ****   {
 805:ThirdParty/STM32F4xx_HAL_Driver/Src/stm32f4xx_hal_can.c ****     /* Wake up request */
 806:ThirdParty/STM32F4xx_HAL_Driver/Src/stm32f4xx_hal_can.c ****     CLEAR_BIT(hcan->Instance->MCR, CAN_MCR_SLEEP);
 958              		.loc 1 806 5 is_stmt 1 view .LVU297
 959 001a 0268     		ldr	r2, [r0]
 960 001c 1368     		ldr	r3, [r2]
 961 001e 23F00203 		bic	r3, r3, #2
 962 0022 1360     		str	r3, [r2]
 963              	.L86:
 807:ThirdParty/STM32F4xx_HAL_Driver/Src/stm32f4xx_hal_can.c **** 
 808:ThirdParty/STM32F4xx_HAL_Driver/Src/stm32f4xx_hal_can.c ****     /* Wait sleep mode is exited */
 809:ThirdParty/STM32F4xx_HAL_Driver/Src/stm32f4xx_hal_can.c ****     do
 964              		.loc 1 809 5 view .LVU298
 810:ThirdParty/STM32F4xx_HAL_Driver/Src/stm32f4xx_hal_can.c ****     {
 811:ThirdParty/STM32F4xx_HAL_Driver/Src/stm32f4xx_hal_can.c ****       /* Check if timeout is reached */
ARM GAS  /tmp/cc6fvD8U.s 			page 36


 812:ThirdParty/STM32F4xx_HAL_Driver/Src/stm32f4xx_hal_can.c ****       if (++count > timeout)
 965              		.loc 1 812 7 view .LVU299
 966              		.loc 1 812 11 is_stmt 0 view .LVU300
 967 0024 019B     		ldr	r3, [sp, #4]
 968 0026 0133     		adds	r3, r3, #1
 969              		.loc 1 812 10 view .LVU301
 970 0028 0193     		str	r3, [sp, #4]
 971 002a 0B4A     		ldr	r2, .L89
 972 002c 9342     		cmp	r3, r2
 973 002e 06D8     		bhi	.L88
 813:ThirdParty/STM32F4xx_HAL_Driver/Src/stm32f4xx_hal_can.c ****       {
 814:ThirdParty/STM32F4xx_HAL_Driver/Src/stm32f4xx_hal_can.c ****         /* Update error code */
 815:ThirdParty/STM32F4xx_HAL_Driver/Src/stm32f4xx_hal_can.c ****         hcan->ErrorCode |= HAL_CAN_ERROR_TIMEOUT;
 816:ThirdParty/STM32F4xx_HAL_Driver/Src/stm32f4xx_hal_can.c **** 
 817:ThirdParty/STM32F4xx_HAL_Driver/Src/stm32f4xx_hal_can.c ****         return HAL_ERROR;
 818:ThirdParty/STM32F4xx_HAL_Driver/Src/stm32f4xx_hal_can.c ****       }
 819:ThirdParty/STM32F4xx_HAL_Driver/Src/stm32f4xx_hal_can.c ****     }
 820:ThirdParty/STM32F4xx_HAL_Driver/Src/stm32f4xx_hal_can.c ****     while ((hcan->Instance->MSR & CAN_MSR_SLAK) != RESET);
 974              		.loc 1 820 11 is_stmt 1 view .LVU302
 975              		.loc 1 820 17 is_stmt 0 view .LVU303
 976 0030 0368     		ldr	r3, [r0]
 977              		.loc 1 820 27 view .LVU304
 978 0032 5B68     		ldr	r3, [r3, #4]
 979              		.loc 1 820 5 view .LVU305
 980 0034 13F0020F 		tst	r3, #2
 981 0038 F4D1     		bne	.L86
 821:ThirdParty/STM32F4xx_HAL_Driver/Src/stm32f4xx_hal_can.c **** 
 822:ThirdParty/STM32F4xx_HAL_Driver/Src/stm32f4xx_hal_can.c ****     /* Return function status */
 823:ThirdParty/STM32F4xx_HAL_Driver/Src/stm32f4xx_hal_can.c ****     return HAL_OK;
 982              		.loc 1 823 12 view .LVU306
 983 003a 0020     		movs	r0, #0
 984              	.LVL50:
 985              		.loc 1 823 12 view .LVU307
 986 003c 04E0     		b	.L85
 987              	.LVL51:
 988              	.L88:
 815:ThirdParty/STM32F4xx_HAL_Driver/Src/stm32f4xx_hal_can.c **** 
 989              		.loc 1 815 9 is_stmt 1 view .LVU308
 815:ThirdParty/STM32F4xx_HAL_Driver/Src/stm32f4xx_hal_can.c **** 
 990              		.loc 1 815 25 is_stmt 0 view .LVU309
 991 003e 436A     		ldr	r3, [r0, #36]
 992 0040 43F40033 		orr	r3, r3, #131072
 993 0044 4362     		str	r3, [r0, #36]
 817:ThirdParty/STM32F4xx_HAL_Driver/Src/stm32f4xx_hal_can.c ****       }
 994              		.loc 1 817 9 is_stmt 1 view .LVU310
 817:ThirdParty/STM32F4xx_HAL_Driver/Src/stm32f4xx_hal_can.c ****       }
 995              		.loc 1 817 16 is_stmt 0 view .LVU311
 996 0046 0120     		movs	r0, #1
 997              	.LVL52:
 998              	.L85:
 824:ThirdParty/STM32F4xx_HAL_Driver/Src/stm32f4xx_hal_can.c ****   }
 825:ThirdParty/STM32F4xx_HAL_Driver/Src/stm32f4xx_hal_can.c ****   else
 826:ThirdParty/STM32F4xx_HAL_Driver/Src/stm32f4xx_hal_can.c ****   {
 827:ThirdParty/STM32F4xx_HAL_Driver/Src/stm32f4xx_hal_can.c ****     /* Update error code */
 828:ThirdParty/STM32F4xx_HAL_Driver/Src/stm32f4xx_hal_can.c ****     hcan->ErrorCode |= HAL_CAN_ERROR_NOT_INITIALIZED;
 829:ThirdParty/STM32F4xx_HAL_Driver/Src/stm32f4xx_hal_can.c **** 
 830:ThirdParty/STM32F4xx_HAL_Driver/Src/stm32f4xx_hal_can.c ****     return HAL_ERROR;
ARM GAS  /tmp/cc6fvD8U.s 			page 37


 831:ThirdParty/STM32F4xx_HAL_Driver/Src/stm32f4xx_hal_can.c ****   }
 832:ThirdParty/STM32F4xx_HAL_Driver/Src/stm32f4xx_hal_can.c **** }
 999              		.loc 1 832 1 view .LVU312
 1000 0048 02B0     		add	sp, sp, #8
 1001              	.LCFI8:
 1002              		.cfi_remember_state
 1003              		.cfi_def_cfa_offset 0
 1004              		@ sp needed
 1005 004a 7047     		bx	lr
 1006              	.LVL53:
 1007              	.L83:
 1008              	.LCFI9:
 1009              		.cfi_restore_state
 828:ThirdParty/STM32F4xx_HAL_Driver/Src/stm32f4xx_hal_can.c **** 
 1010              		.loc 1 828 5 is_stmt 1 view .LVU313
 828:ThirdParty/STM32F4xx_HAL_Driver/Src/stm32f4xx_hal_can.c **** 
 1011              		.loc 1 828 21 is_stmt 0 view .LVU314
 1012 004c 436A     		ldr	r3, [r0, #36]
 1013 004e 43F48023 		orr	r3, r3, #262144
 1014 0052 4362     		str	r3, [r0, #36]
 830:ThirdParty/STM32F4xx_HAL_Driver/Src/stm32f4xx_hal_can.c ****   }
 1015              		.loc 1 830 5 is_stmt 1 view .LVU315
 830:ThirdParty/STM32F4xx_HAL_Driver/Src/stm32f4xx_hal_can.c ****   }
 1016              		.loc 1 830 12 is_stmt 0 view .LVU316
 1017 0054 0120     		movs	r0, #1
 1018              	.LVL54:
 830:ThirdParty/STM32F4xx_HAL_Driver/Src/stm32f4xx_hal_can.c ****   }
 1019              		.loc 1 830 12 view .LVU317
 1020 0056 F7E7     		b	.L85
 1021              	.L90:
 1022              		.align	2
 1023              	.L89:
 1024 0058 40420F00 		.word	1000000
 1025              		.cfi_endproc
 1026              	.LFE141:
 1028              		.section	.text.HAL_CAN_IsSleepActive,"ax",%progbits
 1029              		.align	1
 1030              		.global	HAL_CAN_IsSleepActive
 1031              		.syntax unified
 1032              		.thumb
 1033              		.thumb_func
 1035              	HAL_CAN_IsSleepActive:
 1036              	.LVL55:
 1037              	.LFB142:
 833:ThirdParty/STM32F4xx_HAL_Driver/Src/stm32f4xx_hal_can.c **** 
 834:ThirdParty/STM32F4xx_HAL_Driver/Src/stm32f4xx_hal_can.c **** /**
 835:ThirdParty/STM32F4xx_HAL_Driver/Src/stm32f4xx_hal_can.c ****   * @brief  Check is sleep mode is active.
 836:ThirdParty/STM32F4xx_HAL_Driver/Src/stm32f4xx_hal_can.c ****   * @param  hcan pointer to a CAN_HandleTypeDef structure that contains
 837:ThirdParty/STM32F4xx_HAL_Driver/Src/stm32f4xx_hal_can.c ****   *         the configuration information for the specified CAN.
 838:ThirdParty/STM32F4xx_HAL_Driver/Src/stm32f4xx_hal_can.c ****   * @retval Status
 839:ThirdParty/STM32F4xx_HAL_Driver/Src/stm32f4xx_hal_can.c ****   *          - 0 : Sleep mode is not active.
 840:ThirdParty/STM32F4xx_HAL_Driver/Src/stm32f4xx_hal_can.c ****   *          - 1 : Sleep mode is active.
 841:ThirdParty/STM32F4xx_HAL_Driver/Src/stm32f4xx_hal_can.c ****   */
 842:ThirdParty/STM32F4xx_HAL_Driver/Src/stm32f4xx_hal_can.c **** uint32_t HAL_CAN_IsSleepActive(CAN_HandleTypeDef *hcan)
 843:ThirdParty/STM32F4xx_HAL_Driver/Src/stm32f4xx_hal_can.c **** {
 1038              		.loc 1 843 1 is_stmt 1 view -0
 1039              		.cfi_startproc
ARM GAS  /tmp/cc6fvD8U.s 			page 38


 1040              		@ args = 0, pretend = 0, frame = 0
 1041              		@ frame_needed = 0, uses_anonymous_args = 0
 1042              		@ link register save eliminated.
 844:ThirdParty/STM32F4xx_HAL_Driver/Src/stm32f4xx_hal_can.c ****   uint32_t status = 0U;
 1043              		.loc 1 844 3 view .LVU319
 845:ThirdParty/STM32F4xx_HAL_Driver/Src/stm32f4xx_hal_can.c **** 
 846:ThirdParty/STM32F4xx_HAL_Driver/Src/stm32f4xx_hal_can.c ****   if ((hcan->State == HAL_CAN_STATE_READY) ||
 1044              		.loc 1 846 3 view .LVU320
 1045              		.loc 1 846 12 is_stmt 0 view .LVU321
 1046 0000 90F82030 		ldrb	r3, [r0, #32]	@ zero_extendqisi2
 1047 0004 DBB2     		uxtb	r3, r3
 1048              		.loc 1 846 6 view .LVU322
 1049 0006 012B     		cmp	r3, #1
 1050 0008 06D0     		beq	.L92
 847:ThirdParty/STM32F4xx_HAL_Driver/Src/stm32f4xx_hal_can.c ****       (hcan->State == HAL_CAN_STATE_LISTENING))
 1051              		.loc 1 847 12 discriminator 1 view .LVU323
 1052 000a 90F82030 		ldrb	r3, [r0, #32]	@ zero_extendqisi2
 1053 000e DBB2     		uxtb	r3, r3
 846:ThirdParty/STM32F4xx_HAL_Driver/Src/stm32f4xx_hal_can.c ****       (hcan->State == HAL_CAN_STATE_LISTENING))
 1054              		.loc 1 846 44 discriminator 1 view .LVU324
 1055 0010 022B     		cmp	r3, #2
 1056 0012 01D0     		beq	.L92
 844:ThirdParty/STM32F4xx_HAL_Driver/Src/stm32f4xx_hal_can.c **** 
 1057              		.loc 1 844 12 view .LVU325
 1058 0014 0020     		movs	r0, #0
 1059              	.LVL56:
 844:ThirdParty/STM32F4xx_HAL_Driver/Src/stm32f4xx_hal_can.c **** 
 1060              		.loc 1 844 12 view .LVU326
 1061 0016 7047     		bx	lr
 1062              	.LVL57:
 1063              	.L92:
 848:ThirdParty/STM32F4xx_HAL_Driver/Src/stm32f4xx_hal_can.c ****   {
 849:ThirdParty/STM32F4xx_HAL_Driver/Src/stm32f4xx_hal_can.c ****     /* Check Sleep mode */
 850:ThirdParty/STM32F4xx_HAL_Driver/Src/stm32f4xx_hal_can.c ****     if ((hcan->Instance->MSR & CAN_MSR_SLAK) != RESET)
 1064              		.loc 1 850 5 is_stmt 1 view .LVU327
 1065              		.loc 1 850 14 is_stmt 0 view .LVU328
 1066 0018 0368     		ldr	r3, [r0]
 1067              		.loc 1 850 24 view .LVU329
 1068 001a 5868     		ldr	r0, [r3, #4]
 1069              	.LVL58:
 1070              		.loc 1 850 8 view .LVU330
 1071 001c 10F00200 		ands	r0, r0, #2
 1072 0020 00D1     		bne	.L95
 1073 0022 7047     		bx	lr
 1074              	.L95:
 851:ThirdParty/STM32F4xx_HAL_Driver/Src/stm32f4xx_hal_can.c ****     {
 852:ThirdParty/STM32F4xx_HAL_Driver/Src/stm32f4xx_hal_can.c ****       status = 1U;
 1075              		.loc 1 852 14 view .LVU331
 1076 0024 0120     		movs	r0, #1
 1077              	.LVL59:
 853:ThirdParty/STM32F4xx_HAL_Driver/Src/stm32f4xx_hal_can.c ****     }
 854:ThirdParty/STM32F4xx_HAL_Driver/Src/stm32f4xx_hal_can.c ****   }
 855:ThirdParty/STM32F4xx_HAL_Driver/Src/stm32f4xx_hal_can.c **** 
 856:ThirdParty/STM32F4xx_HAL_Driver/Src/stm32f4xx_hal_can.c ****   /* Return function status */
 857:ThirdParty/STM32F4xx_HAL_Driver/Src/stm32f4xx_hal_can.c ****   return status;
 1078              		.loc 1 857 3 is_stmt 1 view .LVU332
 858:ThirdParty/STM32F4xx_HAL_Driver/Src/stm32f4xx_hal_can.c **** }
ARM GAS  /tmp/cc6fvD8U.s 			page 39


 1079              		.loc 1 858 1 is_stmt 0 view .LVU333
 1080 0026 7047     		bx	lr
 1081              		.cfi_endproc
 1082              	.LFE142:
 1084              		.section	.text.HAL_CAN_AddTxMessage,"ax",%progbits
 1085              		.align	1
 1086              		.global	HAL_CAN_AddTxMessage
 1087              		.syntax unified
 1088              		.thumb
 1089              		.thumb_func
 1091              	HAL_CAN_AddTxMessage:
 1092              	.LVL60:
 1093              	.LFB143:
 859:ThirdParty/STM32F4xx_HAL_Driver/Src/stm32f4xx_hal_can.c **** 
 860:ThirdParty/STM32F4xx_HAL_Driver/Src/stm32f4xx_hal_can.c **** /**
 861:ThirdParty/STM32F4xx_HAL_Driver/Src/stm32f4xx_hal_can.c ****   * @brief  Add a message to the first free Tx mailbox and activate the
 862:ThirdParty/STM32F4xx_HAL_Driver/Src/stm32f4xx_hal_can.c ****   *         corresponding transmission request.
 863:ThirdParty/STM32F4xx_HAL_Driver/Src/stm32f4xx_hal_can.c ****   * @param  hcan pointer to a CAN_HandleTypeDef structure that contains
 864:ThirdParty/STM32F4xx_HAL_Driver/Src/stm32f4xx_hal_can.c ****   *         the configuration information for the specified CAN.
 865:ThirdParty/STM32F4xx_HAL_Driver/Src/stm32f4xx_hal_can.c ****   * @param  pHeader pointer to a CAN_TxHeaderTypeDef structure.
 866:ThirdParty/STM32F4xx_HAL_Driver/Src/stm32f4xx_hal_can.c ****   * @param  aData array containing the payload of the Tx frame.
 867:ThirdParty/STM32F4xx_HAL_Driver/Src/stm32f4xx_hal_can.c ****   * @param  pTxMailbox pointer to a variable where the function will return
 868:ThirdParty/STM32F4xx_HAL_Driver/Src/stm32f4xx_hal_can.c ****   *         the TxMailbox used to store the Tx message.
 869:ThirdParty/STM32F4xx_HAL_Driver/Src/stm32f4xx_hal_can.c ****   *         This parameter can be a value of @arg CAN_Tx_Mailboxes.
 870:ThirdParty/STM32F4xx_HAL_Driver/Src/stm32f4xx_hal_can.c ****   * @retval HAL status
 871:ThirdParty/STM32F4xx_HAL_Driver/Src/stm32f4xx_hal_can.c ****   */
 872:ThirdParty/STM32F4xx_HAL_Driver/Src/stm32f4xx_hal_can.c **** HAL_StatusTypeDef HAL_CAN_AddTxMessage(CAN_HandleTypeDef *hcan, CAN_TxHeaderTypeDef *pHeader, uint8
 873:ThirdParty/STM32F4xx_HAL_Driver/Src/stm32f4xx_hal_can.c **** {
 1094              		.loc 1 873 1 is_stmt 1 view -0
 1095              		.cfi_startproc
 1096              		@ args = 0, pretend = 0, frame = 0
 1097              		@ frame_needed = 0, uses_anonymous_args = 0
 1098              		@ link register save eliminated.
 874:ThirdParty/STM32F4xx_HAL_Driver/Src/stm32f4xx_hal_can.c ****   uint32_t transmitmailbox;
 1099              		.loc 1 874 3 view .LVU335
 875:ThirdParty/STM32F4xx_HAL_Driver/Src/stm32f4xx_hal_can.c **** 
 876:ThirdParty/STM32F4xx_HAL_Driver/Src/stm32f4xx_hal_can.c ****   /* Check the parameters */
 877:ThirdParty/STM32F4xx_HAL_Driver/Src/stm32f4xx_hal_can.c ****   assert_param(IS_CAN_IDTYPE(pHeader->IDE));
 1100              		.loc 1 877 3 view .LVU336
 878:ThirdParty/STM32F4xx_HAL_Driver/Src/stm32f4xx_hal_can.c ****   assert_param(IS_CAN_RTR(pHeader->RTR));
 1101              		.loc 1 878 3 view .LVU337
 879:ThirdParty/STM32F4xx_HAL_Driver/Src/stm32f4xx_hal_can.c ****   assert_param(IS_CAN_DLC(pHeader->DLC));
 1102              		.loc 1 879 3 view .LVU338
 880:ThirdParty/STM32F4xx_HAL_Driver/Src/stm32f4xx_hal_can.c ****   if (pHeader->IDE == CAN_ID_STD)
 1103              		.loc 1 880 3 view .LVU339
 881:ThirdParty/STM32F4xx_HAL_Driver/Src/stm32f4xx_hal_can.c ****   {
 882:ThirdParty/STM32F4xx_HAL_Driver/Src/stm32f4xx_hal_can.c ****     assert_param(IS_CAN_STDID(pHeader->StdId));
 883:ThirdParty/STM32F4xx_HAL_Driver/Src/stm32f4xx_hal_can.c ****   }
 884:ThirdParty/STM32F4xx_HAL_Driver/Src/stm32f4xx_hal_can.c ****   else
 885:ThirdParty/STM32F4xx_HAL_Driver/Src/stm32f4xx_hal_can.c ****   {
 886:ThirdParty/STM32F4xx_HAL_Driver/Src/stm32f4xx_hal_can.c ****     assert_param(IS_CAN_EXTID(pHeader->ExtId));
 1104              		.loc 1 886 5 view .LVU340
 887:ThirdParty/STM32F4xx_HAL_Driver/Src/stm32f4xx_hal_can.c ****   }
 888:ThirdParty/STM32F4xx_HAL_Driver/Src/stm32f4xx_hal_can.c ****   assert_param(IS_FUNCTIONAL_STATE(pHeader->TransmitGlobalTime));
 1105              		.loc 1 888 3 view .LVU341
 889:ThirdParty/STM32F4xx_HAL_Driver/Src/stm32f4xx_hal_can.c **** 
 890:ThirdParty/STM32F4xx_HAL_Driver/Src/stm32f4xx_hal_can.c ****   if ((hcan->State == HAL_CAN_STATE_READY) ||
ARM GAS  /tmp/cc6fvD8U.s 			page 40


 1106              		.loc 1 890 3 view .LVU342
 1107              		.loc 1 890 12 is_stmt 0 view .LVU343
 1108 0000 90F820C0 		ldrb	ip, [r0, #32]	@ zero_extendqisi2
 1109 0004 5FFA8CFC 		uxtb	ip, ip
 1110              		.loc 1 890 6 view .LVU344
 1111 0008 BCF1010F 		cmp	ip, #1
 1112 000c 06D0     		beq	.L97
 891:ThirdParty/STM32F4xx_HAL_Driver/Src/stm32f4xx_hal_can.c ****       (hcan->State == HAL_CAN_STATE_LISTENING))
 1113              		.loc 1 891 12 discriminator 1 view .LVU345
 1114 000e 90F820C0 		ldrb	ip, [r0, #32]	@ zero_extendqisi2
 1115 0012 5FFA8CFC 		uxtb	ip, ip
 890:ThirdParty/STM32F4xx_HAL_Driver/Src/stm32f4xx_hal_can.c ****       (hcan->State == HAL_CAN_STATE_LISTENING))
 1116              		.loc 1 890 44 discriminator 1 view .LVU346
 1117 0016 BCF1020F 		cmp	ip, #2
 1118 001a 6FD1     		bne	.L98
 1119              	.L97:
 873:ThirdParty/STM32F4xx_HAL_Driver/Src/stm32f4xx_hal_can.c ****   uint32_t transmitmailbox;
 1120              		.loc 1 873 1 view .LVU347
 1121 001c 30B4     		push	{r4, r5}
 1122              	.LCFI10:
 1123              		.cfi_def_cfa_offset 8
 1124              		.cfi_offset 4, -8
 1125              		.cfi_offset 5, -4
 892:ThirdParty/STM32F4xx_HAL_Driver/Src/stm32f4xx_hal_can.c ****   {
 893:ThirdParty/STM32F4xx_HAL_Driver/Src/stm32f4xx_hal_can.c ****     /* Check that all the Tx mailboxes are not full */
 894:ThirdParty/STM32F4xx_HAL_Driver/Src/stm32f4xx_hal_can.c ****     if (((hcan->Instance->TSR & CAN_TSR_TME0) != RESET) ||
 1126              		.loc 1 894 5 is_stmt 1 view .LVU348
 1127              		.loc 1 894 15 is_stmt 0 view .LVU349
 1128 001e 0468     		ldr	r4, [r0]
 1129              		.loc 1 894 25 view .LVU350
 1130 0020 A568     		ldr	r5, [r4, #8]
 1131              		.loc 1 894 8 view .LVU351
 1132 0022 15F0806F 		tst	r5, #67108864
 1133 0026 07D1     		bne	.L99
 895:ThirdParty/STM32F4xx_HAL_Driver/Src/stm32f4xx_hal_can.c ****         ((hcan->Instance->TSR & CAN_TSR_TME1) != RESET) ||
 1134              		.loc 1 895 25 discriminator 1 view .LVU352
 1135 0028 A568     		ldr	r5, [r4, #8]
 894:ThirdParty/STM32F4xx_HAL_Driver/Src/stm32f4xx_hal_can.c ****         ((hcan->Instance->TSR & CAN_TSR_TME1) != RESET) ||
 1136              		.loc 1 894 57 discriminator 1 view .LVU353
 1137 002a 15F0006F 		tst	r5, #134217728
 1138 002e 03D1     		bne	.L99
 896:ThirdParty/STM32F4xx_HAL_Driver/Src/stm32f4xx_hal_can.c ****         ((hcan->Instance->TSR & CAN_TSR_TME2) != RESET))
 1139              		.loc 1 896 25 view .LVU354
 1140 0030 A568     		ldr	r5, [r4, #8]
 895:ThirdParty/STM32F4xx_HAL_Driver/Src/stm32f4xx_hal_can.c ****         ((hcan->Instance->TSR & CAN_TSR_TME1) != RESET) ||
 1141              		.loc 1 895 57 view .LVU355
 1142 0032 15F0805F 		tst	r5, #268435456
 1143 0036 5BD0     		beq	.L100
 1144              	.L99:
 897:ThirdParty/STM32F4xx_HAL_Driver/Src/stm32f4xx_hal_can.c ****     {
 898:ThirdParty/STM32F4xx_HAL_Driver/Src/stm32f4xx_hal_can.c ****       /* Select an empty transmit mailbox */
 899:ThirdParty/STM32F4xx_HAL_Driver/Src/stm32f4xx_hal_can.c ****       transmitmailbox = (hcan->Instance->TSR & CAN_TSR_CODE) >> CAN_TSR_CODE_Pos;
 1145              		.loc 1 899 7 is_stmt 1 view .LVU356
 1146              		.loc 1 899 40 is_stmt 0 view .LVU357
 1147 0038 A468     		ldr	r4, [r4, #8]
 1148              		.loc 1 899 23 view .LVU358
 1149 003a C4F3016C 		ubfx	ip, r4, #24, #2
ARM GAS  /tmp/cc6fvD8U.s 			page 41


 1150              	.LVL61:
 900:ThirdParty/STM32F4xx_HAL_Driver/Src/stm32f4xx_hal_can.c **** 
 901:ThirdParty/STM32F4xx_HAL_Driver/Src/stm32f4xx_hal_can.c ****       /* Store the Tx mailbox */
 902:ThirdParty/STM32F4xx_HAL_Driver/Src/stm32f4xx_hal_can.c ****       *pTxMailbox = 1U << transmitmailbox;
 1151              		.loc 1 902 7 is_stmt 1 view .LVU359
 1152              		.loc 1 902 24 is_stmt 0 view .LVU360
 1153 003e 0124     		movs	r4, #1
 1154 0040 04FA0CF4 		lsl	r4, r4, ip
 1155              		.loc 1 902 19 view .LVU361
 1156 0044 1C60     		str	r4, [r3]
 903:ThirdParty/STM32F4xx_HAL_Driver/Src/stm32f4xx_hal_can.c **** 
 904:ThirdParty/STM32F4xx_HAL_Driver/Src/stm32f4xx_hal_can.c ****       /* Set up the Id */
 905:ThirdParty/STM32F4xx_HAL_Driver/Src/stm32f4xx_hal_can.c ****       if (pHeader->IDE == CAN_ID_STD)
 1157              		.loc 1 905 7 is_stmt 1 view .LVU362
 1158              		.loc 1 905 18 is_stmt 0 view .LVU363
 1159 0046 8B68     		ldr	r3, [r1, #8]
 1160              	.LVL62:
 1161              		.loc 1 905 10 view .LVU364
 1162 0048 002B     		cmp	r3, #0
 1163 004a 3ED1     		bne	.L101
 906:ThirdParty/STM32F4xx_HAL_Driver/Src/stm32f4xx_hal_can.c ****       {
 907:ThirdParty/STM32F4xx_HAL_Driver/Src/stm32f4xx_hal_can.c ****         hcan->Instance->sTxMailBox[transmitmailbox].TIR = ((pHeader->StdId << CAN_TI0R_STID_Pos) |
 1164              		.loc 1 907 9 is_stmt 1 view .LVU365
 1165              		.loc 1 907 68 is_stmt 0 view .LVU366
 1166 004c 0D68     		ldr	r5, [r1]
 908:ThirdParty/STM32F4xx_HAL_Driver/Src/stm32f4xx_hal_can.c ****                                                            pHeader->RTR);
 1167              		.loc 1 908 67 view .LVU367
 1168 004e CB68     		ldr	r3, [r1, #12]
 907:ThirdParty/STM32F4xx_HAL_Driver/Src/stm32f4xx_hal_can.c ****                                                            pHeader->RTR);
 1169              		.loc 1 907 13 view .LVU368
 1170 0050 0468     		ldr	r4, [r0]
 907:ThirdParty/STM32F4xx_HAL_Driver/Src/stm32f4xx_hal_can.c ****                                                            pHeader->RTR);
 1171              		.loc 1 907 98 view .LVU369
 1172 0052 43EA4555 		orr	r5, r3, r5, lsl #21
 907:ThirdParty/STM32F4xx_HAL_Driver/Src/stm32f4xx_hal_can.c ****                                                            pHeader->RTR);
 1173              		.loc 1 907 57 view .LVU370
 1174 0056 0CF11803 		add	r3, ip, #24
 1175 005a 1B01     		lsls	r3, r3, #4
 1176 005c E550     		str	r5, [r4, r3]
 1177              	.L102:
 909:ThirdParty/STM32F4xx_HAL_Driver/Src/stm32f4xx_hal_can.c ****       }
 910:ThirdParty/STM32F4xx_HAL_Driver/Src/stm32f4xx_hal_can.c ****       else
 911:ThirdParty/STM32F4xx_HAL_Driver/Src/stm32f4xx_hal_can.c ****       {
 912:ThirdParty/STM32F4xx_HAL_Driver/Src/stm32f4xx_hal_can.c ****         hcan->Instance->sTxMailBox[transmitmailbox].TIR = ((pHeader->ExtId << CAN_TI0R_EXID_Pos) |
 913:ThirdParty/STM32F4xx_HAL_Driver/Src/stm32f4xx_hal_can.c ****                                                            pHeader->IDE |
 914:ThirdParty/STM32F4xx_HAL_Driver/Src/stm32f4xx_hal_can.c ****                                                            pHeader->RTR);
 915:ThirdParty/STM32F4xx_HAL_Driver/Src/stm32f4xx_hal_can.c ****       }
 916:ThirdParty/STM32F4xx_HAL_Driver/Src/stm32f4xx_hal_can.c **** 
 917:ThirdParty/STM32F4xx_HAL_Driver/Src/stm32f4xx_hal_can.c ****       /* Set up the DLC */
 918:ThirdParty/STM32F4xx_HAL_Driver/Src/stm32f4xx_hal_can.c ****       hcan->Instance->sTxMailBox[transmitmailbox].TDTR = (pHeader->DLC);
 1178              		.loc 1 918 7 is_stmt 1 view .LVU371
 1179              		.loc 1 918 11 is_stmt 0 view .LVU372
 1180 005e 0368     		ldr	r3, [r0]
 1181              		.loc 1 918 66 view .LVU373
 1182 0060 0C69     		ldr	r4, [r1, #16]
 1183              		.loc 1 918 56 view .LVU374
 1184 0062 0CF11805 		add	r5, ip, #24
ARM GAS  /tmp/cc6fvD8U.s 			page 42


 1185 0066 03EB0513 		add	r3, r3, r5, lsl #4
 1186 006a 5C60     		str	r4, [r3, #4]
 919:ThirdParty/STM32F4xx_HAL_Driver/Src/stm32f4xx_hal_can.c **** 
 920:ThirdParty/STM32F4xx_HAL_Driver/Src/stm32f4xx_hal_can.c ****       /* Set up the Transmit Global Time mode */
 921:ThirdParty/STM32F4xx_HAL_Driver/Src/stm32f4xx_hal_can.c ****       if (pHeader->TransmitGlobalTime == ENABLE)
 1187              		.loc 1 921 7 is_stmt 1 view .LVU375
 1188              		.loc 1 921 18 is_stmt 0 view .LVU376
 1189 006c 0B7D     		ldrb	r3, [r1, #20]	@ zero_extendqisi2
 1190              		.loc 1 921 10 view .LVU377
 1191 006e 012B     		cmp	r3, #1
 1192 0070 36D0     		beq	.L108
 1193              	.LVL63:
 1194              	.L103:
 922:ThirdParty/STM32F4xx_HAL_Driver/Src/stm32f4xx_hal_can.c ****       {
 923:ThirdParty/STM32F4xx_HAL_Driver/Src/stm32f4xx_hal_can.c ****         SET_BIT(hcan->Instance->sTxMailBox[transmitmailbox].TDTR, CAN_TDT0R_TGT);
 924:ThirdParty/STM32F4xx_HAL_Driver/Src/stm32f4xx_hal_can.c ****       }
 925:ThirdParty/STM32F4xx_HAL_Driver/Src/stm32f4xx_hal_can.c **** 
 926:ThirdParty/STM32F4xx_HAL_Driver/Src/stm32f4xx_hal_can.c ****       /* Set up the data field */
 927:ThirdParty/STM32F4xx_HAL_Driver/Src/stm32f4xx_hal_can.c ****       WRITE_REG(hcan->Instance->sTxMailBox[transmitmailbox].TDHR,
 1195              		.loc 1 927 7 is_stmt 1 view .LVU378
 1196 0072 D179     		ldrb	r1, [r2, #7]	@ zero_extendqisi2
 1197 0074 9379     		ldrb	r3, [r2, #6]	@ zero_extendqisi2
 1198 0076 1B04     		lsls	r3, r3, #16
 1199 0078 43EA0163 		orr	r3, r3, r1, lsl #24
 1200 007c 5179     		ldrb	r1, [r2, #5]	@ zero_extendqisi2
 1201 007e 43EA0123 		orr	r3, r3, r1, lsl #8
 1202 0082 1479     		ldrb	r4, [r2, #4]	@ zero_extendqisi2
 1203 0084 0168     		ldr	r1, [r0]
 1204 0086 2343     		orrs	r3, r3, r4
 1205 0088 01EB0C11 		add	r1, r1, ip, lsl #4
 1206 008c C1F88C31 		str	r3, [r1, #396]
 928:ThirdParty/STM32F4xx_HAL_Driver/Src/stm32f4xx_hal_can.c ****                 ((uint32_t)aData[7] << CAN_TDH0R_DATA7_Pos) |
 929:ThirdParty/STM32F4xx_HAL_Driver/Src/stm32f4xx_hal_can.c ****                 ((uint32_t)aData[6] << CAN_TDH0R_DATA6_Pos) |
 930:ThirdParty/STM32F4xx_HAL_Driver/Src/stm32f4xx_hal_can.c ****                 ((uint32_t)aData[5] << CAN_TDH0R_DATA5_Pos) |
 931:ThirdParty/STM32F4xx_HAL_Driver/Src/stm32f4xx_hal_can.c ****                 ((uint32_t)aData[4] << CAN_TDH0R_DATA4_Pos));
 932:ThirdParty/STM32F4xx_HAL_Driver/Src/stm32f4xx_hal_can.c ****       WRITE_REG(hcan->Instance->sTxMailBox[transmitmailbox].TDLR,
 1207              		.loc 1 932 7 view .LVU379
 1208 0090 D178     		ldrb	r1, [r2, #3]	@ zero_extendqisi2
 1209 0092 9378     		ldrb	r3, [r2, #2]	@ zero_extendqisi2
 1210 0094 1B04     		lsls	r3, r3, #16
 1211 0096 43EA0163 		orr	r3, r3, r1, lsl #24
 1212 009a 5178     		ldrb	r1, [r2, #1]	@ zero_extendqisi2
 1213 009c 43EA0123 		orr	r3, r3, r1, lsl #8
 1214 00a0 1178     		ldrb	r1, [r2]	@ zero_extendqisi2
 1215 00a2 0268     		ldr	r2, [r0]
 1216              	.LVL64:
 1217              		.loc 1 932 7 is_stmt 0 view .LVU380
 1218 00a4 0B43     		orrs	r3, r3, r1
 1219 00a6 02EB0C12 		add	r2, r2, ip, lsl #4
 1220 00aa C2F88831 		str	r3, [r2, #392]
 933:ThirdParty/STM32F4xx_HAL_Driver/Src/stm32f4xx_hal_can.c ****                 ((uint32_t)aData[3] << CAN_TDL0R_DATA3_Pos) |
 934:ThirdParty/STM32F4xx_HAL_Driver/Src/stm32f4xx_hal_can.c ****                 ((uint32_t)aData[2] << CAN_TDL0R_DATA2_Pos) |
 935:ThirdParty/STM32F4xx_HAL_Driver/Src/stm32f4xx_hal_can.c ****                 ((uint32_t)aData[1] << CAN_TDL0R_DATA1_Pos) |
 936:ThirdParty/STM32F4xx_HAL_Driver/Src/stm32f4xx_hal_can.c ****                 ((uint32_t)aData[0] << CAN_TDL0R_DATA0_Pos));
 937:ThirdParty/STM32F4xx_HAL_Driver/Src/stm32f4xx_hal_can.c **** 
 938:ThirdParty/STM32F4xx_HAL_Driver/Src/stm32f4xx_hal_can.c ****       /* Request transmission */
 939:ThirdParty/STM32F4xx_HAL_Driver/Src/stm32f4xx_hal_can.c ****       SET_BIT(hcan->Instance->sTxMailBox[transmitmailbox].TIR, CAN_TI0R_TXRQ);
ARM GAS  /tmp/cc6fvD8U.s 			page 43


 1221              		.loc 1 939 7 is_stmt 1 view .LVU381
 1222 00ae 0268     		ldr	r2, [r0]
 1223 00b0 0CF1180C 		add	ip, ip, #24
 1224              	.LVL65:
 1225              		.loc 1 939 7 is_stmt 0 view .LVU382
 1226 00b4 4FEA0C1C 		lsl	ip, ip, #4
 1227 00b8 52F80C30 		ldr	r3, [r2, ip]
 1228 00bc 43F00103 		orr	r3, r3, #1
 1229 00c0 42F80C30 		str	r3, [r2, ip]
 940:ThirdParty/STM32F4xx_HAL_Driver/Src/stm32f4xx_hal_can.c **** 
 941:ThirdParty/STM32F4xx_HAL_Driver/Src/stm32f4xx_hal_can.c ****       /* Return function status */
 942:ThirdParty/STM32F4xx_HAL_Driver/Src/stm32f4xx_hal_can.c ****       return HAL_OK;
 1230              		.loc 1 942 7 is_stmt 1 view .LVU383
 1231              		.loc 1 942 14 is_stmt 0 view .LVU384
 1232 00c4 0020     		movs	r0, #0
 1233              	.LVL66:
 1234              	.L104:
 943:ThirdParty/STM32F4xx_HAL_Driver/Src/stm32f4xx_hal_can.c ****     }
 944:ThirdParty/STM32F4xx_HAL_Driver/Src/stm32f4xx_hal_can.c ****     else
 945:ThirdParty/STM32F4xx_HAL_Driver/Src/stm32f4xx_hal_can.c ****     {
 946:ThirdParty/STM32F4xx_HAL_Driver/Src/stm32f4xx_hal_can.c ****       /* Update error code */
 947:ThirdParty/STM32F4xx_HAL_Driver/Src/stm32f4xx_hal_can.c ****       hcan->ErrorCode |= HAL_CAN_ERROR_PARAM;
 948:ThirdParty/STM32F4xx_HAL_Driver/Src/stm32f4xx_hal_can.c **** 
 949:ThirdParty/STM32F4xx_HAL_Driver/Src/stm32f4xx_hal_can.c ****       return HAL_ERROR;
 950:ThirdParty/STM32F4xx_HAL_Driver/Src/stm32f4xx_hal_can.c ****     }
 951:ThirdParty/STM32F4xx_HAL_Driver/Src/stm32f4xx_hal_can.c ****   }
 952:ThirdParty/STM32F4xx_HAL_Driver/Src/stm32f4xx_hal_can.c ****   else
 953:ThirdParty/STM32F4xx_HAL_Driver/Src/stm32f4xx_hal_can.c ****   {
 954:ThirdParty/STM32F4xx_HAL_Driver/Src/stm32f4xx_hal_can.c ****     /* Update error code */
 955:ThirdParty/STM32F4xx_HAL_Driver/Src/stm32f4xx_hal_can.c ****     hcan->ErrorCode |= HAL_CAN_ERROR_NOT_INITIALIZED;
 956:ThirdParty/STM32F4xx_HAL_Driver/Src/stm32f4xx_hal_can.c **** 
 957:ThirdParty/STM32F4xx_HAL_Driver/Src/stm32f4xx_hal_can.c ****     return HAL_ERROR;
 958:ThirdParty/STM32F4xx_HAL_Driver/Src/stm32f4xx_hal_can.c ****   }
 959:ThirdParty/STM32F4xx_HAL_Driver/Src/stm32f4xx_hal_can.c **** }
 1235              		.loc 1 959 1 view .LVU385
 1236 00c6 30BC     		pop	{r4, r5}
 1237              	.LCFI11:
 1238              		.cfi_remember_state
 1239              		.cfi_restore 5
 1240              		.cfi_restore 4
 1241              		.cfi_def_cfa_offset 0
 1242 00c8 7047     		bx	lr
 1243              	.LVL67:
 1244              	.L101:
 1245              	.LCFI12:
 1246              		.cfi_restore_state
 912:ThirdParty/STM32F4xx_HAL_Driver/Src/stm32f4xx_hal_can.c ****                                                            pHeader->IDE |
 1247              		.loc 1 912 9 is_stmt 1 view .LVU386
 912:ThirdParty/STM32F4xx_HAL_Driver/Src/stm32f4xx_hal_can.c ****                                                            pHeader->IDE |
 1248              		.loc 1 912 68 is_stmt 0 view .LVU387
 1249 00ca 4C68     		ldr	r4, [r1, #4]
 912:ThirdParty/STM32F4xx_HAL_Driver/Src/stm32f4xx_hal_can.c ****                                                            pHeader->IDE |
 1250              		.loc 1 912 98 view .LVU388
 1251 00cc 43EAC403 		orr	r3, r3, r4, lsl #3
 914:ThirdParty/STM32F4xx_HAL_Driver/Src/stm32f4xx_hal_can.c ****       }
 1252              		.loc 1 914 67 view .LVU389
 1253 00d0 CC68     		ldr	r4, [r1, #12]
ARM GAS  /tmp/cc6fvD8U.s 			page 44


 912:ThirdParty/STM32F4xx_HAL_Driver/Src/stm32f4xx_hal_can.c ****                                                            pHeader->IDE |
 1254              		.loc 1 912 13 view .LVU390
 1255 00d2 0568     		ldr	r5, [r0]
 913:ThirdParty/STM32F4xx_HAL_Driver/Src/stm32f4xx_hal_can.c ****                                                            pHeader->RTR);
 1256              		.loc 1 913 73 view .LVU391
 1257 00d4 2343     		orrs	r3, r3, r4
 912:ThirdParty/STM32F4xx_HAL_Driver/Src/stm32f4xx_hal_can.c ****                                                            pHeader->IDE |
 1258              		.loc 1 912 57 view .LVU392
 1259 00d6 0CF11804 		add	r4, ip, #24
 1260 00da 2401     		lsls	r4, r4, #4
 1261 00dc 2B51     		str	r3, [r5, r4]
 1262 00de BEE7     		b	.L102
 1263              	.L108:
 923:ThirdParty/STM32F4xx_HAL_Driver/Src/stm32f4xx_hal_can.c ****       }
 1264              		.loc 1 923 9 is_stmt 1 view .LVU393
 1265 00e0 0368     		ldr	r3, [r0]
 1266 00e2 03EB0513 		add	r3, r3, r5, lsl #4
 1267 00e6 5968     		ldr	r1, [r3, #4]
 1268              	.LVL68:
 923:ThirdParty/STM32F4xx_HAL_Driver/Src/stm32f4xx_hal_can.c ****       }
 1269              		.loc 1 923 9 is_stmt 0 view .LVU394
 1270 00e8 41F48071 		orr	r1, r1, #256
 1271 00ec 5960     		str	r1, [r3, #4]
 1272 00ee C0E7     		b	.L103
 1273              	.LVL69:
 1274              	.L100:
 947:ThirdParty/STM32F4xx_HAL_Driver/Src/stm32f4xx_hal_can.c **** 
 1275              		.loc 1 947 7 is_stmt 1 view .LVU395
 947:ThirdParty/STM32F4xx_HAL_Driver/Src/stm32f4xx_hal_can.c **** 
 1276              		.loc 1 947 23 is_stmt 0 view .LVU396
 1277 00f0 436A     		ldr	r3, [r0, #36]
 1278              	.LVL70:
 947:ThirdParty/STM32F4xx_HAL_Driver/Src/stm32f4xx_hal_can.c **** 
 1279              		.loc 1 947 23 view .LVU397
 1280 00f2 43F40013 		orr	r3, r3, #2097152
 1281 00f6 4362     		str	r3, [r0, #36]
 949:ThirdParty/STM32F4xx_HAL_Driver/Src/stm32f4xx_hal_can.c ****     }
 1282              		.loc 1 949 7 is_stmt 1 view .LVU398
 949:ThirdParty/STM32F4xx_HAL_Driver/Src/stm32f4xx_hal_can.c ****     }
 1283              		.loc 1 949 14 is_stmt 0 view .LVU399
 1284 00f8 0120     		movs	r0, #1
 1285              	.LVL71:
 949:ThirdParty/STM32F4xx_HAL_Driver/Src/stm32f4xx_hal_can.c ****     }
 1286              		.loc 1 949 14 view .LVU400
 1287 00fa E4E7     		b	.L104
 1288              	.LVL72:
 1289              	.L98:
 1290              	.LCFI13:
 1291              		.cfi_def_cfa_offset 0
 1292              		.cfi_restore 4
 1293              		.cfi_restore 5
 955:ThirdParty/STM32F4xx_HAL_Driver/Src/stm32f4xx_hal_can.c **** 
 1294              		.loc 1 955 5 is_stmt 1 view .LVU401
 955:ThirdParty/STM32F4xx_HAL_Driver/Src/stm32f4xx_hal_can.c **** 
 1295              		.loc 1 955 21 is_stmt 0 view .LVU402
 1296 00fc 436A     		ldr	r3, [r0, #36]
 1297              	.LVL73:
ARM GAS  /tmp/cc6fvD8U.s 			page 45


 955:ThirdParty/STM32F4xx_HAL_Driver/Src/stm32f4xx_hal_can.c **** 
 1298              		.loc 1 955 21 view .LVU403
 1299 00fe 43F48023 		orr	r3, r3, #262144
 1300 0102 4362     		str	r3, [r0, #36]
 957:ThirdParty/STM32F4xx_HAL_Driver/Src/stm32f4xx_hal_can.c ****   }
 1301              		.loc 1 957 5 is_stmt 1 view .LVU404
 957:ThirdParty/STM32F4xx_HAL_Driver/Src/stm32f4xx_hal_can.c ****   }
 1302              		.loc 1 957 12 is_stmt 0 view .LVU405
 1303 0104 0120     		movs	r0, #1
 1304              	.LVL74:
 1305              		.loc 1 959 1 view .LVU406
 1306 0106 7047     		bx	lr
 1307              		.cfi_endproc
 1308              	.LFE143:
 1310              		.section	.text.HAL_CAN_AbortTxRequest,"ax",%progbits
 1311              		.align	1
 1312              		.global	HAL_CAN_AbortTxRequest
 1313              		.syntax unified
 1314              		.thumb
 1315              		.thumb_func
 1317              	HAL_CAN_AbortTxRequest:
 1318              	.LVL75:
 1319              	.LFB144:
 960:ThirdParty/STM32F4xx_HAL_Driver/Src/stm32f4xx_hal_can.c **** 
 961:ThirdParty/STM32F4xx_HAL_Driver/Src/stm32f4xx_hal_can.c **** /**
 962:ThirdParty/STM32F4xx_HAL_Driver/Src/stm32f4xx_hal_can.c ****   * @brief  Abort transmission requests
 963:ThirdParty/STM32F4xx_HAL_Driver/Src/stm32f4xx_hal_can.c ****   * @param  hcan pointer to an CAN_HandleTypeDef structure that contains
 964:ThirdParty/STM32F4xx_HAL_Driver/Src/stm32f4xx_hal_can.c ****   *         the configuration information for the specified CAN.
 965:ThirdParty/STM32F4xx_HAL_Driver/Src/stm32f4xx_hal_can.c ****   * @param  TxMailboxes List of the Tx Mailboxes to abort.
 966:ThirdParty/STM32F4xx_HAL_Driver/Src/stm32f4xx_hal_can.c ****   *         This parameter can be any combination of @arg CAN_Tx_Mailboxes.
 967:ThirdParty/STM32F4xx_HAL_Driver/Src/stm32f4xx_hal_can.c ****   * @retval HAL status
 968:ThirdParty/STM32F4xx_HAL_Driver/Src/stm32f4xx_hal_can.c ****   */
 969:ThirdParty/STM32F4xx_HAL_Driver/Src/stm32f4xx_hal_can.c **** HAL_StatusTypeDef HAL_CAN_AbortTxRequest(CAN_HandleTypeDef *hcan, uint32_t TxMailboxes)
 970:ThirdParty/STM32F4xx_HAL_Driver/Src/stm32f4xx_hal_can.c **** {
 1320              		.loc 1 970 1 is_stmt 1 view -0
 1321              		.cfi_startproc
 1322              		@ args = 0, pretend = 0, frame = 0
 1323              		@ frame_needed = 0, uses_anonymous_args = 0
 1324              		@ link register save eliminated.
 971:ThirdParty/STM32F4xx_HAL_Driver/Src/stm32f4xx_hal_can.c ****   /* Check function parameters */
 972:ThirdParty/STM32F4xx_HAL_Driver/Src/stm32f4xx_hal_can.c ****   assert_param(IS_CAN_TX_MAILBOX_LIST(TxMailboxes));
 1325              		.loc 1 972 3 view .LVU408
 973:ThirdParty/STM32F4xx_HAL_Driver/Src/stm32f4xx_hal_can.c **** 
 974:ThirdParty/STM32F4xx_HAL_Driver/Src/stm32f4xx_hal_can.c ****   if ((hcan->State == HAL_CAN_STATE_READY) ||
 1326              		.loc 1 974 3 view .LVU409
 1327              		.loc 1 974 12 is_stmt 0 view .LVU410
 1328 0000 90F82030 		ldrb	r3, [r0, #32]	@ zero_extendqisi2
 1329 0004 DBB2     		uxtb	r3, r3
 1330              		.loc 1 974 6 view .LVU411
 1331 0006 012B     		cmp	r3, #1
 1332 0008 0AD0     		beq	.L110
 975:ThirdParty/STM32F4xx_HAL_Driver/Src/stm32f4xx_hal_can.c ****       (hcan->State == HAL_CAN_STATE_LISTENING))
 1333              		.loc 1 975 12 discriminator 1 view .LVU412
 1334 000a 90F82030 		ldrb	r3, [r0, #32]	@ zero_extendqisi2
 1335 000e DBB2     		uxtb	r3, r3
 974:ThirdParty/STM32F4xx_HAL_Driver/Src/stm32f4xx_hal_can.c ****       (hcan->State == HAL_CAN_STATE_LISTENING))
 1336              		.loc 1 974 44 discriminator 1 view .LVU413
ARM GAS  /tmp/cc6fvD8U.s 			page 46


 1337 0010 022B     		cmp	r3, #2
 1338 0012 05D0     		beq	.L110
 976:ThirdParty/STM32F4xx_HAL_Driver/Src/stm32f4xx_hal_can.c ****   {
 977:ThirdParty/STM32F4xx_HAL_Driver/Src/stm32f4xx_hal_can.c ****     /* Check Tx Mailbox 0 */
 978:ThirdParty/STM32F4xx_HAL_Driver/Src/stm32f4xx_hal_can.c ****     if ((TxMailboxes & CAN_TX_MAILBOX0) != RESET)
 979:ThirdParty/STM32F4xx_HAL_Driver/Src/stm32f4xx_hal_can.c ****     {
 980:ThirdParty/STM32F4xx_HAL_Driver/Src/stm32f4xx_hal_can.c ****       /* Add cancellation request for Tx Mailbox 0 */
 981:ThirdParty/STM32F4xx_HAL_Driver/Src/stm32f4xx_hal_can.c ****       SET_BIT(hcan->Instance->TSR, CAN_TSR_ABRQ0);
 982:ThirdParty/STM32F4xx_HAL_Driver/Src/stm32f4xx_hal_can.c ****     }
 983:ThirdParty/STM32F4xx_HAL_Driver/Src/stm32f4xx_hal_can.c **** 
 984:ThirdParty/STM32F4xx_HAL_Driver/Src/stm32f4xx_hal_can.c ****     /* Check Tx Mailbox 1 */
 985:ThirdParty/STM32F4xx_HAL_Driver/Src/stm32f4xx_hal_can.c ****     if ((TxMailboxes & CAN_TX_MAILBOX1) != RESET)
 986:ThirdParty/STM32F4xx_HAL_Driver/Src/stm32f4xx_hal_can.c ****     {
 987:ThirdParty/STM32F4xx_HAL_Driver/Src/stm32f4xx_hal_can.c ****       /* Add cancellation request for Tx Mailbox 1 */
 988:ThirdParty/STM32F4xx_HAL_Driver/Src/stm32f4xx_hal_can.c ****       SET_BIT(hcan->Instance->TSR, CAN_TSR_ABRQ1);
 989:ThirdParty/STM32F4xx_HAL_Driver/Src/stm32f4xx_hal_can.c ****     }
 990:ThirdParty/STM32F4xx_HAL_Driver/Src/stm32f4xx_hal_can.c **** 
 991:ThirdParty/STM32F4xx_HAL_Driver/Src/stm32f4xx_hal_can.c ****     /* Check Tx Mailbox 2 */
 992:ThirdParty/STM32F4xx_HAL_Driver/Src/stm32f4xx_hal_can.c ****     if ((TxMailboxes & CAN_TX_MAILBOX2) != RESET)
 993:ThirdParty/STM32F4xx_HAL_Driver/Src/stm32f4xx_hal_can.c ****     {
 994:ThirdParty/STM32F4xx_HAL_Driver/Src/stm32f4xx_hal_can.c ****       /* Add cancellation request for Tx Mailbox 2 */
 995:ThirdParty/STM32F4xx_HAL_Driver/Src/stm32f4xx_hal_can.c ****       SET_BIT(hcan->Instance->TSR, CAN_TSR_ABRQ2);
 996:ThirdParty/STM32F4xx_HAL_Driver/Src/stm32f4xx_hal_can.c ****     }
 997:ThirdParty/STM32F4xx_HAL_Driver/Src/stm32f4xx_hal_can.c **** 
 998:ThirdParty/STM32F4xx_HAL_Driver/Src/stm32f4xx_hal_can.c ****     /* Return function status */
 999:ThirdParty/STM32F4xx_HAL_Driver/Src/stm32f4xx_hal_can.c ****     return HAL_OK;
1000:ThirdParty/STM32F4xx_HAL_Driver/Src/stm32f4xx_hal_can.c ****   }
1001:ThirdParty/STM32F4xx_HAL_Driver/Src/stm32f4xx_hal_can.c ****   else
1002:ThirdParty/STM32F4xx_HAL_Driver/Src/stm32f4xx_hal_can.c ****   {
1003:ThirdParty/STM32F4xx_HAL_Driver/Src/stm32f4xx_hal_can.c ****     /* Update error code */
1004:ThirdParty/STM32F4xx_HAL_Driver/Src/stm32f4xx_hal_can.c ****     hcan->ErrorCode |= HAL_CAN_ERROR_NOT_INITIALIZED;
 1339              		.loc 1 1004 5 is_stmt 1 view .LVU414
 1340              		.loc 1 1004 21 is_stmt 0 view .LVU415
 1341 0014 436A     		ldr	r3, [r0, #36]
 1342 0016 43F48023 		orr	r3, r3, #262144
 1343 001a 4362     		str	r3, [r0, #36]
1005:ThirdParty/STM32F4xx_HAL_Driver/Src/stm32f4xx_hal_can.c **** 
1006:ThirdParty/STM32F4xx_HAL_Driver/Src/stm32f4xx_hal_can.c ****     return HAL_ERROR;
 1344              		.loc 1 1006 5 is_stmt 1 view .LVU416
 1345              		.loc 1 1006 12 is_stmt 0 view .LVU417
 1346 001c 0120     		movs	r0, #1
 1347              	.LVL76:
1007:ThirdParty/STM32F4xx_HAL_Driver/Src/stm32f4xx_hal_can.c ****   }
1008:ThirdParty/STM32F4xx_HAL_Driver/Src/stm32f4xx_hal_can.c **** }
 1348              		.loc 1 1008 1 view .LVU418
 1349 001e 7047     		bx	lr
 1350              	.LVL77:
 1351              	.L110:
 978:ThirdParty/STM32F4xx_HAL_Driver/Src/stm32f4xx_hal_can.c ****     {
 1352              		.loc 1 978 5 is_stmt 1 view .LVU419
 978:ThirdParty/STM32F4xx_HAL_Driver/Src/stm32f4xx_hal_can.c ****     {
 1353              		.loc 1 978 8 is_stmt 0 view .LVU420
 1354 0020 11F0010F 		tst	r1, #1
 1355 0024 04D0     		beq	.L112
 981:ThirdParty/STM32F4xx_HAL_Driver/Src/stm32f4xx_hal_can.c ****     }
 1356              		.loc 1 981 7 is_stmt 1 view .LVU421
 1357 0026 0268     		ldr	r2, [r0]
ARM GAS  /tmp/cc6fvD8U.s 			page 47


 1358 0028 9368     		ldr	r3, [r2, #8]
 1359 002a 43F08003 		orr	r3, r3, #128
 1360 002e 9360     		str	r3, [r2, #8]
 1361              	.L112:
 985:ThirdParty/STM32F4xx_HAL_Driver/Src/stm32f4xx_hal_can.c ****     {
 1362              		.loc 1 985 5 view .LVU422
 985:ThirdParty/STM32F4xx_HAL_Driver/Src/stm32f4xx_hal_can.c ****     {
 1363              		.loc 1 985 8 is_stmt 0 view .LVU423
 1364 0030 11F0020F 		tst	r1, #2
 1365 0034 04D0     		beq	.L113
 988:ThirdParty/STM32F4xx_HAL_Driver/Src/stm32f4xx_hal_can.c ****     }
 1366              		.loc 1 988 7 is_stmt 1 view .LVU424
 1367 0036 0268     		ldr	r2, [r0]
 1368 0038 9368     		ldr	r3, [r2, #8]
 1369 003a 43F40043 		orr	r3, r3, #32768
 1370 003e 9360     		str	r3, [r2, #8]
 1371              	.L113:
 992:ThirdParty/STM32F4xx_HAL_Driver/Src/stm32f4xx_hal_can.c ****     {
 1372              		.loc 1 992 5 view .LVU425
 992:ThirdParty/STM32F4xx_HAL_Driver/Src/stm32f4xx_hal_can.c ****     {
 1373              		.loc 1 992 8 is_stmt 0 view .LVU426
 1374 0040 11F0040F 		tst	r1, #4
 1375 0044 04D0     		beq	.L114
 995:ThirdParty/STM32F4xx_HAL_Driver/Src/stm32f4xx_hal_can.c ****     }
 1376              		.loc 1 995 7 is_stmt 1 view .LVU427
 1377 0046 0268     		ldr	r2, [r0]
 1378 0048 9368     		ldr	r3, [r2, #8]
 1379 004a 43F40003 		orr	r3, r3, #8388608
 1380 004e 9360     		str	r3, [r2, #8]
 1381              	.L114:
 999:ThirdParty/STM32F4xx_HAL_Driver/Src/stm32f4xx_hal_can.c ****   }
 1382              		.loc 1 999 5 view .LVU428
 999:ThirdParty/STM32F4xx_HAL_Driver/Src/stm32f4xx_hal_can.c ****   }
 1383              		.loc 1 999 12 is_stmt 0 view .LVU429
 1384 0050 0020     		movs	r0, #0
 1385              	.LVL78:
 999:ThirdParty/STM32F4xx_HAL_Driver/Src/stm32f4xx_hal_can.c ****   }
 1386              		.loc 1 999 12 view .LVU430
 1387 0052 7047     		bx	lr
 1388              		.cfi_endproc
 1389              	.LFE144:
 1391              		.section	.text.HAL_CAN_GetTxMailboxesFreeLevel,"ax",%progbits
 1392              		.align	1
 1393              		.global	HAL_CAN_GetTxMailboxesFreeLevel
 1394              		.syntax unified
 1395              		.thumb
 1396              		.thumb_func
 1398              	HAL_CAN_GetTxMailboxesFreeLevel:
 1399              	.LVL79:
 1400              	.LFB145:
1009:ThirdParty/STM32F4xx_HAL_Driver/Src/stm32f4xx_hal_can.c **** 
1010:ThirdParty/STM32F4xx_HAL_Driver/Src/stm32f4xx_hal_can.c **** /**
1011:ThirdParty/STM32F4xx_HAL_Driver/Src/stm32f4xx_hal_can.c ****   * @brief  Return Tx Mailboxes free level: number of free Tx Mailboxes.
1012:ThirdParty/STM32F4xx_HAL_Driver/Src/stm32f4xx_hal_can.c ****   * @param  hcan pointer to a CAN_HandleTypeDef structure that contains
1013:ThirdParty/STM32F4xx_HAL_Driver/Src/stm32f4xx_hal_can.c ****   *         the configuration information for the specified CAN.
1014:ThirdParty/STM32F4xx_HAL_Driver/Src/stm32f4xx_hal_can.c ****   * @retval Number of free Tx Mailboxes.
1015:ThirdParty/STM32F4xx_HAL_Driver/Src/stm32f4xx_hal_can.c ****   */
ARM GAS  /tmp/cc6fvD8U.s 			page 48


1016:ThirdParty/STM32F4xx_HAL_Driver/Src/stm32f4xx_hal_can.c **** uint32_t HAL_CAN_GetTxMailboxesFreeLevel(CAN_HandleTypeDef *hcan)
1017:ThirdParty/STM32F4xx_HAL_Driver/Src/stm32f4xx_hal_can.c **** {
 1401              		.loc 1 1017 1 is_stmt 1 view -0
 1402              		.cfi_startproc
 1403              		@ args = 0, pretend = 0, frame = 0
 1404              		@ frame_needed = 0, uses_anonymous_args = 0
 1405              		@ link register save eliminated.
1018:ThirdParty/STM32F4xx_HAL_Driver/Src/stm32f4xx_hal_can.c ****   uint32_t freelevel = 0U;
 1406              		.loc 1 1018 3 view .LVU432
1019:ThirdParty/STM32F4xx_HAL_Driver/Src/stm32f4xx_hal_can.c **** 
1020:ThirdParty/STM32F4xx_HAL_Driver/Src/stm32f4xx_hal_can.c ****   if ((hcan->State == HAL_CAN_STATE_READY) ||
 1407              		.loc 1 1020 3 view .LVU433
 1408              		.loc 1 1020 12 is_stmt 0 view .LVU434
 1409 0000 90F82030 		ldrb	r3, [r0, #32]	@ zero_extendqisi2
 1410 0004 DBB2     		uxtb	r3, r3
 1411              		.loc 1 1020 6 view .LVU435
 1412 0006 012B     		cmp	r3, #1
 1413 0008 06D0     		beq	.L117
1021:ThirdParty/STM32F4xx_HAL_Driver/Src/stm32f4xx_hal_can.c ****       (hcan->State == HAL_CAN_STATE_LISTENING))
 1414              		.loc 1 1021 12 discriminator 1 view .LVU436
 1415 000a 90F82030 		ldrb	r3, [r0, #32]	@ zero_extendqisi2
 1416 000e DBB2     		uxtb	r3, r3
1020:ThirdParty/STM32F4xx_HAL_Driver/Src/stm32f4xx_hal_can.c ****       (hcan->State == HAL_CAN_STATE_LISTENING))
 1417              		.loc 1 1020 44 discriminator 1 view .LVU437
 1418 0010 022B     		cmp	r3, #2
 1419 0012 01D0     		beq	.L117
1018:ThirdParty/STM32F4xx_HAL_Driver/Src/stm32f4xx_hal_can.c **** 
 1420              		.loc 1 1018 12 view .LVU438
 1421 0014 0020     		movs	r0, #0
 1422              	.LVL80:
1022:ThirdParty/STM32F4xx_HAL_Driver/Src/stm32f4xx_hal_can.c ****   {
1023:ThirdParty/STM32F4xx_HAL_Driver/Src/stm32f4xx_hal_can.c ****     /* Check Tx Mailbox 0 status */
1024:ThirdParty/STM32F4xx_HAL_Driver/Src/stm32f4xx_hal_can.c ****     if ((hcan->Instance->TSR & CAN_TSR_TME0) != RESET)
1025:ThirdParty/STM32F4xx_HAL_Driver/Src/stm32f4xx_hal_can.c ****     {
1026:ThirdParty/STM32F4xx_HAL_Driver/Src/stm32f4xx_hal_can.c ****       freelevel++;
1027:ThirdParty/STM32F4xx_HAL_Driver/Src/stm32f4xx_hal_can.c ****     }
1028:ThirdParty/STM32F4xx_HAL_Driver/Src/stm32f4xx_hal_can.c **** 
1029:ThirdParty/STM32F4xx_HAL_Driver/Src/stm32f4xx_hal_can.c ****     /* Check Tx Mailbox 1 status */
1030:ThirdParty/STM32F4xx_HAL_Driver/Src/stm32f4xx_hal_can.c ****     if ((hcan->Instance->TSR & CAN_TSR_TME1) != RESET)
1031:ThirdParty/STM32F4xx_HAL_Driver/Src/stm32f4xx_hal_can.c ****     {
1032:ThirdParty/STM32F4xx_HAL_Driver/Src/stm32f4xx_hal_can.c ****       freelevel++;
1033:ThirdParty/STM32F4xx_HAL_Driver/Src/stm32f4xx_hal_can.c ****     }
1034:ThirdParty/STM32F4xx_HAL_Driver/Src/stm32f4xx_hal_can.c **** 
1035:ThirdParty/STM32F4xx_HAL_Driver/Src/stm32f4xx_hal_can.c ****     /* Check Tx Mailbox 2 status */
1036:ThirdParty/STM32F4xx_HAL_Driver/Src/stm32f4xx_hal_can.c ****     if ((hcan->Instance->TSR & CAN_TSR_TME2) != RESET)
1037:ThirdParty/STM32F4xx_HAL_Driver/Src/stm32f4xx_hal_can.c ****     {
1038:ThirdParty/STM32F4xx_HAL_Driver/Src/stm32f4xx_hal_can.c ****       freelevel++;
1039:ThirdParty/STM32F4xx_HAL_Driver/Src/stm32f4xx_hal_can.c ****     }
1040:ThirdParty/STM32F4xx_HAL_Driver/Src/stm32f4xx_hal_can.c ****   }
1041:ThirdParty/STM32F4xx_HAL_Driver/Src/stm32f4xx_hal_can.c **** 
1042:ThirdParty/STM32F4xx_HAL_Driver/Src/stm32f4xx_hal_can.c ****   /* Return Tx Mailboxes free level */
1043:ThirdParty/STM32F4xx_HAL_Driver/Src/stm32f4xx_hal_can.c ****   return freelevel;
 1423              		.loc 1 1043 3 is_stmt 1 view .LVU439
 1424              	.L116:
1044:ThirdParty/STM32F4xx_HAL_Driver/Src/stm32f4xx_hal_can.c **** }
 1425              		.loc 1 1044 1 is_stmt 0 view .LVU440
 1426 0016 7047     		bx	lr
ARM GAS  /tmp/cc6fvD8U.s 			page 49


 1427              	.LVL81:
 1428              	.L117:
1024:ThirdParty/STM32F4xx_HAL_Driver/Src/stm32f4xx_hal_can.c ****     {
 1429              		.loc 1 1024 5 is_stmt 1 view .LVU441
1024:ThirdParty/STM32F4xx_HAL_Driver/Src/stm32f4xx_hal_can.c ****     {
 1430              		.loc 1 1024 14 is_stmt 0 view .LVU442
 1431 0018 0368     		ldr	r3, [r0]
1024:ThirdParty/STM32F4xx_HAL_Driver/Src/stm32f4xx_hal_can.c ****     {
 1432              		.loc 1 1024 24 view .LVU443
 1433 001a 9868     		ldr	r0, [r3, #8]
 1434              	.LVL82:
1024:ThirdParty/STM32F4xx_HAL_Driver/Src/stm32f4xx_hal_can.c ****     {
 1435              		.loc 1 1024 8 view .LVU444
 1436 001c 10F08060 		ands	r0, r0, #67108864
 1437 0020 00D0     		beq	.L119
1026:ThirdParty/STM32F4xx_HAL_Driver/Src/stm32f4xx_hal_can.c ****     }
 1438              		.loc 1 1026 16 view .LVU445
 1439 0022 0120     		movs	r0, #1
 1440              	.L119:
 1441              	.LVL83:
1030:ThirdParty/STM32F4xx_HAL_Driver/Src/stm32f4xx_hal_can.c ****     {
 1442              		.loc 1 1030 5 is_stmt 1 view .LVU446
1030:ThirdParty/STM32F4xx_HAL_Driver/Src/stm32f4xx_hal_can.c ****     {
 1443              		.loc 1 1030 24 is_stmt 0 view .LVU447
 1444 0024 9A68     		ldr	r2, [r3, #8]
1030:ThirdParty/STM32F4xx_HAL_Driver/Src/stm32f4xx_hal_can.c ****     {
 1445              		.loc 1 1030 8 view .LVU448
 1446 0026 12F0006F 		tst	r2, #134217728
 1447 002a 00D0     		beq	.L120
1032:ThirdParty/STM32F4xx_HAL_Driver/Src/stm32f4xx_hal_can.c ****     }
 1448              		.loc 1 1032 7 is_stmt 1 view .LVU449
1032:ThirdParty/STM32F4xx_HAL_Driver/Src/stm32f4xx_hal_can.c ****     }
 1449              		.loc 1 1032 16 is_stmt 0 view .LVU450
 1450 002c 0130     		adds	r0, r0, #1
 1451              	.LVL84:
 1452              	.L120:
1036:ThirdParty/STM32F4xx_HAL_Driver/Src/stm32f4xx_hal_can.c ****     {
 1453              		.loc 1 1036 5 is_stmt 1 view .LVU451
1036:ThirdParty/STM32F4xx_HAL_Driver/Src/stm32f4xx_hal_can.c ****     {
 1454              		.loc 1 1036 24 is_stmt 0 view .LVU452
 1455 002e 9B68     		ldr	r3, [r3, #8]
1036:ThirdParty/STM32F4xx_HAL_Driver/Src/stm32f4xx_hal_can.c ****     {
 1456              		.loc 1 1036 8 view .LVU453
 1457 0030 13F0805F 		tst	r3, #268435456
 1458 0034 EFD0     		beq	.L116
1038:ThirdParty/STM32F4xx_HAL_Driver/Src/stm32f4xx_hal_can.c ****     }
 1459              		.loc 1 1038 7 is_stmt 1 view .LVU454
1038:ThirdParty/STM32F4xx_HAL_Driver/Src/stm32f4xx_hal_can.c ****     }
 1460              		.loc 1 1038 16 is_stmt 0 view .LVU455
 1461 0036 0130     		adds	r0, r0, #1
 1462              	.LVL85:
1038:ThirdParty/STM32F4xx_HAL_Driver/Src/stm32f4xx_hal_can.c ****     }
 1463              		.loc 1 1038 16 view .LVU456
 1464 0038 7047     		bx	lr
 1465              		.cfi_endproc
 1466              	.LFE145:
 1468              		.section	.text.HAL_CAN_IsTxMessagePending,"ax",%progbits
ARM GAS  /tmp/cc6fvD8U.s 			page 50


 1469              		.align	1
 1470              		.global	HAL_CAN_IsTxMessagePending
 1471              		.syntax unified
 1472              		.thumb
 1473              		.thumb_func
 1475              	HAL_CAN_IsTxMessagePending:
 1476              	.LVL86:
 1477              	.LFB146:
1045:ThirdParty/STM32F4xx_HAL_Driver/Src/stm32f4xx_hal_can.c **** 
1046:ThirdParty/STM32F4xx_HAL_Driver/Src/stm32f4xx_hal_can.c **** /**
1047:ThirdParty/STM32F4xx_HAL_Driver/Src/stm32f4xx_hal_can.c ****   * @brief  Check if a transmission request is pending on the selected Tx
1048:ThirdParty/STM32F4xx_HAL_Driver/Src/stm32f4xx_hal_can.c ****   *         Mailboxes.
1049:ThirdParty/STM32F4xx_HAL_Driver/Src/stm32f4xx_hal_can.c ****   * @param  hcan pointer to an CAN_HandleTypeDef structure that contains
1050:ThirdParty/STM32F4xx_HAL_Driver/Src/stm32f4xx_hal_can.c ****   *         the configuration information for the specified CAN.
1051:ThirdParty/STM32F4xx_HAL_Driver/Src/stm32f4xx_hal_can.c ****   * @param  TxMailboxes List of Tx Mailboxes to check.
1052:ThirdParty/STM32F4xx_HAL_Driver/Src/stm32f4xx_hal_can.c ****   *         This parameter can be any combination of @arg CAN_Tx_Mailboxes.
1053:ThirdParty/STM32F4xx_HAL_Driver/Src/stm32f4xx_hal_can.c ****   * @retval Status
1054:ThirdParty/STM32F4xx_HAL_Driver/Src/stm32f4xx_hal_can.c ****   *          - 0 : No pending transmission request on any selected Tx Mailboxes.
1055:ThirdParty/STM32F4xx_HAL_Driver/Src/stm32f4xx_hal_can.c ****   *          - 1 : Pending transmission request on at least one of the selected
1056:ThirdParty/STM32F4xx_HAL_Driver/Src/stm32f4xx_hal_can.c ****   *                Tx Mailbox.
1057:ThirdParty/STM32F4xx_HAL_Driver/Src/stm32f4xx_hal_can.c ****   */
1058:ThirdParty/STM32F4xx_HAL_Driver/Src/stm32f4xx_hal_can.c **** uint32_t HAL_CAN_IsTxMessagePending(CAN_HandleTypeDef *hcan, uint32_t TxMailboxes)
1059:ThirdParty/STM32F4xx_HAL_Driver/Src/stm32f4xx_hal_can.c **** {
 1478              		.loc 1 1059 1 is_stmt 1 view -0
 1479              		.cfi_startproc
 1480              		@ args = 0, pretend = 0, frame = 0
 1481              		@ frame_needed = 0, uses_anonymous_args = 0
 1482              		@ link register save eliminated.
1060:ThirdParty/STM32F4xx_HAL_Driver/Src/stm32f4xx_hal_can.c ****   uint32_t status = 0U;
 1483              		.loc 1 1060 3 view .LVU458
1061:ThirdParty/STM32F4xx_HAL_Driver/Src/stm32f4xx_hal_can.c **** 
1062:ThirdParty/STM32F4xx_HAL_Driver/Src/stm32f4xx_hal_can.c ****   /* Check function parameters */
1063:ThirdParty/STM32F4xx_HAL_Driver/Src/stm32f4xx_hal_can.c ****   assert_param(IS_CAN_TX_MAILBOX_LIST(TxMailboxes));
 1484              		.loc 1 1063 3 view .LVU459
1064:ThirdParty/STM32F4xx_HAL_Driver/Src/stm32f4xx_hal_can.c **** 
1065:ThirdParty/STM32F4xx_HAL_Driver/Src/stm32f4xx_hal_can.c ****   if ((hcan->State == HAL_CAN_STATE_READY) ||
 1485              		.loc 1 1065 3 view .LVU460
 1486              		.loc 1 1065 12 is_stmt 0 view .LVU461
 1487 0000 90F82030 		ldrb	r3, [r0, #32]	@ zero_extendqisi2
 1488 0004 DBB2     		uxtb	r3, r3
 1489              		.loc 1 1065 6 view .LVU462
 1490 0006 012B     		cmp	r3, #1
 1491 0008 06D0     		beq	.L124
1066:ThirdParty/STM32F4xx_HAL_Driver/Src/stm32f4xx_hal_can.c ****       (hcan->State == HAL_CAN_STATE_LISTENING))
 1492              		.loc 1 1066 12 discriminator 1 view .LVU463
 1493 000a 90F82030 		ldrb	r3, [r0, #32]	@ zero_extendqisi2
 1494 000e DBB2     		uxtb	r3, r3
1065:ThirdParty/STM32F4xx_HAL_Driver/Src/stm32f4xx_hal_can.c ****       (hcan->State == HAL_CAN_STATE_LISTENING))
 1495              		.loc 1 1065 44 discriminator 1 view .LVU464
 1496 0010 022B     		cmp	r3, #2
 1497 0012 01D0     		beq	.L124
1060:ThirdParty/STM32F4xx_HAL_Driver/Src/stm32f4xx_hal_can.c **** 
 1498              		.loc 1 1060 12 view .LVU465
 1499 0014 0020     		movs	r0, #0
 1500              	.LVL87:
1060:ThirdParty/STM32F4xx_HAL_Driver/Src/stm32f4xx_hal_can.c **** 
 1501              		.loc 1 1060 12 view .LVU466
ARM GAS  /tmp/cc6fvD8U.s 			page 51


 1502 0016 7047     		bx	lr
 1503              	.LVL88:
 1504              	.L124:
1067:ThirdParty/STM32F4xx_HAL_Driver/Src/stm32f4xx_hal_can.c ****   {
1068:ThirdParty/STM32F4xx_HAL_Driver/Src/stm32f4xx_hal_can.c ****     /* Check pending transmission request on the selected Tx Mailboxes */
1069:ThirdParty/STM32F4xx_HAL_Driver/Src/stm32f4xx_hal_can.c ****     if ((hcan->Instance->TSR & (TxMailboxes << CAN_TSR_TME0_Pos)) != (TxMailboxes << CAN_TSR_TME0_P
 1505              		.loc 1 1069 5 is_stmt 1 view .LVU467
 1506              		.loc 1 1069 14 is_stmt 0 view .LVU468
 1507 0018 0368     		ldr	r3, [r0]
 1508              		.loc 1 1069 24 view .LVU469
 1509 001a 9B68     		ldr	r3, [r3, #8]
 1510              		.loc 1 1069 30 view .LVU470
 1511 001c 03EA8163 		and	r3, r3, r1, lsl #26
 1512              		.loc 1 1069 8 view .LVU471
 1513 0020 B3EB816F 		cmp	r3, r1, lsl #26
 1514 0024 01D0     		beq	.L128
1070:ThirdParty/STM32F4xx_HAL_Driver/Src/stm32f4xx_hal_can.c ****     {
1071:ThirdParty/STM32F4xx_HAL_Driver/Src/stm32f4xx_hal_can.c ****       status = 1U;
 1515              		.loc 1 1071 14 view .LVU472
 1516 0026 0120     		movs	r0, #1
 1517              	.LVL89:
1072:ThirdParty/STM32F4xx_HAL_Driver/Src/stm32f4xx_hal_can.c ****     }
1073:ThirdParty/STM32F4xx_HAL_Driver/Src/stm32f4xx_hal_can.c ****   }
1074:ThirdParty/STM32F4xx_HAL_Driver/Src/stm32f4xx_hal_can.c **** 
1075:ThirdParty/STM32F4xx_HAL_Driver/Src/stm32f4xx_hal_can.c ****   /* Return status */
1076:ThirdParty/STM32F4xx_HAL_Driver/Src/stm32f4xx_hal_can.c ****   return status;
 1518              		.loc 1 1076 3 is_stmt 1 view .LVU473
1077:ThirdParty/STM32F4xx_HAL_Driver/Src/stm32f4xx_hal_can.c **** }
 1519              		.loc 1 1077 1 is_stmt 0 view .LVU474
 1520 0028 7047     		bx	lr
 1521              	.LVL90:
 1522              	.L128:
1060:ThirdParty/STM32F4xx_HAL_Driver/Src/stm32f4xx_hal_can.c **** 
 1523              		.loc 1 1060 12 view .LVU475
 1524 002a 0020     		movs	r0, #0
 1525              	.LVL91:
1060:ThirdParty/STM32F4xx_HAL_Driver/Src/stm32f4xx_hal_can.c **** 
 1526              		.loc 1 1060 12 view .LVU476
 1527 002c 7047     		bx	lr
 1528              		.cfi_endproc
 1529              	.LFE146:
 1531              		.section	.text.HAL_CAN_GetTxTimestamp,"ax",%progbits
 1532              		.align	1
 1533              		.global	HAL_CAN_GetTxTimestamp
 1534              		.syntax unified
 1535              		.thumb
 1536              		.thumb_func
 1538              	HAL_CAN_GetTxTimestamp:
 1539              	.LVL92:
 1540              	.LFB147:
1078:ThirdParty/STM32F4xx_HAL_Driver/Src/stm32f4xx_hal_can.c **** 
1079:ThirdParty/STM32F4xx_HAL_Driver/Src/stm32f4xx_hal_can.c **** /**
1080:ThirdParty/STM32F4xx_HAL_Driver/Src/stm32f4xx_hal_can.c ****   * @brief  Return timestamp of Tx message sent, if time triggered communication
1081:ThirdParty/STM32F4xx_HAL_Driver/Src/stm32f4xx_hal_can.c ****             mode is enabled.
1082:ThirdParty/STM32F4xx_HAL_Driver/Src/stm32f4xx_hal_can.c ****   * @param  hcan pointer to a CAN_HandleTypeDef structure that contains
1083:ThirdParty/STM32F4xx_HAL_Driver/Src/stm32f4xx_hal_can.c ****   *         the configuration information for the specified CAN.
1084:ThirdParty/STM32F4xx_HAL_Driver/Src/stm32f4xx_hal_can.c ****   * @param  TxMailbox Tx Mailbox where the timestamp of message sent will be
ARM GAS  /tmp/cc6fvD8U.s 			page 52


1085:ThirdParty/STM32F4xx_HAL_Driver/Src/stm32f4xx_hal_can.c ****   *         read.
1086:ThirdParty/STM32F4xx_HAL_Driver/Src/stm32f4xx_hal_can.c ****   *         This parameter can be one value of @arg CAN_Tx_Mailboxes.
1087:ThirdParty/STM32F4xx_HAL_Driver/Src/stm32f4xx_hal_can.c ****   * @retval Timestamp of message sent from Tx Mailbox.
1088:ThirdParty/STM32F4xx_HAL_Driver/Src/stm32f4xx_hal_can.c ****   */
1089:ThirdParty/STM32F4xx_HAL_Driver/Src/stm32f4xx_hal_can.c **** uint32_t HAL_CAN_GetTxTimestamp(CAN_HandleTypeDef *hcan, uint32_t TxMailbox)
1090:ThirdParty/STM32F4xx_HAL_Driver/Src/stm32f4xx_hal_can.c **** {
 1541              		.loc 1 1090 1 is_stmt 1 view -0
 1542              		.cfi_startproc
 1543              		@ args = 0, pretend = 0, frame = 0
 1544              		@ frame_needed = 0, uses_anonymous_args = 0
 1545              		@ link register save eliminated.
1091:ThirdParty/STM32F4xx_HAL_Driver/Src/stm32f4xx_hal_can.c ****   uint32_t timestamp = 0U;
 1546              		.loc 1 1091 3 view .LVU478
1092:ThirdParty/STM32F4xx_HAL_Driver/Src/stm32f4xx_hal_can.c ****   uint32_t transmitmailbox;
 1547              		.loc 1 1092 3 view .LVU479
1093:ThirdParty/STM32F4xx_HAL_Driver/Src/stm32f4xx_hal_can.c **** 
1094:ThirdParty/STM32F4xx_HAL_Driver/Src/stm32f4xx_hal_can.c ****   /* Check function parameters */
1095:ThirdParty/STM32F4xx_HAL_Driver/Src/stm32f4xx_hal_can.c ****   assert_param(IS_CAN_TX_MAILBOX(TxMailbox));
 1548              		.loc 1 1095 3 view .LVU480
1096:ThirdParty/STM32F4xx_HAL_Driver/Src/stm32f4xx_hal_can.c **** 
1097:ThirdParty/STM32F4xx_HAL_Driver/Src/stm32f4xx_hal_can.c ****   if ((hcan->State == HAL_CAN_STATE_READY) ||
 1549              		.loc 1 1097 3 view .LVU481
 1550              		.loc 1 1097 12 is_stmt 0 view .LVU482
 1551 0000 90F82030 		ldrb	r3, [r0, #32]	@ zero_extendqisi2
 1552 0004 DBB2     		uxtb	r3, r3
 1553              		.loc 1 1097 6 view .LVU483
 1554 0006 012B     		cmp	r3, #1
 1555 0008 06D0     		beq	.L130
1098:ThirdParty/STM32F4xx_HAL_Driver/Src/stm32f4xx_hal_can.c ****       (hcan->State == HAL_CAN_STATE_LISTENING))
 1556              		.loc 1 1098 12 discriminator 1 view .LVU484
 1557 000a 90F82030 		ldrb	r3, [r0, #32]	@ zero_extendqisi2
 1558 000e DBB2     		uxtb	r3, r3
1097:ThirdParty/STM32F4xx_HAL_Driver/Src/stm32f4xx_hal_can.c ****       (hcan->State == HAL_CAN_STATE_LISTENING))
 1559              		.loc 1 1097 44 discriminator 1 view .LVU485
 1560 0010 022B     		cmp	r3, #2
 1561 0012 01D0     		beq	.L130
1091:ThirdParty/STM32F4xx_HAL_Driver/Src/stm32f4xx_hal_can.c ****   uint32_t transmitmailbox;
 1562              		.loc 1 1091 12 view .LVU486
 1563 0014 0020     		movs	r0, #0
 1564              	.LVL93:
1099:ThirdParty/STM32F4xx_HAL_Driver/Src/stm32f4xx_hal_can.c ****   {
1100:ThirdParty/STM32F4xx_HAL_Driver/Src/stm32f4xx_hal_can.c ****     /* Select the Tx mailbox */
1101:ThirdParty/STM32F4xx_HAL_Driver/Src/stm32f4xx_hal_can.c ****     transmitmailbox = POSITION_VAL(TxMailbox);
1102:ThirdParty/STM32F4xx_HAL_Driver/Src/stm32f4xx_hal_can.c **** 
1103:ThirdParty/STM32F4xx_HAL_Driver/Src/stm32f4xx_hal_can.c ****     /* Get timestamp */
1104:ThirdParty/STM32F4xx_HAL_Driver/Src/stm32f4xx_hal_can.c ****     timestamp = (hcan->Instance->sTxMailBox[transmitmailbox].TDTR & CAN_TDT0R_TIME) >> CAN_TDT0R_TI
1105:ThirdParty/STM32F4xx_HAL_Driver/Src/stm32f4xx_hal_can.c ****   }
1106:ThirdParty/STM32F4xx_HAL_Driver/Src/stm32f4xx_hal_can.c **** 
1107:ThirdParty/STM32F4xx_HAL_Driver/Src/stm32f4xx_hal_can.c ****   /* Return the timestamp */
1108:ThirdParty/STM32F4xx_HAL_Driver/Src/stm32f4xx_hal_can.c ****   return timestamp;
 1565              		.loc 1 1108 3 is_stmt 1 view .LVU487
1109:ThirdParty/STM32F4xx_HAL_Driver/Src/stm32f4xx_hal_can.c **** }
 1566              		.loc 1 1109 1 is_stmt 0 view .LVU488
 1567 0016 7047     		bx	lr
 1568              	.LVL94:
 1569              	.L130:
1101:ThirdParty/STM32F4xx_HAL_Driver/Src/stm32f4xx_hal_can.c **** 
ARM GAS  /tmp/cc6fvD8U.s 			page 53


 1570              		.loc 1 1101 5 is_stmt 1 view .LVU489
 1571              	.LBB4:
 1572              	.LBI4:
 1573              		.file 2 "ThirdParty/CMSIS/Include/cmsis_gcc.h"
   1:ThirdParty/CMSIS/Include/cmsis_gcc.h **** /**************************************************************************//**
   2:ThirdParty/CMSIS/Include/cmsis_gcc.h ****  * @file     cmsis_gcc.h
   3:ThirdParty/CMSIS/Include/cmsis_gcc.h ****  * @brief    CMSIS compiler GCC header file
   4:ThirdParty/CMSIS/Include/cmsis_gcc.h ****  * @version  V5.0.4
   5:ThirdParty/CMSIS/Include/cmsis_gcc.h ****  * @date     09. April 2018
   6:ThirdParty/CMSIS/Include/cmsis_gcc.h ****  ******************************************************************************/
   7:ThirdParty/CMSIS/Include/cmsis_gcc.h **** /*
   8:ThirdParty/CMSIS/Include/cmsis_gcc.h ****  * Copyright (c) 2009-2018 Arm Limited. All rights reserved.
   9:ThirdParty/CMSIS/Include/cmsis_gcc.h ****  *
  10:ThirdParty/CMSIS/Include/cmsis_gcc.h ****  * SPDX-License-Identifier: Apache-2.0
  11:ThirdParty/CMSIS/Include/cmsis_gcc.h ****  *
  12:ThirdParty/CMSIS/Include/cmsis_gcc.h ****  * Licensed under the Apache License, Version 2.0 (the License); you may
  13:ThirdParty/CMSIS/Include/cmsis_gcc.h ****  * not use this file except in compliance with the License.
  14:ThirdParty/CMSIS/Include/cmsis_gcc.h ****  * You may obtain a copy of the License at
  15:ThirdParty/CMSIS/Include/cmsis_gcc.h ****  *
  16:ThirdParty/CMSIS/Include/cmsis_gcc.h ****  * www.apache.org/licenses/LICENSE-2.0
  17:ThirdParty/CMSIS/Include/cmsis_gcc.h ****  *
  18:ThirdParty/CMSIS/Include/cmsis_gcc.h ****  * Unless required by applicable law or agreed to in writing, software
  19:ThirdParty/CMSIS/Include/cmsis_gcc.h ****  * distributed under the License is distributed on an AS IS BASIS, WITHOUT
  20:ThirdParty/CMSIS/Include/cmsis_gcc.h ****  * WARRANTIES OR CONDITIONS OF ANY KIND, either express or implied.
  21:ThirdParty/CMSIS/Include/cmsis_gcc.h ****  * See the License for the specific language governing permissions and
  22:ThirdParty/CMSIS/Include/cmsis_gcc.h ****  * limitations under the License.
  23:ThirdParty/CMSIS/Include/cmsis_gcc.h ****  */
  24:ThirdParty/CMSIS/Include/cmsis_gcc.h **** 
  25:ThirdParty/CMSIS/Include/cmsis_gcc.h **** #ifndef __CMSIS_GCC_H
  26:ThirdParty/CMSIS/Include/cmsis_gcc.h **** #define __CMSIS_GCC_H
  27:ThirdParty/CMSIS/Include/cmsis_gcc.h **** 
  28:ThirdParty/CMSIS/Include/cmsis_gcc.h **** /* ignore some GCC warnings */
  29:ThirdParty/CMSIS/Include/cmsis_gcc.h **** #pragma GCC diagnostic push
  30:ThirdParty/CMSIS/Include/cmsis_gcc.h **** #pragma GCC diagnostic ignored "-Wsign-conversion"
  31:ThirdParty/CMSIS/Include/cmsis_gcc.h **** #pragma GCC diagnostic ignored "-Wconversion"
  32:ThirdParty/CMSIS/Include/cmsis_gcc.h **** #pragma GCC diagnostic ignored "-Wunused-parameter"
  33:ThirdParty/CMSIS/Include/cmsis_gcc.h **** 
  34:ThirdParty/CMSIS/Include/cmsis_gcc.h **** /* Fallback for __has_builtin */
  35:ThirdParty/CMSIS/Include/cmsis_gcc.h **** #ifndef __has_builtin
  36:ThirdParty/CMSIS/Include/cmsis_gcc.h ****   #define __has_builtin(x) (0)
  37:ThirdParty/CMSIS/Include/cmsis_gcc.h **** #endif
  38:ThirdParty/CMSIS/Include/cmsis_gcc.h **** 
  39:ThirdParty/CMSIS/Include/cmsis_gcc.h **** /* CMSIS compiler specific defines */
  40:ThirdParty/CMSIS/Include/cmsis_gcc.h **** #ifndef   __ASM
  41:ThirdParty/CMSIS/Include/cmsis_gcc.h ****   #define __ASM                                  __asm
  42:ThirdParty/CMSIS/Include/cmsis_gcc.h **** #endif
  43:ThirdParty/CMSIS/Include/cmsis_gcc.h **** #ifndef   __INLINE
  44:ThirdParty/CMSIS/Include/cmsis_gcc.h ****   #define __INLINE                               inline
  45:ThirdParty/CMSIS/Include/cmsis_gcc.h **** #endif
  46:ThirdParty/CMSIS/Include/cmsis_gcc.h **** #ifndef   __STATIC_INLINE
  47:ThirdParty/CMSIS/Include/cmsis_gcc.h ****   #define __STATIC_INLINE                        static inline
  48:ThirdParty/CMSIS/Include/cmsis_gcc.h **** #endif
  49:ThirdParty/CMSIS/Include/cmsis_gcc.h **** #ifndef   __STATIC_FORCEINLINE                 
  50:ThirdParty/CMSIS/Include/cmsis_gcc.h ****   #define __STATIC_FORCEINLINE                   __attribute__((always_inline)) static inline
  51:ThirdParty/CMSIS/Include/cmsis_gcc.h **** #endif                                           
  52:ThirdParty/CMSIS/Include/cmsis_gcc.h **** #ifndef   __NO_RETURN
  53:ThirdParty/CMSIS/Include/cmsis_gcc.h ****   #define __NO_RETURN                            __attribute__((__noreturn__))
ARM GAS  /tmp/cc6fvD8U.s 			page 54


  54:ThirdParty/CMSIS/Include/cmsis_gcc.h **** #endif
  55:ThirdParty/CMSIS/Include/cmsis_gcc.h **** #ifndef   __USED
  56:ThirdParty/CMSIS/Include/cmsis_gcc.h ****   #define __USED                                 __attribute__((used))
  57:ThirdParty/CMSIS/Include/cmsis_gcc.h **** #endif
  58:ThirdParty/CMSIS/Include/cmsis_gcc.h **** #ifndef   __WEAK
  59:ThirdParty/CMSIS/Include/cmsis_gcc.h ****   #define __WEAK                                 __attribute__((weak))
  60:ThirdParty/CMSIS/Include/cmsis_gcc.h **** #endif
  61:ThirdParty/CMSIS/Include/cmsis_gcc.h **** #ifndef   __PACKED
  62:ThirdParty/CMSIS/Include/cmsis_gcc.h ****   #define __PACKED                               __attribute__((packed, aligned(1)))
  63:ThirdParty/CMSIS/Include/cmsis_gcc.h **** #endif
  64:ThirdParty/CMSIS/Include/cmsis_gcc.h **** #ifndef   __PACKED_STRUCT
  65:ThirdParty/CMSIS/Include/cmsis_gcc.h ****   #define __PACKED_STRUCT                        struct __attribute__((packed, aligned(1)))
  66:ThirdParty/CMSIS/Include/cmsis_gcc.h **** #endif
  67:ThirdParty/CMSIS/Include/cmsis_gcc.h **** #ifndef   __PACKED_UNION
  68:ThirdParty/CMSIS/Include/cmsis_gcc.h ****   #define __PACKED_UNION                         union __attribute__((packed, aligned(1)))
  69:ThirdParty/CMSIS/Include/cmsis_gcc.h **** #endif
  70:ThirdParty/CMSIS/Include/cmsis_gcc.h **** #ifndef   __UNALIGNED_UINT32        /* deprecated */
  71:ThirdParty/CMSIS/Include/cmsis_gcc.h ****   #pragma GCC diagnostic push
  72:ThirdParty/CMSIS/Include/cmsis_gcc.h ****   #pragma GCC diagnostic ignored "-Wpacked"
  73:ThirdParty/CMSIS/Include/cmsis_gcc.h ****   #pragma GCC diagnostic ignored "-Wattributes"
  74:ThirdParty/CMSIS/Include/cmsis_gcc.h ****   struct __attribute__((packed)) T_UINT32 { uint32_t v; };
  75:ThirdParty/CMSIS/Include/cmsis_gcc.h ****   #pragma GCC diagnostic pop
  76:ThirdParty/CMSIS/Include/cmsis_gcc.h ****   #define __UNALIGNED_UINT32(x)                  (((struct T_UINT32 *)(x))->v)
  77:ThirdParty/CMSIS/Include/cmsis_gcc.h **** #endif
  78:ThirdParty/CMSIS/Include/cmsis_gcc.h **** #ifndef   __UNALIGNED_UINT16_WRITE
  79:ThirdParty/CMSIS/Include/cmsis_gcc.h ****   #pragma GCC diagnostic push
  80:ThirdParty/CMSIS/Include/cmsis_gcc.h ****   #pragma GCC diagnostic ignored "-Wpacked"
  81:ThirdParty/CMSIS/Include/cmsis_gcc.h ****   #pragma GCC diagnostic ignored "-Wattributes"
  82:ThirdParty/CMSIS/Include/cmsis_gcc.h ****   __PACKED_STRUCT T_UINT16_WRITE { uint16_t v; };
  83:ThirdParty/CMSIS/Include/cmsis_gcc.h ****   #pragma GCC diagnostic pop
  84:ThirdParty/CMSIS/Include/cmsis_gcc.h ****   #define __UNALIGNED_UINT16_WRITE(addr, val)    (void)((((struct T_UINT16_WRITE *)(void *)(addr))-
  85:ThirdParty/CMSIS/Include/cmsis_gcc.h **** #endif
  86:ThirdParty/CMSIS/Include/cmsis_gcc.h **** #ifndef   __UNALIGNED_UINT16_READ
  87:ThirdParty/CMSIS/Include/cmsis_gcc.h ****   #pragma GCC diagnostic push
  88:ThirdParty/CMSIS/Include/cmsis_gcc.h ****   #pragma GCC diagnostic ignored "-Wpacked"
  89:ThirdParty/CMSIS/Include/cmsis_gcc.h ****   #pragma GCC diagnostic ignored "-Wattributes"
  90:ThirdParty/CMSIS/Include/cmsis_gcc.h ****   __PACKED_STRUCT T_UINT16_READ { uint16_t v; };
  91:ThirdParty/CMSIS/Include/cmsis_gcc.h ****   #pragma GCC diagnostic pop
  92:ThirdParty/CMSIS/Include/cmsis_gcc.h ****   #define __UNALIGNED_UINT16_READ(addr)          (((const struct T_UINT16_READ *)(const void *)(add
  93:ThirdParty/CMSIS/Include/cmsis_gcc.h **** #endif
  94:ThirdParty/CMSIS/Include/cmsis_gcc.h **** #ifndef   __UNALIGNED_UINT32_WRITE
  95:ThirdParty/CMSIS/Include/cmsis_gcc.h ****   #pragma GCC diagnostic push
  96:ThirdParty/CMSIS/Include/cmsis_gcc.h ****   #pragma GCC diagnostic ignored "-Wpacked"
  97:ThirdParty/CMSIS/Include/cmsis_gcc.h ****   #pragma GCC diagnostic ignored "-Wattributes"
  98:ThirdParty/CMSIS/Include/cmsis_gcc.h ****   __PACKED_STRUCT T_UINT32_WRITE { uint32_t v; };
  99:ThirdParty/CMSIS/Include/cmsis_gcc.h ****   #pragma GCC diagnostic pop
 100:ThirdParty/CMSIS/Include/cmsis_gcc.h ****   #define __UNALIGNED_UINT32_WRITE(addr, val)    (void)((((struct T_UINT32_WRITE *)(void *)(addr))-
 101:ThirdParty/CMSIS/Include/cmsis_gcc.h **** #endif
 102:ThirdParty/CMSIS/Include/cmsis_gcc.h **** #ifndef   __UNALIGNED_UINT32_READ
 103:ThirdParty/CMSIS/Include/cmsis_gcc.h ****   #pragma GCC diagnostic push
 104:ThirdParty/CMSIS/Include/cmsis_gcc.h ****   #pragma GCC diagnostic ignored "-Wpacked"
 105:ThirdParty/CMSIS/Include/cmsis_gcc.h ****   #pragma GCC diagnostic ignored "-Wattributes"
 106:ThirdParty/CMSIS/Include/cmsis_gcc.h ****   __PACKED_STRUCT T_UINT32_READ { uint32_t v; };
 107:ThirdParty/CMSIS/Include/cmsis_gcc.h ****   #pragma GCC diagnostic pop
 108:ThirdParty/CMSIS/Include/cmsis_gcc.h ****   #define __UNALIGNED_UINT32_READ(addr)          (((const struct T_UINT32_READ *)(const void *)(add
 109:ThirdParty/CMSIS/Include/cmsis_gcc.h **** #endif
 110:ThirdParty/CMSIS/Include/cmsis_gcc.h **** #ifndef   __ALIGNED
ARM GAS  /tmp/cc6fvD8U.s 			page 55


 111:ThirdParty/CMSIS/Include/cmsis_gcc.h ****   #define __ALIGNED(x)                           __attribute__((aligned(x)))
 112:ThirdParty/CMSIS/Include/cmsis_gcc.h **** #endif
 113:ThirdParty/CMSIS/Include/cmsis_gcc.h **** #ifndef   __RESTRICT
 114:ThirdParty/CMSIS/Include/cmsis_gcc.h ****   #define __RESTRICT                             __restrict
 115:ThirdParty/CMSIS/Include/cmsis_gcc.h **** #endif
 116:ThirdParty/CMSIS/Include/cmsis_gcc.h **** 
 117:ThirdParty/CMSIS/Include/cmsis_gcc.h **** 
 118:ThirdParty/CMSIS/Include/cmsis_gcc.h **** /* ###########################  Core Function Access  ########################### */
 119:ThirdParty/CMSIS/Include/cmsis_gcc.h **** /** \ingroup  CMSIS_Core_FunctionInterface
 120:ThirdParty/CMSIS/Include/cmsis_gcc.h ****     \defgroup CMSIS_Core_RegAccFunctions CMSIS Core Register Access Functions
 121:ThirdParty/CMSIS/Include/cmsis_gcc.h ****   @{
 122:ThirdParty/CMSIS/Include/cmsis_gcc.h ****  */
 123:ThirdParty/CMSIS/Include/cmsis_gcc.h **** 
 124:ThirdParty/CMSIS/Include/cmsis_gcc.h **** /**
 125:ThirdParty/CMSIS/Include/cmsis_gcc.h ****   \brief   Enable IRQ Interrupts
 126:ThirdParty/CMSIS/Include/cmsis_gcc.h ****   \details Enables IRQ interrupts by clearing the I-bit in the CPSR.
 127:ThirdParty/CMSIS/Include/cmsis_gcc.h ****            Can only be executed in Privileged modes.
 128:ThirdParty/CMSIS/Include/cmsis_gcc.h ****  */
 129:ThirdParty/CMSIS/Include/cmsis_gcc.h **** __STATIC_FORCEINLINE void __enable_irq(void)
 130:ThirdParty/CMSIS/Include/cmsis_gcc.h **** {
 131:ThirdParty/CMSIS/Include/cmsis_gcc.h ****   __ASM volatile ("cpsie i" : : : "memory");
 132:ThirdParty/CMSIS/Include/cmsis_gcc.h **** }
 133:ThirdParty/CMSIS/Include/cmsis_gcc.h **** 
 134:ThirdParty/CMSIS/Include/cmsis_gcc.h **** 
 135:ThirdParty/CMSIS/Include/cmsis_gcc.h **** /**
 136:ThirdParty/CMSIS/Include/cmsis_gcc.h ****   \brief   Disable IRQ Interrupts
 137:ThirdParty/CMSIS/Include/cmsis_gcc.h ****   \details Disables IRQ interrupts by setting the I-bit in the CPSR.
 138:ThirdParty/CMSIS/Include/cmsis_gcc.h ****            Can only be executed in Privileged modes.
 139:ThirdParty/CMSIS/Include/cmsis_gcc.h ****  */
 140:ThirdParty/CMSIS/Include/cmsis_gcc.h **** __STATIC_FORCEINLINE void __disable_irq(void)
 141:ThirdParty/CMSIS/Include/cmsis_gcc.h **** {
 142:ThirdParty/CMSIS/Include/cmsis_gcc.h ****   __ASM volatile ("cpsid i" : : : "memory");
 143:ThirdParty/CMSIS/Include/cmsis_gcc.h **** }
 144:ThirdParty/CMSIS/Include/cmsis_gcc.h **** 
 145:ThirdParty/CMSIS/Include/cmsis_gcc.h **** 
 146:ThirdParty/CMSIS/Include/cmsis_gcc.h **** /**
 147:ThirdParty/CMSIS/Include/cmsis_gcc.h ****   \brief   Get Control Register
 148:ThirdParty/CMSIS/Include/cmsis_gcc.h ****   \details Returns the content of the Control Register.
 149:ThirdParty/CMSIS/Include/cmsis_gcc.h ****   \return               Control Register value
 150:ThirdParty/CMSIS/Include/cmsis_gcc.h ****  */
 151:ThirdParty/CMSIS/Include/cmsis_gcc.h **** __STATIC_FORCEINLINE uint32_t __get_CONTROL(void)
 152:ThirdParty/CMSIS/Include/cmsis_gcc.h **** {
 153:ThirdParty/CMSIS/Include/cmsis_gcc.h ****   uint32_t result;
 154:ThirdParty/CMSIS/Include/cmsis_gcc.h **** 
 155:ThirdParty/CMSIS/Include/cmsis_gcc.h ****   __ASM volatile ("MRS %0, control" : "=r" (result) );
 156:ThirdParty/CMSIS/Include/cmsis_gcc.h ****   return(result);
 157:ThirdParty/CMSIS/Include/cmsis_gcc.h **** }
 158:ThirdParty/CMSIS/Include/cmsis_gcc.h **** 
 159:ThirdParty/CMSIS/Include/cmsis_gcc.h **** 
 160:ThirdParty/CMSIS/Include/cmsis_gcc.h **** #if (defined (__ARM_FEATURE_CMSE ) && (__ARM_FEATURE_CMSE == 3))
 161:ThirdParty/CMSIS/Include/cmsis_gcc.h **** /**
 162:ThirdParty/CMSIS/Include/cmsis_gcc.h ****   \brief   Get Control Register (non-secure)
 163:ThirdParty/CMSIS/Include/cmsis_gcc.h ****   \details Returns the content of the non-secure Control Register when in secure mode.
 164:ThirdParty/CMSIS/Include/cmsis_gcc.h ****   \return               non-secure Control Register value
 165:ThirdParty/CMSIS/Include/cmsis_gcc.h ****  */
 166:ThirdParty/CMSIS/Include/cmsis_gcc.h **** __STATIC_FORCEINLINE uint32_t __TZ_get_CONTROL_NS(void)
 167:ThirdParty/CMSIS/Include/cmsis_gcc.h **** {
ARM GAS  /tmp/cc6fvD8U.s 			page 56


 168:ThirdParty/CMSIS/Include/cmsis_gcc.h ****   uint32_t result;
 169:ThirdParty/CMSIS/Include/cmsis_gcc.h **** 
 170:ThirdParty/CMSIS/Include/cmsis_gcc.h ****   __ASM volatile ("MRS %0, control_ns" : "=r" (result) );
 171:ThirdParty/CMSIS/Include/cmsis_gcc.h ****   return(result);
 172:ThirdParty/CMSIS/Include/cmsis_gcc.h **** }
 173:ThirdParty/CMSIS/Include/cmsis_gcc.h **** #endif
 174:ThirdParty/CMSIS/Include/cmsis_gcc.h **** 
 175:ThirdParty/CMSIS/Include/cmsis_gcc.h **** 
 176:ThirdParty/CMSIS/Include/cmsis_gcc.h **** /**
 177:ThirdParty/CMSIS/Include/cmsis_gcc.h ****   \brief   Set Control Register
 178:ThirdParty/CMSIS/Include/cmsis_gcc.h ****   \details Writes the given value to the Control Register.
 179:ThirdParty/CMSIS/Include/cmsis_gcc.h ****   \param [in]    control  Control Register value to set
 180:ThirdParty/CMSIS/Include/cmsis_gcc.h ****  */
 181:ThirdParty/CMSIS/Include/cmsis_gcc.h **** __STATIC_FORCEINLINE void __set_CONTROL(uint32_t control)
 182:ThirdParty/CMSIS/Include/cmsis_gcc.h **** {
 183:ThirdParty/CMSIS/Include/cmsis_gcc.h ****   __ASM volatile ("MSR control, %0" : : "r" (control) : "memory");
 184:ThirdParty/CMSIS/Include/cmsis_gcc.h **** }
 185:ThirdParty/CMSIS/Include/cmsis_gcc.h **** 
 186:ThirdParty/CMSIS/Include/cmsis_gcc.h **** 
 187:ThirdParty/CMSIS/Include/cmsis_gcc.h **** #if (defined (__ARM_FEATURE_CMSE ) && (__ARM_FEATURE_CMSE == 3))
 188:ThirdParty/CMSIS/Include/cmsis_gcc.h **** /**
 189:ThirdParty/CMSIS/Include/cmsis_gcc.h ****   \brief   Set Control Register (non-secure)
 190:ThirdParty/CMSIS/Include/cmsis_gcc.h ****   \details Writes the given value to the non-secure Control Register when in secure state.
 191:ThirdParty/CMSIS/Include/cmsis_gcc.h ****   \param [in]    control  Control Register value to set
 192:ThirdParty/CMSIS/Include/cmsis_gcc.h ****  */
 193:ThirdParty/CMSIS/Include/cmsis_gcc.h **** __STATIC_FORCEINLINE void __TZ_set_CONTROL_NS(uint32_t control)
 194:ThirdParty/CMSIS/Include/cmsis_gcc.h **** {
 195:ThirdParty/CMSIS/Include/cmsis_gcc.h ****   __ASM volatile ("MSR control_ns, %0" : : "r" (control) : "memory");
 196:ThirdParty/CMSIS/Include/cmsis_gcc.h **** }
 197:ThirdParty/CMSIS/Include/cmsis_gcc.h **** #endif
 198:ThirdParty/CMSIS/Include/cmsis_gcc.h **** 
 199:ThirdParty/CMSIS/Include/cmsis_gcc.h **** 
 200:ThirdParty/CMSIS/Include/cmsis_gcc.h **** /**
 201:ThirdParty/CMSIS/Include/cmsis_gcc.h ****   \brief   Get IPSR Register
 202:ThirdParty/CMSIS/Include/cmsis_gcc.h ****   \details Returns the content of the IPSR Register.
 203:ThirdParty/CMSIS/Include/cmsis_gcc.h ****   \return               IPSR Register value
 204:ThirdParty/CMSIS/Include/cmsis_gcc.h ****  */
 205:ThirdParty/CMSIS/Include/cmsis_gcc.h **** __STATIC_FORCEINLINE uint32_t __get_IPSR(void)
 206:ThirdParty/CMSIS/Include/cmsis_gcc.h **** {
 207:ThirdParty/CMSIS/Include/cmsis_gcc.h ****   uint32_t result;
 208:ThirdParty/CMSIS/Include/cmsis_gcc.h **** 
 209:ThirdParty/CMSIS/Include/cmsis_gcc.h ****   __ASM volatile ("MRS %0, ipsr" : "=r" (result) );
 210:ThirdParty/CMSIS/Include/cmsis_gcc.h ****   return(result);
 211:ThirdParty/CMSIS/Include/cmsis_gcc.h **** }
 212:ThirdParty/CMSIS/Include/cmsis_gcc.h **** 
 213:ThirdParty/CMSIS/Include/cmsis_gcc.h **** 
 214:ThirdParty/CMSIS/Include/cmsis_gcc.h **** /**
 215:ThirdParty/CMSIS/Include/cmsis_gcc.h ****   \brief   Get APSR Register
 216:ThirdParty/CMSIS/Include/cmsis_gcc.h ****   \details Returns the content of the APSR Register.
 217:ThirdParty/CMSIS/Include/cmsis_gcc.h ****   \return               APSR Register value
 218:ThirdParty/CMSIS/Include/cmsis_gcc.h ****  */
 219:ThirdParty/CMSIS/Include/cmsis_gcc.h **** __STATIC_FORCEINLINE uint32_t __get_APSR(void)
 220:ThirdParty/CMSIS/Include/cmsis_gcc.h **** {
 221:ThirdParty/CMSIS/Include/cmsis_gcc.h ****   uint32_t result;
 222:ThirdParty/CMSIS/Include/cmsis_gcc.h **** 
 223:ThirdParty/CMSIS/Include/cmsis_gcc.h ****   __ASM volatile ("MRS %0, apsr" : "=r" (result) );
 224:ThirdParty/CMSIS/Include/cmsis_gcc.h ****   return(result);
ARM GAS  /tmp/cc6fvD8U.s 			page 57


 225:ThirdParty/CMSIS/Include/cmsis_gcc.h **** }
 226:ThirdParty/CMSIS/Include/cmsis_gcc.h **** 
 227:ThirdParty/CMSIS/Include/cmsis_gcc.h **** 
 228:ThirdParty/CMSIS/Include/cmsis_gcc.h **** /**
 229:ThirdParty/CMSIS/Include/cmsis_gcc.h ****   \brief   Get xPSR Register
 230:ThirdParty/CMSIS/Include/cmsis_gcc.h ****   \details Returns the content of the xPSR Register.
 231:ThirdParty/CMSIS/Include/cmsis_gcc.h ****   \return               xPSR Register value
 232:ThirdParty/CMSIS/Include/cmsis_gcc.h ****  */
 233:ThirdParty/CMSIS/Include/cmsis_gcc.h **** __STATIC_FORCEINLINE uint32_t __get_xPSR(void)
 234:ThirdParty/CMSIS/Include/cmsis_gcc.h **** {
 235:ThirdParty/CMSIS/Include/cmsis_gcc.h ****   uint32_t result;
 236:ThirdParty/CMSIS/Include/cmsis_gcc.h **** 
 237:ThirdParty/CMSIS/Include/cmsis_gcc.h ****   __ASM volatile ("MRS %0, xpsr" : "=r" (result) );
 238:ThirdParty/CMSIS/Include/cmsis_gcc.h ****   return(result);
 239:ThirdParty/CMSIS/Include/cmsis_gcc.h **** }
 240:ThirdParty/CMSIS/Include/cmsis_gcc.h **** 
 241:ThirdParty/CMSIS/Include/cmsis_gcc.h **** 
 242:ThirdParty/CMSIS/Include/cmsis_gcc.h **** /**
 243:ThirdParty/CMSIS/Include/cmsis_gcc.h ****   \brief   Get Process Stack Pointer
 244:ThirdParty/CMSIS/Include/cmsis_gcc.h ****   \details Returns the current value of the Process Stack Pointer (PSP).
 245:ThirdParty/CMSIS/Include/cmsis_gcc.h ****   \return               PSP Register value
 246:ThirdParty/CMSIS/Include/cmsis_gcc.h ****  */
 247:ThirdParty/CMSIS/Include/cmsis_gcc.h **** __STATIC_FORCEINLINE uint32_t __get_PSP(void)
 248:ThirdParty/CMSIS/Include/cmsis_gcc.h **** {
 249:ThirdParty/CMSIS/Include/cmsis_gcc.h ****   uint32_t result;
 250:ThirdParty/CMSIS/Include/cmsis_gcc.h **** 
 251:ThirdParty/CMSIS/Include/cmsis_gcc.h ****   __ASM volatile ("MRS %0, psp"  : "=r" (result) );
 252:ThirdParty/CMSIS/Include/cmsis_gcc.h ****   return(result);
 253:ThirdParty/CMSIS/Include/cmsis_gcc.h **** }
 254:ThirdParty/CMSIS/Include/cmsis_gcc.h **** 
 255:ThirdParty/CMSIS/Include/cmsis_gcc.h **** 
 256:ThirdParty/CMSIS/Include/cmsis_gcc.h **** #if (defined (__ARM_FEATURE_CMSE ) && (__ARM_FEATURE_CMSE == 3))
 257:ThirdParty/CMSIS/Include/cmsis_gcc.h **** /**
 258:ThirdParty/CMSIS/Include/cmsis_gcc.h ****   \brief   Get Process Stack Pointer (non-secure)
 259:ThirdParty/CMSIS/Include/cmsis_gcc.h ****   \details Returns the current value of the non-secure Process Stack Pointer (PSP) when in secure s
 260:ThirdParty/CMSIS/Include/cmsis_gcc.h ****   \return               PSP Register value
 261:ThirdParty/CMSIS/Include/cmsis_gcc.h ****  */
 262:ThirdParty/CMSIS/Include/cmsis_gcc.h **** __STATIC_FORCEINLINE uint32_t __TZ_get_PSP_NS(void)
 263:ThirdParty/CMSIS/Include/cmsis_gcc.h **** {
 264:ThirdParty/CMSIS/Include/cmsis_gcc.h ****   uint32_t result;
 265:ThirdParty/CMSIS/Include/cmsis_gcc.h **** 
 266:ThirdParty/CMSIS/Include/cmsis_gcc.h ****   __ASM volatile ("MRS %0, psp_ns"  : "=r" (result) );
 267:ThirdParty/CMSIS/Include/cmsis_gcc.h ****   return(result);
 268:ThirdParty/CMSIS/Include/cmsis_gcc.h **** }
 269:ThirdParty/CMSIS/Include/cmsis_gcc.h **** #endif
 270:ThirdParty/CMSIS/Include/cmsis_gcc.h **** 
 271:ThirdParty/CMSIS/Include/cmsis_gcc.h **** 
 272:ThirdParty/CMSIS/Include/cmsis_gcc.h **** /**
 273:ThirdParty/CMSIS/Include/cmsis_gcc.h ****   \brief   Set Process Stack Pointer
 274:ThirdParty/CMSIS/Include/cmsis_gcc.h ****   \details Assigns the given value to the Process Stack Pointer (PSP).
 275:ThirdParty/CMSIS/Include/cmsis_gcc.h ****   \param [in]    topOfProcStack  Process Stack Pointer value to set
 276:ThirdParty/CMSIS/Include/cmsis_gcc.h ****  */
 277:ThirdParty/CMSIS/Include/cmsis_gcc.h **** __STATIC_FORCEINLINE void __set_PSP(uint32_t topOfProcStack)
 278:ThirdParty/CMSIS/Include/cmsis_gcc.h **** {
 279:ThirdParty/CMSIS/Include/cmsis_gcc.h ****   __ASM volatile ("MSR psp, %0" : : "r" (topOfProcStack) : );
 280:ThirdParty/CMSIS/Include/cmsis_gcc.h **** }
 281:ThirdParty/CMSIS/Include/cmsis_gcc.h **** 
ARM GAS  /tmp/cc6fvD8U.s 			page 58


 282:ThirdParty/CMSIS/Include/cmsis_gcc.h **** 
 283:ThirdParty/CMSIS/Include/cmsis_gcc.h **** #if (defined (__ARM_FEATURE_CMSE ) && (__ARM_FEATURE_CMSE == 3))
 284:ThirdParty/CMSIS/Include/cmsis_gcc.h **** /**
 285:ThirdParty/CMSIS/Include/cmsis_gcc.h ****   \brief   Set Process Stack Pointer (non-secure)
 286:ThirdParty/CMSIS/Include/cmsis_gcc.h ****   \details Assigns the given value to the non-secure Process Stack Pointer (PSP) when in secure sta
 287:ThirdParty/CMSIS/Include/cmsis_gcc.h ****   \param [in]    topOfProcStack  Process Stack Pointer value to set
 288:ThirdParty/CMSIS/Include/cmsis_gcc.h ****  */
 289:ThirdParty/CMSIS/Include/cmsis_gcc.h **** __STATIC_FORCEINLINE void __TZ_set_PSP_NS(uint32_t topOfProcStack)
 290:ThirdParty/CMSIS/Include/cmsis_gcc.h **** {
 291:ThirdParty/CMSIS/Include/cmsis_gcc.h ****   __ASM volatile ("MSR psp_ns, %0" : : "r" (topOfProcStack) : );
 292:ThirdParty/CMSIS/Include/cmsis_gcc.h **** }
 293:ThirdParty/CMSIS/Include/cmsis_gcc.h **** #endif
 294:ThirdParty/CMSIS/Include/cmsis_gcc.h **** 
 295:ThirdParty/CMSIS/Include/cmsis_gcc.h **** 
 296:ThirdParty/CMSIS/Include/cmsis_gcc.h **** /**
 297:ThirdParty/CMSIS/Include/cmsis_gcc.h ****   \brief   Get Main Stack Pointer
 298:ThirdParty/CMSIS/Include/cmsis_gcc.h ****   \details Returns the current value of the Main Stack Pointer (MSP).
 299:ThirdParty/CMSIS/Include/cmsis_gcc.h ****   \return               MSP Register value
 300:ThirdParty/CMSIS/Include/cmsis_gcc.h ****  */
 301:ThirdParty/CMSIS/Include/cmsis_gcc.h **** __STATIC_FORCEINLINE uint32_t __get_MSP(void)
 302:ThirdParty/CMSIS/Include/cmsis_gcc.h **** {
 303:ThirdParty/CMSIS/Include/cmsis_gcc.h ****   uint32_t result;
 304:ThirdParty/CMSIS/Include/cmsis_gcc.h **** 
 305:ThirdParty/CMSIS/Include/cmsis_gcc.h ****   __ASM volatile ("MRS %0, msp" : "=r" (result) );
 306:ThirdParty/CMSIS/Include/cmsis_gcc.h ****   return(result);
 307:ThirdParty/CMSIS/Include/cmsis_gcc.h **** }
 308:ThirdParty/CMSIS/Include/cmsis_gcc.h **** 
 309:ThirdParty/CMSIS/Include/cmsis_gcc.h **** 
 310:ThirdParty/CMSIS/Include/cmsis_gcc.h **** #if (defined (__ARM_FEATURE_CMSE ) && (__ARM_FEATURE_CMSE == 3))
 311:ThirdParty/CMSIS/Include/cmsis_gcc.h **** /**
 312:ThirdParty/CMSIS/Include/cmsis_gcc.h ****   \brief   Get Main Stack Pointer (non-secure)
 313:ThirdParty/CMSIS/Include/cmsis_gcc.h ****   \details Returns the current value of the non-secure Main Stack Pointer (MSP) when in secure stat
 314:ThirdParty/CMSIS/Include/cmsis_gcc.h ****   \return               MSP Register value
 315:ThirdParty/CMSIS/Include/cmsis_gcc.h ****  */
 316:ThirdParty/CMSIS/Include/cmsis_gcc.h **** __STATIC_FORCEINLINE uint32_t __TZ_get_MSP_NS(void)
 317:ThirdParty/CMSIS/Include/cmsis_gcc.h **** {
 318:ThirdParty/CMSIS/Include/cmsis_gcc.h ****   uint32_t result;
 319:ThirdParty/CMSIS/Include/cmsis_gcc.h **** 
 320:ThirdParty/CMSIS/Include/cmsis_gcc.h ****   __ASM volatile ("MRS %0, msp_ns" : "=r" (result) );
 321:ThirdParty/CMSIS/Include/cmsis_gcc.h ****   return(result);
 322:ThirdParty/CMSIS/Include/cmsis_gcc.h **** }
 323:ThirdParty/CMSIS/Include/cmsis_gcc.h **** #endif
 324:ThirdParty/CMSIS/Include/cmsis_gcc.h **** 
 325:ThirdParty/CMSIS/Include/cmsis_gcc.h **** 
 326:ThirdParty/CMSIS/Include/cmsis_gcc.h **** /**
 327:ThirdParty/CMSIS/Include/cmsis_gcc.h ****   \brief   Set Main Stack Pointer
 328:ThirdParty/CMSIS/Include/cmsis_gcc.h ****   \details Assigns the given value to the Main Stack Pointer (MSP).
 329:ThirdParty/CMSIS/Include/cmsis_gcc.h ****   \param [in]    topOfMainStack  Main Stack Pointer value to set
 330:ThirdParty/CMSIS/Include/cmsis_gcc.h ****  */
 331:ThirdParty/CMSIS/Include/cmsis_gcc.h **** __STATIC_FORCEINLINE void __set_MSP(uint32_t topOfMainStack)
 332:ThirdParty/CMSIS/Include/cmsis_gcc.h **** {
 333:ThirdParty/CMSIS/Include/cmsis_gcc.h ****   __ASM volatile ("MSR msp, %0" : : "r" (topOfMainStack) : );
 334:ThirdParty/CMSIS/Include/cmsis_gcc.h **** }
 335:ThirdParty/CMSIS/Include/cmsis_gcc.h **** 
 336:ThirdParty/CMSIS/Include/cmsis_gcc.h **** 
 337:ThirdParty/CMSIS/Include/cmsis_gcc.h **** #if (defined (__ARM_FEATURE_CMSE ) && (__ARM_FEATURE_CMSE == 3))
 338:ThirdParty/CMSIS/Include/cmsis_gcc.h **** /**
ARM GAS  /tmp/cc6fvD8U.s 			page 59


 339:ThirdParty/CMSIS/Include/cmsis_gcc.h ****   \brief   Set Main Stack Pointer (non-secure)
 340:ThirdParty/CMSIS/Include/cmsis_gcc.h ****   \details Assigns the given value to the non-secure Main Stack Pointer (MSP) when in secure state.
 341:ThirdParty/CMSIS/Include/cmsis_gcc.h ****   \param [in]    topOfMainStack  Main Stack Pointer value to set
 342:ThirdParty/CMSIS/Include/cmsis_gcc.h ****  */
 343:ThirdParty/CMSIS/Include/cmsis_gcc.h **** __STATIC_FORCEINLINE void __TZ_set_MSP_NS(uint32_t topOfMainStack)
 344:ThirdParty/CMSIS/Include/cmsis_gcc.h **** {
 345:ThirdParty/CMSIS/Include/cmsis_gcc.h ****   __ASM volatile ("MSR msp_ns, %0" : : "r" (topOfMainStack) : );
 346:ThirdParty/CMSIS/Include/cmsis_gcc.h **** }
 347:ThirdParty/CMSIS/Include/cmsis_gcc.h **** #endif
 348:ThirdParty/CMSIS/Include/cmsis_gcc.h **** 
 349:ThirdParty/CMSIS/Include/cmsis_gcc.h **** 
 350:ThirdParty/CMSIS/Include/cmsis_gcc.h **** #if (defined (__ARM_FEATURE_CMSE ) && (__ARM_FEATURE_CMSE == 3))
 351:ThirdParty/CMSIS/Include/cmsis_gcc.h **** /**
 352:ThirdParty/CMSIS/Include/cmsis_gcc.h ****   \brief   Get Stack Pointer (non-secure)
 353:ThirdParty/CMSIS/Include/cmsis_gcc.h ****   \details Returns the current value of the non-secure Stack Pointer (SP) when in secure state.
 354:ThirdParty/CMSIS/Include/cmsis_gcc.h ****   \return               SP Register value
 355:ThirdParty/CMSIS/Include/cmsis_gcc.h ****  */
 356:ThirdParty/CMSIS/Include/cmsis_gcc.h **** __STATIC_FORCEINLINE uint32_t __TZ_get_SP_NS(void)
 357:ThirdParty/CMSIS/Include/cmsis_gcc.h **** {
 358:ThirdParty/CMSIS/Include/cmsis_gcc.h ****   uint32_t result;
 359:ThirdParty/CMSIS/Include/cmsis_gcc.h **** 
 360:ThirdParty/CMSIS/Include/cmsis_gcc.h ****   __ASM volatile ("MRS %0, sp_ns" : "=r" (result) );
 361:ThirdParty/CMSIS/Include/cmsis_gcc.h ****   return(result);
 362:ThirdParty/CMSIS/Include/cmsis_gcc.h **** }
 363:ThirdParty/CMSIS/Include/cmsis_gcc.h **** 
 364:ThirdParty/CMSIS/Include/cmsis_gcc.h **** 
 365:ThirdParty/CMSIS/Include/cmsis_gcc.h **** /**
 366:ThirdParty/CMSIS/Include/cmsis_gcc.h ****   \brief   Set Stack Pointer (non-secure)
 367:ThirdParty/CMSIS/Include/cmsis_gcc.h ****   \details Assigns the given value to the non-secure Stack Pointer (SP) when in secure state.
 368:ThirdParty/CMSIS/Include/cmsis_gcc.h ****   \param [in]    topOfStack  Stack Pointer value to set
 369:ThirdParty/CMSIS/Include/cmsis_gcc.h ****  */
 370:ThirdParty/CMSIS/Include/cmsis_gcc.h **** __STATIC_FORCEINLINE void __TZ_set_SP_NS(uint32_t topOfStack)
 371:ThirdParty/CMSIS/Include/cmsis_gcc.h **** {
 372:ThirdParty/CMSIS/Include/cmsis_gcc.h ****   __ASM volatile ("MSR sp_ns, %0" : : "r" (topOfStack) : );
 373:ThirdParty/CMSIS/Include/cmsis_gcc.h **** }
 374:ThirdParty/CMSIS/Include/cmsis_gcc.h **** #endif
 375:ThirdParty/CMSIS/Include/cmsis_gcc.h **** 
 376:ThirdParty/CMSIS/Include/cmsis_gcc.h **** 
 377:ThirdParty/CMSIS/Include/cmsis_gcc.h **** /**
 378:ThirdParty/CMSIS/Include/cmsis_gcc.h ****   \brief   Get Priority Mask
 379:ThirdParty/CMSIS/Include/cmsis_gcc.h ****   \details Returns the current state of the priority mask bit from the Priority Mask Register.
 380:ThirdParty/CMSIS/Include/cmsis_gcc.h ****   \return               Priority Mask value
 381:ThirdParty/CMSIS/Include/cmsis_gcc.h ****  */
 382:ThirdParty/CMSIS/Include/cmsis_gcc.h **** __STATIC_FORCEINLINE uint32_t __get_PRIMASK(void)
 383:ThirdParty/CMSIS/Include/cmsis_gcc.h **** {
 384:ThirdParty/CMSIS/Include/cmsis_gcc.h ****   uint32_t result;
 385:ThirdParty/CMSIS/Include/cmsis_gcc.h **** 
 386:ThirdParty/CMSIS/Include/cmsis_gcc.h ****   __ASM volatile ("MRS %0, primask" : "=r" (result) :: "memory");
 387:ThirdParty/CMSIS/Include/cmsis_gcc.h ****   return(result);
 388:ThirdParty/CMSIS/Include/cmsis_gcc.h **** }
 389:ThirdParty/CMSIS/Include/cmsis_gcc.h **** 
 390:ThirdParty/CMSIS/Include/cmsis_gcc.h **** 
 391:ThirdParty/CMSIS/Include/cmsis_gcc.h **** #if (defined (__ARM_FEATURE_CMSE ) && (__ARM_FEATURE_CMSE == 3))
 392:ThirdParty/CMSIS/Include/cmsis_gcc.h **** /**
 393:ThirdParty/CMSIS/Include/cmsis_gcc.h ****   \brief   Get Priority Mask (non-secure)
 394:ThirdParty/CMSIS/Include/cmsis_gcc.h ****   \details Returns the current state of the non-secure priority mask bit from the Priority Mask Reg
 395:ThirdParty/CMSIS/Include/cmsis_gcc.h ****   \return               Priority Mask value
ARM GAS  /tmp/cc6fvD8U.s 			page 60


 396:ThirdParty/CMSIS/Include/cmsis_gcc.h ****  */
 397:ThirdParty/CMSIS/Include/cmsis_gcc.h **** __STATIC_FORCEINLINE uint32_t __TZ_get_PRIMASK_NS(void)
 398:ThirdParty/CMSIS/Include/cmsis_gcc.h **** {
 399:ThirdParty/CMSIS/Include/cmsis_gcc.h ****   uint32_t result;
 400:ThirdParty/CMSIS/Include/cmsis_gcc.h **** 
 401:ThirdParty/CMSIS/Include/cmsis_gcc.h ****   __ASM volatile ("MRS %0, primask_ns" : "=r" (result) :: "memory");
 402:ThirdParty/CMSIS/Include/cmsis_gcc.h ****   return(result);
 403:ThirdParty/CMSIS/Include/cmsis_gcc.h **** }
 404:ThirdParty/CMSIS/Include/cmsis_gcc.h **** #endif
 405:ThirdParty/CMSIS/Include/cmsis_gcc.h **** 
 406:ThirdParty/CMSIS/Include/cmsis_gcc.h **** 
 407:ThirdParty/CMSIS/Include/cmsis_gcc.h **** /**
 408:ThirdParty/CMSIS/Include/cmsis_gcc.h ****   \brief   Set Priority Mask
 409:ThirdParty/CMSIS/Include/cmsis_gcc.h ****   \details Assigns the given value to the Priority Mask Register.
 410:ThirdParty/CMSIS/Include/cmsis_gcc.h ****   \param [in]    priMask  Priority Mask
 411:ThirdParty/CMSIS/Include/cmsis_gcc.h ****  */
 412:ThirdParty/CMSIS/Include/cmsis_gcc.h **** __STATIC_FORCEINLINE void __set_PRIMASK(uint32_t priMask)
 413:ThirdParty/CMSIS/Include/cmsis_gcc.h **** {
 414:ThirdParty/CMSIS/Include/cmsis_gcc.h ****   __ASM volatile ("MSR primask, %0" : : "r" (priMask) : "memory");
 415:ThirdParty/CMSIS/Include/cmsis_gcc.h **** }
 416:ThirdParty/CMSIS/Include/cmsis_gcc.h **** 
 417:ThirdParty/CMSIS/Include/cmsis_gcc.h **** 
 418:ThirdParty/CMSIS/Include/cmsis_gcc.h **** #if (defined (__ARM_FEATURE_CMSE ) && (__ARM_FEATURE_CMSE == 3))
 419:ThirdParty/CMSIS/Include/cmsis_gcc.h **** /**
 420:ThirdParty/CMSIS/Include/cmsis_gcc.h ****   \brief   Set Priority Mask (non-secure)
 421:ThirdParty/CMSIS/Include/cmsis_gcc.h ****   \details Assigns the given value to the non-secure Priority Mask Register when in secure state.
 422:ThirdParty/CMSIS/Include/cmsis_gcc.h ****   \param [in]    priMask  Priority Mask
 423:ThirdParty/CMSIS/Include/cmsis_gcc.h ****  */
 424:ThirdParty/CMSIS/Include/cmsis_gcc.h **** __STATIC_FORCEINLINE void __TZ_set_PRIMASK_NS(uint32_t priMask)
 425:ThirdParty/CMSIS/Include/cmsis_gcc.h **** {
 426:ThirdParty/CMSIS/Include/cmsis_gcc.h ****   __ASM volatile ("MSR primask_ns, %0" : : "r" (priMask) : "memory");
 427:ThirdParty/CMSIS/Include/cmsis_gcc.h **** }
 428:ThirdParty/CMSIS/Include/cmsis_gcc.h **** #endif
 429:ThirdParty/CMSIS/Include/cmsis_gcc.h **** 
 430:ThirdParty/CMSIS/Include/cmsis_gcc.h **** 
 431:ThirdParty/CMSIS/Include/cmsis_gcc.h **** #if ((defined (__ARM_ARCH_7M__      ) && (__ARM_ARCH_7M__      == 1)) || \
 432:ThirdParty/CMSIS/Include/cmsis_gcc.h ****      (defined (__ARM_ARCH_7EM__     ) && (__ARM_ARCH_7EM__     == 1)) || \
 433:ThirdParty/CMSIS/Include/cmsis_gcc.h ****      (defined (__ARM_ARCH_8M_MAIN__ ) && (__ARM_ARCH_8M_MAIN__ == 1))    )
 434:ThirdParty/CMSIS/Include/cmsis_gcc.h **** /**
 435:ThirdParty/CMSIS/Include/cmsis_gcc.h ****   \brief   Enable FIQ
 436:ThirdParty/CMSIS/Include/cmsis_gcc.h ****   \details Enables FIQ interrupts by clearing the F-bit in the CPSR.
 437:ThirdParty/CMSIS/Include/cmsis_gcc.h ****            Can only be executed in Privileged modes.
 438:ThirdParty/CMSIS/Include/cmsis_gcc.h ****  */
 439:ThirdParty/CMSIS/Include/cmsis_gcc.h **** __STATIC_FORCEINLINE void __enable_fault_irq(void)
 440:ThirdParty/CMSIS/Include/cmsis_gcc.h **** {
 441:ThirdParty/CMSIS/Include/cmsis_gcc.h ****   __ASM volatile ("cpsie f" : : : "memory");
 442:ThirdParty/CMSIS/Include/cmsis_gcc.h **** }
 443:ThirdParty/CMSIS/Include/cmsis_gcc.h **** 
 444:ThirdParty/CMSIS/Include/cmsis_gcc.h **** 
 445:ThirdParty/CMSIS/Include/cmsis_gcc.h **** /**
 446:ThirdParty/CMSIS/Include/cmsis_gcc.h ****   \brief   Disable FIQ
 447:ThirdParty/CMSIS/Include/cmsis_gcc.h ****   \details Disables FIQ interrupts by setting the F-bit in the CPSR.
 448:ThirdParty/CMSIS/Include/cmsis_gcc.h ****            Can only be executed in Privileged modes.
 449:ThirdParty/CMSIS/Include/cmsis_gcc.h ****  */
 450:ThirdParty/CMSIS/Include/cmsis_gcc.h **** __STATIC_FORCEINLINE void __disable_fault_irq(void)
 451:ThirdParty/CMSIS/Include/cmsis_gcc.h **** {
 452:ThirdParty/CMSIS/Include/cmsis_gcc.h ****   __ASM volatile ("cpsid f" : : : "memory");
ARM GAS  /tmp/cc6fvD8U.s 			page 61


 453:ThirdParty/CMSIS/Include/cmsis_gcc.h **** }
 454:ThirdParty/CMSIS/Include/cmsis_gcc.h **** 
 455:ThirdParty/CMSIS/Include/cmsis_gcc.h **** 
 456:ThirdParty/CMSIS/Include/cmsis_gcc.h **** /**
 457:ThirdParty/CMSIS/Include/cmsis_gcc.h ****   \brief   Get Base Priority
 458:ThirdParty/CMSIS/Include/cmsis_gcc.h ****   \details Returns the current value of the Base Priority register.
 459:ThirdParty/CMSIS/Include/cmsis_gcc.h ****   \return               Base Priority register value
 460:ThirdParty/CMSIS/Include/cmsis_gcc.h ****  */
 461:ThirdParty/CMSIS/Include/cmsis_gcc.h **** __STATIC_FORCEINLINE uint32_t __get_BASEPRI(void)
 462:ThirdParty/CMSIS/Include/cmsis_gcc.h **** {
 463:ThirdParty/CMSIS/Include/cmsis_gcc.h ****   uint32_t result;
 464:ThirdParty/CMSIS/Include/cmsis_gcc.h **** 
 465:ThirdParty/CMSIS/Include/cmsis_gcc.h ****   __ASM volatile ("MRS %0, basepri" : "=r" (result) );
 466:ThirdParty/CMSIS/Include/cmsis_gcc.h ****   return(result);
 467:ThirdParty/CMSIS/Include/cmsis_gcc.h **** }
 468:ThirdParty/CMSIS/Include/cmsis_gcc.h **** 
 469:ThirdParty/CMSIS/Include/cmsis_gcc.h **** 
 470:ThirdParty/CMSIS/Include/cmsis_gcc.h **** #if (defined (__ARM_FEATURE_CMSE ) && (__ARM_FEATURE_CMSE == 3))
 471:ThirdParty/CMSIS/Include/cmsis_gcc.h **** /**
 472:ThirdParty/CMSIS/Include/cmsis_gcc.h ****   \brief   Get Base Priority (non-secure)
 473:ThirdParty/CMSIS/Include/cmsis_gcc.h ****   \details Returns the current value of the non-secure Base Priority register when in secure state.
 474:ThirdParty/CMSIS/Include/cmsis_gcc.h ****   \return               Base Priority register value
 475:ThirdParty/CMSIS/Include/cmsis_gcc.h ****  */
 476:ThirdParty/CMSIS/Include/cmsis_gcc.h **** __STATIC_FORCEINLINE uint32_t __TZ_get_BASEPRI_NS(void)
 477:ThirdParty/CMSIS/Include/cmsis_gcc.h **** {
 478:ThirdParty/CMSIS/Include/cmsis_gcc.h ****   uint32_t result;
 479:ThirdParty/CMSIS/Include/cmsis_gcc.h **** 
 480:ThirdParty/CMSIS/Include/cmsis_gcc.h ****   __ASM volatile ("MRS %0, basepri_ns" : "=r" (result) );
 481:ThirdParty/CMSIS/Include/cmsis_gcc.h ****   return(result);
 482:ThirdParty/CMSIS/Include/cmsis_gcc.h **** }
 483:ThirdParty/CMSIS/Include/cmsis_gcc.h **** #endif
 484:ThirdParty/CMSIS/Include/cmsis_gcc.h **** 
 485:ThirdParty/CMSIS/Include/cmsis_gcc.h **** 
 486:ThirdParty/CMSIS/Include/cmsis_gcc.h **** /**
 487:ThirdParty/CMSIS/Include/cmsis_gcc.h ****   \brief   Set Base Priority
 488:ThirdParty/CMSIS/Include/cmsis_gcc.h ****   \details Assigns the given value to the Base Priority register.
 489:ThirdParty/CMSIS/Include/cmsis_gcc.h ****   \param [in]    basePri  Base Priority value to set
 490:ThirdParty/CMSIS/Include/cmsis_gcc.h ****  */
 491:ThirdParty/CMSIS/Include/cmsis_gcc.h **** __STATIC_FORCEINLINE void __set_BASEPRI(uint32_t basePri)
 492:ThirdParty/CMSIS/Include/cmsis_gcc.h **** {
 493:ThirdParty/CMSIS/Include/cmsis_gcc.h ****   __ASM volatile ("MSR basepri, %0" : : "r" (basePri) : "memory");
 494:ThirdParty/CMSIS/Include/cmsis_gcc.h **** }
 495:ThirdParty/CMSIS/Include/cmsis_gcc.h **** 
 496:ThirdParty/CMSIS/Include/cmsis_gcc.h **** 
 497:ThirdParty/CMSIS/Include/cmsis_gcc.h **** #if (defined (__ARM_FEATURE_CMSE ) && (__ARM_FEATURE_CMSE == 3))
 498:ThirdParty/CMSIS/Include/cmsis_gcc.h **** /**
 499:ThirdParty/CMSIS/Include/cmsis_gcc.h ****   \brief   Set Base Priority (non-secure)
 500:ThirdParty/CMSIS/Include/cmsis_gcc.h ****   \details Assigns the given value to the non-secure Base Priority register when in secure state.
 501:ThirdParty/CMSIS/Include/cmsis_gcc.h ****   \param [in]    basePri  Base Priority value to set
 502:ThirdParty/CMSIS/Include/cmsis_gcc.h ****  */
 503:ThirdParty/CMSIS/Include/cmsis_gcc.h **** __STATIC_FORCEINLINE void __TZ_set_BASEPRI_NS(uint32_t basePri)
 504:ThirdParty/CMSIS/Include/cmsis_gcc.h **** {
 505:ThirdParty/CMSIS/Include/cmsis_gcc.h ****   __ASM volatile ("MSR basepri_ns, %0" : : "r" (basePri) : "memory");
 506:ThirdParty/CMSIS/Include/cmsis_gcc.h **** }
 507:ThirdParty/CMSIS/Include/cmsis_gcc.h **** #endif
 508:ThirdParty/CMSIS/Include/cmsis_gcc.h **** 
 509:ThirdParty/CMSIS/Include/cmsis_gcc.h **** 
ARM GAS  /tmp/cc6fvD8U.s 			page 62


 510:ThirdParty/CMSIS/Include/cmsis_gcc.h **** /**
 511:ThirdParty/CMSIS/Include/cmsis_gcc.h ****   \brief   Set Base Priority with condition
 512:ThirdParty/CMSIS/Include/cmsis_gcc.h ****   \details Assigns the given value to the Base Priority register only if BASEPRI masking is disable
 513:ThirdParty/CMSIS/Include/cmsis_gcc.h ****            or the new value increases the BASEPRI priority level.
 514:ThirdParty/CMSIS/Include/cmsis_gcc.h ****   \param [in]    basePri  Base Priority value to set
 515:ThirdParty/CMSIS/Include/cmsis_gcc.h ****  */
 516:ThirdParty/CMSIS/Include/cmsis_gcc.h **** __STATIC_FORCEINLINE void __set_BASEPRI_MAX(uint32_t basePri)
 517:ThirdParty/CMSIS/Include/cmsis_gcc.h **** {
 518:ThirdParty/CMSIS/Include/cmsis_gcc.h ****   __ASM volatile ("MSR basepri_max, %0" : : "r" (basePri) : "memory");
 519:ThirdParty/CMSIS/Include/cmsis_gcc.h **** }
 520:ThirdParty/CMSIS/Include/cmsis_gcc.h **** 
 521:ThirdParty/CMSIS/Include/cmsis_gcc.h **** 
 522:ThirdParty/CMSIS/Include/cmsis_gcc.h **** /**
 523:ThirdParty/CMSIS/Include/cmsis_gcc.h ****   \brief   Get Fault Mask
 524:ThirdParty/CMSIS/Include/cmsis_gcc.h ****   \details Returns the current value of the Fault Mask register.
 525:ThirdParty/CMSIS/Include/cmsis_gcc.h ****   \return               Fault Mask register value
 526:ThirdParty/CMSIS/Include/cmsis_gcc.h ****  */
 527:ThirdParty/CMSIS/Include/cmsis_gcc.h **** __STATIC_FORCEINLINE uint32_t __get_FAULTMASK(void)
 528:ThirdParty/CMSIS/Include/cmsis_gcc.h **** {
 529:ThirdParty/CMSIS/Include/cmsis_gcc.h ****   uint32_t result;
 530:ThirdParty/CMSIS/Include/cmsis_gcc.h **** 
 531:ThirdParty/CMSIS/Include/cmsis_gcc.h ****   __ASM volatile ("MRS %0, faultmask" : "=r" (result) );
 532:ThirdParty/CMSIS/Include/cmsis_gcc.h ****   return(result);
 533:ThirdParty/CMSIS/Include/cmsis_gcc.h **** }
 534:ThirdParty/CMSIS/Include/cmsis_gcc.h **** 
 535:ThirdParty/CMSIS/Include/cmsis_gcc.h **** 
 536:ThirdParty/CMSIS/Include/cmsis_gcc.h **** #if (defined (__ARM_FEATURE_CMSE ) && (__ARM_FEATURE_CMSE == 3))
 537:ThirdParty/CMSIS/Include/cmsis_gcc.h **** /**
 538:ThirdParty/CMSIS/Include/cmsis_gcc.h ****   \brief   Get Fault Mask (non-secure)
 539:ThirdParty/CMSIS/Include/cmsis_gcc.h ****   \details Returns the current value of the non-secure Fault Mask register when in secure state.
 540:ThirdParty/CMSIS/Include/cmsis_gcc.h ****   \return               Fault Mask register value
 541:ThirdParty/CMSIS/Include/cmsis_gcc.h ****  */
 542:ThirdParty/CMSIS/Include/cmsis_gcc.h **** __STATIC_FORCEINLINE uint32_t __TZ_get_FAULTMASK_NS(void)
 543:ThirdParty/CMSIS/Include/cmsis_gcc.h **** {
 544:ThirdParty/CMSIS/Include/cmsis_gcc.h ****   uint32_t result;
 545:ThirdParty/CMSIS/Include/cmsis_gcc.h **** 
 546:ThirdParty/CMSIS/Include/cmsis_gcc.h ****   __ASM volatile ("MRS %0, faultmask_ns" : "=r" (result) );
 547:ThirdParty/CMSIS/Include/cmsis_gcc.h ****   return(result);
 548:ThirdParty/CMSIS/Include/cmsis_gcc.h **** }
 549:ThirdParty/CMSIS/Include/cmsis_gcc.h **** #endif
 550:ThirdParty/CMSIS/Include/cmsis_gcc.h **** 
 551:ThirdParty/CMSIS/Include/cmsis_gcc.h **** 
 552:ThirdParty/CMSIS/Include/cmsis_gcc.h **** /**
 553:ThirdParty/CMSIS/Include/cmsis_gcc.h ****   \brief   Set Fault Mask
 554:ThirdParty/CMSIS/Include/cmsis_gcc.h ****   \details Assigns the given value to the Fault Mask register.
 555:ThirdParty/CMSIS/Include/cmsis_gcc.h ****   \param [in]    faultMask  Fault Mask value to set
 556:ThirdParty/CMSIS/Include/cmsis_gcc.h ****  */
 557:ThirdParty/CMSIS/Include/cmsis_gcc.h **** __STATIC_FORCEINLINE void __set_FAULTMASK(uint32_t faultMask)
 558:ThirdParty/CMSIS/Include/cmsis_gcc.h **** {
 559:ThirdParty/CMSIS/Include/cmsis_gcc.h ****   __ASM volatile ("MSR faultmask, %0" : : "r" (faultMask) : "memory");
 560:ThirdParty/CMSIS/Include/cmsis_gcc.h **** }
 561:ThirdParty/CMSIS/Include/cmsis_gcc.h **** 
 562:ThirdParty/CMSIS/Include/cmsis_gcc.h **** 
 563:ThirdParty/CMSIS/Include/cmsis_gcc.h **** #if (defined (__ARM_FEATURE_CMSE ) && (__ARM_FEATURE_CMSE == 3))
 564:ThirdParty/CMSIS/Include/cmsis_gcc.h **** /**
 565:ThirdParty/CMSIS/Include/cmsis_gcc.h ****   \brief   Set Fault Mask (non-secure)
 566:ThirdParty/CMSIS/Include/cmsis_gcc.h ****   \details Assigns the given value to the non-secure Fault Mask register when in secure state.
ARM GAS  /tmp/cc6fvD8U.s 			page 63


 567:ThirdParty/CMSIS/Include/cmsis_gcc.h ****   \param [in]    faultMask  Fault Mask value to set
 568:ThirdParty/CMSIS/Include/cmsis_gcc.h ****  */
 569:ThirdParty/CMSIS/Include/cmsis_gcc.h **** __STATIC_FORCEINLINE void __TZ_set_FAULTMASK_NS(uint32_t faultMask)
 570:ThirdParty/CMSIS/Include/cmsis_gcc.h **** {
 571:ThirdParty/CMSIS/Include/cmsis_gcc.h ****   __ASM volatile ("MSR faultmask_ns, %0" : : "r" (faultMask) : "memory");
 572:ThirdParty/CMSIS/Include/cmsis_gcc.h **** }
 573:ThirdParty/CMSIS/Include/cmsis_gcc.h **** #endif
 574:ThirdParty/CMSIS/Include/cmsis_gcc.h **** 
 575:ThirdParty/CMSIS/Include/cmsis_gcc.h **** #endif /* ((defined (__ARM_ARCH_7M__      ) && (__ARM_ARCH_7M__      == 1)) || \
 576:ThirdParty/CMSIS/Include/cmsis_gcc.h ****            (defined (__ARM_ARCH_7EM__     ) && (__ARM_ARCH_7EM__     == 1)) || \
 577:ThirdParty/CMSIS/Include/cmsis_gcc.h ****            (defined (__ARM_ARCH_8M_MAIN__ ) && (__ARM_ARCH_8M_MAIN__ == 1))    ) */
 578:ThirdParty/CMSIS/Include/cmsis_gcc.h **** 
 579:ThirdParty/CMSIS/Include/cmsis_gcc.h **** 
 580:ThirdParty/CMSIS/Include/cmsis_gcc.h **** #if ((defined (__ARM_ARCH_8M_MAIN__ ) && (__ARM_ARCH_8M_MAIN__ == 1)) || \
 581:ThirdParty/CMSIS/Include/cmsis_gcc.h ****      (defined (__ARM_ARCH_8M_BASE__ ) && (__ARM_ARCH_8M_BASE__ == 1))    )
 582:ThirdParty/CMSIS/Include/cmsis_gcc.h **** 
 583:ThirdParty/CMSIS/Include/cmsis_gcc.h **** /**
 584:ThirdParty/CMSIS/Include/cmsis_gcc.h ****   \brief   Get Process Stack Pointer Limit
 585:ThirdParty/CMSIS/Include/cmsis_gcc.h ****   Devices without ARMv8-M Main Extensions (i.e. Cortex-M23) lack the non-secure
 586:ThirdParty/CMSIS/Include/cmsis_gcc.h ****   Stack Pointer Limit register hence zero is returned always in non-secure
 587:ThirdParty/CMSIS/Include/cmsis_gcc.h ****   mode.
 588:ThirdParty/CMSIS/Include/cmsis_gcc.h ****   
 589:ThirdParty/CMSIS/Include/cmsis_gcc.h ****   \details Returns the current value of the Process Stack Pointer Limit (PSPLIM).
 590:ThirdParty/CMSIS/Include/cmsis_gcc.h ****   \return               PSPLIM Register value
 591:ThirdParty/CMSIS/Include/cmsis_gcc.h ****  */
 592:ThirdParty/CMSIS/Include/cmsis_gcc.h **** __STATIC_FORCEINLINE uint32_t __get_PSPLIM(void)
 593:ThirdParty/CMSIS/Include/cmsis_gcc.h **** {
 594:ThirdParty/CMSIS/Include/cmsis_gcc.h **** #if (!(defined (__ARM_ARCH_8M_MAIN__ ) && (__ARM_ARCH_8M_MAIN__ == 1)) && \
 595:ThirdParty/CMSIS/Include/cmsis_gcc.h ****     (!defined (__ARM_FEATURE_CMSE) || (__ARM_FEATURE_CMSE < 3)))
 596:ThirdParty/CMSIS/Include/cmsis_gcc.h ****     // without main extensions, the non-secure PSPLIM is RAZ/WI
 597:ThirdParty/CMSIS/Include/cmsis_gcc.h ****   return 0U;
 598:ThirdParty/CMSIS/Include/cmsis_gcc.h **** #else
 599:ThirdParty/CMSIS/Include/cmsis_gcc.h ****   uint32_t result;
 600:ThirdParty/CMSIS/Include/cmsis_gcc.h ****   __ASM volatile ("MRS %0, psplim"  : "=r" (result) );
 601:ThirdParty/CMSIS/Include/cmsis_gcc.h ****   return result;
 602:ThirdParty/CMSIS/Include/cmsis_gcc.h **** #endif
 603:ThirdParty/CMSIS/Include/cmsis_gcc.h **** }
 604:ThirdParty/CMSIS/Include/cmsis_gcc.h **** 
 605:ThirdParty/CMSIS/Include/cmsis_gcc.h **** #if (defined (__ARM_FEATURE_CMSE) && (__ARM_FEATURE_CMSE == 3))
 606:ThirdParty/CMSIS/Include/cmsis_gcc.h **** /**
 607:ThirdParty/CMSIS/Include/cmsis_gcc.h ****   \brief   Get Process Stack Pointer Limit (non-secure)
 608:ThirdParty/CMSIS/Include/cmsis_gcc.h ****   Devices without ARMv8-M Main Extensions (i.e. Cortex-M23) lack the non-secure
 609:ThirdParty/CMSIS/Include/cmsis_gcc.h ****   Stack Pointer Limit register hence zero is returned always.
 610:ThirdParty/CMSIS/Include/cmsis_gcc.h **** 
 611:ThirdParty/CMSIS/Include/cmsis_gcc.h ****   \details Returns the current value of the non-secure Process Stack Pointer Limit (PSPLIM) when in
 612:ThirdParty/CMSIS/Include/cmsis_gcc.h ****   \return               PSPLIM Register value
 613:ThirdParty/CMSIS/Include/cmsis_gcc.h ****  */
 614:ThirdParty/CMSIS/Include/cmsis_gcc.h **** __STATIC_FORCEINLINE uint32_t __TZ_get_PSPLIM_NS(void)
 615:ThirdParty/CMSIS/Include/cmsis_gcc.h **** {
 616:ThirdParty/CMSIS/Include/cmsis_gcc.h **** #if (!(defined (__ARM_ARCH_8M_MAIN__ ) && (__ARM_ARCH_8M_MAIN__ == 1)))
 617:ThirdParty/CMSIS/Include/cmsis_gcc.h ****   // without main extensions, the non-secure PSPLIM is RAZ/WI
 618:ThirdParty/CMSIS/Include/cmsis_gcc.h ****   return 0U;
 619:ThirdParty/CMSIS/Include/cmsis_gcc.h **** #else
 620:ThirdParty/CMSIS/Include/cmsis_gcc.h ****   uint32_t result;
 621:ThirdParty/CMSIS/Include/cmsis_gcc.h ****   __ASM volatile ("MRS %0, psplim_ns"  : "=r" (result) );
 622:ThirdParty/CMSIS/Include/cmsis_gcc.h ****   return result;
 623:ThirdParty/CMSIS/Include/cmsis_gcc.h **** #endif
ARM GAS  /tmp/cc6fvD8U.s 			page 64


 624:ThirdParty/CMSIS/Include/cmsis_gcc.h **** }
 625:ThirdParty/CMSIS/Include/cmsis_gcc.h **** #endif
 626:ThirdParty/CMSIS/Include/cmsis_gcc.h **** 
 627:ThirdParty/CMSIS/Include/cmsis_gcc.h **** 
 628:ThirdParty/CMSIS/Include/cmsis_gcc.h **** /**
 629:ThirdParty/CMSIS/Include/cmsis_gcc.h ****   \brief   Set Process Stack Pointer Limit
 630:ThirdParty/CMSIS/Include/cmsis_gcc.h ****   Devices without ARMv8-M Main Extensions (i.e. Cortex-M23) lack the non-secure
 631:ThirdParty/CMSIS/Include/cmsis_gcc.h ****   Stack Pointer Limit register hence the write is silently ignored in non-secure
 632:ThirdParty/CMSIS/Include/cmsis_gcc.h ****   mode.
 633:ThirdParty/CMSIS/Include/cmsis_gcc.h ****   
