ARM GAS  /tmp/ccCyRDhy.s 			page 1


   1              		.cpu cortex-m4
   2              		.arch armv7e-m
   3              		.fpu fpv4-sp-d16
   4              		.eabi_attribute 27, 1
   5              		.eabi_attribute 28, 1
   6              		.eabi_attribute 20, 1
   7              		.eabi_attribute 21, 1
   8              		.eabi_attribute 23, 3
   9              		.eabi_attribute 24, 1
  10              		.eabi_attribute 25, 1
  11              		.eabi_attribute 26, 1
  12              		.eabi_attribute 30, 1
  13              		.eabi_attribute 34, 1
  14              		.eabi_attribute 18, 4
  15              		.file	"stm32f4xx_hal_rcc.c"
  16              		.text
  17              	.Ltext0:
  18              		.cfi_sections	.debug_frame
  19              		.section	.text.HAL_RCC_DeInit,"ax",%progbits
  20              		.align	1
  21              		.weak	HAL_RCC_DeInit
  22              		.syntax unified
  23              		.thumb
  24              		.thumb_func
  26              	HAL_RCC_DeInit:
  27              	.LFB133:
  28              		.file 1 "ThirdParty/STM32F4xx_HAL_Driver/Src/stm32f4xx_hal_rcc.c"
   1:ThirdParty/STM32F4xx_HAL_Driver/Src/stm32f4xx_hal_rcc.c **** /**
   2:ThirdParty/STM32F4xx_HAL_Driver/Src/stm32f4xx_hal_rcc.c ****   ******************************************************************************
   3:ThirdParty/STM32F4xx_HAL_Driver/Src/stm32f4xx_hal_rcc.c ****   * @file    stm32f4xx_hal_rcc.c
   4:ThirdParty/STM32F4xx_HAL_Driver/Src/stm32f4xx_hal_rcc.c ****   * @author  MCD Application Team
   5:ThirdParty/STM32F4xx_HAL_Driver/Src/stm32f4xx_hal_rcc.c ****   * @brief   RCC HAL module driver.
   6:ThirdParty/STM32F4xx_HAL_Driver/Src/stm32f4xx_hal_rcc.c ****   *          This file provides firmware functions to manage the following
   7:ThirdParty/STM32F4xx_HAL_Driver/Src/stm32f4xx_hal_rcc.c ****   *          functionalities of the Reset and Clock Control (RCC) peripheral:
   8:ThirdParty/STM32F4xx_HAL_Driver/Src/stm32f4xx_hal_rcc.c ****   *           + Initialization and de-initialization functions
   9:ThirdParty/STM32F4xx_HAL_Driver/Src/stm32f4xx_hal_rcc.c ****   *           + Peripheral Control functions
  10:ThirdParty/STM32F4xx_HAL_Driver/Src/stm32f4xx_hal_rcc.c ****   *
  11:ThirdParty/STM32F4xx_HAL_Driver/Src/stm32f4xx_hal_rcc.c ****   @verbatim
  12:ThirdParty/STM32F4xx_HAL_Driver/Src/stm32f4xx_hal_rcc.c ****   ==============================================================================
  13:ThirdParty/STM32F4xx_HAL_Driver/Src/stm32f4xx_hal_rcc.c ****                       ##### RCC specific features #####
  14:ThirdParty/STM32F4xx_HAL_Driver/Src/stm32f4xx_hal_rcc.c ****   ==============================================================================
  15:ThirdParty/STM32F4xx_HAL_Driver/Src/stm32f4xx_hal_rcc.c ****     [..]
  16:ThirdParty/STM32F4xx_HAL_Driver/Src/stm32f4xx_hal_rcc.c ****       After reset the device is running from Internal High Speed oscillator
  17:ThirdParty/STM32F4xx_HAL_Driver/Src/stm32f4xx_hal_rcc.c ****       (HSI 16MHz) with Flash 0 wait state, Flash prefetch buffer, D-Cache
  18:ThirdParty/STM32F4xx_HAL_Driver/Src/stm32f4xx_hal_rcc.c ****       and I-Cache are disabled, and all peripherals are off except internal
  19:ThirdParty/STM32F4xx_HAL_Driver/Src/stm32f4xx_hal_rcc.c ****       SRAM, Flash and JTAG.
  20:ThirdParty/STM32F4xx_HAL_Driver/Src/stm32f4xx_hal_rcc.c ****       (+) There is no prescaler on High speed (AHB) and Low speed (APB) busses;
  21:ThirdParty/STM32F4xx_HAL_Driver/Src/stm32f4xx_hal_rcc.c ****           all peripherals mapped on these busses are running at HSI speed.
  22:ThirdParty/STM32F4xx_HAL_Driver/Src/stm32f4xx_hal_rcc.c ****       (+) The clock for all peripherals is switched off, except the SRAM and FLASH.
  23:ThirdParty/STM32F4xx_HAL_Driver/Src/stm32f4xx_hal_rcc.c ****       (+) All GPIOs are in input floating state, except the JTAG pins which
  24:ThirdParty/STM32F4xx_HAL_Driver/Src/stm32f4xx_hal_rcc.c ****           are assigned to be used for debug purpose.
  25:ThirdParty/STM32F4xx_HAL_Driver/Src/stm32f4xx_hal_rcc.c **** 
  26:ThirdParty/STM32F4xx_HAL_Driver/Src/stm32f4xx_hal_rcc.c ****     [..]
  27:ThirdParty/STM32F4xx_HAL_Driver/Src/stm32f4xx_hal_rcc.c ****       Once the device started from reset, the user application has to:
  28:ThirdParty/STM32F4xx_HAL_Driver/Src/stm32f4xx_hal_rcc.c ****       (+) Configure the clock source to be used to drive the System clock
  29:ThirdParty/STM32F4xx_HAL_Driver/Src/stm32f4xx_hal_rcc.c ****           (if the application needs higher frequency/performance)
  30:ThirdParty/STM32F4xx_HAL_Driver/Src/stm32f4xx_hal_rcc.c ****       (+) Configure the System clock frequency and Flash settings
ARM GAS  /tmp/ccCyRDhy.s 			page 2


  31:ThirdParty/STM32F4xx_HAL_Driver/Src/stm32f4xx_hal_rcc.c ****       (+) Configure the AHB and APB busses prescalers
  32:ThirdParty/STM32F4xx_HAL_Driver/Src/stm32f4xx_hal_rcc.c ****       (+) Enable the clock for the peripheral(s) to be used
  33:ThirdParty/STM32F4xx_HAL_Driver/Src/stm32f4xx_hal_rcc.c ****       (+) Configure the clock source(s) for peripherals which clocks are not
  34:ThirdParty/STM32F4xx_HAL_Driver/Src/stm32f4xx_hal_rcc.c ****           derived from the System clock (I2S, RTC, ADC, USB OTG FS/SDIO/RNG)
  35:ThirdParty/STM32F4xx_HAL_Driver/Src/stm32f4xx_hal_rcc.c **** 
  36:ThirdParty/STM32F4xx_HAL_Driver/Src/stm32f4xx_hal_rcc.c ****                       ##### RCC Limitations #####
  37:ThirdParty/STM32F4xx_HAL_Driver/Src/stm32f4xx_hal_rcc.c ****   ==============================================================================
  38:ThirdParty/STM32F4xx_HAL_Driver/Src/stm32f4xx_hal_rcc.c ****     [..]
  39:ThirdParty/STM32F4xx_HAL_Driver/Src/stm32f4xx_hal_rcc.c ****       A delay between an RCC peripheral clock enable and the effective peripheral
  40:ThirdParty/STM32F4xx_HAL_Driver/Src/stm32f4xx_hal_rcc.c ****       enabling should be taken into account in order to manage the peripheral read/write
  41:ThirdParty/STM32F4xx_HAL_Driver/Src/stm32f4xx_hal_rcc.c ****       from/to registers.
  42:ThirdParty/STM32F4xx_HAL_Driver/Src/stm32f4xx_hal_rcc.c ****       (+) This delay depends on the peripheral mapping.
  43:ThirdParty/STM32F4xx_HAL_Driver/Src/stm32f4xx_hal_rcc.c ****       (+) If peripheral is mapped on AHB: the delay is 2 AHB clock cycle
  44:ThirdParty/STM32F4xx_HAL_Driver/Src/stm32f4xx_hal_rcc.c ****           after the clock enable bit is set on the hardware register
  45:ThirdParty/STM32F4xx_HAL_Driver/Src/stm32f4xx_hal_rcc.c ****       (+) If peripheral is mapped on APB: the delay is 2 APB clock cycle
  46:ThirdParty/STM32F4xx_HAL_Driver/Src/stm32f4xx_hal_rcc.c ****           after the clock enable bit is set on the hardware register
  47:ThirdParty/STM32F4xx_HAL_Driver/Src/stm32f4xx_hal_rcc.c **** 
  48:ThirdParty/STM32F4xx_HAL_Driver/Src/stm32f4xx_hal_rcc.c ****     [..]
  49:ThirdParty/STM32F4xx_HAL_Driver/Src/stm32f4xx_hal_rcc.c ****       Implemented Workaround:
  50:ThirdParty/STM32F4xx_HAL_Driver/Src/stm32f4xx_hal_rcc.c ****       (+) For AHB & APB peripherals, a dummy read to the peripheral register has been
  51:ThirdParty/STM32F4xx_HAL_Driver/Src/stm32f4xx_hal_rcc.c ****           inserted in each __HAL_RCC_PPP_CLK_ENABLE() macro.
  52:ThirdParty/STM32F4xx_HAL_Driver/Src/stm32f4xx_hal_rcc.c **** 
  53:ThirdParty/STM32F4xx_HAL_Driver/Src/stm32f4xx_hal_rcc.c ****   @endverbatim
  54:ThirdParty/STM32F4xx_HAL_Driver/Src/stm32f4xx_hal_rcc.c ****   ******************************************************************************
  55:ThirdParty/STM32F4xx_HAL_Driver/Src/stm32f4xx_hal_rcc.c ****   * @attention
  56:ThirdParty/STM32F4xx_HAL_Driver/Src/stm32f4xx_hal_rcc.c ****   *
  57:ThirdParty/STM32F4xx_HAL_Driver/Src/stm32f4xx_hal_rcc.c ****   * <h2><center>&copy; COPYRIGHT(c) 2017 STMicroelectronics</center></h2>
  58:ThirdParty/STM32F4xx_HAL_Driver/Src/stm32f4xx_hal_rcc.c ****   *
  59:ThirdParty/STM32F4xx_HAL_Driver/Src/stm32f4xx_hal_rcc.c ****   * Redistribution and use in source and binary forms, with or without modification,
  60:ThirdParty/STM32F4xx_HAL_Driver/Src/stm32f4xx_hal_rcc.c ****   * are permitted provided that the following conditions are met:
  61:ThirdParty/STM32F4xx_HAL_Driver/Src/stm32f4xx_hal_rcc.c ****   *   1. Redistributions of source code must retain the above copyright notice,
  62:ThirdParty/STM32F4xx_HAL_Driver/Src/stm32f4xx_hal_rcc.c ****   *      this list of conditions and the following disclaimer.
  63:ThirdParty/STM32F4xx_HAL_Driver/Src/stm32f4xx_hal_rcc.c ****   *   2. Redistributions in binary form must reproduce the above copyright notice,
  64:ThirdParty/STM32F4xx_HAL_Driver/Src/stm32f4xx_hal_rcc.c ****   *      this list of conditions and the following disclaimer in the documentation
  65:ThirdParty/STM32F4xx_HAL_Driver/Src/stm32f4xx_hal_rcc.c ****   *      and/or other materials provided with the distribution.
  66:ThirdParty/STM32F4xx_HAL_Driver/Src/stm32f4xx_hal_rcc.c ****   *   3. Neither the name of STMicroelectronics nor the names of its contributors
  67:ThirdParty/STM32F4xx_HAL_Driver/Src/stm32f4xx_hal_rcc.c ****   *      may be used to endorse or promote products derived from this software
  68:ThirdParty/STM32F4xx_HAL_Driver/Src/stm32f4xx_hal_rcc.c ****   *      without specific prior written permission.
  69:ThirdParty/STM32F4xx_HAL_Driver/Src/stm32f4xx_hal_rcc.c ****   *
  70:ThirdParty/STM32F4xx_HAL_Driver/Src/stm32f4xx_hal_rcc.c ****   * THIS SOFTWARE IS PROVIDED BY THE COPYRIGHT HOLDERS AND CONTRIBUTORS "AS IS"
  71:ThirdParty/STM32F4xx_HAL_Driver/Src/stm32f4xx_hal_rcc.c ****   * AND ANY EXPRESS OR IMPLIED WARRANTIES, INCLUDING, BUT NOT LIMITED TO, THE
  72:ThirdParty/STM32F4xx_HAL_Driver/Src/stm32f4xx_hal_rcc.c ****   * IMPLIED WARRANTIES OF MERCHANTABILITY AND FITNESS FOR A PARTICULAR PURPOSE ARE
  73:ThirdParty/STM32F4xx_HAL_Driver/Src/stm32f4xx_hal_rcc.c ****   * DISCLAIMED. IN NO EVENT SHALL THE COPYRIGHT HOLDER OR CONTRIBUTORS BE LIABLE
  74:ThirdParty/STM32F4xx_HAL_Driver/Src/stm32f4xx_hal_rcc.c ****   * FOR ANY DIRECT, INDIRECT, INCIDENTAL, SPECIAL, EXEMPLARY, OR CONSEQUENTIAL
  75:ThirdParty/STM32F4xx_HAL_Driver/Src/stm32f4xx_hal_rcc.c ****   * DAMAGES (INCLUDING, BUT NOT LIMITED TO, PROCUREMENT OF SUBSTITUTE GOODS OR
  76:ThirdParty/STM32F4xx_HAL_Driver/Src/stm32f4xx_hal_rcc.c ****   * SERVICES; LOSS OF USE, DATA, OR PROFITS; OR BUSINESS INTERRUPTION) HOWEVER
  77:ThirdParty/STM32F4xx_HAL_Driver/Src/stm32f4xx_hal_rcc.c ****   * CAUSED AND ON ANY THEORY OF LIABILITY, WHETHER IN CONTRACT, STRICT LIABILITY,
  78:ThirdParty/STM32F4xx_HAL_Driver/Src/stm32f4xx_hal_rcc.c ****   * OR TORT (INCLUDING NEGLIGENCE OR OTHERWISE) ARISING IN ANY WAY OUT OF THE USE
  79:ThirdParty/STM32F4xx_HAL_Driver/Src/stm32f4xx_hal_rcc.c ****   * OF THIS SOFTWARE, EVEN IF ADVISED OF THE POSSIBILITY OF SUCH DAMAGE.
  80:ThirdParty/STM32F4xx_HAL_Driver/Src/stm32f4xx_hal_rcc.c ****   *
  81:ThirdParty/STM32F4xx_HAL_Driver/Src/stm32f4xx_hal_rcc.c ****   ******************************************************************************
  82:ThirdParty/STM32F4xx_HAL_Driver/Src/stm32f4xx_hal_rcc.c ****   */
  83:ThirdParty/STM32F4xx_HAL_Driver/Src/stm32f4xx_hal_rcc.c **** 
  84:ThirdParty/STM32F4xx_HAL_Driver/Src/stm32f4xx_hal_rcc.c **** /* Includes ------------------------------------------------------------------*/
  85:ThirdParty/STM32F4xx_HAL_Driver/Src/stm32f4xx_hal_rcc.c **** #include "stm32f4xx_hal.h"
  86:ThirdParty/STM32F4xx_HAL_Driver/Src/stm32f4xx_hal_rcc.c **** 
  87:ThirdParty/STM32F4xx_HAL_Driver/Src/stm32f4xx_hal_rcc.c **** /** @addtogroup STM32F4xx_HAL_Driver
ARM GAS  /tmp/ccCyRDhy.s 			page 3


  88:ThirdParty/STM32F4xx_HAL_Driver/Src/stm32f4xx_hal_rcc.c ****   * @{
  89:ThirdParty/STM32F4xx_HAL_Driver/Src/stm32f4xx_hal_rcc.c ****   */
  90:ThirdParty/STM32F4xx_HAL_Driver/Src/stm32f4xx_hal_rcc.c **** 
  91:ThirdParty/STM32F4xx_HAL_Driver/Src/stm32f4xx_hal_rcc.c **** /** @defgroup RCC RCC
  92:ThirdParty/STM32F4xx_HAL_Driver/Src/stm32f4xx_hal_rcc.c ****   * @brief RCC HAL module driver
  93:ThirdParty/STM32F4xx_HAL_Driver/Src/stm32f4xx_hal_rcc.c ****   * @{
  94:ThirdParty/STM32F4xx_HAL_Driver/Src/stm32f4xx_hal_rcc.c ****   */
  95:ThirdParty/STM32F4xx_HAL_Driver/Src/stm32f4xx_hal_rcc.c **** 
  96:ThirdParty/STM32F4xx_HAL_Driver/Src/stm32f4xx_hal_rcc.c **** #ifdef HAL_RCC_MODULE_ENABLED
  97:ThirdParty/STM32F4xx_HAL_Driver/Src/stm32f4xx_hal_rcc.c **** 
  98:ThirdParty/STM32F4xx_HAL_Driver/Src/stm32f4xx_hal_rcc.c **** /* Private typedef -----------------------------------------------------------*/
  99:ThirdParty/STM32F4xx_HAL_Driver/Src/stm32f4xx_hal_rcc.c **** /* Private define ------------------------------------------------------------*/
 100:ThirdParty/STM32F4xx_HAL_Driver/Src/stm32f4xx_hal_rcc.c **** /** @addtogroup RCC_Private_Constants
 101:ThirdParty/STM32F4xx_HAL_Driver/Src/stm32f4xx_hal_rcc.c ****   * @{
 102:ThirdParty/STM32F4xx_HAL_Driver/Src/stm32f4xx_hal_rcc.c ****   */
 103:ThirdParty/STM32F4xx_HAL_Driver/Src/stm32f4xx_hal_rcc.c **** 
 104:ThirdParty/STM32F4xx_HAL_Driver/Src/stm32f4xx_hal_rcc.c **** /* Private macro -------------------------------------------------------------*/
 105:ThirdParty/STM32F4xx_HAL_Driver/Src/stm32f4xx_hal_rcc.c **** #define __MCO1_CLK_ENABLE()   __HAL_RCC_GPIOA_CLK_ENABLE()
 106:ThirdParty/STM32F4xx_HAL_Driver/Src/stm32f4xx_hal_rcc.c **** #define MCO1_GPIO_PORT        GPIOA
 107:ThirdParty/STM32F4xx_HAL_Driver/Src/stm32f4xx_hal_rcc.c **** #define MCO1_PIN              GPIO_PIN_8
 108:ThirdParty/STM32F4xx_HAL_Driver/Src/stm32f4xx_hal_rcc.c **** 
 109:ThirdParty/STM32F4xx_HAL_Driver/Src/stm32f4xx_hal_rcc.c **** #define __MCO2_CLK_ENABLE()   __HAL_RCC_GPIOC_CLK_ENABLE()
 110:ThirdParty/STM32F4xx_HAL_Driver/Src/stm32f4xx_hal_rcc.c **** #define MCO2_GPIO_PORT         GPIOC
 111:ThirdParty/STM32F4xx_HAL_Driver/Src/stm32f4xx_hal_rcc.c **** #define MCO2_PIN               GPIO_PIN_9
 112:ThirdParty/STM32F4xx_HAL_Driver/Src/stm32f4xx_hal_rcc.c **** /**
 113:ThirdParty/STM32F4xx_HAL_Driver/Src/stm32f4xx_hal_rcc.c ****   * @}
 114:ThirdParty/STM32F4xx_HAL_Driver/Src/stm32f4xx_hal_rcc.c ****   */
 115:ThirdParty/STM32F4xx_HAL_Driver/Src/stm32f4xx_hal_rcc.c **** 
 116:ThirdParty/STM32F4xx_HAL_Driver/Src/stm32f4xx_hal_rcc.c **** /* Private variables ---------------------------------------------------------*/
 117:ThirdParty/STM32F4xx_HAL_Driver/Src/stm32f4xx_hal_rcc.c **** /** @defgroup RCC_Private_Variables RCC Private Variables
 118:ThirdParty/STM32F4xx_HAL_Driver/Src/stm32f4xx_hal_rcc.c ****   * @{
 119:ThirdParty/STM32F4xx_HAL_Driver/Src/stm32f4xx_hal_rcc.c ****   */
 120:ThirdParty/STM32F4xx_HAL_Driver/Src/stm32f4xx_hal_rcc.c **** /**
 121:ThirdParty/STM32F4xx_HAL_Driver/Src/stm32f4xx_hal_rcc.c ****   * @}
 122:ThirdParty/STM32F4xx_HAL_Driver/Src/stm32f4xx_hal_rcc.c ****   */
 123:ThirdParty/STM32F4xx_HAL_Driver/Src/stm32f4xx_hal_rcc.c **** /* Private function prototypes -----------------------------------------------*/
 124:ThirdParty/STM32F4xx_HAL_Driver/Src/stm32f4xx_hal_rcc.c **** /* Private functions ---------------------------------------------------------*/
 125:ThirdParty/STM32F4xx_HAL_Driver/Src/stm32f4xx_hal_rcc.c **** 
 126:ThirdParty/STM32F4xx_HAL_Driver/Src/stm32f4xx_hal_rcc.c **** /** @defgroup RCC_Exported_Functions RCC Exported Functions
 127:ThirdParty/STM32F4xx_HAL_Driver/Src/stm32f4xx_hal_rcc.c ****   *  @{
 128:ThirdParty/STM32F4xx_HAL_Driver/Src/stm32f4xx_hal_rcc.c ****   */
 129:ThirdParty/STM32F4xx_HAL_Driver/Src/stm32f4xx_hal_rcc.c **** 
 130:ThirdParty/STM32F4xx_HAL_Driver/Src/stm32f4xx_hal_rcc.c **** /** @defgroup RCC_Exported_Functions_Group1 Initialization and de-initialization functions
 131:ThirdParty/STM32F4xx_HAL_Driver/Src/stm32f4xx_hal_rcc.c ****  *  @brief    Initialization and Configuration functions
 132:ThirdParty/STM32F4xx_HAL_Driver/Src/stm32f4xx_hal_rcc.c ****  *
 133:ThirdParty/STM32F4xx_HAL_Driver/Src/stm32f4xx_hal_rcc.c **** @verbatim
 134:ThirdParty/STM32F4xx_HAL_Driver/Src/stm32f4xx_hal_rcc.c ****  ===============================================================================
 135:ThirdParty/STM32F4xx_HAL_Driver/Src/stm32f4xx_hal_rcc.c ****            ##### Initialization and de-initialization functions #####
 136:ThirdParty/STM32F4xx_HAL_Driver/Src/stm32f4xx_hal_rcc.c ****  ===============================================================================
 137:ThirdParty/STM32F4xx_HAL_Driver/Src/stm32f4xx_hal_rcc.c ****     [..]
 138:ThirdParty/STM32F4xx_HAL_Driver/Src/stm32f4xx_hal_rcc.c ****       This section provides functions allowing to configure the internal/external oscillators
 139:ThirdParty/STM32F4xx_HAL_Driver/Src/stm32f4xx_hal_rcc.c ****       (HSE, HSI, LSE, LSI, PLL, CSS and MCO) and the System busses clocks (SYSCLK, AHB, APB1
 140:ThirdParty/STM32F4xx_HAL_Driver/Src/stm32f4xx_hal_rcc.c ****        and APB2).
 141:ThirdParty/STM32F4xx_HAL_Driver/Src/stm32f4xx_hal_rcc.c **** 
 142:ThirdParty/STM32F4xx_HAL_Driver/Src/stm32f4xx_hal_rcc.c ****     [..] Internal/external clock and PLL configuration
 143:ThirdParty/STM32F4xx_HAL_Driver/Src/stm32f4xx_hal_rcc.c ****          (#) HSI (high-speed internal), 16 MHz factory-trimmed RC used directly or through
 144:ThirdParty/STM32F4xx_HAL_Driver/Src/stm32f4xx_hal_rcc.c ****              the PLL as System clock source.
ARM GAS  /tmp/ccCyRDhy.s 			page 4


 145:ThirdParty/STM32F4xx_HAL_Driver/Src/stm32f4xx_hal_rcc.c **** 
 146:ThirdParty/STM32F4xx_HAL_Driver/Src/stm32f4xx_hal_rcc.c ****          (#) LSI (low-speed internal), 32 KHz low consumption RC used as IWDG and/or RTC
 147:ThirdParty/STM32F4xx_HAL_Driver/Src/stm32f4xx_hal_rcc.c ****              clock source.
 148:ThirdParty/STM32F4xx_HAL_Driver/Src/stm32f4xx_hal_rcc.c **** 
 149:ThirdParty/STM32F4xx_HAL_Driver/Src/stm32f4xx_hal_rcc.c ****          (#) HSE (high-speed external), 4 to 26 MHz crystal oscillator used directly or
 150:ThirdParty/STM32F4xx_HAL_Driver/Src/stm32f4xx_hal_rcc.c ****              through the PLL as System clock source. Can be used also as RTC clock source.
 151:ThirdParty/STM32F4xx_HAL_Driver/Src/stm32f4xx_hal_rcc.c **** 
 152:ThirdParty/STM32F4xx_HAL_Driver/Src/stm32f4xx_hal_rcc.c ****          (#) LSE (low-speed external), 32 KHz oscillator used as RTC clock source.
 153:ThirdParty/STM32F4xx_HAL_Driver/Src/stm32f4xx_hal_rcc.c **** 
 154:ThirdParty/STM32F4xx_HAL_Driver/Src/stm32f4xx_hal_rcc.c ****          (#) PLL (clocked by HSI or HSE), featuring two different output clocks:
 155:ThirdParty/STM32F4xx_HAL_Driver/Src/stm32f4xx_hal_rcc.c ****            (++) The first output is used to generate the high speed system clock (up to 168 MHz)
 156:ThirdParty/STM32F4xx_HAL_Driver/Src/stm32f4xx_hal_rcc.c ****            (++) The second output is used to generate the clock for the USB OTG FS (48 MHz),
 157:ThirdParty/STM32F4xx_HAL_Driver/Src/stm32f4xx_hal_rcc.c ****                 the random analog generator (<=48 MHz) and the SDIO (<= 48 MHz).
 158:ThirdParty/STM32F4xx_HAL_Driver/Src/stm32f4xx_hal_rcc.c **** 
 159:ThirdParty/STM32F4xx_HAL_Driver/Src/stm32f4xx_hal_rcc.c ****          (#) CSS (Clock security system), once enable using the macro __HAL_RCC_CSS_ENABLE()
 160:ThirdParty/STM32F4xx_HAL_Driver/Src/stm32f4xx_hal_rcc.c ****              and if a HSE clock failure occurs(HSE used directly or through PLL as System
 161:ThirdParty/STM32F4xx_HAL_Driver/Src/stm32f4xx_hal_rcc.c ****              clock source), the System clocks automatically switched to HSI and an interrupt
 162:ThirdParty/STM32F4xx_HAL_Driver/Src/stm32f4xx_hal_rcc.c ****              is generated if enabled. The interrupt is linked to the Cortex-M4 NMI
 163:ThirdParty/STM32F4xx_HAL_Driver/Src/stm32f4xx_hal_rcc.c ****              (Non-Maskable Interrupt) exception vector.
 164:ThirdParty/STM32F4xx_HAL_Driver/Src/stm32f4xx_hal_rcc.c **** 
 165:ThirdParty/STM32F4xx_HAL_Driver/Src/stm32f4xx_hal_rcc.c ****          (#) MCO1 (microcontroller clock output), used to output HSI, LSE, HSE or PLL
 166:ThirdParty/STM32F4xx_HAL_Driver/Src/stm32f4xx_hal_rcc.c ****              clock (through a configurable prescaler) on PA8 pin.
 167:ThirdParty/STM32F4xx_HAL_Driver/Src/stm32f4xx_hal_rcc.c **** 
 168:ThirdParty/STM32F4xx_HAL_Driver/Src/stm32f4xx_hal_rcc.c ****          (#) MCO2 (microcontroller clock output), used to output HSE, PLL, SYSCLK or PLLI2S
 169:ThirdParty/STM32F4xx_HAL_Driver/Src/stm32f4xx_hal_rcc.c ****              clock (through a configurable prescaler) on PC9 pin.
 170:ThirdParty/STM32F4xx_HAL_Driver/Src/stm32f4xx_hal_rcc.c **** 
 171:ThirdParty/STM32F4xx_HAL_Driver/Src/stm32f4xx_hal_rcc.c ****     [..] System, AHB and APB busses clocks configuration
 172:ThirdParty/STM32F4xx_HAL_Driver/Src/stm32f4xx_hal_rcc.c ****          (#) Several clock sources can be used to drive the System clock (SYSCLK): HSI,
 173:ThirdParty/STM32F4xx_HAL_Driver/Src/stm32f4xx_hal_rcc.c ****              HSE and PLL.
 174:ThirdParty/STM32F4xx_HAL_Driver/Src/stm32f4xx_hal_rcc.c ****              The AHB clock (HCLK) is derived from System clock through configurable
 175:ThirdParty/STM32F4xx_HAL_Driver/Src/stm32f4xx_hal_rcc.c ****              prescaler and used to clock the CPU, memory and peripherals mapped
 176:ThirdParty/STM32F4xx_HAL_Driver/Src/stm32f4xx_hal_rcc.c ****              on AHB bus (DMA, GPIO...). APB1 (PCLK1) and APB2 (PCLK2) clocks are derived
 177:ThirdParty/STM32F4xx_HAL_Driver/Src/stm32f4xx_hal_rcc.c ****              from AHB clock through configurable prescalers and used to clock
 178:ThirdParty/STM32F4xx_HAL_Driver/Src/stm32f4xx_hal_rcc.c ****              the peripherals mapped on these busses. You can use
 179:ThirdParty/STM32F4xx_HAL_Driver/Src/stm32f4xx_hal_rcc.c ****              "HAL_RCC_GetSysClockFreq()" function to retrieve the frequencies of these clocks.
 180:ThirdParty/STM32F4xx_HAL_Driver/Src/stm32f4xx_hal_rcc.c **** 
 181:ThirdParty/STM32F4xx_HAL_Driver/Src/stm32f4xx_hal_rcc.c ****          (#) For the STM32F405xx/07xx and STM32F415xx/17xx devices, the maximum
 182:ThirdParty/STM32F4xx_HAL_Driver/Src/stm32f4xx_hal_rcc.c ****              frequency of the SYSCLK and HCLK is 168 MHz, PCLK2 84 MHz and PCLK1 42 MHz.
 183:ThirdParty/STM32F4xx_HAL_Driver/Src/stm32f4xx_hal_rcc.c ****              Depending on the device voltage range, the maximum frequency should
 184:ThirdParty/STM32F4xx_HAL_Driver/Src/stm32f4xx_hal_rcc.c ****              be adapted accordingly (refer to the product datasheets for more details).
 185:ThirdParty/STM32F4xx_HAL_Driver/Src/stm32f4xx_hal_rcc.c **** 
 186:ThirdParty/STM32F4xx_HAL_Driver/Src/stm32f4xx_hal_rcc.c ****          (#) For the STM32F42xxx, STM32F43xxx, STM32F446xx, STM32F469xx and STM32F479xx devices,
 187:ThirdParty/STM32F4xx_HAL_Driver/Src/stm32f4xx_hal_rcc.c ****              the maximum frequency of the SYSCLK and HCLK is 180 MHz, PCLK2 90 MHz and PCLK1 45 MHz
 188:ThirdParty/STM32F4xx_HAL_Driver/Src/stm32f4xx_hal_rcc.c ****              Depending on the device voltage range, the maximum frequency should
 189:ThirdParty/STM32F4xx_HAL_Driver/Src/stm32f4xx_hal_rcc.c ****              be adapted accordingly (refer to the product datasheets for more details).
 190:ThirdParty/STM32F4xx_HAL_Driver/Src/stm32f4xx_hal_rcc.c **** 
 191:ThirdParty/STM32F4xx_HAL_Driver/Src/stm32f4xx_hal_rcc.c ****          (#) For the STM32F401xx, the maximum frequency of the SYSCLK and HCLK is 84 MHz,
 192:ThirdParty/STM32F4xx_HAL_Driver/Src/stm32f4xx_hal_rcc.c ****              PCLK2 84 MHz and PCLK1 42 MHz.
 193:ThirdParty/STM32F4xx_HAL_Driver/Src/stm32f4xx_hal_rcc.c ****              Depending on the device voltage range, the maximum frequency should
 194:ThirdParty/STM32F4xx_HAL_Driver/Src/stm32f4xx_hal_rcc.c ****              be adapted accordingly (refer to the product datasheets for more details).
 195:ThirdParty/STM32F4xx_HAL_Driver/Src/stm32f4xx_hal_rcc.c **** 
 196:ThirdParty/STM32F4xx_HAL_Driver/Src/stm32f4xx_hal_rcc.c ****          (#) For the STM32F41xxx, the maximum frequency of the SYSCLK and HCLK is 100 MHz,
 197:ThirdParty/STM32F4xx_HAL_Driver/Src/stm32f4xx_hal_rcc.c ****              PCLK2 100 MHz and PCLK1 50 MHz.
 198:ThirdParty/STM32F4xx_HAL_Driver/Src/stm32f4xx_hal_rcc.c ****              Depending on the device voltage range, the maximum frequency should
 199:ThirdParty/STM32F4xx_HAL_Driver/Src/stm32f4xx_hal_rcc.c ****              be adapted accordingly (refer to the product datasheets for more details).
 200:ThirdParty/STM32F4xx_HAL_Driver/Src/stm32f4xx_hal_rcc.c **** 
 201:ThirdParty/STM32F4xx_HAL_Driver/Src/stm32f4xx_hal_rcc.c **** @endverbatim
ARM GAS  /tmp/ccCyRDhy.s 			page 5


 202:ThirdParty/STM32F4xx_HAL_Driver/Src/stm32f4xx_hal_rcc.c ****   * @{
 203:ThirdParty/STM32F4xx_HAL_Driver/Src/stm32f4xx_hal_rcc.c ****   */
 204:ThirdParty/STM32F4xx_HAL_Driver/Src/stm32f4xx_hal_rcc.c **** 
 205:ThirdParty/STM32F4xx_HAL_Driver/Src/stm32f4xx_hal_rcc.c **** /**
 206:ThirdParty/STM32F4xx_HAL_Driver/Src/stm32f4xx_hal_rcc.c ****   * @brief  Resets the RCC clock configuration to the default reset state.
 207:ThirdParty/STM32F4xx_HAL_Driver/Src/stm32f4xx_hal_rcc.c ****   * @note   The default reset state of the clock configuration is given below:
 208:ThirdParty/STM32F4xx_HAL_Driver/Src/stm32f4xx_hal_rcc.c ****   *            - HSI ON and used as system clock source
 209:ThirdParty/STM32F4xx_HAL_Driver/Src/stm32f4xx_hal_rcc.c ****   *            - HSE and PLL OFF
 210:ThirdParty/STM32F4xx_HAL_Driver/Src/stm32f4xx_hal_rcc.c ****   *            - AHB, APB1 and APB2 prescaler set to 1.
 211:ThirdParty/STM32F4xx_HAL_Driver/Src/stm32f4xx_hal_rcc.c ****   *            - CSS, MCO1 and MCO2 OFF
 212:ThirdParty/STM32F4xx_HAL_Driver/Src/stm32f4xx_hal_rcc.c ****   *            - All interrupts disabled
 213:ThirdParty/STM32F4xx_HAL_Driver/Src/stm32f4xx_hal_rcc.c ****   * @note   This function doesn't modify the configuration of the
 214:ThirdParty/STM32F4xx_HAL_Driver/Src/stm32f4xx_hal_rcc.c ****   *            - Peripheral clocks
 215:ThirdParty/STM32F4xx_HAL_Driver/Src/stm32f4xx_hal_rcc.c ****   *            - LSI, LSE and RTC clocks
 216:ThirdParty/STM32F4xx_HAL_Driver/Src/stm32f4xx_hal_rcc.c ****   * @retval HAL status
 217:ThirdParty/STM32F4xx_HAL_Driver/Src/stm32f4xx_hal_rcc.c ****   */
 218:ThirdParty/STM32F4xx_HAL_Driver/Src/stm32f4xx_hal_rcc.c **** __weak HAL_StatusTypeDef HAL_RCC_DeInit(void)
 219:ThirdParty/STM32F4xx_HAL_Driver/Src/stm32f4xx_hal_rcc.c **** {
  29              		.loc 1 219 1 view -0
  30              		.cfi_startproc
  31              		@ args = 0, pretend = 0, frame = 0
  32              		@ frame_needed = 0, uses_anonymous_args = 0
  33              		@ link register save eliminated.
 220:ThirdParty/STM32F4xx_HAL_Driver/Src/stm32f4xx_hal_rcc.c ****   return HAL_OK;
  34              		.loc 1 220 3 view .LVU1
 221:ThirdParty/STM32F4xx_HAL_Driver/Src/stm32f4xx_hal_rcc.c **** }
  35              		.loc 1 221 1 is_stmt 0 view .LVU2
  36 0000 0020     		movs	r0, #0
  37 0002 7047     		bx	lr
  38              		.cfi_endproc
  39              	.LFE133:
  41              		.section	.text.HAL_RCC_OscConfig,"ax",%progbits
  42              		.align	1
  43              		.weak	HAL_RCC_OscConfig
  44              		.syntax unified
  45              		.thumb
  46              		.thumb_func
  48              	HAL_RCC_OscConfig:
  49              	.LVL0:
  50              	.LFB134:
 222:ThirdParty/STM32F4xx_HAL_Driver/Src/stm32f4xx_hal_rcc.c **** 
 223:ThirdParty/STM32F4xx_HAL_Driver/Src/stm32f4xx_hal_rcc.c **** /**
 224:ThirdParty/STM32F4xx_HAL_Driver/Src/stm32f4xx_hal_rcc.c ****   * @brief  Initializes the RCC Oscillators according to the specified parameters in the
 225:ThirdParty/STM32F4xx_HAL_Driver/Src/stm32f4xx_hal_rcc.c ****   *         RCC_OscInitTypeDef.
 226:ThirdParty/STM32F4xx_HAL_Driver/Src/stm32f4xx_hal_rcc.c ****   * @param  RCC_OscInitStruct pointer to an RCC_OscInitTypeDef structure that
 227:ThirdParty/STM32F4xx_HAL_Driver/Src/stm32f4xx_hal_rcc.c ****   *         contains the configuration information for the RCC Oscillators.
 228:ThirdParty/STM32F4xx_HAL_Driver/Src/stm32f4xx_hal_rcc.c ****   * @note   The PLL is not disabled when used as system clock.
 229:ThirdParty/STM32F4xx_HAL_Driver/Src/stm32f4xx_hal_rcc.c ****   * @note   Transitions LSE Bypass to LSE On and LSE On to LSE Bypass are not
 230:ThirdParty/STM32F4xx_HAL_Driver/Src/stm32f4xx_hal_rcc.c ****   *         supported by this API. User should request a transition to LSE Off
 231:ThirdParty/STM32F4xx_HAL_Driver/Src/stm32f4xx_hal_rcc.c ****   *         first and then LSE On or LSE Bypass.
 232:ThirdParty/STM32F4xx_HAL_Driver/Src/stm32f4xx_hal_rcc.c ****   * @note   Transition HSE Bypass to HSE On and HSE On to HSE Bypass are not
 233:ThirdParty/STM32F4xx_HAL_Driver/Src/stm32f4xx_hal_rcc.c ****   *         supported by this API. User should request a transition to HSE Off
 234:ThirdParty/STM32F4xx_HAL_Driver/Src/stm32f4xx_hal_rcc.c ****   *         first and then HSE On or HSE Bypass.
 235:ThirdParty/STM32F4xx_HAL_Driver/Src/stm32f4xx_hal_rcc.c ****   * @retval HAL status
 236:ThirdParty/STM32F4xx_HAL_Driver/Src/stm32f4xx_hal_rcc.c ****   */
 237:ThirdParty/STM32F4xx_HAL_Driver/Src/stm32f4xx_hal_rcc.c **** __weak HAL_StatusTypeDef HAL_RCC_OscConfig(RCC_OscInitTypeDef  *RCC_OscInitStruct)
 238:ThirdParty/STM32F4xx_HAL_Driver/Src/stm32f4xx_hal_rcc.c **** {
ARM GAS  /tmp/ccCyRDhy.s 			page 6


  51              		.loc 1 238 1 is_stmt 1 view -0
  52              		.cfi_startproc
  53              		@ args = 0, pretend = 0, frame = 8
  54              		@ frame_needed = 0, uses_anonymous_args = 0
 239:ThirdParty/STM32F4xx_HAL_Driver/Src/stm32f4xx_hal_rcc.c ****   uint32_t tickstart;
  55              		.loc 1 239 3 view .LVU4
 240:ThirdParty/STM32F4xx_HAL_Driver/Src/stm32f4xx_hal_rcc.c **** 
 241:ThirdParty/STM32F4xx_HAL_Driver/Src/stm32f4xx_hal_rcc.c ****   /* Check Null pointer */
 242:ThirdParty/STM32F4xx_HAL_Driver/Src/stm32f4xx_hal_rcc.c ****   if(RCC_OscInitStruct == NULL)
  56              		.loc 1 242 3 view .LVU5
  57              		.loc 1 242 5 is_stmt 0 view .LVU6
  58 0000 0028     		cmp	r0, #0
  59 0002 00F0BA81 		beq	.L51
 238:ThirdParty/STM32F4xx_HAL_Driver/Src/stm32f4xx_hal_rcc.c ****   uint32_t tickstart;
  60              		.loc 1 238 1 view .LVU7
  61 0006 70B5     		push	{r4, r5, r6, lr}
  62              	.LCFI0:
  63              		.cfi_def_cfa_offset 16
  64              		.cfi_offset 4, -16
  65              		.cfi_offset 5, -12
  66              		.cfi_offset 6, -8
  67              		.cfi_offset 14, -4
  68 0008 82B0     		sub	sp, sp, #8
  69              	.LCFI1:
  70              		.cfi_def_cfa_offset 24
  71 000a 0446     		mov	r4, r0
 243:ThirdParty/STM32F4xx_HAL_Driver/Src/stm32f4xx_hal_rcc.c ****   {
 244:ThirdParty/STM32F4xx_HAL_Driver/Src/stm32f4xx_hal_rcc.c ****     return HAL_ERROR;
 245:ThirdParty/STM32F4xx_HAL_Driver/Src/stm32f4xx_hal_rcc.c ****   }
 246:ThirdParty/STM32F4xx_HAL_Driver/Src/stm32f4xx_hal_rcc.c **** 
 247:ThirdParty/STM32F4xx_HAL_Driver/Src/stm32f4xx_hal_rcc.c ****   /* Check the parameters */
 248:ThirdParty/STM32F4xx_HAL_Driver/Src/stm32f4xx_hal_rcc.c ****   assert_param(IS_RCC_OSCILLATORTYPE(RCC_OscInitStruct->OscillatorType));
  72              		.loc 1 248 3 is_stmt 1 view .LVU8
 249:ThirdParty/STM32F4xx_HAL_Driver/Src/stm32f4xx_hal_rcc.c ****   /*------------------------------- HSE Configuration ------------------------*/
 250:ThirdParty/STM32F4xx_HAL_Driver/Src/stm32f4xx_hal_rcc.c ****   if(((RCC_OscInitStruct->OscillatorType) & RCC_OSCILLATORTYPE_HSE) == RCC_OSCILLATORTYPE_HSE)
  73              		.loc 1 250 3 view .LVU9
  74              		.loc 1 250 25 is_stmt 0 view .LVU10
  75 000c 0368     		ldr	r3, [r0]
  76              		.loc 1 250 5 view .LVU11
  77 000e 13F0010F 		tst	r3, #1
  78 0012 3BD0     		beq	.L4
 251:ThirdParty/STM32F4xx_HAL_Driver/Src/stm32f4xx_hal_rcc.c ****   {
 252:ThirdParty/STM32F4xx_HAL_Driver/Src/stm32f4xx_hal_rcc.c ****     /* Check the parameters */
 253:ThirdParty/STM32F4xx_HAL_Driver/Src/stm32f4xx_hal_rcc.c ****     assert_param(IS_RCC_HSE(RCC_OscInitStruct->HSEState));
  79              		.loc 1 253 5 is_stmt 1 view .LVU12
 254:ThirdParty/STM32F4xx_HAL_Driver/Src/stm32f4xx_hal_rcc.c ****     /* When the HSE is used as system clock or clock source for PLL in these cases HSE will not dis
 255:ThirdParty/STM32F4xx_HAL_Driver/Src/stm32f4xx_hal_rcc.c ****     if((__HAL_RCC_GET_SYSCLK_SOURCE() == RCC_CFGR_SWS_HSE) ||\
  80              		.loc 1 255 5 view .LVU13
  81              		.loc 1 255 9 is_stmt 0 view .LVU14
  82 0014 9F4B     		ldr	r3, .L87
  83 0016 9B68     		ldr	r3, [r3, #8]
  84 0018 03F00C03 		and	r3, r3, #12
  85              		.loc 1 255 7 view .LVU15
  86 001c 042B     		cmp	r3, #4
  87 001e 2CD0     		beq	.L5
 256:ThirdParty/STM32F4xx_HAL_Driver/Src/stm32f4xx_hal_rcc.c ****       ((__HAL_RCC_GET_SYSCLK_SOURCE() == RCC_CFGR_SWS_PLL) && ((RCC->PLLCFGR & RCC_PLLCFGR_PLLSRC) 
  88              		.loc 1 256 9 discriminator 1 view .LVU16
ARM GAS  /tmp/ccCyRDhy.s 			page 7


  89 0020 9C4B     		ldr	r3, .L87
  90 0022 9B68     		ldr	r3, [r3, #8]
  91 0024 03F00C03 		and	r3, r3, #12
 255:ThirdParty/STM32F4xx_HAL_Driver/Src/stm32f4xx_hal_rcc.c ****       ((__HAL_RCC_GET_SYSCLK_SOURCE() == RCC_CFGR_SWS_PLL) && ((RCC->PLLCFGR & RCC_PLLCFGR_PLLSRC) 
  92              		.loc 1 255 60 discriminator 1 view .LVU17
  93 0028 082B     		cmp	r3, #8
  94 002a 21D0     		beq	.L73
  95              	.L6:
 257:ThirdParty/STM32F4xx_HAL_Driver/Src/stm32f4xx_hal_rcc.c ****     {
 258:ThirdParty/STM32F4xx_HAL_Driver/Src/stm32f4xx_hal_rcc.c ****       if((__HAL_RCC_GET_FLAG(RCC_FLAG_HSERDY) != RESET) && (RCC_OscInitStruct->HSEState == RCC_HSE_
 259:ThirdParty/STM32F4xx_HAL_Driver/Src/stm32f4xx_hal_rcc.c ****       {
 260:ThirdParty/STM32F4xx_HAL_Driver/Src/stm32f4xx_hal_rcc.c ****         return HAL_ERROR;
 261:ThirdParty/STM32F4xx_HAL_Driver/Src/stm32f4xx_hal_rcc.c ****       }
 262:ThirdParty/STM32F4xx_HAL_Driver/Src/stm32f4xx_hal_rcc.c ****     }
 263:ThirdParty/STM32F4xx_HAL_Driver/Src/stm32f4xx_hal_rcc.c ****     else
 264:ThirdParty/STM32F4xx_HAL_Driver/Src/stm32f4xx_hal_rcc.c ****     {
 265:ThirdParty/STM32F4xx_HAL_Driver/Src/stm32f4xx_hal_rcc.c ****       /* Set the new HSE configuration ---------------------------------------*/
 266:ThirdParty/STM32F4xx_HAL_Driver/Src/stm32f4xx_hal_rcc.c ****       __HAL_RCC_HSE_CONFIG(RCC_OscInitStruct->HSEState);
  96              		.loc 1 266 7 is_stmt 1 view .LVU18
  97              		.loc 1 266 7 view .LVU19
  98 002c 6368     		ldr	r3, [r4, #4]
  99 002e B3F5803F 		cmp	r3, #65536
 100 0032 4FD0     		beq	.L74
 101              		.loc 1 266 7 discriminator 2 view .LVU20
 102 0034 B3F5A02F 		cmp	r3, #327680
 103 0038 52D0     		beq	.L75
 104              		.loc 1 266 7 discriminator 5 view .LVU21
 105 003a 964B     		ldr	r3, .L87
 106 003c 1A68     		ldr	r2, [r3]
 107 003e 22F48032 		bic	r2, r2, #65536
 108 0042 1A60     		str	r2, [r3]
 109              		.loc 1 266 7 discriminator 5 view .LVU22
 110 0044 1A68     		ldr	r2, [r3]
 111 0046 22F48022 		bic	r2, r2, #262144
 112 004a 1A60     		str	r2, [r3]
 113              	.L8:
 114              		.loc 1 266 7 discriminator 7 view .LVU23
 267:ThirdParty/STM32F4xx_HAL_Driver/Src/stm32f4xx_hal_rcc.c **** 
 268:ThirdParty/STM32F4xx_HAL_Driver/Src/stm32f4xx_hal_rcc.c ****       /* Check the HSE State */
 269:ThirdParty/STM32F4xx_HAL_Driver/Src/stm32f4xx_hal_rcc.c ****       if((RCC_OscInitStruct->HSEState) != RCC_HSE_OFF)
 115              		.loc 1 269 7 discriminator 7 view .LVU24
 116              		.loc 1 269 28 is_stmt 0 discriminator 7 view .LVU25
 117 004c 6368     		ldr	r3, [r4, #4]
 118              		.loc 1 269 9 discriminator 7 view .LVU26
 119 004e 002B     		cmp	r3, #0
 120 0050 50D0     		beq	.L10
 270:ThirdParty/STM32F4xx_HAL_Driver/Src/stm32f4xx_hal_rcc.c ****       {
 271:ThirdParty/STM32F4xx_HAL_Driver/Src/stm32f4xx_hal_rcc.c ****         /* Get Start Tick */
 272:ThirdParty/STM32F4xx_HAL_Driver/Src/stm32f4xx_hal_rcc.c ****         tickstart = HAL_GetTick();
 121              		.loc 1 272 9 is_stmt 1 view .LVU27
 122              		.loc 1 272 21 is_stmt 0 view .LVU28
 123 0052 FFF7FEFF 		bl	HAL_GetTick
 124              	.LVL1:
 125              		.loc 1 272 21 view .LVU29
 126 0056 0546     		mov	r5, r0
 127              	.LVL2:
 273:ThirdParty/STM32F4xx_HAL_Driver/Src/stm32f4xx_hal_rcc.c **** 
ARM GAS  /tmp/ccCyRDhy.s 			page 8


 274:ThirdParty/STM32F4xx_HAL_Driver/Src/stm32f4xx_hal_rcc.c ****         /* Wait till HSE is ready */
 275:ThirdParty/STM32F4xx_HAL_Driver/Src/stm32f4xx_hal_rcc.c ****         while(__HAL_RCC_GET_FLAG(RCC_FLAG_HSERDY) == RESET)
 128              		.loc 1 275 9 is_stmt 1 view .LVU30
 129              	.L11:
 130              		.loc 1 275 14 view .LVU31
 131              		.loc 1 275 15 is_stmt 0 view .LVU32
 132 0058 8E4B     		ldr	r3, .L87
 133 005a 1B68     		ldr	r3, [r3]
 134              		.loc 1 275 14 view .LVU33
 135 005c 13F4003F 		tst	r3, #131072
 136 0060 14D1     		bne	.L4
 276:ThirdParty/STM32F4xx_HAL_Driver/Src/stm32f4xx_hal_rcc.c ****         {
 277:ThirdParty/STM32F4xx_HAL_Driver/Src/stm32f4xx_hal_rcc.c ****           if((HAL_GetTick() - tickstart ) > HSE_TIMEOUT_VALUE)
 137              		.loc 1 277 11 is_stmt 1 view .LVU34
 138              		.loc 1 277 15 is_stmt 0 view .LVU35
 139 0062 FFF7FEFF 		bl	HAL_GetTick
 140              	.LVL3:
 141              		.loc 1 277 29 view .LVU36
 142 0066 401B     		subs	r0, r0, r5
 143              		.loc 1 277 13 view .LVU37
 144 0068 6428     		cmp	r0, #100
 145 006a F5D9     		bls	.L11
 278:ThirdParty/STM32F4xx_HAL_Driver/Src/stm32f4xx_hal_rcc.c ****           {
 279:ThirdParty/STM32F4xx_HAL_Driver/Src/stm32f4xx_hal_rcc.c ****             return HAL_TIMEOUT;
 146              		.loc 1 279 20 view .LVU38
 147 006c 0320     		movs	r0, #3
 148 006e 8BE1     		b	.L3
 149              	.LVL4:
 150              	.L73:
 256:ThirdParty/STM32F4xx_HAL_Driver/Src/stm32f4xx_hal_rcc.c ****     {
 151              		.loc 1 256 68 view .LVU39
 152 0070 884B     		ldr	r3, .L87
 153 0072 5B68     		ldr	r3, [r3, #4]
 256:ThirdParty/STM32F4xx_HAL_Driver/Src/stm32f4xx_hal_rcc.c ****     {
 154              		.loc 1 256 60 view .LVU40
 155 0074 13F4800F 		tst	r3, #4194304
 156 0078 D8D0     		beq	.L6
 157              	.L5:
 258:ThirdParty/STM32F4xx_HAL_Driver/Src/stm32f4xx_hal_rcc.c ****       {
 158              		.loc 1 258 7 is_stmt 1 view .LVU41
 258:ThirdParty/STM32F4xx_HAL_Driver/Src/stm32f4xx_hal_rcc.c ****       {
 159              		.loc 1 258 11 is_stmt 0 view .LVU42
 160 007a 864B     		ldr	r3, .L87
 161 007c 1B68     		ldr	r3, [r3]
 258:ThirdParty/STM32F4xx_HAL_Driver/Src/stm32f4xx_hal_rcc.c ****       {
 162              		.loc 1 258 9 view .LVU43
 163 007e 13F4003F 		tst	r3, #131072
 164 0082 03D0     		beq	.L4
 258:ThirdParty/STM32F4xx_HAL_Driver/Src/stm32f4xx_hal_rcc.c ****       {
 165              		.loc 1 258 78 discriminator 1 view .LVU44
 166 0084 6368     		ldr	r3, [r4, #4]
 258:ThirdParty/STM32F4xx_HAL_Driver/Src/stm32f4xx_hal_rcc.c ****       {
 167              		.loc 1 258 57 discriminator 1 view .LVU45
 168 0086 002B     		cmp	r3, #0
 169 0088 00F07981 		beq	.L76
 170              	.LVL5:
 171              	.L4:
ARM GAS  /tmp/ccCyRDhy.s 			page 9


 280:ThirdParty/STM32F4xx_HAL_Driver/Src/stm32f4xx_hal_rcc.c ****           }
 281:ThirdParty/STM32F4xx_HAL_Driver/Src/stm32f4xx_hal_rcc.c ****         }
 282:ThirdParty/STM32F4xx_HAL_Driver/Src/stm32f4xx_hal_rcc.c ****       }
 283:ThirdParty/STM32F4xx_HAL_Driver/Src/stm32f4xx_hal_rcc.c ****       else
 284:ThirdParty/STM32F4xx_HAL_Driver/Src/stm32f4xx_hal_rcc.c ****       {
 285:ThirdParty/STM32F4xx_HAL_Driver/Src/stm32f4xx_hal_rcc.c ****         /* Get Start Tick */
 286:ThirdParty/STM32F4xx_HAL_Driver/Src/stm32f4xx_hal_rcc.c ****         tickstart = HAL_GetTick();
 287:ThirdParty/STM32F4xx_HAL_Driver/Src/stm32f4xx_hal_rcc.c **** 
 288:ThirdParty/STM32F4xx_HAL_Driver/Src/stm32f4xx_hal_rcc.c ****         /* Wait till HSE is bypassed or disabled */
 289:ThirdParty/STM32F4xx_HAL_Driver/Src/stm32f4xx_hal_rcc.c ****         while(__HAL_RCC_GET_FLAG(RCC_FLAG_HSERDY) != RESET)
 290:ThirdParty/STM32F4xx_HAL_Driver/Src/stm32f4xx_hal_rcc.c ****         {
 291:ThirdParty/STM32F4xx_HAL_Driver/Src/stm32f4xx_hal_rcc.c ****           if((HAL_GetTick() - tickstart ) > HSE_TIMEOUT_VALUE)
 292:ThirdParty/STM32F4xx_HAL_Driver/Src/stm32f4xx_hal_rcc.c ****           {
 293:ThirdParty/STM32F4xx_HAL_Driver/Src/stm32f4xx_hal_rcc.c ****             return HAL_TIMEOUT;
 294:ThirdParty/STM32F4xx_HAL_Driver/Src/stm32f4xx_hal_rcc.c ****           }
 295:ThirdParty/STM32F4xx_HAL_Driver/Src/stm32f4xx_hal_rcc.c ****         }
 296:ThirdParty/STM32F4xx_HAL_Driver/Src/stm32f4xx_hal_rcc.c ****       }
 297:ThirdParty/STM32F4xx_HAL_Driver/Src/stm32f4xx_hal_rcc.c ****     }
 298:ThirdParty/STM32F4xx_HAL_Driver/Src/stm32f4xx_hal_rcc.c ****   }
 299:ThirdParty/STM32F4xx_HAL_Driver/Src/stm32f4xx_hal_rcc.c ****   /*----------------------------- HSI Configuration --------------------------*/
 300:ThirdParty/STM32F4xx_HAL_Driver/Src/stm32f4xx_hal_rcc.c ****   if(((RCC_OscInitStruct->OscillatorType) & RCC_OSCILLATORTYPE_HSI) == RCC_OSCILLATORTYPE_HSI)
 172              		.loc 1 300 3 is_stmt 1 view .LVU46
 173              		.loc 1 300 25 is_stmt 0 view .LVU47
 174 008c 2368     		ldr	r3, [r4]
 175              		.loc 1 300 5 view .LVU48
 176 008e 13F0020F 		tst	r3, #2
 177 0092 54D0     		beq	.L15
 301:ThirdParty/STM32F4xx_HAL_Driver/Src/stm32f4xx_hal_rcc.c ****   {
 302:ThirdParty/STM32F4xx_HAL_Driver/Src/stm32f4xx_hal_rcc.c ****     /* Check the parameters */
 303:ThirdParty/STM32F4xx_HAL_Driver/Src/stm32f4xx_hal_rcc.c ****     assert_param(IS_RCC_HSI(RCC_OscInitStruct->HSIState));
 178              		.loc 1 303 5 is_stmt 1 view .LVU49
 304:ThirdParty/STM32F4xx_HAL_Driver/Src/stm32f4xx_hal_rcc.c ****     assert_param(IS_RCC_CALIBRATION_VALUE(RCC_OscInitStruct->HSICalibrationValue));
 179              		.loc 1 304 5 view .LVU50
 305:ThirdParty/STM32F4xx_HAL_Driver/Src/stm32f4xx_hal_rcc.c **** 
 306:ThirdParty/STM32F4xx_HAL_Driver/Src/stm32f4xx_hal_rcc.c ****     /* Check if HSI is used as system clock or as PLL source when PLL is selected as system clock *
 307:ThirdParty/STM32F4xx_HAL_Driver/Src/stm32f4xx_hal_rcc.c ****     if((__HAL_RCC_GET_SYSCLK_SOURCE() == RCC_CFGR_SWS_HSI) ||\
 180              		.loc 1 307 5 view .LVU51
 181              		.loc 1 307 9 is_stmt 0 view .LVU52
 182 0094 7F4B     		ldr	r3, .L87
 183 0096 9B68     		ldr	r3, [r3, #8]
 184              		.loc 1 307 7 view .LVU53
 185 0098 13F00C0F 		tst	r3, #12
 186 009c 3ED0     		beq	.L16
 308:ThirdParty/STM32F4xx_HAL_Driver/Src/stm32f4xx_hal_rcc.c ****       ((__HAL_RCC_GET_SYSCLK_SOURCE() == RCC_CFGR_SWS_PLL) && ((RCC->PLLCFGR & RCC_PLLCFGR_PLLSRC) 
 187              		.loc 1 308 9 discriminator 1 view .LVU54
 188 009e 7D4B     		ldr	r3, .L87
 189 00a0 9B68     		ldr	r3, [r3, #8]
 190 00a2 03F00C03 		and	r3, r3, #12
 307:ThirdParty/STM32F4xx_HAL_Driver/Src/stm32f4xx_hal_rcc.c ****       ((__HAL_RCC_GET_SYSCLK_SOURCE() == RCC_CFGR_SWS_PLL) && ((RCC->PLLCFGR & RCC_PLLCFGR_PLLSRC) 
 191              		.loc 1 307 60 discriminator 1 view .LVU55
 192 00a6 082B     		cmp	r3, #8
 193 00a8 33D0     		beq	.L77
 194              	.L17:
 309:ThirdParty/STM32F4xx_HAL_Driver/Src/stm32f4xx_hal_rcc.c ****     {
 310:ThirdParty/STM32F4xx_HAL_Driver/Src/stm32f4xx_hal_rcc.c ****       /* When HSI is used as system clock it will not disabled */
 311:ThirdParty/STM32F4xx_HAL_Driver/Src/stm32f4xx_hal_rcc.c ****       if((__HAL_RCC_GET_FLAG(RCC_FLAG_HSIRDY) != RESET) && (RCC_OscInitStruct->HSIState != RCC_HSI_
 312:ThirdParty/STM32F4xx_HAL_Driver/Src/stm32f4xx_hal_rcc.c ****       {
ARM GAS  /tmp/ccCyRDhy.s 			page 10


 313:ThirdParty/STM32F4xx_HAL_Driver/Src/stm32f4xx_hal_rcc.c ****         return HAL_ERROR;
 314:ThirdParty/STM32F4xx_HAL_Driver/Src/stm32f4xx_hal_rcc.c ****       }
 315:ThirdParty/STM32F4xx_HAL_Driver/Src/stm32f4xx_hal_rcc.c ****       /* Otherwise, just the calibration is allowed */
 316:ThirdParty/STM32F4xx_HAL_Driver/Src/stm32f4xx_hal_rcc.c ****       else
 317:ThirdParty/STM32F4xx_HAL_Driver/Src/stm32f4xx_hal_rcc.c ****       {
 318:ThirdParty/STM32F4xx_HAL_Driver/Src/stm32f4xx_hal_rcc.c ****         /* Adjusts the Internal High Speed oscillator (HSI) calibration value.*/
 319:ThirdParty/STM32F4xx_HAL_Driver/Src/stm32f4xx_hal_rcc.c ****         __HAL_RCC_HSI_CALIBRATIONVALUE_ADJUST(RCC_OscInitStruct->HSICalibrationValue);
 320:ThirdParty/STM32F4xx_HAL_Driver/Src/stm32f4xx_hal_rcc.c ****       }
 321:ThirdParty/STM32F4xx_HAL_Driver/Src/stm32f4xx_hal_rcc.c ****     }
 322:ThirdParty/STM32F4xx_HAL_Driver/Src/stm32f4xx_hal_rcc.c ****     else
 323:ThirdParty/STM32F4xx_HAL_Driver/Src/stm32f4xx_hal_rcc.c ****     {
 324:ThirdParty/STM32F4xx_HAL_Driver/Src/stm32f4xx_hal_rcc.c ****       /* Check the HSI State */
 325:ThirdParty/STM32F4xx_HAL_Driver/Src/stm32f4xx_hal_rcc.c ****       if((RCC_OscInitStruct->HSIState)!= RCC_HSI_OFF)
 195              		.loc 1 325 7 is_stmt 1 view .LVU56
 196              		.loc 1 325 28 is_stmt 0 view .LVU57
 197 00aa E368     		ldr	r3, [r4, #12]
 198              		.loc 1 325 9 view .LVU58
 199 00ac 002B     		cmp	r3, #0
 200 00ae 68D0     		beq	.L19
 326:ThirdParty/STM32F4xx_HAL_Driver/Src/stm32f4xx_hal_rcc.c ****       {
 327:ThirdParty/STM32F4xx_HAL_Driver/Src/stm32f4xx_hal_rcc.c ****         /* Enable the Internal High Speed oscillator (HSI). */
 328:ThirdParty/STM32F4xx_HAL_Driver/Src/stm32f4xx_hal_rcc.c ****         __HAL_RCC_HSI_ENABLE();
 201              		.loc 1 328 9 is_stmt 1 view .LVU59
 202 00b0 794B     		ldr	r3, .L87+4
 203 00b2 0122     		movs	r2, #1
 204 00b4 1A60     		str	r2, [r3]
 329:ThirdParty/STM32F4xx_HAL_Driver/Src/stm32f4xx_hal_rcc.c **** 
 330:ThirdParty/STM32F4xx_HAL_Driver/Src/stm32f4xx_hal_rcc.c ****         /* Get Start Tick*/
 331:ThirdParty/STM32F4xx_HAL_Driver/Src/stm32f4xx_hal_rcc.c ****         tickstart = HAL_GetTick();
 205              		.loc 1 331 9 view .LVU60
 206              		.loc 1 331 21 is_stmt 0 view .LVU61
 207 00b6 FFF7FEFF 		bl	HAL_GetTick
 208              	.LVL6:
 209 00ba 0546     		mov	r5, r0
 210              	.LVL7:
 332:ThirdParty/STM32F4xx_HAL_Driver/Src/stm32f4xx_hal_rcc.c **** 
 333:ThirdParty/STM32F4xx_HAL_Driver/Src/stm32f4xx_hal_rcc.c ****         /* Wait till HSI is ready */
 334:ThirdParty/STM32F4xx_HAL_Driver/Src/stm32f4xx_hal_rcc.c ****         while(__HAL_RCC_GET_FLAG(RCC_FLAG_HSIRDY) == RESET)
 211              		.loc 1 334 9 is_stmt 1 view .LVU62
 212              	.L20:
 213              		.loc 1 334 14 view .LVU63
 214              		.loc 1 334 15 is_stmt 0 view .LVU64
 215 00bc 754B     		ldr	r3, .L87
 216 00be 1B68     		ldr	r3, [r3]
 217              		.loc 1 334 14 view .LVU65
 218 00c0 13F0020F 		tst	r3, #2
 219 00c4 54D1     		bne	.L78
 335:ThirdParty/STM32F4xx_HAL_Driver/Src/stm32f4xx_hal_rcc.c ****         {
 336:ThirdParty/STM32F4xx_HAL_Driver/Src/stm32f4xx_hal_rcc.c ****           if((HAL_GetTick() - tickstart ) > HSI_TIMEOUT_VALUE)
 220              		.loc 1 336 11 is_stmt 1 view .LVU66
 221              		.loc 1 336 15 is_stmt 0 view .LVU67
 222 00c6 FFF7FEFF 		bl	HAL_GetTick
 223              	.LVL8:
 224              		.loc 1 336 29 view .LVU68
 225 00ca 401B     		subs	r0, r0, r5
 226              		.loc 1 336 13 view .LVU69
 227 00cc 0228     		cmp	r0, #2
ARM GAS  /tmp/ccCyRDhy.s 			page 11


 228 00ce F5D9     		bls	.L20
 337:ThirdParty/STM32F4xx_HAL_Driver/Src/stm32f4xx_hal_rcc.c ****           {
 338:ThirdParty/STM32F4xx_HAL_Driver/Src/stm32f4xx_hal_rcc.c ****             return HAL_TIMEOUT;
 229              		.loc 1 338 20 view .LVU70
 230 00d0 0320     		movs	r0, #3
 231 00d2 59E1     		b	.L3
 232              	.LVL9:
 233              	.L74:
 266:ThirdParty/STM32F4xx_HAL_Driver/Src/stm32f4xx_hal_rcc.c **** 
 234              		.loc 1 266 7 is_stmt 1 discriminator 1 view .LVU71
 235 00d4 6F4A     		ldr	r2, .L87
 236 00d6 1368     		ldr	r3, [r2]
 237 00d8 43F48033 		orr	r3, r3, #65536
 238 00dc 1360     		str	r3, [r2]
 239 00de B5E7     		b	.L8
 240              	.L75:
 266:ThirdParty/STM32F4xx_HAL_Driver/Src/stm32f4xx_hal_rcc.c **** 
 241              		.loc 1 266 7 discriminator 4 view .LVU72
 242 00e0 6C4B     		ldr	r3, .L87
 243 00e2 1A68     		ldr	r2, [r3]
 244 00e4 42F48022 		orr	r2, r2, #262144
 245 00e8 1A60     		str	r2, [r3]
 266:ThirdParty/STM32F4xx_HAL_Driver/Src/stm32f4xx_hal_rcc.c **** 
 246              		.loc 1 266 7 discriminator 4 view .LVU73
 247 00ea 1A68     		ldr	r2, [r3]
 248 00ec 42F48032 		orr	r2, r2, #65536
 249 00f0 1A60     		str	r2, [r3]
 250 00f2 ABE7     		b	.L8
 251              	.L10:
 286:ThirdParty/STM32F4xx_HAL_Driver/Src/stm32f4xx_hal_rcc.c **** 
 252              		.loc 1 286 9 view .LVU74
 286:ThirdParty/STM32F4xx_HAL_Driver/Src/stm32f4xx_hal_rcc.c **** 
 253              		.loc 1 286 21 is_stmt 0 view .LVU75
 254 00f4 FFF7FEFF 		bl	HAL_GetTick
 255              	.LVL10:
 286:ThirdParty/STM32F4xx_HAL_Driver/Src/stm32f4xx_hal_rcc.c **** 
 256              		.loc 1 286 21 view .LVU76
 257 00f8 0546     		mov	r5, r0
 258              	.LVL11:
 289:ThirdParty/STM32F4xx_HAL_Driver/Src/stm32f4xx_hal_rcc.c ****         {
 259              		.loc 1 289 9 is_stmt 1 view .LVU77
 260              	.L13:
 289:ThirdParty/STM32F4xx_HAL_Driver/Src/stm32f4xx_hal_rcc.c ****         {
 261              		.loc 1 289 14 view .LVU78
 289:ThirdParty/STM32F4xx_HAL_Driver/Src/stm32f4xx_hal_rcc.c ****         {
 262              		.loc 1 289 15 is_stmt 0 view .LVU79
 263 00fa 664B     		ldr	r3, .L87
 264 00fc 1B68     		ldr	r3, [r3]
 289:ThirdParty/STM32F4xx_HAL_Driver/Src/stm32f4xx_hal_rcc.c ****         {
 265              		.loc 1 289 14 view .LVU80
 266 00fe 13F4003F 		tst	r3, #131072
 267 0102 C3D0     		beq	.L4
 291:ThirdParty/STM32F4xx_HAL_Driver/Src/stm32f4xx_hal_rcc.c ****           {
 268              		.loc 1 291 11 is_stmt 1 view .LVU81
 291:ThirdParty/STM32F4xx_HAL_Driver/Src/stm32f4xx_hal_rcc.c ****           {
 269              		.loc 1 291 15 is_stmt 0 view .LVU82
 270 0104 FFF7FEFF 		bl	HAL_GetTick
ARM GAS  /tmp/ccCyRDhy.s 			page 12


 271              	.LVL12:
 291:ThirdParty/STM32F4xx_HAL_Driver/Src/stm32f4xx_hal_rcc.c ****           {
 272              		.loc 1 291 29 view .LVU83
 273 0108 401B     		subs	r0, r0, r5
 291:ThirdParty/STM32F4xx_HAL_Driver/Src/stm32f4xx_hal_rcc.c ****           {
 274              		.loc 1 291 13 view .LVU84
 275 010a 6428     		cmp	r0, #100
 276 010c F5D9     		bls	.L13
 293:ThirdParty/STM32F4xx_HAL_Driver/Src/stm32f4xx_hal_rcc.c ****           }
 277              		.loc 1 293 20 view .LVU85
 278 010e 0320     		movs	r0, #3
 279 0110 3AE1     		b	.L3
 280              	.LVL13:
 281              	.L77:
 308:ThirdParty/STM32F4xx_HAL_Driver/Src/stm32f4xx_hal_rcc.c ****     {
 282              		.loc 1 308 68 view .LVU86
 283 0112 604B     		ldr	r3, .L87
 284 0114 5B68     		ldr	r3, [r3, #4]
 308:ThirdParty/STM32F4xx_HAL_Driver/Src/stm32f4xx_hal_rcc.c ****     {
 285              		.loc 1 308 60 view .LVU87
 286 0116 13F4800F 		tst	r3, #4194304
 287 011a C6D1     		bne	.L17
 288              	.L16:
 311:ThirdParty/STM32F4xx_HAL_Driver/Src/stm32f4xx_hal_rcc.c ****       {
 289              		.loc 1 311 7 is_stmt 1 view .LVU88
 311:ThirdParty/STM32F4xx_HAL_Driver/Src/stm32f4xx_hal_rcc.c ****       {
 290              		.loc 1 311 11 is_stmt 0 view .LVU89
 291 011c 5D4B     		ldr	r3, .L87
 292 011e 1B68     		ldr	r3, [r3]
 311:ThirdParty/STM32F4xx_HAL_Driver/Src/stm32f4xx_hal_rcc.c ****       {
 293              		.loc 1 311 9 view .LVU90
 294 0120 13F0020F 		tst	r3, #2
 295 0124 03D0     		beq	.L18
 311:ThirdParty/STM32F4xx_HAL_Driver/Src/stm32f4xx_hal_rcc.c ****       {
 296              		.loc 1 311 78 discriminator 1 view .LVU91
 297 0126 E368     		ldr	r3, [r4, #12]
 311:ThirdParty/STM32F4xx_HAL_Driver/Src/stm32f4xx_hal_rcc.c ****       {
 298              		.loc 1 311 57 discriminator 1 view .LVU92
 299 0128 012B     		cmp	r3, #1
 300 012a 40F02A81 		bne	.L55
 301              	.L18:
 319:ThirdParty/STM32F4xx_HAL_Driver/Src/stm32f4xx_hal_rcc.c ****       }
 302              		.loc 1 319 9 is_stmt 1 view .LVU93
 303 012e 594A     		ldr	r2, .L87
 304 0130 1368     		ldr	r3, [r2]
 305 0132 23F0F803 		bic	r3, r3, #248
 306 0136 2169     		ldr	r1, [r4, #16]
 307 0138 43EAC103 		orr	r3, r3, r1, lsl #3
 308 013c 1360     		str	r3, [r2]
 309              	.L15:
 339:ThirdParty/STM32F4xx_HAL_Driver/Src/stm32f4xx_hal_rcc.c ****           }
 340:ThirdParty/STM32F4xx_HAL_Driver/Src/stm32f4xx_hal_rcc.c ****         }
 341:ThirdParty/STM32F4xx_HAL_Driver/Src/stm32f4xx_hal_rcc.c **** 
 342:ThirdParty/STM32F4xx_HAL_Driver/Src/stm32f4xx_hal_rcc.c ****         /* Adjusts the Internal High Speed oscillator (HSI) calibration value. */
 343:ThirdParty/STM32F4xx_HAL_Driver/Src/stm32f4xx_hal_rcc.c ****         __HAL_RCC_HSI_CALIBRATIONVALUE_ADJUST(RCC_OscInitStruct->HSICalibrationValue);
 344:ThirdParty/STM32F4xx_HAL_Driver/Src/stm32f4xx_hal_rcc.c ****       }
 345:ThirdParty/STM32F4xx_HAL_Driver/Src/stm32f4xx_hal_rcc.c ****       else
ARM GAS  /tmp/ccCyRDhy.s 			page 13


 346:ThirdParty/STM32F4xx_HAL_Driver/Src/stm32f4xx_hal_rcc.c ****       {
 347:ThirdParty/STM32F4xx_HAL_Driver/Src/stm32f4xx_hal_rcc.c ****         /* Disable the Internal High Speed oscillator (HSI). */
 348:ThirdParty/STM32F4xx_HAL_Driver/Src/stm32f4xx_hal_rcc.c ****         __HAL_RCC_HSI_DISABLE();
 349:ThirdParty/STM32F4xx_HAL_Driver/Src/stm32f4xx_hal_rcc.c **** 
 350:ThirdParty/STM32F4xx_HAL_Driver/Src/stm32f4xx_hal_rcc.c ****         /* Get Start Tick*/
 351:ThirdParty/STM32F4xx_HAL_Driver/Src/stm32f4xx_hal_rcc.c ****         tickstart = HAL_GetTick();
 352:ThirdParty/STM32F4xx_HAL_Driver/Src/stm32f4xx_hal_rcc.c **** 
 353:ThirdParty/STM32F4xx_HAL_Driver/Src/stm32f4xx_hal_rcc.c ****         /* Wait till HSI is ready */
 354:ThirdParty/STM32F4xx_HAL_Driver/Src/stm32f4xx_hal_rcc.c ****         while(__HAL_RCC_GET_FLAG(RCC_FLAG_HSIRDY) != RESET)
 355:ThirdParty/STM32F4xx_HAL_Driver/Src/stm32f4xx_hal_rcc.c ****         {
 356:ThirdParty/STM32F4xx_HAL_Driver/Src/stm32f4xx_hal_rcc.c ****           if((HAL_GetTick() - tickstart ) > HSI_TIMEOUT_VALUE)
 357:ThirdParty/STM32F4xx_HAL_Driver/Src/stm32f4xx_hal_rcc.c ****           {
 358:ThirdParty/STM32F4xx_HAL_Driver/Src/stm32f4xx_hal_rcc.c ****             return HAL_TIMEOUT;
 359:ThirdParty/STM32F4xx_HAL_Driver/Src/stm32f4xx_hal_rcc.c ****           }
 360:ThirdParty/STM32F4xx_HAL_Driver/Src/stm32f4xx_hal_rcc.c ****         }
 361:ThirdParty/STM32F4xx_HAL_Driver/Src/stm32f4xx_hal_rcc.c ****       }
 362:ThirdParty/STM32F4xx_HAL_Driver/Src/stm32f4xx_hal_rcc.c ****     }
 363:ThirdParty/STM32F4xx_HAL_Driver/Src/stm32f4xx_hal_rcc.c ****   }
 364:ThirdParty/STM32F4xx_HAL_Driver/Src/stm32f4xx_hal_rcc.c ****   /*------------------------------ LSI Configuration -------------------------*/
 365:ThirdParty/STM32F4xx_HAL_Driver/Src/stm32f4xx_hal_rcc.c ****   if(((RCC_OscInitStruct->OscillatorType) & RCC_OSCILLATORTYPE_LSI) == RCC_OSCILLATORTYPE_LSI)
 310              		.loc 1 365 3 view .LVU94
 311              		.loc 1 365 25 is_stmt 0 view .LVU95
 312 013e 2368     		ldr	r3, [r4]
 313              		.loc 1 365 5 view .LVU96
 314 0140 13F0080F 		tst	r3, #8
 315 0144 42D0     		beq	.L24
 366:ThirdParty/STM32F4xx_HAL_Driver/Src/stm32f4xx_hal_rcc.c ****   {
 367:ThirdParty/STM32F4xx_HAL_Driver/Src/stm32f4xx_hal_rcc.c ****     /* Check the parameters */
 368:ThirdParty/STM32F4xx_HAL_Driver/Src/stm32f4xx_hal_rcc.c ****     assert_param(IS_RCC_LSI(RCC_OscInitStruct->LSIState));
 316              		.loc 1 368 5 is_stmt 1 view .LVU97
 369:ThirdParty/STM32F4xx_HAL_Driver/Src/stm32f4xx_hal_rcc.c **** 
 370:ThirdParty/STM32F4xx_HAL_Driver/Src/stm32f4xx_hal_rcc.c ****     /* Check the LSI State */
 371:ThirdParty/STM32F4xx_HAL_Driver/Src/stm32f4xx_hal_rcc.c ****     if((RCC_OscInitStruct->LSIState)!= RCC_LSI_OFF)
 317              		.loc 1 371 5 view .LVU98
 318              		.loc 1 371 26 is_stmt 0 view .LVU99
 319 0146 6369     		ldr	r3, [r4, #20]
 320              		.loc 1 371 7 view .LVU100
 321 0148 6BB3     		cbz	r3, .L25
 372:ThirdParty/STM32F4xx_HAL_Driver/Src/stm32f4xx_hal_rcc.c ****     {
 373:ThirdParty/STM32F4xx_HAL_Driver/Src/stm32f4xx_hal_rcc.c ****       /* Enable the Internal Low Speed oscillator (LSI). */
 374:ThirdParty/STM32F4xx_HAL_Driver/Src/stm32f4xx_hal_rcc.c ****       __HAL_RCC_LSI_ENABLE();
 322              		.loc 1 374 7 is_stmt 1 view .LVU101
 323 014a 534B     		ldr	r3, .L87+4
 324 014c 0122     		movs	r2, #1
 325 014e C3F8802E 		str	r2, [r3, #3712]
 375:ThirdParty/STM32F4xx_HAL_Driver/Src/stm32f4xx_hal_rcc.c **** 
 376:ThirdParty/STM32F4xx_HAL_Driver/Src/stm32f4xx_hal_rcc.c ****       /* Get Start Tick*/
 377:ThirdParty/STM32F4xx_HAL_Driver/Src/stm32f4xx_hal_rcc.c ****       tickstart = HAL_GetTick();
 326              		.loc 1 377 7 view .LVU102
 327              		.loc 1 377 19 is_stmt 0 view .LVU103
 328 0152 FFF7FEFF 		bl	HAL_GetTick
 329              	.LVL14:
 330 0156 0546     		mov	r5, r0
 331              	.LVL15:
 378:ThirdParty/STM32F4xx_HAL_Driver/Src/stm32f4xx_hal_rcc.c **** 
 379:ThirdParty/STM32F4xx_HAL_Driver/Src/stm32f4xx_hal_rcc.c ****       /* Wait till LSI is ready */
 380:ThirdParty/STM32F4xx_HAL_Driver/Src/stm32f4xx_hal_rcc.c ****       while(__HAL_RCC_GET_FLAG(RCC_FLAG_LSIRDY) == RESET)
ARM GAS  /tmp/ccCyRDhy.s 			page 14


 332              		.loc 1 380 7 is_stmt 1 view .LVU104
 333              	.L26:
 334              		.loc 1 380 12 view .LVU105
 335              		.loc 1 380 13 is_stmt 0 view .LVU106
 336 0158 4E4B     		ldr	r3, .L87
 337 015a 5B6F     		ldr	r3, [r3, #116]
 338              		.loc 1 380 12 view .LVU107
 339 015c 13F0020F 		tst	r3, #2
 340 0160 34D1     		bne	.L24
 381:ThirdParty/STM32F4xx_HAL_Driver/Src/stm32f4xx_hal_rcc.c ****       {
 382:ThirdParty/STM32F4xx_HAL_Driver/Src/stm32f4xx_hal_rcc.c ****         if((HAL_GetTick() - tickstart ) > LSI_TIMEOUT_VALUE)
 341              		.loc 1 382 9 is_stmt 1 view .LVU108
 342              		.loc 1 382 13 is_stmt 0 view .LVU109
 343 0162 FFF7FEFF 		bl	HAL_GetTick
 344              	.LVL16:
 345              		.loc 1 382 27 view .LVU110
 346 0166 401B     		subs	r0, r0, r5
 347              		.loc 1 382 11 view .LVU111
 348 0168 0228     		cmp	r0, #2
 349 016a F5D9     		bls	.L26
 383:ThirdParty/STM32F4xx_HAL_Driver/Src/stm32f4xx_hal_rcc.c ****         {
 384:ThirdParty/STM32F4xx_HAL_Driver/Src/stm32f4xx_hal_rcc.c ****           return HAL_TIMEOUT;
 350              		.loc 1 384 18 view .LVU112
 351 016c 0320     		movs	r0, #3
 352 016e 0BE1     		b	.L3
 353              	.L78:
 343:ThirdParty/STM32F4xx_HAL_Driver/Src/stm32f4xx_hal_rcc.c ****       }
 354              		.loc 1 343 9 is_stmt 1 view .LVU113
 355 0170 484A     		ldr	r2, .L87
 356 0172 1368     		ldr	r3, [r2]
 357 0174 23F0F803 		bic	r3, r3, #248
 358 0178 2169     		ldr	r1, [r4, #16]
 359 017a 43EAC103 		orr	r3, r3, r1, lsl #3
 360 017e 1360     		str	r3, [r2]
 361 0180 DDE7     		b	.L15
 362              	.LVL17:
 363              	.L19:
 348:ThirdParty/STM32F4xx_HAL_Driver/Src/stm32f4xx_hal_rcc.c **** 
 364              		.loc 1 348 9 view .LVU114
 365 0182 454B     		ldr	r3, .L87+4
 366 0184 0022     		movs	r2, #0
 367 0186 1A60     		str	r2, [r3]
 351:ThirdParty/STM32F4xx_HAL_Driver/Src/stm32f4xx_hal_rcc.c **** 
 368              		.loc 1 351 9 view .LVU115
 351:ThirdParty/STM32F4xx_HAL_Driver/Src/stm32f4xx_hal_rcc.c **** 
 369              		.loc 1 351 21 is_stmt 0 view .LVU116
 370 0188 FFF7FEFF 		bl	HAL_GetTick
 371              	.LVL18:
 372 018c 0546     		mov	r5, r0
 373              	.LVL19:
 354:ThirdParty/STM32F4xx_HAL_Driver/Src/stm32f4xx_hal_rcc.c ****         {
 374              		.loc 1 354 9 is_stmt 1 view .LVU117
 375              	.L22:
 354:ThirdParty/STM32F4xx_HAL_Driver/Src/stm32f4xx_hal_rcc.c ****         {
 376              		.loc 1 354 14 view .LVU118
 354:ThirdParty/STM32F4xx_HAL_Driver/Src/stm32f4xx_hal_rcc.c ****         {
 377              		.loc 1 354 15 is_stmt 0 view .LVU119
ARM GAS  /tmp/ccCyRDhy.s 			page 15


 378 018e 414B     		ldr	r3, .L87
 379 0190 1B68     		ldr	r3, [r3]
 354:ThirdParty/STM32F4xx_HAL_Driver/Src/stm32f4xx_hal_rcc.c ****         {
 380              		.loc 1 354 14 view .LVU120
 381 0192 13F0020F 		tst	r3, #2
 382 0196 D2D0     		beq	.L15
 356:ThirdParty/STM32F4xx_HAL_Driver/Src/stm32f4xx_hal_rcc.c ****           {
 383              		.loc 1 356 11 is_stmt 1 view .LVU121
 356:ThirdParty/STM32F4xx_HAL_Driver/Src/stm32f4xx_hal_rcc.c ****           {
 384              		.loc 1 356 15 is_stmt 0 view .LVU122
 385 0198 FFF7FEFF 		bl	HAL_GetTick
 386              	.LVL20:
 356:ThirdParty/STM32F4xx_HAL_Driver/Src/stm32f4xx_hal_rcc.c ****           {
 387              		.loc 1 356 29 view .LVU123
 388 019c 401B     		subs	r0, r0, r5
 356:ThirdParty/STM32F4xx_HAL_Driver/Src/stm32f4xx_hal_rcc.c ****           {
 389              		.loc 1 356 13 view .LVU124
 390 019e 0228     		cmp	r0, #2
 391 01a0 F5D9     		bls	.L22
 358:ThirdParty/STM32F4xx_HAL_Driver/Src/stm32f4xx_hal_rcc.c ****           }
 392              		.loc 1 358 20 view .LVU125
 393 01a2 0320     		movs	r0, #3
 394 01a4 F0E0     		b	.L3
 395              	.LVL21:
 396              	.L25:
 385:ThirdParty/STM32F4xx_HAL_Driver/Src/stm32f4xx_hal_rcc.c ****         }
 386:ThirdParty/STM32F4xx_HAL_Driver/Src/stm32f4xx_hal_rcc.c ****       }
 387:ThirdParty/STM32F4xx_HAL_Driver/Src/stm32f4xx_hal_rcc.c ****     }
 388:ThirdParty/STM32F4xx_HAL_Driver/Src/stm32f4xx_hal_rcc.c ****     else
 389:ThirdParty/STM32F4xx_HAL_Driver/Src/stm32f4xx_hal_rcc.c ****     {
 390:ThirdParty/STM32F4xx_HAL_Driver/Src/stm32f4xx_hal_rcc.c ****       /* Disable the Internal Low Speed oscillator (LSI). */
 391:ThirdParty/STM32F4xx_HAL_Driver/Src/stm32f4xx_hal_rcc.c ****       __HAL_RCC_LSI_DISABLE();
 397              		.loc 1 391 7 is_stmt 1 view .LVU126
 398 01a6 3C4B     		ldr	r3, .L87+4
 399 01a8 0022     		movs	r2, #0
 400 01aa C3F8802E 		str	r2, [r3, #3712]
 392:ThirdParty/STM32F4xx_HAL_Driver/Src/stm32f4xx_hal_rcc.c **** 
 393:ThirdParty/STM32F4xx_HAL_Driver/Src/stm32f4xx_hal_rcc.c ****       /* Get Start Tick */
 394:ThirdParty/STM32F4xx_HAL_Driver/Src/stm32f4xx_hal_rcc.c ****       tickstart = HAL_GetTick();
 401              		.loc 1 394 7 view .LVU127
 402              		.loc 1 394 19 is_stmt 0 view .LVU128
 403 01ae FFF7FEFF 		bl	HAL_GetTick
 404              	.LVL22:
 405 01b2 0546     		mov	r5, r0
 406              	.LVL23:
 395:ThirdParty/STM32F4xx_HAL_Driver/Src/stm32f4xx_hal_rcc.c **** 
 396:ThirdParty/STM32F4xx_HAL_Driver/Src/stm32f4xx_hal_rcc.c ****       /* Wait till LSI is ready */
 397:ThirdParty/STM32F4xx_HAL_Driver/Src/stm32f4xx_hal_rcc.c ****       while(__HAL_RCC_GET_FLAG(RCC_FLAG_LSIRDY) != RESET)
 407              		.loc 1 397 7 is_stmt 1 view .LVU129
 408              	.L28:
 409              		.loc 1 397 12 view .LVU130
 410              		.loc 1 397 13 is_stmt 0 view .LVU131
 411 01b4 374B     		ldr	r3, .L87
 412 01b6 5B6F     		ldr	r3, [r3, #116]
 413              		.loc 1 397 12 view .LVU132
 414 01b8 13F0020F 		tst	r3, #2
 415 01bc 06D0     		beq	.L24
ARM GAS  /tmp/ccCyRDhy.s 			page 16


 398:ThirdParty/STM32F4xx_HAL_Driver/Src/stm32f4xx_hal_rcc.c ****       {
 399:ThirdParty/STM32F4xx_HAL_Driver/Src/stm32f4xx_hal_rcc.c ****         if((HAL_GetTick() - tickstart ) > LSI_TIMEOUT_VALUE)
 416              		.loc 1 399 9 is_stmt 1 view .LVU133
 417              		.loc 1 399 13 is_stmt 0 view .LVU134
 418 01be FFF7FEFF 		bl	HAL_GetTick
 419              	.LVL24:
 420              		.loc 1 399 27 view .LVU135
 421 01c2 401B     		subs	r0, r0, r5
 422              		.loc 1 399 11 view .LVU136
 423 01c4 0228     		cmp	r0, #2
 424 01c6 F5D9     		bls	.L28
 400:ThirdParty/STM32F4xx_HAL_Driver/Src/stm32f4xx_hal_rcc.c ****         {
 401:ThirdParty/STM32F4xx_HAL_Driver/Src/stm32f4xx_hal_rcc.c ****           return HAL_TIMEOUT;
 425              		.loc 1 401 18 view .LVU137
 426 01c8 0320     		movs	r0, #3
 427 01ca DDE0     		b	.L3
 428              	.LVL25:
 429              	.L24:
 402:ThirdParty/STM32F4xx_HAL_Driver/Src/stm32f4xx_hal_rcc.c ****         }
 403:ThirdParty/STM32F4xx_HAL_Driver/Src/stm32f4xx_hal_rcc.c ****       }
 404:ThirdParty/STM32F4xx_HAL_Driver/Src/stm32f4xx_hal_rcc.c ****     }
 405:ThirdParty/STM32F4xx_HAL_Driver/Src/stm32f4xx_hal_rcc.c ****   }
 406:ThirdParty/STM32F4xx_HAL_Driver/Src/stm32f4xx_hal_rcc.c ****   /*------------------------------ LSE Configuration -------------------------*/
 407:ThirdParty/STM32F4xx_HAL_Driver/Src/stm32f4xx_hal_rcc.c ****   if(((RCC_OscInitStruct->OscillatorType) & RCC_OSCILLATORTYPE_LSE) == RCC_OSCILLATORTYPE_LSE)
 430              		.loc 1 407 3 is_stmt 1 view .LVU138
 431              		.loc 1 407 25 is_stmt 0 view .LVU139
 432 01cc 2368     		ldr	r3, [r4]
 433              		.loc 1 407 5 view .LVU140
 434 01ce 13F0040F 		tst	r3, #4
 435 01d2 77D0     		beq	.L30
 436              	.LBB2:
 408:ThirdParty/STM32F4xx_HAL_Driver/Src/stm32f4xx_hal_rcc.c ****   {
 409:ThirdParty/STM32F4xx_HAL_Driver/Src/stm32f4xx_hal_rcc.c ****     FlagStatus       pwrclkchanged = RESET;
 437              		.loc 1 409 5 is_stmt 1 view .LVU141
 438              	.LVL26:
 410:ThirdParty/STM32F4xx_HAL_Driver/Src/stm32f4xx_hal_rcc.c **** 
 411:ThirdParty/STM32F4xx_HAL_Driver/Src/stm32f4xx_hal_rcc.c ****     /* Check the parameters */
 412:ThirdParty/STM32F4xx_HAL_Driver/Src/stm32f4xx_hal_rcc.c ****     assert_param(IS_RCC_LSE(RCC_OscInitStruct->LSEState));
 439              		.loc 1 412 5 view .LVU142
 413:ThirdParty/STM32F4xx_HAL_Driver/Src/stm32f4xx_hal_rcc.c **** 
 414:ThirdParty/STM32F4xx_HAL_Driver/Src/stm32f4xx_hal_rcc.c ****     /* Update LSE configuration in Backup Domain control register    */
 415:ThirdParty/STM32F4xx_HAL_Driver/Src/stm32f4xx_hal_rcc.c ****     /* Requires to enable write access to Backup Domain of necessary */
 416:ThirdParty/STM32F4xx_HAL_Driver/Src/stm32f4xx_hal_rcc.c ****     if(__HAL_RCC_PWR_IS_CLK_DISABLED())
 440              		.loc 1 416 5 view .LVU143
 441              		.loc 1 416 8 is_stmt 0 view .LVU144
 442 01d4 2F4B     		ldr	r3, .L87
 443 01d6 1B6C     		ldr	r3, [r3, #64]
 444              		.loc 1 416 7 view .LVU145
 445 01d8 13F0805F 		tst	r3, #268435456
 446 01dc 33D1     		bne	.L60
 417:ThirdParty/STM32F4xx_HAL_Driver/Src/stm32f4xx_hal_rcc.c ****     {
 418:ThirdParty/STM32F4xx_HAL_Driver/Src/stm32f4xx_hal_rcc.c ****       __HAL_RCC_PWR_CLK_ENABLE();
 447              		.loc 1 418 7 is_stmt 1 view .LVU146
 448              	.LBB3:
 449              		.loc 1 418 7 view .LVU147
 450 01de 0023     		movs	r3, #0
 451 01e0 0193     		str	r3, [sp, #4]
ARM GAS  /tmp/ccCyRDhy.s 			page 17


 452              		.loc 1 418 7 view .LVU148
 453 01e2 2C4B     		ldr	r3, .L87
 454 01e4 1A6C     		ldr	r2, [r3, #64]
 455 01e6 42F08052 		orr	r2, r2, #268435456
 456 01ea 1A64     		str	r2, [r3, #64]
 457              		.loc 1 418 7 view .LVU149
 458 01ec 1B6C     		ldr	r3, [r3, #64]
 459 01ee 03F08053 		and	r3, r3, #268435456
 460 01f2 0193     		str	r3, [sp, #4]
 461              		.loc 1 418 7 view .LVU150
 462 01f4 019B     		ldr	r3, [sp, #4]
 463              	.LBE3:
 464              		.loc 1 418 7 view .LVU151
 419:ThirdParty/STM32F4xx_HAL_Driver/Src/stm32f4xx_hal_rcc.c ****       pwrclkchanged = SET;
 465              		.loc 1 419 7 view .LVU152
 466              	.LVL27:
 467              		.loc 1 419 21 is_stmt 0 view .LVU153
 468 01f6 0125     		movs	r5, #1
 469              	.LVL28:
 470              	.L31:
 420:ThirdParty/STM32F4xx_HAL_Driver/Src/stm32f4xx_hal_rcc.c ****     }
 421:ThirdParty/STM32F4xx_HAL_Driver/Src/stm32f4xx_hal_rcc.c **** 
 422:ThirdParty/STM32F4xx_HAL_Driver/Src/stm32f4xx_hal_rcc.c ****     if(HAL_IS_BIT_CLR(PWR->CR, PWR_CR_DBP))
 471              		.loc 1 422 5 is_stmt 1 view .LVU154
 472              		.loc 1 422 8 is_stmt 0 view .LVU155
 473 01f8 284B     		ldr	r3, .L87+8
 474 01fa 1B68     		ldr	r3, [r3]
 475              		.loc 1 422 7 view .LVU156
 476 01fc 13F4807F 		tst	r3, #256
 477 0200 23D0     		beq	.L79
 478              	.L32:
 423:ThirdParty/STM32F4xx_HAL_Driver/Src/stm32f4xx_hal_rcc.c ****     {
 424:ThirdParty/STM32F4xx_HAL_Driver/Src/stm32f4xx_hal_rcc.c ****       /* Enable write access to Backup domain */
 425:ThirdParty/STM32F4xx_HAL_Driver/Src/stm32f4xx_hal_rcc.c ****       SET_BIT(PWR->CR, PWR_CR_DBP);
 426:ThirdParty/STM32F4xx_HAL_Driver/Src/stm32f4xx_hal_rcc.c **** 
 427:ThirdParty/STM32F4xx_HAL_Driver/Src/stm32f4xx_hal_rcc.c ****       /* Wait for Backup domain Write protection disable */
 428:ThirdParty/STM32F4xx_HAL_Driver/Src/stm32f4xx_hal_rcc.c ****       tickstart = HAL_GetTick();
 429:ThirdParty/STM32F4xx_HAL_Driver/Src/stm32f4xx_hal_rcc.c **** 
 430:ThirdParty/STM32F4xx_HAL_Driver/Src/stm32f4xx_hal_rcc.c ****       while(HAL_IS_BIT_CLR(PWR->CR, PWR_CR_DBP))
 431:ThirdParty/STM32F4xx_HAL_Driver/Src/stm32f4xx_hal_rcc.c ****       {
 432:ThirdParty/STM32F4xx_HAL_Driver/Src/stm32f4xx_hal_rcc.c ****         if((HAL_GetTick() - tickstart) > RCC_DBP_TIMEOUT_VALUE)
 433:ThirdParty/STM32F4xx_HAL_Driver/Src/stm32f4xx_hal_rcc.c ****         {
 434:ThirdParty/STM32F4xx_HAL_Driver/Src/stm32f4xx_hal_rcc.c ****           return HAL_TIMEOUT;
 435:ThirdParty/STM32F4xx_HAL_Driver/Src/stm32f4xx_hal_rcc.c ****         }
 436:ThirdParty/STM32F4xx_HAL_Driver/Src/stm32f4xx_hal_rcc.c ****       }
 437:ThirdParty/STM32F4xx_HAL_Driver/Src/stm32f4xx_hal_rcc.c ****     }
 438:ThirdParty/STM32F4xx_HAL_Driver/Src/stm32f4xx_hal_rcc.c **** 
 439:ThirdParty/STM32F4xx_HAL_Driver/Src/stm32f4xx_hal_rcc.c ****     /* Set the new LSE configuration -----------------------------------------*/
 440:ThirdParty/STM32F4xx_HAL_Driver/Src/stm32f4xx_hal_rcc.c ****     __HAL_RCC_LSE_CONFIG(RCC_OscInitStruct->LSEState);
 479              		.loc 1 440 5 is_stmt 1 view .LVU157
 480              		.loc 1 440 5 view .LVU158
 481 0202 A368     		ldr	r3, [r4, #8]
 482 0204 012B     		cmp	r3, #1
 483 0206 34D0     		beq	.L80
 484              		.loc 1 440 5 discriminator 2 view .LVU159
 485 0208 052B     		cmp	r3, #5
 486 020a 38D0     		beq	.L81
ARM GAS  /tmp/ccCyRDhy.s 			page 18


 487              		.loc 1 440 5 discriminator 5 view .LVU160
 488 020c 214B     		ldr	r3, .L87
 489 020e 1A6F     		ldr	r2, [r3, #112]
 490 0210 22F00102 		bic	r2, r2, #1
 491 0214 1A67     		str	r2, [r3, #112]
 492              		.loc 1 440 5 discriminator 5 view .LVU161
 493 0216 1A6F     		ldr	r2, [r3, #112]
 494 0218 22F00402 		bic	r2, r2, #4
 495 021c 1A67     		str	r2, [r3, #112]
 496              	.L36:
 497              		.loc 1 440 5 discriminator 7 view .LVU162
 441:ThirdParty/STM32F4xx_HAL_Driver/Src/stm32f4xx_hal_rcc.c ****     /* Check the LSE State */
 442:ThirdParty/STM32F4xx_HAL_Driver/Src/stm32f4xx_hal_rcc.c ****     if((RCC_OscInitStruct->LSEState) != RCC_LSE_OFF)
 498              		.loc 1 442 5 discriminator 7 view .LVU163
 499              		.loc 1 442 26 is_stmt 0 discriminator 7 view .LVU164
 500 021e A368     		ldr	r3, [r4, #8]
 501              		.loc 1 442 7 discriminator 7 view .LVU165
 502 0220 002B     		cmp	r3, #0
 503 0222 3DD0     		beq	.L38
 443:ThirdParty/STM32F4xx_HAL_Driver/Src/stm32f4xx_hal_rcc.c ****     {
 444:ThirdParty/STM32F4xx_HAL_Driver/Src/stm32f4xx_hal_rcc.c ****       /* Get Start Tick*/
 445:ThirdParty/STM32F4xx_HAL_Driver/Src/stm32f4xx_hal_rcc.c ****       tickstart = HAL_GetTick();
 504              		.loc 1 445 7 is_stmt 1 view .LVU166
 505              		.loc 1 445 19 is_stmt 0 view .LVU167
 506 0224 FFF7FEFF 		bl	HAL_GetTick
 507              	.LVL29:
 508 0228 0646     		mov	r6, r0
 509              	.LVL30:
 446:ThirdParty/STM32F4xx_HAL_Driver/Src/stm32f4xx_hal_rcc.c **** 
 447:ThirdParty/STM32F4xx_HAL_Driver/Src/stm32f4xx_hal_rcc.c ****       /* Wait till LSE is ready */
 448:ThirdParty/STM32F4xx_HAL_Driver/Src/stm32f4xx_hal_rcc.c ****       while(__HAL_RCC_GET_FLAG(RCC_FLAG_LSERDY) == RESET)
 510              		.loc 1 448 7 is_stmt 1 view .LVU168
 511              	.L39:
 512              		.loc 1 448 12 view .LVU169
 513              		.loc 1 448 13 is_stmt 0 view .LVU170
 514 022a 1A4B     		ldr	r3, .L87
 515 022c 1B6F     		ldr	r3, [r3, #112]
 516              		.loc 1 448 12 view .LVU171
 517 022e 13F0020F 		tst	r3, #2
 518 0232 46D1     		bne	.L41
 449:ThirdParty/STM32F4xx_HAL_Driver/Src/stm32f4xx_hal_rcc.c ****       {
 450:ThirdParty/STM32F4xx_HAL_Driver/Src/stm32f4xx_hal_rcc.c ****         if((HAL_GetTick() - tickstart ) > RCC_LSE_TIMEOUT_VALUE)
 519              		.loc 1 450 9 is_stmt 1 view .LVU172
 520              		.loc 1 450 13 is_stmt 0 view .LVU173
 521 0234 FFF7FEFF 		bl	HAL_GetTick
 522              	.LVL31:
 523              		.loc 1 450 27 view .LVU174
 524 0238 801B     		subs	r0, r0, r6
 525              		.loc 1 450 11 view .LVU175
 526 023a 41F28833 		movw	r3, #5000
 527 023e 9842     		cmp	r0, r3
 528 0240 F3D9     		bls	.L39
 451:ThirdParty/STM32F4xx_HAL_Driver/Src/stm32f4xx_hal_rcc.c ****         {
 452:ThirdParty/STM32F4xx_HAL_Driver/Src/stm32f4xx_hal_rcc.c ****           return HAL_TIMEOUT;
 529              		.loc 1 452 18 view .LVU176
 530 0242 0320     		movs	r0, #3
 531 0244 A0E0     		b	.L3
ARM GAS  /tmp/ccCyRDhy.s 			page 19


 532              	.LVL32:
 533              	.L60:
 409:ThirdParty/STM32F4xx_HAL_Driver/Src/stm32f4xx_hal_rcc.c **** 
 534              		.loc 1 409 22 view .LVU177
 535 0246 0025     		movs	r5, #0
 536 0248 D6E7     		b	.L31
 537              	.LVL33:
 538              	.L79:
 425:ThirdParty/STM32F4xx_HAL_Driver/Src/stm32f4xx_hal_rcc.c **** 
 539              		.loc 1 425 7 is_stmt 1 view .LVU178
 540 024a 144A     		ldr	r2, .L87+8
 541 024c 1368     		ldr	r3, [r2]
 542 024e 43F48073 		orr	r3, r3, #256
 543 0252 1360     		str	r3, [r2]
 428:ThirdParty/STM32F4xx_HAL_Driver/Src/stm32f4xx_hal_rcc.c **** 
 544              		.loc 1 428 7 view .LVU179
 428:ThirdParty/STM32F4xx_HAL_Driver/Src/stm32f4xx_hal_rcc.c **** 
 545              		.loc 1 428 19 is_stmt 0 view .LVU180
 546 0254 FFF7FEFF 		bl	HAL_GetTick
 547              	.LVL34:
 548 0258 0646     		mov	r6, r0
 549              	.LVL35:
 430:ThirdParty/STM32F4xx_HAL_Driver/Src/stm32f4xx_hal_rcc.c ****       {
 550              		.loc 1 430 7 is_stmt 1 view .LVU181
 551              	.L33:
 430:ThirdParty/STM32F4xx_HAL_Driver/Src/stm32f4xx_hal_rcc.c ****       {
 552              		.loc 1 430 12 view .LVU182
 430:ThirdParty/STM32F4xx_HAL_Driver/Src/stm32f4xx_hal_rcc.c ****       {
 553              		.loc 1 430 13 is_stmt 0 view .LVU183
 554 025a 104B     		ldr	r3, .L87+8
 555 025c 1B68     		ldr	r3, [r3]
 430:ThirdParty/STM32F4xx_HAL_Driver/Src/stm32f4xx_hal_rcc.c ****       {
 556              		.loc 1 430 12 view .LVU184
 557 025e 13F4807F 		tst	r3, #256
 558 0262 CED1     		bne	.L32
 432:ThirdParty/STM32F4xx_HAL_Driver/Src/stm32f4xx_hal_rcc.c ****         {
 559              		.loc 1 432 9 is_stmt 1 view .LVU185
 432:ThirdParty/STM32F4xx_HAL_Driver/Src/stm32f4xx_hal_rcc.c ****         {
 560              		.loc 1 432 13 is_stmt 0 view .LVU186
 561 0264 FFF7FEFF 		bl	HAL_GetTick
 562              	.LVL36:
 432:ThirdParty/STM32F4xx_HAL_Driver/Src/stm32f4xx_hal_rcc.c ****         {
 563              		.loc 1 432 27 view .LVU187
 564 0268 801B     		subs	r0, r0, r6
 432:ThirdParty/STM32F4xx_HAL_Driver/Src/stm32f4xx_hal_rcc.c ****         {
 565              		.loc 1 432 11 view .LVU188
 566 026a 0228     		cmp	r0, #2
 567 026c F5D9     		bls	.L33
 434:ThirdParty/STM32F4xx_HAL_Driver/Src/stm32f4xx_hal_rcc.c ****         }
 568              		.loc 1 434 18 view .LVU189
 569 026e 0320     		movs	r0, #3
 570 0270 8AE0     		b	.L3
 571              	.LVL37:
 572              	.L80:
 440:ThirdParty/STM32F4xx_HAL_Driver/Src/stm32f4xx_hal_rcc.c ****     /* Check the LSE State */
 573              		.loc 1 440 5 is_stmt 1 discriminator 1 view .LVU190
 574 0272 084A     		ldr	r2, .L87
ARM GAS  /tmp/ccCyRDhy.s 			page 20


 575 0274 136F     		ldr	r3, [r2, #112]
 576 0276 43F00103 		orr	r3, r3, #1
 577 027a 1367     		str	r3, [r2, #112]
 578 027c CFE7     		b	.L36
 579              	.L81:
 440:ThirdParty/STM32F4xx_HAL_Driver/Src/stm32f4xx_hal_rcc.c ****     /* Check the LSE State */
 580              		.loc 1 440 5 discriminator 4 view .LVU191
 581 027e 054B     		ldr	r3, .L87
 582 0280 1A6F     		ldr	r2, [r3, #112]
 583 0282 42F00402 		orr	r2, r2, #4
 584 0286 1A67     		str	r2, [r3, #112]
 440:ThirdParty/STM32F4xx_HAL_Driver/Src/stm32f4xx_hal_rcc.c ****     /* Check the LSE State */
 585              		.loc 1 440 5 discriminator 4 view .LVU192
 586 0288 1A6F     		ldr	r2, [r3, #112]
 587 028a 42F00102 		orr	r2, r2, #1
 588 028e 1A67     		str	r2, [r3, #112]
 589 0290 C5E7     		b	.L36
 590              	.L88:
 591 0292 00BF     		.align	2
 592              	.L87:
 593 0294 00380240 		.word	1073887232
 594 0298 00004742 		.word	1111949312
 595 029c 00700040 		.word	1073770496
 596              	.L38:
 453:ThirdParty/STM32F4xx_HAL_Driver/Src/stm32f4xx_hal_rcc.c ****         }
 454:ThirdParty/STM32F4xx_HAL_Driver/Src/stm32f4xx_hal_rcc.c ****       }
 455:ThirdParty/STM32F4xx_HAL_Driver/Src/stm32f4xx_hal_rcc.c ****     }
 456:ThirdParty/STM32F4xx_HAL_Driver/Src/stm32f4xx_hal_rcc.c ****     else
 457:ThirdParty/STM32F4xx_HAL_Driver/Src/stm32f4xx_hal_rcc.c ****     {
 458:ThirdParty/STM32F4xx_HAL_Driver/Src/stm32f4xx_hal_rcc.c ****       /* Get Start Tick */
 459:ThirdParty/STM32F4xx_HAL_Driver/Src/stm32f4xx_hal_rcc.c ****       tickstart = HAL_GetTick();
 597              		.loc 1 459 7 view .LVU193
 598              		.loc 1 459 19 is_stmt 0 view .LVU194
 599 02a0 FFF7FEFF 		bl	HAL_GetTick
 600              	.LVL38:
 601 02a4 0646     		mov	r6, r0
 602              	.LVL39:
 460:ThirdParty/STM32F4xx_HAL_Driver/Src/stm32f4xx_hal_rcc.c **** 
 461:ThirdParty/STM32F4xx_HAL_Driver/Src/stm32f4xx_hal_rcc.c ****       /* Wait till LSE is ready */
 462:ThirdParty/STM32F4xx_HAL_Driver/Src/stm32f4xx_hal_rcc.c ****       while(__HAL_RCC_GET_FLAG(RCC_FLAG_LSERDY) != RESET)
 603              		.loc 1 462 7 is_stmt 1 view .LVU195
 604              	.L42:
 605              		.loc 1 462 12 view .LVU196
 606              		.loc 1 462 13 is_stmt 0 view .LVU197
 607 02a6 3A4B     		ldr	r3, .L89
 608 02a8 1B6F     		ldr	r3, [r3, #112]
 609              		.loc 1 462 12 view .LVU198
 610 02aa 13F0020F 		tst	r3, #2
 611 02ae 08D0     		beq	.L41
 463:ThirdParty/STM32F4xx_HAL_Driver/Src/stm32f4xx_hal_rcc.c ****       {
 464:ThirdParty/STM32F4xx_HAL_Driver/Src/stm32f4xx_hal_rcc.c ****         if((HAL_GetTick() - tickstart ) > RCC_LSE_TIMEOUT_VALUE)
 612              		.loc 1 464 9 is_stmt 1 view .LVU199
 613              		.loc 1 464 13 is_stmt 0 view .LVU200
 614 02b0 FFF7FEFF 		bl	HAL_GetTick
 615              	.LVL40:
 616              		.loc 1 464 27 view .LVU201
 617 02b4 801B     		subs	r0, r0, r6
ARM GAS  /tmp/ccCyRDhy.s 			page 21


 618              		.loc 1 464 11 view .LVU202
 619 02b6 41F28833 		movw	r3, #5000
 620 02ba 9842     		cmp	r0, r3
 621 02bc F3D9     		bls	.L42
 465:ThirdParty/STM32F4xx_HAL_Driver/Src/stm32f4xx_hal_rcc.c ****         {
 466:ThirdParty/STM32F4xx_HAL_Driver/Src/stm32f4xx_hal_rcc.c ****           return HAL_TIMEOUT;
 622              		.loc 1 466 18 view .LVU203
 623 02be 0320     		movs	r0, #3
 624 02c0 62E0     		b	.L3
 625              	.L41:
 467:ThirdParty/STM32F4xx_HAL_Driver/Src/stm32f4xx_hal_rcc.c ****         }
 468:ThirdParty/STM32F4xx_HAL_Driver/Src/stm32f4xx_hal_rcc.c ****       }
 469:ThirdParty/STM32F4xx_HAL_Driver/Src/stm32f4xx_hal_rcc.c ****     }
 470:ThirdParty/STM32F4xx_HAL_Driver/Src/stm32f4xx_hal_rcc.c **** 
 471:ThirdParty/STM32F4xx_HAL_Driver/Src/stm32f4xx_hal_rcc.c ****     /* Restore clock configuration if changed */
 472:ThirdParty/STM32F4xx_HAL_Driver/Src/stm32f4xx_hal_rcc.c ****     if(pwrclkchanged == SET)
 626              		.loc 1 472 5 is_stmt 1 view .LVU204
 627              		.loc 1 472 7 is_stmt 0 view .LVU205
 628 02c2 E5B9     		cbnz	r5, .L82
 629              	.LVL41:
 630              	.L30:
 631              		.loc 1 472 7 view .LVU206
 632              	.LBE2:
 473:ThirdParty/STM32F4xx_HAL_Driver/Src/stm32f4xx_hal_rcc.c ****     {
 474:ThirdParty/STM32F4xx_HAL_Driver/Src/stm32f4xx_hal_rcc.c ****       __HAL_RCC_PWR_CLK_DISABLE();
 475:ThirdParty/STM32F4xx_HAL_Driver/Src/stm32f4xx_hal_rcc.c ****     }
 476:ThirdParty/STM32F4xx_HAL_Driver/Src/stm32f4xx_hal_rcc.c ****   }
 477:ThirdParty/STM32F4xx_HAL_Driver/Src/stm32f4xx_hal_rcc.c ****   /*-------------------------------- PLL Configuration -----------------------*/
 478:ThirdParty/STM32F4xx_HAL_Driver/Src/stm32f4xx_hal_rcc.c ****   /* Check the parameters */
 479:ThirdParty/STM32F4xx_HAL_Driver/Src/stm32f4xx_hal_rcc.c ****   assert_param(IS_RCC_PLL(RCC_OscInitStruct->PLL.PLLState));
 633              		.loc 1 479 3 is_stmt 1 view .LVU207
 480:ThirdParty/STM32F4xx_HAL_Driver/Src/stm32f4xx_hal_rcc.c ****   if ((RCC_OscInitStruct->PLL.PLLState) != RCC_PLL_NONE)
 634              		.loc 1 480 3 view .LVU208
 635              		.loc 1 480 30 is_stmt 0 view .LVU209
 636 02c4 A369     		ldr	r3, [r4, #24]
 637              		.loc 1 480 6 view .LVU210
 638 02c6 002B     		cmp	r3, #0
 639 02c8 5DD0     		beq	.L64
 481:ThirdParty/STM32F4xx_HAL_Driver/Src/stm32f4xx_hal_rcc.c ****   {
 482:ThirdParty/STM32F4xx_HAL_Driver/Src/stm32f4xx_hal_rcc.c ****     /* Check if the PLL is used as system clock or not */
 483:ThirdParty/STM32F4xx_HAL_Driver/Src/stm32f4xx_hal_rcc.c ****     if(__HAL_RCC_GET_SYSCLK_SOURCE() != RCC_CFGR_SWS_PLL)
 640              		.loc 1 483 5 is_stmt 1 view .LVU211
 641              		.loc 1 483 8 is_stmt 0 view .LVU212
 642 02ca 314A     		ldr	r2, .L89
 643 02cc 9268     		ldr	r2, [r2, #8]
 644 02ce 02F00C02 		and	r2, r2, #12
 645              		.loc 1 483 7 view .LVU213
 646 02d2 082A     		cmp	r2, #8
 647 02d4 5AD0     		beq	.L65
 484:ThirdParty/STM32F4xx_HAL_Driver/Src/stm32f4xx_hal_rcc.c ****     {
 485:ThirdParty/STM32F4xx_HAL_Driver/Src/stm32f4xx_hal_rcc.c ****       if((RCC_OscInitStruct->PLL.PLLState) == RCC_PLL_ON)
 648              		.loc 1 485 7 is_stmt 1 view .LVU214
 649              		.loc 1 485 9 is_stmt 0 view .LVU215
 650 02d6 022B     		cmp	r3, #2
 651 02d8 17D0     		beq	.L83
 486:ThirdParty/STM32F4xx_HAL_Driver/Src/stm32f4xx_hal_rcc.c ****       {
 487:ThirdParty/STM32F4xx_HAL_Driver/Src/stm32f4xx_hal_rcc.c ****         /* Check the parameters */
ARM GAS  /tmp/ccCyRDhy.s 			page 22


 488:ThirdParty/STM32F4xx_HAL_Driver/Src/stm32f4xx_hal_rcc.c ****         assert_param(IS_RCC_PLLSOURCE(RCC_OscInitStruct->PLL.PLLSource));
 489:ThirdParty/STM32F4xx_HAL_Driver/Src/stm32f4xx_hal_rcc.c ****         assert_param(IS_RCC_PLLM_VALUE(RCC_OscInitStruct->PLL.PLLM));
 490:ThirdParty/STM32F4xx_HAL_Driver/Src/stm32f4xx_hal_rcc.c ****         assert_param(IS_RCC_PLLN_VALUE(RCC_OscInitStruct->PLL.PLLN));
 491:ThirdParty/STM32F4xx_HAL_Driver/Src/stm32f4xx_hal_rcc.c ****         assert_param(IS_RCC_PLLP_VALUE(RCC_OscInitStruct->PLL.PLLP));
 492:ThirdParty/STM32F4xx_HAL_Driver/Src/stm32f4xx_hal_rcc.c ****         assert_param(IS_RCC_PLLQ_VALUE(RCC_OscInitStruct->PLL.PLLQ));
 493:ThirdParty/STM32F4xx_HAL_Driver/Src/stm32f4xx_hal_rcc.c **** 
 494:ThirdParty/STM32F4xx_HAL_Driver/Src/stm32f4xx_hal_rcc.c ****         /* Disable the main PLL. */
 495:ThirdParty/STM32F4xx_HAL_Driver/Src/stm32f4xx_hal_rcc.c ****         __HAL_RCC_PLL_DISABLE();
 496:ThirdParty/STM32F4xx_HAL_Driver/Src/stm32f4xx_hal_rcc.c **** 
 497:ThirdParty/STM32F4xx_HAL_Driver/Src/stm32f4xx_hal_rcc.c ****         /* Get Start Tick */
 498:ThirdParty/STM32F4xx_HAL_Driver/Src/stm32f4xx_hal_rcc.c ****         tickstart = HAL_GetTick();
 499:ThirdParty/STM32F4xx_HAL_Driver/Src/stm32f4xx_hal_rcc.c **** 
 500:ThirdParty/STM32F4xx_HAL_Driver/Src/stm32f4xx_hal_rcc.c ****         /* Wait till PLL is ready */
 501:ThirdParty/STM32F4xx_HAL_Driver/Src/stm32f4xx_hal_rcc.c ****         while(__HAL_RCC_GET_FLAG(RCC_FLAG_PLLRDY) != RESET)
 502:ThirdParty/STM32F4xx_HAL_Driver/Src/stm32f4xx_hal_rcc.c ****         {
 503:ThirdParty/STM32F4xx_HAL_Driver/Src/stm32f4xx_hal_rcc.c ****           if((HAL_GetTick() - tickstart ) > PLL_TIMEOUT_VALUE)
 504:ThirdParty/STM32F4xx_HAL_Driver/Src/stm32f4xx_hal_rcc.c ****           {
 505:ThirdParty/STM32F4xx_HAL_Driver/Src/stm32f4xx_hal_rcc.c ****             return HAL_TIMEOUT;
 506:ThirdParty/STM32F4xx_HAL_Driver/Src/stm32f4xx_hal_rcc.c ****           }
 507:ThirdParty/STM32F4xx_HAL_Driver/Src/stm32f4xx_hal_rcc.c ****         }
 508:ThirdParty/STM32F4xx_HAL_Driver/Src/stm32f4xx_hal_rcc.c **** 
 509:ThirdParty/STM32F4xx_HAL_Driver/Src/stm32f4xx_hal_rcc.c ****         /* Configure the main PLL clock source, multiplication and division factors. */
 510:ThirdParty/STM32F4xx_HAL_Driver/Src/stm32f4xx_hal_rcc.c ****         WRITE_REG(RCC->PLLCFGR, (RCC_OscInitStruct->PLL.PLLSource                                  
 511:ThirdParty/STM32F4xx_HAL_Driver/Src/stm32f4xx_hal_rcc.c ****                                  RCC_OscInitStruct->PLL.PLLM                                       
 512:ThirdParty/STM32F4xx_HAL_Driver/Src/stm32f4xx_hal_rcc.c ****                                  (RCC_OscInitStruct->PLL.PLLN << RCC_PLLCFGR_PLLN_Pos)             
 513:ThirdParty/STM32F4xx_HAL_Driver/Src/stm32f4xx_hal_rcc.c ****                                  (((RCC_OscInitStruct->PLL.PLLP >> 1U) - 1U) << RCC_PLLCFGR_PLLP_Po
 514:ThirdParty/STM32F4xx_HAL_Driver/Src/stm32f4xx_hal_rcc.c ****                                  (RCC_OscInitStruct->PLL.PLLQ << RCC_PLLCFGR_PLLQ_Pos)));
 515:ThirdParty/STM32F4xx_HAL_Driver/Src/stm32f4xx_hal_rcc.c ****         /* Enable the main PLL. */
 516:ThirdParty/STM32F4xx_HAL_Driver/Src/stm32f4xx_hal_rcc.c ****         __HAL_RCC_PLL_ENABLE();
 517:ThirdParty/STM32F4xx_HAL_Driver/Src/stm32f4xx_hal_rcc.c **** 
 518:ThirdParty/STM32F4xx_HAL_Driver/Src/stm32f4xx_hal_rcc.c ****         /* Get Start Tick */
 519:ThirdParty/STM32F4xx_HAL_Driver/Src/stm32f4xx_hal_rcc.c ****         tickstart = HAL_GetTick();
 520:ThirdParty/STM32F4xx_HAL_Driver/Src/stm32f4xx_hal_rcc.c **** 
 521:ThirdParty/STM32F4xx_HAL_Driver/Src/stm32f4xx_hal_rcc.c ****         /* Wait till PLL is ready */
 522:ThirdParty/STM32F4xx_HAL_Driver/Src/stm32f4xx_hal_rcc.c ****         while(__HAL_RCC_GET_FLAG(RCC_FLAG_PLLRDY) == RESET)
 523:ThirdParty/STM32F4xx_HAL_Driver/Src/stm32f4xx_hal_rcc.c ****         {
 524:ThirdParty/STM32F4xx_HAL_Driver/Src/stm32f4xx_hal_rcc.c ****           if((HAL_GetTick() - tickstart ) > PLL_TIMEOUT_VALUE)
 525:ThirdParty/STM32F4xx_HAL_Driver/Src/stm32f4xx_hal_rcc.c ****           {
 526:ThirdParty/STM32F4xx_HAL_Driver/Src/stm32f4xx_hal_rcc.c ****             return HAL_TIMEOUT;
 527:ThirdParty/STM32F4xx_HAL_Driver/Src/stm32f4xx_hal_rcc.c ****           }
 528:ThirdParty/STM32F4xx_HAL_Driver/Src/stm32f4xx_hal_rcc.c ****         }
 529:ThirdParty/STM32F4xx_HAL_Driver/Src/stm32f4xx_hal_rcc.c ****       }
 530:ThirdParty/STM32F4xx_HAL_Driver/Src/stm32f4xx_hal_rcc.c ****       else
 531:ThirdParty/STM32F4xx_HAL_Driver/Src/stm32f4xx_hal_rcc.c ****       {
 532:ThirdParty/STM32F4xx_HAL_Driver/Src/stm32f4xx_hal_rcc.c ****         /* Disable the main PLL. */
 533:ThirdParty/STM32F4xx_HAL_Driver/Src/stm32f4xx_hal_rcc.c ****         __HAL_RCC_PLL_DISABLE();
 652              		.loc 1 533 9 is_stmt 1 view .LVU216
 653 02da 2E4B     		ldr	r3, .L89+4
 654 02dc 0022     		movs	r2, #0
 655 02de 1A66     		str	r2, [r3, #96]
 534:ThirdParty/STM32F4xx_HAL_Driver/Src/stm32f4xx_hal_rcc.c **** 
 535:ThirdParty/STM32F4xx_HAL_Driver/Src/stm32f4xx_hal_rcc.c ****         /* Get Start Tick */
 536:ThirdParty/STM32F4xx_HAL_Driver/Src/stm32f4xx_hal_rcc.c ****         tickstart = HAL_GetTick();
 656              		.loc 1 536 9 view .LVU217
 657              		.loc 1 536 21 is_stmt 0 view .LVU218
 658 02e0 FFF7FEFF 		bl	HAL_GetTick
 659              	.LVL42:
ARM GAS  /tmp/ccCyRDhy.s 			page 23


 660 02e4 0446     		mov	r4, r0
 661              	.LVL43:
 537:ThirdParty/STM32F4xx_HAL_Driver/Src/stm32f4xx_hal_rcc.c **** 
 538:ThirdParty/STM32F4xx_HAL_Driver/Src/stm32f4xx_hal_rcc.c ****         /* Wait till PLL is ready */
 539:ThirdParty/STM32F4xx_HAL_Driver/Src/stm32f4xx_hal_rcc.c ****         while(__HAL_RCC_GET_FLAG(RCC_FLAG_PLLRDY) != RESET)
 662              		.loc 1 539 9 is_stmt 1 view .LVU219
 663              	.L49:
 664              		.loc 1 539 14 view .LVU220
 665              		.loc 1 539 15 is_stmt 0 view .LVU221
 666 02e6 2A4B     		ldr	r3, .L89
 667 02e8 1B68     		ldr	r3, [r3]
 668              		.loc 1 539 14 view .LVU222
 669 02ea 13F0007F 		tst	r3, #33554432
 670 02ee 42D0     		beq	.L84
 540:ThirdParty/STM32F4xx_HAL_Driver/Src/stm32f4xx_hal_rcc.c ****         {
 541:ThirdParty/STM32F4xx_HAL_Driver/Src/stm32f4xx_hal_rcc.c ****           if((HAL_GetTick() - tickstart ) > PLL_TIMEOUT_VALUE)
 671              		.loc 1 541 11 is_stmt 1 view .LVU223
 672              		.loc 1 541 15 is_stmt 0 view .LVU224
 673 02f0 FFF7FEFF 		bl	HAL_GetTick
 674              	.LVL44:
 675              		.loc 1 541 29 view .LVU225
 676 02f4 001B     		subs	r0, r0, r4
 677              		.loc 1 541 13 view .LVU226
 678 02f6 0228     		cmp	r0, #2
 679 02f8 F5D9     		bls	.L49
 542:ThirdParty/STM32F4xx_HAL_Driver/Src/stm32f4xx_hal_rcc.c ****           {
 543:ThirdParty/STM32F4xx_HAL_Driver/Src/stm32f4xx_hal_rcc.c ****             return HAL_TIMEOUT;
 680              		.loc 1 543 20 view .LVU227
 681 02fa 0320     		movs	r0, #3
 682 02fc 44E0     		b	.L3
 683              	.LVL45:
 684              	.L82:
 685              	.LBB4:
 474:ThirdParty/STM32F4xx_HAL_Driver/Src/stm32f4xx_hal_rcc.c ****     }
 686              		.loc 1 474 7 is_stmt 1 view .LVU228
 687 02fe 244A     		ldr	r2, .L89
 688 0300 136C     		ldr	r3, [r2, #64]
 689 0302 23F08053 		bic	r3, r3, #268435456
 690 0306 1364     		str	r3, [r2, #64]
 691 0308 DCE7     		b	.L30
 692              	.LVL46:
 693              	.L83:
 474:ThirdParty/STM32F4xx_HAL_Driver/Src/stm32f4xx_hal_rcc.c ****     }
 694              		.loc 1 474 7 is_stmt 0 view .LVU229
 695              	.LBE4:
 488:ThirdParty/STM32F4xx_HAL_Driver/Src/stm32f4xx_hal_rcc.c ****         assert_param(IS_RCC_PLLM_VALUE(RCC_OscInitStruct->PLL.PLLM));
 696              		.loc 1 488 9 is_stmt 1 view .LVU230
 489:ThirdParty/STM32F4xx_HAL_Driver/Src/stm32f4xx_hal_rcc.c ****         assert_param(IS_RCC_PLLN_VALUE(RCC_OscInitStruct->PLL.PLLN));
 697              		.loc 1 489 9 view .LVU231
 490:ThirdParty/STM32F4xx_HAL_Driver/Src/stm32f4xx_hal_rcc.c ****         assert_param(IS_RCC_PLLP_VALUE(RCC_OscInitStruct->PLL.PLLP));
 698              		.loc 1 490 9 view .LVU232
 491:ThirdParty/STM32F4xx_HAL_Driver/Src/stm32f4xx_hal_rcc.c ****         assert_param(IS_RCC_PLLQ_VALUE(RCC_OscInitStruct->PLL.PLLQ));
 699              		.loc 1 491 9 view .LVU233
 492:ThirdParty/STM32F4xx_HAL_Driver/Src/stm32f4xx_hal_rcc.c **** 
 700              		.loc 1 492 9 view .LVU234
 495:ThirdParty/STM32F4xx_HAL_Driver/Src/stm32f4xx_hal_rcc.c **** 
 701              		.loc 1 495 9 view .LVU235
ARM GAS  /tmp/ccCyRDhy.s 			page 24


 702 030a 224B     		ldr	r3, .L89+4
 703 030c 0022     		movs	r2, #0
 704 030e 1A66     		str	r2, [r3, #96]
 498:ThirdParty/STM32F4xx_HAL_Driver/Src/stm32f4xx_hal_rcc.c **** 
 705              		.loc 1 498 9 view .LVU236
 498:ThirdParty/STM32F4xx_HAL_Driver/Src/stm32f4xx_hal_rcc.c **** 
 706              		.loc 1 498 21 is_stmt 0 view .LVU237
 707 0310 FFF7FEFF 		bl	HAL_GetTick
 708              	.LVL47:
 709 0314 0546     		mov	r5, r0
 710              	.LVL48:
 501:ThirdParty/STM32F4xx_HAL_Driver/Src/stm32f4xx_hal_rcc.c ****         {
 711              		.loc 1 501 9 is_stmt 1 view .LVU238
 712              	.L45:
 501:ThirdParty/STM32F4xx_HAL_Driver/Src/stm32f4xx_hal_rcc.c ****         {
 713              		.loc 1 501 14 view .LVU239
 501:ThirdParty/STM32F4xx_HAL_Driver/Src/stm32f4xx_hal_rcc.c ****         {
 714              		.loc 1 501 15 is_stmt 0 view .LVU240
 715 0316 1E4B     		ldr	r3, .L89
 716 0318 1B68     		ldr	r3, [r3]
 501:ThirdParty/STM32F4xx_HAL_Driver/Src/stm32f4xx_hal_rcc.c ****         {
 717              		.loc 1 501 14 view .LVU241
 718 031a 13F0007F 		tst	r3, #33554432
 719 031e 06D0     		beq	.L85
 503:ThirdParty/STM32F4xx_HAL_Driver/Src/stm32f4xx_hal_rcc.c ****           {
 720              		.loc 1 503 11 is_stmt 1 view .LVU242
 503:ThirdParty/STM32F4xx_HAL_Driver/Src/stm32f4xx_hal_rcc.c ****           {
 721              		.loc 1 503 15 is_stmt 0 view .LVU243
 722 0320 FFF7FEFF 		bl	HAL_GetTick
 723              	.LVL49:
 503:ThirdParty/STM32F4xx_HAL_Driver/Src/stm32f4xx_hal_rcc.c ****           {
 724              		.loc 1 503 29 view .LVU244
 725 0324 401B     		subs	r0, r0, r5
 503:ThirdParty/STM32F4xx_HAL_Driver/Src/stm32f4xx_hal_rcc.c ****           {
 726              		.loc 1 503 13 view .LVU245
 727 0326 0228     		cmp	r0, #2
 728 0328 F5D9     		bls	.L45
 505:ThirdParty/STM32F4xx_HAL_Driver/Src/stm32f4xx_hal_rcc.c ****           }
 729              		.loc 1 505 20 view .LVU246
 730 032a 0320     		movs	r0, #3
 731 032c 2CE0     		b	.L3
 732              	.L85:
 510:ThirdParty/STM32F4xx_HAL_Driver/Src/stm32f4xx_hal_rcc.c ****                                  RCC_OscInitStruct->PLL.PLLM                                       
 733              		.loc 1 510 9 is_stmt 1 view .LVU247
 734 032e E369     		ldr	r3, [r4, #28]
 735 0330 226A     		ldr	r2, [r4, #32]
 736 0332 1343     		orrs	r3, r3, r2
 737 0334 626A     		ldr	r2, [r4, #36]
 738 0336 43EA8213 		orr	r3, r3, r2, lsl #6
 739 033a A26A     		ldr	r2, [r4, #40]
 740 033c 5208     		lsrs	r2, r2, #1
 741 033e 013A     		subs	r2, r2, #1
 742 0340 43EA0243 		orr	r3, r3, r2, lsl #16
 743 0344 E26A     		ldr	r2, [r4, #44]
 744 0346 43EA0263 		orr	r3, r3, r2, lsl #24
 745 034a 114A     		ldr	r2, .L89
 746 034c 5360     		str	r3, [r2, #4]
ARM GAS  /tmp/ccCyRDhy.s 			page 25


 516:ThirdParty/STM32F4xx_HAL_Driver/Src/stm32f4xx_hal_rcc.c **** 
 747              		.loc 1 516 9 view .LVU248
 748 034e 114B     		ldr	r3, .L89+4
 749 0350 0122     		movs	r2, #1
 750 0352 1A66     		str	r2, [r3, #96]
 519:ThirdParty/STM32F4xx_HAL_Driver/Src/stm32f4xx_hal_rcc.c **** 
 751              		.loc 1 519 9 view .LVU249
 519:ThirdParty/STM32F4xx_HAL_Driver/Src/stm32f4xx_hal_rcc.c **** 
 752              		.loc 1 519 21 is_stmt 0 view .LVU250
 753 0354 FFF7FEFF 		bl	HAL_GetTick
 754              	.LVL50:
 755 0358 0446     		mov	r4, r0
 756              	.LVL51:
 522:ThirdParty/STM32F4xx_HAL_Driver/Src/stm32f4xx_hal_rcc.c ****         {
 757              		.loc 1 522 9 is_stmt 1 view .LVU251
 758              	.L47:
 522:ThirdParty/STM32F4xx_HAL_Driver/Src/stm32f4xx_hal_rcc.c ****         {
 759              		.loc 1 522 14 view .LVU252
 522:ThirdParty/STM32F4xx_HAL_Driver/Src/stm32f4xx_hal_rcc.c ****         {
 760              		.loc 1 522 15 is_stmt 0 view .LVU253
 761 035a 0D4B     		ldr	r3, .L89
 762 035c 1B68     		ldr	r3, [r3]
 522:ThirdParty/STM32F4xx_HAL_Driver/Src/stm32f4xx_hal_rcc.c ****         {
 763              		.loc 1 522 14 view .LVU254
 764 035e 13F0007F 		tst	r3, #33554432
 765 0362 06D1     		bne	.L86
 524:ThirdParty/STM32F4xx_HAL_Driver/Src/stm32f4xx_hal_rcc.c ****           {
 766              		.loc 1 524 11 is_stmt 1 view .LVU255
 524:ThirdParty/STM32F4xx_HAL_Driver/Src/stm32f4xx_hal_rcc.c ****           {
 767              		.loc 1 524 15 is_stmt 0 view .LVU256
 768 0364 FFF7FEFF 		bl	HAL_GetTick
 769              	.LVL52:
 524:ThirdParty/STM32F4xx_HAL_Driver/Src/stm32f4xx_hal_rcc.c ****           {
 770              		.loc 1 524 29 view .LVU257
 771 0368 001B     		subs	r0, r0, r4
 524:ThirdParty/STM32F4xx_HAL_Driver/Src/stm32f4xx_hal_rcc.c ****           {
 772              		.loc 1 524 13 view .LVU258
 773 036a 0228     		cmp	r0, #2
 774 036c F5D9     		bls	.L47
 526:ThirdParty/STM32F4xx_HAL_Driver/Src/stm32f4xx_hal_rcc.c ****           }
 775              		.loc 1 526 20 view .LVU259
 776 036e 0320     		movs	r0, #3
 777 0370 0AE0     		b	.L3
 778              	.L86:
 544:ThirdParty/STM32F4xx_HAL_Driver/Src/stm32f4xx_hal_rcc.c ****           }
 545:ThirdParty/STM32F4xx_HAL_Driver/Src/stm32f4xx_hal_rcc.c ****         }
 546:ThirdParty/STM32F4xx_HAL_Driver/Src/stm32f4xx_hal_rcc.c ****       }
 547:ThirdParty/STM32F4xx_HAL_Driver/Src/stm32f4xx_hal_rcc.c ****     }
 548:ThirdParty/STM32F4xx_HAL_Driver/Src/stm32f4xx_hal_rcc.c ****     else
 549:ThirdParty/STM32F4xx_HAL_Driver/Src/stm32f4xx_hal_rcc.c ****     {
 550:ThirdParty/STM32F4xx_HAL_Driver/Src/stm32f4xx_hal_rcc.c ****       return HAL_ERROR;
 551:ThirdParty/STM32F4xx_HAL_Driver/Src/stm32f4xx_hal_rcc.c ****     }
 552:ThirdParty/STM32F4xx_HAL_Driver/Src/stm32f4xx_hal_rcc.c ****   }
 553:ThirdParty/STM32F4xx_HAL_Driver/Src/stm32f4xx_hal_rcc.c ****   return HAL_OK;
 779              		.loc 1 553 10 view .LVU260
 780 0372 0020     		movs	r0, #0
 781 0374 08E0     		b	.L3
ARM GAS  /tmp/ccCyRDhy.s 			page 26


 782              	.L84:
 783              		.loc 1 553 10 view .LVU261
 784 0376 0020     		movs	r0, #0
 785 0378 06E0     		b	.L3
 786              	.LVL53:
 787              	.L51:
 788              	.LCFI2:
 789              		.cfi_def_cfa_offset 0
 790              		.cfi_restore 4
 791              		.cfi_restore 5
 792              		.cfi_restore 6
 793              		.cfi_restore 14
 244:ThirdParty/STM32F4xx_HAL_Driver/Src/stm32f4xx_hal_rcc.c ****   }
 794              		.loc 1 244 12 view .LVU262
 795 037a 0120     		movs	r0, #1
 796              	.LVL54:
 554:ThirdParty/STM32F4xx_HAL_Driver/Src/stm32f4xx_hal_rcc.c **** }
 797              		.loc 1 554 1 view .LVU263
 798 037c 7047     		bx	lr
 799              	.LVL55:
 800              	.L76:
 801              	.LCFI3:
 802              		.cfi_def_cfa_offset 24
 803              		.cfi_offset 4, -16
 804              		.cfi_offset 5, -12
 805              		.cfi_offset 6, -8
 806              		.cfi_offset 14, -4
 260:ThirdParty/STM32F4xx_HAL_Driver/Src/stm32f4xx_hal_rcc.c ****       }
 807              		.loc 1 260 16 view .LVU264
 808 037e 0120     		movs	r0, #1
 809              	.LVL56:
 260:ThirdParty/STM32F4xx_HAL_Driver/Src/stm32f4xx_hal_rcc.c ****       }
 810              		.loc 1 260 16 view .LVU265
 811 0380 02E0     		b	.L3
 812              	.L55:
 313:ThirdParty/STM32F4xx_HAL_Driver/Src/stm32f4xx_hal_rcc.c ****       }
 813              		.loc 1 313 16 view .LVU266
 814 0382 0120     		movs	r0, #1
 815 0384 00E0     		b	.L3
 816              	.L64:
 553:ThirdParty/STM32F4xx_HAL_Driver/Src/stm32f4xx_hal_rcc.c **** }
 817              		.loc 1 553 10 view .LVU267
 818 0386 0020     		movs	r0, #0
 819              	.LVL57:
 820              	.L3:
 821              		.loc 1 554 1 view .LVU268
 822 0388 02B0     		add	sp, sp, #8
 823              	.LCFI4:
 824              		.cfi_remember_state
 825              		.cfi_def_cfa_offset 16
 826              		@ sp needed
 827 038a 70BD     		pop	{r4, r5, r6, pc}
 828              	.LVL58:
 829              	.L65:
 830              	.LCFI5:
 831              		.cfi_restore_state
 550:ThirdParty/STM32F4xx_HAL_Driver/Src/stm32f4xx_hal_rcc.c ****     }
ARM GAS  /tmp/ccCyRDhy.s 			page 27


 832              		.loc 1 550 14 view .LVU269
 833 038c 0120     		movs	r0, #1
 834 038e FBE7     		b	.L3
 835              	.L90:
 836              		.align	2
 837              	.L89:
 838 0390 00380240 		.word	1073887232
 839 0394 00004742 		.word	1111949312
 840              		.cfi_endproc
 841              	.LFE134:
 843              		.section	.text.HAL_RCC_MCOConfig,"ax",%progbits
 844              		.align	1
 845              		.global	HAL_RCC_MCOConfig
 846              		.syntax unified
 847              		.thumb
 848              		.thumb_func
 850              	HAL_RCC_MCOConfig:
 851              	.LVL59:
 852              	.LFB136:
 555:ThirdParty/STM32F4xx_HAL_Driver/Src/stm32f4xx_hal_rcc.c **** 
 556:ThirdParty/STM32F4xx_HAL_Driver/Src/stm32f4xx_hal_rcc.c **** /**
 557:ThirdParty/STM32F4xx_HAL_Driver/Src/stm32f4xx_hal_rcc.c ****   * @brief  Initializes the CPU, AHB and APB busses clocks according to the specified
 558:ThirdParty/STM32F4xx_HAL_Driver/Src/stm32f4xx_hal_rcc.c ****   *         parameters in the RCC_ClkInitStruct.
 559:ThirdParty/STM32F4xx_HAL_Driver/Src/stm32f4xx_hal_rcc.c ****   * @param  RCC_ClkInitStruct pointer to an RCC_OscInitTypeDef structure that
 560:ThirdParty/STM32F4xx_HAL_Driver/Src/stm32f4xx_hal_rcc.c ****   *         contains the configuration information for the RCC peripheral.
 561:ThirdParty/STM32F4xx_HAL_Driver/Src/stm32f4xx_hal_rcc.c ****   * @param  FLatency FLASH Latency, this parameter depend on device selected
 562:ThirdParty/STM32F4xx_HAL_Driver/Src/stm32f4xx_hal_rcc.c ****   *
 563:ThirdParty/STM32F4xx_HAL_Driver/Src/stm32f4xx_hal_rcc.c ****   * @note   The SystemCoreClock CMSIS variable is used to store System Clock Frequency
 564:ThirdParty/STM32F4xx_HAL_Driver/Src/stm32f4xx_hal_rcc.c ****   *         and updated by HAL_RCC_GetHCLKFreq() function called within this function
 565:ThirdParty/STM32F4xx_HAL_Driver/Src/stm32f4xx_hal_rcc.c ****   *
 566:ThirdParty/STM32F4xx_HAL_Driver/Src/stm32f4xx_hal_rcc.c ****   * @note   The HSI is used (enabled by hardware) as system clock source after
 567:ThirdParty/STM32F4xx_HAL_Driver/Src/stm32f4xx_hal_rcc.c ****   *         startup from Reset, wake-up from STOP and STANDBY mode, or in case
 568:ThirdParty/STM32F4xx_HAL_Driver/Src/stm32f4xx_hal_rcc.c ****   *         of failure of the HSE used directly or indirectly as system clock
 569:ThirdParty/STM32F4xx_HAL_Driver/Src/stm32f4xx_hal_rcc.c ****   *         (if the Clock Security System CSS is enabled).
 570:ThirdParty/STM32F4xx_HAL_Driver/Src/stm32f4xx_hal_rcc.c ****   *
 571:ThirdParty/STM32F4xx_HAL_Driver/Src/stm32f4xx_hal_rcc.c ****   * @note   A switch from one clock source to another occurs only if the target
 572:ThirdParty/STM32F4xx_HAL_Driver/Src/stm32f4xx_hal_rcc.c ****   *         clock source is ready (clock stable after startup delay or PLL locked).
 573:ThirdParty/STM32F4xx_HAL_Driver/Src/stm32f4xx_hal_rcc.c ****   *         If a clock source which is not yet ready is selected, the switch will
 574:ThirdParty/STM32F4xx_HAL_Driver/Src/stm32f4xx_hal_rcc.c ****   *         occur when the clock source will be ready.
 575:ThirdParty/STM32F4xx_HAL_Driver/Src/stm32f4xx_hal_rcc.c ****   *
 576:ThirdParty/STM32F4xx_HAL_Driver/Src/stm32f4xx_hal_rcc.c ****   * @note   Depending on the device voltage range, the software has to set correctly
 577:ThirdParty/STM32F4xx_HAL_Driver/Src/stm32f4xx_hal_rcc.c ****   *         HPRE[3:0] bits to ensure that HCLK not exceed the maximum allowed frequency
 578:ThirdParty/STM32F4xx_HAL_Driver/Src/stm32f4xx_hal_rcc.c ****   *         (for more details refer to section above "Initialization/de-initialization functions")
 579:ThirdParty/STM32F4xx_HAL_Driver/Src/stm32f4xx_hal_rcc.c ****   * @retval None
 580:ThirdParty/STM32F4xx_HAL_Driver/Src/stm32f4xx_hal_rcc.c ****   */
 581:ThirdParty/STM32F4xx_HAL_Driver/Src/stm32f4xx_hal_rcc.c **** HAL_StatusTypeDef HAL_RCC_ClockConfig(RCC_ClkInitTypeDef  *RCC_ClkInitStruct, uint32_t FLatency)
 582:ThirdParty/STM32F4xx_HAL_Driver/Src/stm32f4xx_hal_rcc.c **** {
 583:ThirdParty/STM32F4xx_HAL_Driver/Src/stm32f4xx_hal_rcc.c ****   uint32_t tickstart;
 584:ThirdParty/STM32F4xx_HAL_Driver/Src/stm32f4xx_hal_rcc.c **** 
 585:ThirdParty/STM32F4xx_HAL_Driver/Src/stm32f4xx_hal_rcc.c ****   /* Check Null pointer */
 586:ThirdParty/STM32F4xx_HAL_Driver/Src/stm32f4xx_hal_rcc.c ****   if(RCC_ClkInitStruct == NULL)
 587:ThirdParty/STM32F4xx_HAL_Driver/Src/stm32f4xx_hal_rcc.c ****   {
 588:ThirdParty/STM32F4xx_HAL_Driver/Src/stm32f4xx_hal_rcc.c ****     return HAL_ERROR;
 589:ThirdParty/STM32F4xx_HAL_Driver/Src/stm32f4xx_hal_rcc.c ****   }
 590:ThirdParty/STM32F4xx_HAL_Driver/Src/stm32f4xx_hal_rcc.c **** 
 591:ThirdParty/STM32F4xx_HAL_Driver/Src/stm32f4xx_hal_rcc.c ****   /* Check the parameters */
 592:ThirdParty/STM32F4xx_HAL_Driver/Src/stm32f4xx_hal_rcc.c ****   assert_param(IS_RCC_CLOCKTYPE(RCC_ClkInitStruct->ClockType));
ARM GAS  /tmp/ccCyRDhy.s 			page 28


 593:ThirdParty/STM32F4xx_HAL_Driver/Src/stm32f4xx_hal_rcc.c ****   assert_param(IS_FLASH_LATENCY(FLatency));
 594:ThirdParty/STM32F4xx_HAL_Driver/Src/stm32f4xx_hal_rcc.c **** 
 595:ThirdParty/STM32F4xx_HAL_Driver/Src/stm32f4xx_hal_rcc.c ****   /* To correctly read data from FLASH memory, the number of wait states (LATENCY)
 596:ThirdParty/STM32F4xx_HAL_Driver/Src/stm32f4xx_hal_rcc.c ****     must be correctly programmed according to the frequency of the CPU clock
 597:ThirdParty/STM32F4xx_HAL_Driver/Src/stm32f4xx_hal_rcc.c ****     (HCLK) and the supply voltage of the device. */
 598:ThirdParty/STM32F4xx_HAL_Driver/Src/stm32f4xx_hal_rcc.c **** 
 599:ThirdParty/STM32F4xx_HAL_Driver/Src/stm32f4xx_hal_rcc.c ****   /* Increasing the number of wait states because of higher CPU frequency */
 600:ThirdParty/STM32F4xx_HAL_Driver/Src/stm32f4xx_hal_rcc.c ****   if(FLatency > __HAL_FLASH_GET_LATENCY())
 601:ThirdParty/STM32F4xx_HAL_Driver/Src/stm32f4xx_hal_rcc.c ****   {
 602:ThirdParty/STM32F4xx_HAL_Driver/Src/stm32f4xx_hal_rcc.c ****     /* Program the new number of wait states to the LATENCY bits in the FLASH_ACR register */
 603:ThirdParty/STM32F4xx_HAL_Driver/Src/stm32f4xx_hal_rcc.c ****     __HAL_FLASH_SET_LATENCY(FLatency);
 604:ThirdParty/STM32F4xx_HAL_Driver/Src/stm32f4xx_hal_rcc.c **** 
 605:ThirdParty/STM32F4xx_HAL_Driver/Src/stm32f4xx_hal_rcc.c ****     /* Check that the new number of wait states is taken into account to access the Flash
 606:ThirdParty/STM32F4xx_HAL_Driver/Src/stm32f4xx_hal_rcc.c ****     memory by reading the FLASH_ACR register */
 607:ThirdParty/STM32F4xx_HAL_Driver/Src/stm32f4xx_hal_rcc.c ****     if(__HAL_FLASH_GET_LATENCY() != FLatency)
 608:ThirdParty/STM32F4xx_HAL_Driver/Src/stm32f4xx_hal_rcc.c ****     {
 609:ThirdParty/STM32F4xx_HAL_Driver/Src/stm32f4xx_hal_rcc.c ****       return HAL_ERROR;
 610:ThirdParty/STM32F4xx_HAL_Driver/Src/stm32f4xx_hal_rcc.c ****     }
 611:ThirdParty/STM32F4xx_HAL_Driver/Src/stm32f4xx_hal_rcc.c ****   }
 612:ThirdParty/STM32F4xx_HAL_Driver/Src/stm32f4xx_hal_rcc.c **** 
 613:ThirdParty/STM32F4xx_HAL_Driver/Src/stm32f4xx_hal_rcc.c ****   /*-------------------------- HCLK Configuration --------------------------*/
 614:ThirdParty/STM32F4xx_HAL_Driver/Src/stm32f4xx_hal_rcc.c ****   if(((RCC_ClkInitStruct->ClockType) & RCC_CLOCKTYPE_HCLK) == RCC_CLOCKTYPE_HCLK)
 615:ThirdParty/STM32F4xx_HAL_Driver/Src/stm32f4xx_hal_rcc.c ****   {
 616:ThirdParty/STM32F4xx_HAL_Driver/Src/stm32f4xx_hal_rcc.c ****     /* Set the highest APBx dividers in order to ensure that we do not go through
 617:ThirdParty/STM32F4xx_HAL_Driver/Src/stm32f4xx_hal_rcc.c ****        a non-spec phase whatever we decrease or increase HCLK. */
 618:ThirdParty/STM32F4xx_HAL_Driver/Src/stm32f4xx_hal_rcc.c ****     if(((RCC_ClkInitStruct->ClockType) & RCC_CLOCKTYPE_PCLK1) == RCC_CLOCKTYPE_PCLK1)
 619:ThirdParty/STM32F4xx_HAL_Driver/Src/stm32f4xx_hal_rcc.c ****     {
 620:ThirdParty/STM32F4xx_HAL_Driver/Src/stm32f4xx_hal_rcc.c ****       MODIFY_REG(RCC->CFGR, RCC_CFGR_PPRE1, RCC_HCLK_DIV16);
 621:ThirdParty/STM32F4xx_HAL_Driver/Src/stm32f4xx_hal_rcc.c ****     }
 622:ThirdParty/STM32F4xx_HAL_Driver/Src/stm32f4xx_hal_rcc.c **** 
 623:ThirdParty/STM32F4xx_HAL_Driver/Src/stm32f4xx_hal_rcc.c ****     if(((RCC_ClkInitStruct->ClockType) & RCC_CLOCKTYPE_PCLK2) == RCC_CLOCKTYPE_PCLK2)
 624:ThirdParty/STM32F4xx_HAL_Driver/Src/stm32f4xx_hal_rcc.c ****     {
 625:ThirdParty/STM32F4xx_HAL_Driver/Src/stm32f4xx_hal_rcc.c ****       MODIFY_REG(RCC->CFGR, RCC_CFGR_PPRE2, (RCC_HCLK_DIV16 << 3));
 626:ThirdParty/STM32F4xx_HAL_Driver/Src/stm32f4xx_hal_rcc.c ****     }
 627:ThirdParty/STM32F4xx_HAL_Driver/Src/stm32f4xx_hal_rcc.c **** 
 628:ThirdParty/STM32F4xx_HAL_Driver/Src/stm32f4xx_hal_rcc.c ****     assert_param(IS_RCC_HCLK(RCC_ClkInitStruct->AHBCLKDivider));
 629:ThirdParty/STM32F4xx_HAL_Driver/Src/stm32f4xx_hal_rcc.c ****     MODIFY_REG(RCC->CFGR, RCC_CFGR_HPRE, RCC_ClkInitStruct->AHBCLKDivider);
 630:ThirdParty/STM32F4xx_HAL_Driver/Src/stm32f4xx_hal_rcc.c ****   }
 631:ThirdParty/STM32F4xx_HAL_Driver/Src/stm32f4xx_hal_rcc.c **** 
 632:ThirdParty/STM32F4xx_HAL_Driver/Src/stm32f4xx_hal_rcc.c ****   /*------------------------- SYSCLK Configuration ---------------------------*/
 633:ThirdParty/STM32F4xx_HAL_Driver/Src/stm32f4xx_hal_rcc.c ****   if(((RCC_ClkInitStruct->ClockType) & RCC_CLOCKTYPE_SYSCLK) == RCC_CLOCKTYPE_SYSCLK)
 634:ThirdParty/STM32F4xx_HAL_Driver/Src/stm32f4xx_hal_rcc.c ****   {
 635:ThirdParty/STM32F4xx_HAL_Driver/Src/stm32f4xx_hal_rcc.c ****     assert_param(IS_RCC_SYSCLKSOURCE(RCC_ClkInitStruct->SYSCLKSource));
 636:ThirdParty/STM32F4xx_HAL_Driver/Src/stm32f4xx_hal_rcc.c **** 
 637:ThirdParty/STM32F4xx_HAL_Driver/Src/stm32f4xx_hal_rcc.c ****     /* HSE is selected as System Clock Source */
 638:ThirdParty/STM32F4xx_HAL_Driver/Src/stm32f4xx_hal_rcc.c ****     if(RCC_ClkInitStruct->SYSCLKSource == RCC_SYSCLKSOURCE_HSE)
 639:ThirdParty/STM32F4xx_HAL_Driver/Src/stm32f4xx_hal_rcc.c ****     {
 640:ThirdParty/STM32F4xx_HAL_Driver/Src/stm32f4xx_hal_rcc.c ****       /* Check the HSE ready flag */
 641:ThirdParty/STM32F4xx_HAL_Driver/Src/stm32f4xx_hal_rcc.c ****       if(__HAL_RCC_GET_FLAG(RCC_FLAG_HSERDY) == RESET)
 642:ThirdParty/STM32F4xx_HAL_Driver/Src/stm32f4xx_hal_rcc.c ****       {
 643:ThirdParty/STM32F4xx_HAL_Driver/Src/stm32f4xx_hal_rcc.c ****         return HAL_ERROR;
 644:ThirdParty/STM32F4xx_HAL_Driver/Src/stm32f4xx_hal_rcc.c ****       }
 645:ThirdParty/STM32F4xx_HAL_Driver/Src/stm32f4xx_hal_rcc.c ****     }
 646:ThirdParty/STM32F4xx_HAL_Driver/Src/stm32f4xx_hal_rcc.c ****     /* PLL is selected as System Clock Source */
 647:ThirdParty/STM32F4xx_HAL_Driver/Src/stm32f4xx_hal_rcc.c ****     else if((RCC_ClkInitStruct->SYSCLKSource == RCC_SYSCLKSOURCE_PLLCLK)   ||
 648:ThirdParty/STM32F4xx_HAL_Driver/Src/stm32f4xx_hal_rcc.c ****             (RCC_ClkInitStruct->SYSCLKSource == RCC_SYSCLKSOURCE_PLLRCLK))
 649:ThirdParty/STM32F4xx_HAL_Driver/Src/stm32f4xx_hal_rcc.c ****     {
ARM GAS  /tmp/ccCyRDhy.s 			page 29


 650:ThirdParty/STM32F4xx_HAL_Driver/Src/stm32f4xx_hal_rcc.c ****       /* Check the PLL ready flag */
 651:ThirdParty/STM32F4xx_HAL_Driver/Src/stm32f4xx_hal_rcc.c ****       if(__HAL_RCC_GET_FLAG(RCC_FLAG_PLLRDY) == RESET)
 652:ThirdParty/STM32F4xx_HAL_Driver/Src/stm32f4xx_hal_rcc.c ****       {
 653:ThirdParty/STM32F4xx_HAL_Driver/Src/stm32f4xx_hal_rcc.c ****         return HAL_ERROR;
 654:ThirdParty/STM32F4xx_HAL_Driver/Src/stm32f4xx_hal_rcc.c ****       }
 655:ThirdParty/STM32F4xx_HAL_Driver/Src/stm32f4xx_hal_rcc.c ****     }
 656:ThirdParty/STM32F4xx_HAL_Driver/Src/stm32f4xx_hal_rcc.c ****     /* HSI is selected as System Clock Source */
 657:ThirdParty/STM32F4xx_HAL_Driver/Src/stm32f4xx_hal_rcc.c ****     else
 658:ThirdParty/STM32F4xx_HAL_Driver/Src/stm32f4xx_hal_rcc.c ****     {
 659:ThirdParty/STM32F4xx_HAL_Driver/Src/stm32f4xx_hal_rcc.c ****       /* Check the HSI ready flag */
 660:ThirdParty/STM32F4xx_HAL_Driver/Src/stm32f4xx_hal_rcc.c ****       if(__HAL_RCC_GET_FLAG(RCC_FLAG_HSIRDY) == RESET)
 661:ThirdParty/STM32F4xx_HAL_Driver/Src/stm32f4xx_hal_rcc.c ****       {
 662:ThirdParty/STM32F4xx_HAL_Driver/Src/stm32f4xx_hal_rcc.c ****         return HAL_ERROR;
 663:ThirdParty/STM32F4xx_HAL_Driver/Src/stm32f4xx_hal_rcc.c ****       }
 664:ThirdParty/STM32F4xx_HAL_Driver/Src/stm32f4xx_hal_rcc.c ****     }
 665:ThirdParty/STM32F4xx_HAL_Driver/Src/stm32f4xx_hal_rcc.c **** 
 666:ThirdParty/STM32F4xx_HAL_Driver/Src/stm32f4xx_hal_rcc.c ****     __HAL_RCC_SYSCLK_CONFIG(RCC_ClkInitStruct->SYSCLKSource);
 667:ThirdParty/STM32F4xx_HAL_Driver/Src/stm32f4xx_hal_rcc.c **** 
 668:ThirdParty/STM32F4xx_HAL_Driver/Src/stm32f4xx_hal_rcc.c ****     /* Get Start Tick */
 669:ThirdParty/STM32F4xx_HAL_Driver/Src/stm32f4xx_hal_rcc.c ****     tickstart = HAL_GetTick();
 670:ThirdParty/STM32F4xx_HAL_Driver/Src/stm32f4xx_hal_rcc.c **** 
 671:ThirdParty/STM32F4xx_HAL_Driver/Src/stm32f4xx_hal_rcc.c ****     while (__HAL_RCC_GET_SYSCLK_SOURCE() != (RCC_ClkInitStruct->SYSCLKSource << RCC_CFGR_SWS_Pos))
 672:ThirdParty/STM32F4xx_HAL_Driver/Src/stm32f4xx_hal_rcc.c ****     {
 673:ThirdParty/STM32F4xx_HAL_Driver/Src/stm32f4xx_hal_rcc.c ****       if ((HAL_GetTick() - tickstart) > CLOCKSWITCH_TIMEOUT_VALUE)
 674:ThirdParty/STM32F4xx_HAL_Driver/Src/stm32f4xx_hal_rcc.c ****       {
 675:ThirdParty/STM32F4xx_HAL_Driver/Src/stm32f4xx_hal_rcc.c ****         return HAL_TIMEOUT;
 676:ThirdParty/STM32F4xx_HAL_Driver/Src/stm32f4xx_hal_rcc.c ****       }
 677:ThirdParty/STM32F4xx_HAL_Driver/Src/stm32f4xx_hal_rcc.c ****     }
 678:ThirdParty/STM32F4xx_HAL_Driver/Src/stm32f4xx_hal_rcc.c ****   }
 679:ThirdParty/STM32F4xx_HAL_Driver/Src/stm32f4xx_hal_rcc.c **** 
 680:ThirdParty/STM32F4xx_HAL_Driver/Src/stm32f4xx_hal_rcc.c ****   /* Decreasing the number of wait states because of lower CPU frequency */
 681:ThirdParty/STM32F4xx_HAL_Driver/Src/stm32f4xx_hal_rcc.c ****   if(FLatency < __HAL_FLASH_GET_LATENCY())
 682:ThirdParty/STM32F4xx_HAL_Driver/Src/stm32f4xx_hal_rcc.c ****   {
 683:ThirdParty/STM32F4xx_HAL_Driver/Src/stm32f4xx_hal_rcc.c ****      /* Program the new number of wait states to the LATENCY bits in the FLASH_ACR register */
 684:ThirdParty/STM32F4xx_HAL_Driver/Src/stm32f4xx_hal_rcc.c ****     __HAL_FLASH_SET_LATENCY(FLatency);
 685:ThirdParty/STM32F4xx_HAL_Driver/Src/stm32f4xx_hal_rcc.c **** 
 686:ThirdParty/STM32F4xx_HAL_Driver/Src/stm32f4xx_hal_rcc.c ****     /* Check that the new number of wait states is taken into account to access the Flash
 687:ThirdParty/STM32F4xx_HAL_Driver/Src/stm32f4xx_hal_rcc.c ****     memory by reading the FLASH_ACR register */
 688:ThirdParty/STM32F4xx_HAL_Driver/Src/stm32f4xx_hal_rcc.c ****     if(__HAL_FLASH_GET_LATENCY() != FLatency)
 689:ThirdParty/STM32F4xx_HAL_Driver/Src/stm32f4xx_hal_rcc.c ****     {
 690:ThirdParty/STM32F4xx_HAL_Driver/Src/stm32f4xx_hal_rcc.c ****       return HAL_ERROR;
 691:ThirdParty/STM32F4xx_HAL_Driver/Src/stm32f4xx_hal_rcc.c ****     }
 692:ThirdParty/STM32F4xx_HAL_Driver/Src/stm32f4xx_hal_rcc.c ****   }
 693:ThirdParty/STM32F4xx_HAL_Driver/Src/stm32f4xx_hal_rcc.c **** 
 694:ThirdParty/STM32F4xx_HAL_Driver/Src/stm32f4xx_hal_rcc.c ****   /*-------------------------- PCLK1 Configuration ---------------------------*/
 695:ThirdParty/STM32F4xx_HAL_Driver/Src/stm32f4xx_hal_rcc.c ****   if(((RCC_ClkInitStruct->ClockType) & RCC_CLOCKTYPE_PCLK1) == RCC_CLOCKTYPE_PCLK1)
 696:ThirdParty/STM32F4xx_HAL_Driver/Src/stm32f4xx_hal_rcc.c ****   {
 697:ThirdParty/STM32F4xx_HAL_Driver/Src/stm32f4xx_hal_rcc.c ****     assert_param(IS_RCC_PCLK(RCC_ClkInitStruct->APB1CLKDivider));
 698:ThirdParty/STM32F4xx_HAL_Driver/Src/stm32f4xx_hal_rcc.c ****     MODIFY_REG(RCC->CFGR, RCC_CFGR_PPRE1, RCC_ClkInitStruct->APB1CLKDivider);
 699:ThirdParty/STM32F4xx_HAL_Driver/Src/stm32f4xx_hal_rcc.c ****   }
 700:ThirdParty/STM32F4xx_HAL_Driver/Src/stm32f4xx_hal_rcc.c **** 
 701:ThirdParty/STM32F4xx_HAL_Driver/Src/stm32f4xx_hal_rcc.c ****   /*-------------------------- PCLK2 Configuration ---------------------------*/
 702:ThirdParty/STM32F4xx_HAL_Driver/Src/stm32f4xx_hal_rcc.c ****   if(((RCC_ClkInitStruct->ClockType) & RCC_CLOCKTYPE_PCLK2) == RCC_CLOCKTYPE_PCLK2)
 703:ThirdParty/STM32F4xx_HAL_Driver/Src/stm32f4xx_hal_rcc.c ****   {
 704:ThirdParty/STM32F4xx_HAL_Driver/Src/stm32f4xx_hal_rcc.c ****     assert_param(IS_RCC_PCLK(RCC_ClkInitStruct->APB2CLKDivider));
 705:ThirdParty/STM32F4xx_HAL_Driver/Src/stm32f4xx_hal_rcc.c ****     MODIFY_REG(RCC->CFGR, RCC_CFGR_PPRE2, ((RCC_ClkInitStruct->APB2CLKDivider) << 3U));
 706:ThirdParty/STM32F4xx_HAL_Driver/Src/stm32f4xx_hal_rcc.c ****   }
ARM GAS  /tmp/ccCyRDhy.s 			page 30


 707:ThirdParty/STM32F4xx_HAL_Driver/Src/stm32f4xx_hal_rcc.c **** 
 708:ThirdParty/STM32F4xx_HAL_Driver/Src/stm32f4xx_hal_rcc.c ****   /* Update the SystemCoreClock global variable */
 709:ThirdParty/STM32F4xx_HAL_Driver/Src/stm32f4xx_hal_rcc.c ****   SystemCoreClock = HAL_RCC_GetSysClockFreq() >> AHBPrescTable[(RCC->CFGR & RCC_CFGR_HPRE)>> RCC_CF
 710:ThirdParty/STM32F4xx_HAL_Driver/Src/stm32f4xx_hal_rcc.c **** 
 711:ThirdParty/STM32F4xx_HAL_Driver/Src/stm32f4xx_hal_rcc.c ****   /* Configure the source of time base considering new system clocks settings */
 712:ThirdParty/STM32F4xx_HAL_Driver/Src/stm32f4xx_hal_rcc.c ****   HAL_InitTick (TICK_INT_PRIORITY);
 713:ThirdParty/STM32F4xx_HAL_Driver/Src/stm32f4xx_hal_rcc.c **** 
 714:ThirdParty/STM32F4xx_HAL_Driver/Src/stm32f4xx_hal_rcc.c ****   return HAL_OK;
 715:ThirdParty/STM32F4xx_HAL_Driver/Src/stm32f4xx_hal_rcc.c **** }
 716:ThirdParty/STM32F4xx_HAL_Driver/Src/stm32f4xx_hal_rcc.c **** 
 717:ThirdParty/STM32F4xx_HAL_Driver/Src/stm32f4xx_hal_rcc.c **** /**
 718:ThirdParty/STM32F4xx_HAL_Driver/Src/stm32f4xx_hal_rcc.c ****   * @}
 719:ThirdParty/STM32F4xx_HAL_Driver/Src/stm32f4xx_hal_rcc.c ****   */
 720:ThirdParty/STM32F4xx_HAL_Driver/Src/stm32f4xx_hal_rcc.c **** 
 721:ThirdParty/STM32F4xx_HAL_Driver/Src/stm32f4xx_hal_rcc.c **** /** @defgroup RCC_Exported_Functions_Group2 Peripheral Control functions
 722:ThirdParty/STM32F4xx_HAL_Driver/Src/stm32f4xx_hal_rcc.c ****  *  @brief   RCC clocks control functions
 723:ThirdParty/STM32F4xx_HAL_Driver/Src/stm32f4xx_hal_rcc.c ****  *
 724:ThirdParty/STM32F4xx_HAL_Driver/Src/stm32f4xx_hal_rcc.c **** @verbatim
 725:ThirdParty/STM32F4xx_HAL_Driver/Src/stm32f4xx_hal_rcc.c ****  ===============================================================================
 726:ThirdParty/STM32F4xx_HAL_Driver/Src/stm32f4xx_hal_rcc.c ****                       ##### Peripheral Control functions #####
 727:ThirdParty/STM32F4xx_HAL_Driver/Src/stm32f4xx_hal_rcc.c ****  ===============================================================================
 728:ThirdParty/STM32F4xx_HAL_Driver/Src/stm32f4xx_hal_rcc.c ****     [..]
 729:ThirdParty/STM32F4xx_HAL_Driver/Src/stm32f4xx_hal_rcc.c ****     This subsection provides a set of functions allowing to control the RCC Clocks
 730:ThirdParty/STM32F4xx_HAL_Driver/Src/stm32f4xx_hal_rcc.c ****     frequencies.
 731:ThirdParty/STM32F4xx_HAL_Driver/Src/stm32f4xx_hal_rcc.c **** 
 732:ThirdParty/STM32F4xx_HAL_Driver/Src/stm32f4xx_hal_rcc.c **** @endverbatim
 733:ThirdParty/STM32F4xx_HAL_Driver/Src/stm32f4xx_hal_rcc.c ****   * @{
 734:ThirdParty/STM32F4xx_HAL_Driver/Src/stm32f4xx_hal_rcc.c ****   */
 735:ThirdParty/STM32F4xx_HAL_Driver/Src/stm32f4xx_hal_rcc.c **** 
 736:ThirdParty/STM32F4xx_HAL_Driver/Src/stm32f4xx_hal_rcc.c **** /**
 737:ThirdParty/STM32F4xx_HAL_Driver/Src/stm32f4xx_hal_rcc.c ****   * @brief  Selects the clock source to output on MCO1 pin(PA8) or on MCO2 pin(PC9).
 738:ThirdParty/STM32F4xx_HAL_Driver/Src/stm32f4xx_hal_rcc.c ****   * @note   PA8/PC9 should be configured in alternate function mode.
 739:ThirdParty/STM32F4xx_HAL_Driver/Src/stm32f4xx_hal_rcc.c ****   * @param  RCC_MCOx specifies the output direction for the clock source.
 740:ThirdParty/STM32F4xx_HAL_Driver/Src/stm32f4xx_hal_rcc.c ****   *          This parameter can be one of the following values:
 741:ThirdParty/STM32F4xx_HAL_Driver/Src/stm32f4xx_hal_rcc.c ****   *            @arg RCC_MCO1: Clock source to output on MCO1 pin(PA8).
 742:ThirdParty/STM32F4xx_HAL_Driver/Src/stm32f4xx_hal_rcc.c ****   *            @arg RCC_MCO2: Clock source to output on MCO2 pin(PC9).
 743:ThirdParty/STM32F4xx_HAL_Driver/Src/stm32f4xx_hal_rcc.c ****   * @param  RCC_MCOSource specifies the clock source to output.
 744:ThirdParty/STM32F4xx_HAL_Driver/Src/stm32f4xx_hal_rcc.c ****   *          This parameter can be one of the following values:
 745:ThirdParty/STM32F4xx_HAL_Driver/Src/stm32f4xx_hal_rcc.c ****   *            @arg RCC_MCO1SOURCE_HSI: HSI clock selected as MCO1 source
 746:ThirdParty/STM32F4xx_HAL_Driver/Src/stm32f4xx_hal_rcc.c ****   *            @arg RCC_MCO1SOURCE_LSE: LSE clock selected as MCO1 source
 747:ThirdParty/STM32F4xx_HAL_Driver/Src/stm32f4xx_hal_rcc.c ****   *            @arg RCC_MCO1SOURCE_HSE: HSE clock selected as MCO1 source
 748:ThirdParty/STM32F4xx_HAL_Driver/Src/stm32f4xx_hal_rcc.c ****   *            @arg RCC_MCO1SOURCE_PLLCLK: main PLL clock selected as MCO1 source
 749:ThirdParty/STM32F4xx_HAL_Driver/Src/stm32f4xx_hal_rcc.c ****   *            @arg RCC_MCO2SOURCE_SYSCLK: System clock (SYSCLK) selected as MCO2 source
 750:ThirdParty/STM32F4xx_HAL_Driver/Src/stm32f4xx_hal_rcc.c ****   *            @arg RCC_MCO2SOURCE_PLLI2SCLK: PLLI2S clock selected as MCO2 source, available for a
 751:ThirdParty/STM32F4xx_HAL_Driver/Src/stm32f4xx_hal_rcc.c ****   *            @arg RCC_MCO2SOURCE_I2SCLK: I2SCLK clock selected as MCO2 source, available only for
 752:ThirdParty/STM32F4xx_HAL_Driver/Src/stm32f4xx_hal_rcc.c ****   *            @arg RCC_MCO2SOURCE_HSE: HSE clock selected as MCO2 source
 753:ThirdParty/STM32F4xx_HAL_Driver/Src/stm32f4xx_hal_rcc.c ****   *            @arg RCC_MCO2SOURCE_PLLCLK: main PLL clock selected as MCO2 source
 754:ThirdParty/STM32F4xx_HAL_Driver/Src/stm32f4xx_hal_rcc.c ****   * @param  RCC_MCODiv specifies the MCOx prescaler.
 755:ThirdParty/STM32F4xx_HAL_Driver/Src/stm32f4xx_hal_rcc.c ****   *          This parameter can be one of the following values:
 756:ThirdParty/STM32F4xx_HAL_Driver/Src/stm32f4xx_hal_rcc.c ****   *            @arg RCC_MCODIV_1: no division applied to MCOx clock
 757:ThirdParty/STM32F4xx_HAL_Driver/Src/stm32f4xx_hal_rcc.c ****   *            @arg RCC_MCODIV_2: division by 2 applied to MCOx clock
 758:ThirdParty/STM32F4xx_HAL_Driver/Src/stm32f4xx_hal_rcc.c ****   *            @arg RCC_MCODIV_3: division by 3 applied to MCOx clock
 759:ThirdParty/STM32F4xx_HAL_Driver/Src/stm32f4xx_hal_rcc.c ****   *            @arg RCC_MCODIV_4: division by 4 applied to MCOx clock
 760:ThirdParty/STM32F4xx_HAL_Driver/Src/stm32f4xx_hal_rcc.c ****   *            @arg RCC_MCODIV_5: division by 5 applied to MCOx clock
 761:ThirdParty/STM32F4xx_HAL_Driver/Src/stm32f4xx_hal_rcc.c ****   * @note  For STM32F410Rx devices to output I2SCLK clock on MCO2 you should have
 762:ThirdParty/STM32F4xx_HAL_Driver/Src/stm32f4xx_hal_rcc.c ****   *        at last one of the SPI clocks enabled (SPI1, SPI2 or SPI5).
 763:ThirdParty/STM32F4xx_HAL_Driver/Src/stm32f4xx_hal_rcc.c ****   * @retval None
ARM GAS  /tmp/ccCyRDhy.s 			page 31


 764:ThirdParty/STM32F4xx_HAL_Driver/Src/stm32f4xx_hal_rcc.c ****   */
 765:ThirdParty/STM32F4xx_HAL_Driver/Src/stm32f4xx_hal_rcc.c **** void HAL_RCC_MCOConfig(uint32_t RCC_MCOx, uint32_t RCC_MCOSource, uint32_t RCC_MCODiv)
 766:ThirdParty/STM32F4xx_HAL_Driver/Src/stm32f4xx_hal_rcc.c **** {
 853              		.loc 1 766 1 is_stmt 1 view -0
 854              		.cfi_startproc
 855              		@ args = 0, pretend = 0, frame = 32
 856              		@ frame_needed = 0, uses_anonymous_args = 0
 857              		.loc 1 766 1 is_stmt 0 view .LVU271
 858 0000 70B5     		push	{r4, r5, r6, lr}
 859              	.LCFI6:
 860              		.cfi_def_cfa_offset 16
 861              		.cfi_offset 4, -16
 862              		.cfi_offset 5, -12
 863              		.cfi_offset 6, -8
 864              		.cfi_offset 14, -4
 865 0002 88B0     		sub	sp, sp, #32
 866              	.LCFI7:
 867              		.cfi_def_cfa_offset 48
 868 0004 0C46     		mov	r4, r1
 869 0006 1546     		mov	r5, r2
 767:ThirdParty/STM32F4xx_HAL_Driver/Src/stm32f4xx_hal_rcc.c ****   GPIO_InitTypeDef GPIO_InitStruct;
 870              		.loc 1 767 3 is_stmt 1 view .LVU272
 768:ThirdParty/STM32F4xx_HAL_Driver/Src/stm32f4xx_hal_rcc.c ****   /* Check the parameters */
 769:ThirdParty/STM32F4xx_HAL_Driver/Src/stm32f4xx_hal_rcc.c ****   assert_param(IS_RCC_MCO(RCC_MCOx));
 871              		.loc 1 769 3 view .LVU273
 770:ThirdParty/STM32F4xx_HAL_Driver/Src/stm32f4xx_hal_rcc.c ****   assert_param(IS_RCC_MCODIV(RCC_MCODiv));
 872              		.loc 1 770 3 view .LVU274
 771:ThirdParty/STM32F4xx_HAL_Driver/Src/stm32f4xx_hal_rcc.c ****   /* RCC_MCO1 */
 772:ThirdParty/STM32F4xx_HAL_Driver/Src/stm32f4xx_hal_rcc.c ****   if(RCC_MCOx == RCC_MCO1)
 873              		.loc 1 772 3 view .LVU275
 874              		.loc 1 772 5 is_stmt 0 view .LVU276
 875 0008 00BB     		cbnz	r0, .L92
 773:ThirdParty/STM32F4xx_HAL_Driver/Src/stm32f4xx_hal_rcc.c ****   {
 774:ThirdParty/STM32F4xx_HAL_Driver/Src/stm32f4xx_hal_rcc.c ****     assert_param(IS_RCC_MCO1SOURCE(RCC_MCOSource));
 876              		.loc 1 774 5 is_stmt 1 view .LVU277
 775:ThirdParty/STM32F4xx_HAL_Driver/Src/stm32f4xx_hal_rcc.c **** 
 776:ThirdParty/STM32F4xx_HAL_Driver/Src/stm32f4xx_hal_rcc.c ****     /* MCO1 Clock Enable */
 777:ThirdParty/STM32F4xx_HAL_Driver/Src/stm32f4xx_hal_rcc.c ****     __MCO1_CLK_ENABLE();
 877              		.loc 1 777 5 view .LVU278
 878              	.LBB5:
 879              		.loc 1 777 5 view .LVU279
 880 000a 0023     		movs	r3, #0
 881 000c 0193     		str	r3, [sp, #4]
 882              		.loc 1 777 5 view .LVU280
 883 000e 204E     		ldr	r6, .L95
 884 0010 326B     		ldr	r2, [r6, #48]
 885              	.LVL60:
 886              		.loc 1 777 5 is_stmt 0 view .LVU281
 887 0012 42F00102 		orr	r2, r2, #1
 888 0016 3263     		str	r2, [r6, #48]
 889              		.loc 1 777 5 is_stmt 1 view .LVU282
 890 0018 326B     		ldr	r2, [r6, #48]
 891 001a 02F00102 		and	r2, r2, #1
 892 001e 0192     		str	r2, [sp, #4]
 893              		.loc 1 777 5 view .LVU283
 894 0020 019A     		ldr	r2, [sp, #4]
 895              	.LBE5:
ARM GAS  /tmp/ccCyRDhy.s 			page 32


 896              		.loc 1 777 5 view .LVU284
 778:ThirdParty/STM32F4xx_HAL_Driver/Src/stm32f4xx_hal_rcc.c **** 
 779:ThirdParty/STM32F4xx_HAL_Driver/Src/stm32f4xx_hal_rcc.c ****     /* Configure the MCO1 pin in alternate function mode */
 780:ThirdParty/STM32F4xx_HAL_Driver/Src/stm32f4xx_hal_rcc.c ****     GPIO_InitStruct.Pin = MCO1_PIN;
 897              		.loc 1 780 5 view .LVU285
 898              		.loc 1 780 25 is_stmt 0 view .LVU286
 899 0022 4FF48072 		mov	r2, #256
 900 0026 0392     		str	r2, [sp, #12]
 781:ThirdParty/STM32F4xx_HAL_Driver/Src/stm32f4xx_hal_rcc.c ****     GPIO_InitStruct.Mode = GPIO_MODE_AF_PP;
 901              		.loc 1 781 5 is_stmt 1 view .LVU287
 902              		.loc 1 781 26 is_stmt 0 view .LVU288
 903 0028 0222     		movs	r2, #2
 904 002a 0492     		str	r2, [sp, #16]
 782:ThirdParty/STM32F4xx_HAL_Driver/Src/stm32f4xx_hal_rcc.c ****     GPIO_InitStruct.Speed = GPIO_SPEED_FREQ_VERY_HIGH;
 905              		.loc 1 782 5 is_stmt 1 view .LVU289
 906              		.loc 1 782 27 is_stmt 0 view .LVU290
 907 002c 0322     		movs	r2, #3
 908 002e 0692     		str	r2, [sp, #24]
 783:ThirdParty/STM32F4xx_HAL_Driver/Src/stm32f4xx_hal_rcc.c ****     GPIO_InitStruct.Pull = GPIO_NOPULL;
 909              		.loc 1 783 5 is_stmt 1 view .LVU291
 910              		.loc 1 783 26 is_stmt 0 view .LVU292
 911 0030 0593     		str	r3, [sp, #20]
 784:ThirdParty/STM32F4xx_HAL_Driver/Src/stm32f4xx_hal_rcc.c ****     GPIO_InitStruct.Alternate = GPIO_AF0_MCO;
 912              		.loc 1 784 5 is_stmt 1 view .LVU293
 913              		.loc 1 784 31 is_stmt 0 view .LVU294
 914 0032 0793     		str	r3, [sp, #28]
 785:ThirdParty/STM32F4xx_HAL_Driver/Src/stm32f4xx_hal_rcc.c ****     HAL_GPIO_Init(MCO1_GPIO_PORT, &GPIO_InitStruct);
 915              		.loc 1 785 5 is_stmt 1 view .LVU295
 916 0034 03A9     		add	r1, sp, #12
 917              	.LVL61:
 918              		.loc 1 785 5 is_stmt 0 view .LVU296
 919 0036 1748     		ldr	r0, .L95+4
 920              	.LVL62:
 921              		.loc 1 785 5 view .LVU297
 922 0038 FFF7FEFF 		bl	HAL_GPIO_Init
 923              	.LVL63:
 786:ThirdParty/STM32F4xx_HAL_Driver/Src/stm32f4xx_hal_rcc.c **** 
 787:ThirdParty/STM32F4xx_HAL_Driver/Src/stm32f4xx_hal_rcc.c ****     /* Mask MCO1 and MCO1PRE[2:0] bits then Select MCO1 clock source and prescaler */
 788:ThirdParty/STM32F4xx_HAL_Driver/Src/stm32f4xx_hal_rcc.c ****     MODIFY_REG(RCC->CFGR, (RCC_CFGR_MCO1 | RCC_CFGR_MCO1PRE), (RCC_MCOSource | RCC_MCODiv));
 924              		.loc 1 788 5 is_stmt 1 view .LVU298
 925 003c B368     		ldr	r3, [r6, #8]
 926 003e 23F0EC63 		bic	r3, r3, #123731968
 927 0042 2543     		orrs	r5, r5, r4
 928              	.LVL64:
 929              		.loc 1 788 5 is_stmt 0 view .LVU299
 930 0044 1D43     		orrs	r5, r5, r3
 931 0046 B560     		str	r5, [r6, #8]
 932              	.LVL65:
 933              	.L91:
 789:ThirdParty/STM32F4xx_HAL_Driver/Src/stm32f4xx_hal_rcc.c **** 
 790:ThirdParty/STM32F4xx_HAL_Driver/Src/stm32f4xx_hal_rcc.c ****    /* This RCC MCO1 enable feature is available only on STM32F410xx devices */
 791:ThirdParty/STM32F4xx_HAL_Driver/Src/stm32f4xx_hal_rcc.c **** #if defined(RCC_CFGR_MCO1EN)
 792:ThirdParty/STM32F4xx_HAL_Driver/Src/stm32f4xx_hal_rcc.c ****     __HAL_RCC_MCO1_ENABLE();
 793:ThirdParty/STM32F4xx_HAL_Driver/Src/stm32f4xx_hal_rcc.c **** #endif /* RCC_CFGR_MCO1EN */
 794:ThirdParty/STM32F4xx_HAL_Driver/Src/stm32f4xx_hal_rcc.c ****   }
 795:ThirdParty/STM32F4xx_HAL_Driver/Src/stm32f4xx_hal_rcc.c **** #if defined(RCC_CFGR_MCO2)
 796:ThirdParty/STM32F4xx_HAL_Driver/Src/stm32f4xx_hal_rcc.c ****   else
ARM GAS  /tmp/ccCyRDhy.s 			page 33


 797:ThirdParty/STM32F4xx_HAL_Driver/Src/stm32f4xx_hal_rcc.c ****   {
 798:ThirdParty/STM32F4xx_HAL_Driver/Src/stm32f4xx_hal_rcc.c ****     assert_param(IS_RCC_MCO2SOURCE(RCC_MCOSource));
 799:ThirdParty/STM32F4xx_HAL_Driver/Src/stm32f4xx_hal_rcc.c **** 
 800:ThirdParty/STM32F4xx_HAL_Driver/Src/stm32f4xx_hal_rcc.c ****     /* MCO2 Clock Enable */
 801:ThirdParty/STM32F4xx_HAL_Driver/Src/stm32f4xx_hal_rcc.c ****     __MCO2_CLK_ENABLE();
 802:ThirdParty/STM32F4xx_HAL_Driver/Src/stm32f4xx_hal_rcc.c **** 
 803:ThirdParty/STM32F4xx_HAL_Driver/Src/stm32f4xx_hal_rcc.c ****     /* Configure the MCO2 pin in alternate function mode */
 804:ThirdParty/STM32F4xx_HAL_Driver/Src/stm32f4xx_hal_rcc.c ****     GPIO_InitStruct.Pin = MCO2_PIN;
 805:ThirdParty/STM32F4xx_HAL_Driver/Src/stm32f4xx_hal_rcc.c ****     GPIO_InitStruct.Mode = GPIO_MODE_AF_PP;
 806:ThirdParty/STM32F4xx_HAL_Driver/Src/stm32f4xx_hal_rcc.c ****     GPIO_InitStruct.Speed = GPIO_SPEED_FREQ_VERY_HIGH;
 807:ThirdParty/STM32F4xx_HAL_Driver/Src/stm32f4xx_hal_rcc.c ****     GPIO_InitStruct.Pull = GPIO_NOPULL;
 808:ThirdParty/STM32F4xx_HAL_Driver/Src/stm32f4xx_hal_rcc.c ****     GPIO_InitStruct.Alternate = GPIO_AF0_MCO;
 809:ThirdParty/STM32F4xx_HAL_Driver/Src/stm32f4xx_hal_rcc.c ****     HAL_GPIO_Init(MCO2_GPIO_PORT, &GPIO_InitStruct);
 810:ThirdParty/STM32F4xx_HAL_Driver/Src/stm32f4xx_hal_rcc.c **** 
 811:ThirdParty/STM32F4xx_HAL_Driver/Src/stm32f4xx_hal_rcc.c ****     /* Mask MCO2 and MCO2PRE[2:0] bits then Select MCO2 clock source and prescaler */
 812:ThirdParty/STM32F4xx_HAL_Driver/Src/stm32f4xx_hal_rcc.c ****     MODIFY_REG(RCC->CFGR, (RCC_CFGR_MCO2 | RCC_CFGR_MCO2PRE), (RCC_MCOSource | (RCC_MCODiv << 3U)))
 813:ThirdParty/STM32F4xx_HAL_Driver/Src/stm32f4xx_hal_rcc.c **** 
 814:ThirdParty/STM32F4xx_HAL_Driver/Src/stm32f4xx_hal_rcc.c ****    /* This RCC MCO2 enable feature is available only on STM32F410Rx devices */
 815:ThirdParty/STM32F4xx_HAL_Driver/Src/stm32f4xx_hal_rcc.c **** #if defined(RCC_CFGR_MCO2EN)
 816:ThirdParty/STM32F4xx_HAL_Driver/Src/stm32f4xx_hal_rcc.c ****     __HAL_RCC_MCO2_ENABLE();
 817:ThirdParty/STM32F4xx_HAL_Driver/Src/stm32f4xx_hal_rcc.c **** #endif /* RCC_CFGR_MCO2EN */
 818:ThirdParty/STM32F4xx_HAL_Driver/Src/stm32f4xx_hal_rcc.c ****   }
 819:ThirdParty/STM32F4xx_HAL_Driver/Src/stm32f4xx_hal_rcc.c **** #endif /* RCC_CFGR_MCO2 */
 820:ThirdParty/STM32F4xx_HAL_Driver/Src/stm32f4xx_hal_rcc.c **** }
 934              		.loc 1 820 1 view .LVU300
 935 0048 08B0     		add	sp, sp, #32
 936              	.LCFI8:
 937              		.cfi_remember_state
 938              		.cfi_def_cfa_offset 16
 939              		@ sp needed
 940 004a 70BD     		pop	{r4, r5, r6, pc}
 941              	.LVL66:
 942              	.L92:
 943              	.LCFI9:
 944              		.cfi_restore_state
 798:ThirdParty/STM32F4xx_HAL_Driver/Src/stm32f4xx_hal_rcc.c **** 
 945              		.loc 1 798 5 is_stmt 1 view .LVU301
 801:ThirdParty/STM32F4xx_HAL_Driver/Src/stm32f4xx_hal_rcc.c **** 
 946              		.loc 1 801 5 view .LVU302
 947              	.LBB6:
 801:ThirdParty/STM32F4xx_HAL_Driver/Src/stm32f4xx_hal_rcc.c **** 
 948              		.loc 1 801 5 view .LVU303
 949 004c 0023     		movs	r3, #0
 950 004e 0293     		str	r3, [sp, #8]
 801:ThirdParty/STM32F4xx_HAL_Driver/Src/stm32f4xx_hal_rcc.c **** 
 951              		.loc 1 801 5 view .LVU304
 952 0050 0F4E     		ldr	r6, .L95
 953 0052 326B     		ldr	r2, [r6, #48]
 954              	.LVL67:
 801:ThirdParty/STM32F4xx_HAL_Driver/Src/stm32f4xx_hal_rcc.c **** 
 955              		.loc 1 801 5 is_stmt 0 view .LVU305
 956 0054 42F00402 		orr	r2, r2, #4
 957 0058 3263     		str	r2, [r6, #48]
 801:ThirdParty/STM32F4xx_HAL_Driver/Src/stm32f4xx_hal_rcc.c **** 
 958              		.loc 1 801 5 is_stmt 1 view .LVU306
 959 005a 326B     		ldr	r2, [r6, #48]
 960 005c 02F00402 		and	r2, r2, #4
ARM GAS  /tmp/ccCyRDhy.s 			page 34


 961 0060 0292     		str	r2, [sp, #8]
 801:ThirdParty/STM32F4xx_HAL_Driver/Src/stm32f4xx_hal_rcc.c **** 
 962              		.loc 1 801 5 view .LVU307
 963 0062 029A     		ldr	r2, [sp, #8]
 964              	.LBE6:
 801:ThirdParty/STM32F4xx_HAL_Driver/Src/stm32f4xx_hal_rcc.c **** 
 965              		.loc 1 801 5 view .LVU308
 804:ThirdParty/STM32F4xx_HAL_Driver/Src/stm32f4xx_hal_rcc.c ****     GPIO_InitStruct.Mode = GPIO_MODE_AF_PP;
 966              		.loc 1 804 5 view .LVU309
 804:ThirdParty/STM32F4xx_HAL_Driver/Src/stm32f4xx_hal_rcc.c ****     GPIO_InitStruct.Mode = GPIO_MODE_AF_PP;
 967              		.loc 1 804 25 is_stmt 0 view .LVU310
 968 0064 4FF40072 		mov	r2, #512
 969 0068 0392     		str	r2, [sp, #12]
 805:ThirdParty/STM32F4xx_HAL_Driver/Src/stm32f4xx_hal_rcc.c ****     GPIO_InitStruct.Speed = GPIO_SPEED_FREQ_VERY_HIGH;
 970              		.loc 1 805 5 is_stmt 1 view .LVU311
 805:ThirdParty/STM32F4xx_HAL_Driver/Src/stm32f4xx_hal_rcc.c ****     GPIO_InitStruct.Speed = GPIO_SPEED_FREQ_VERY_HIGH;
 971              		.loc 1 805 26 is_stmt 0 view .LVU312
 972 006a 0222     		movs	r2, #2
 973 006c 0492     		str	r2, [sp, #16]
 806:ThirdParty/STM32F4xx_HAL_Driver/Src/stm32f4xx_hal_rcc.c ****     GPIO_InitStruct.Pull = GPIO_NOPULL;
 974              		.loc 1 806 5 is_stmt 1 view .LVU313
 806:ThirdParty/STM32F4xx_HAL_Driver/Src/stm32f4xx_hal_rcc.c ****     GPIO_InitStruct.Pull = GPIO_NOPULL;
 975              		.loc 1 806 27 is_stmt 0 view .LVU314
 976 006e 0322     		movs	r2, #3
 977 0070 0692     		str	r2, [sp, #24]
 807:ThirdParty/STM32F4xx_HAL_Driver/Src/stm32f4xx_hal_rcc.c ****     GPIO_InitStruct.Alternate = GPIO_AF0_MCO;
 978              		.loc 1 807 5 is_stmt 1 view .LVU315
 807:ThirdParty/STM32F4xx_HAL_Driver/Src/stm32f4xx_hal_rcc.c ****     GPIO_InitStruct.Alternate = GPIO_AF0_MCO;
 979              		.loc 1 807 26 is_stmt 0 view .LVU316
 980 0072 0593     		str	r3, [sp, #20]
 808:ThirdParty/STM32F4xx_HAL_Driver/Src/stm32f4xx_hal_rcc.c ****     HAL_GPIO_Init(MCO2_GPIO_PORT, &GPIO_InitStruct);
 981              		.loc 1 808 5 is_stmt 1 view .LVU317
 808:ThirdParty/STM32F4xx_HAL_Driver/Src/stm32f4xx_hal_rcc.c ****     HAL_GPIO_Init(MCO2_GPIO_PORT, &GPIO_InitStruct);
 982              		.loc 1 808 31 is_stmt 0 view .LVU318
 983 0074 0793     		str	r3, [sp, #28]
 809:ThirdParty/STM32F4xx_HAL_Driver/Src/stm32f4xx_hal_rcc.c **** 
 984              		.loc 1 809 5 is_stmt 1 view .LVU319
 985 0076 03A9     		add	r1, sp, #12
 986              	.LVL68:
 809:ThirdParty/STM32F4xx_HAL_Driver/Src/stm32f4xx_hal_rcc.c **** 
 987              		.loc 1 809 5 is_stmt 0 view .LVU320
 988 0078 0748     		ldr	r0, .L95+8
 989              	.LVL69:
 809:ThirdParty/STM32F4xx_HAL_Driver/Src/stm32f4xx_hal_rcc.c **** 
 990              		.loc 1 809 5 view .LVU321
 991 007a FFF7FEFF 		bl	HAL_GPIO_Init
 992              	.LVL70:
 812:ThirdParty/STM32F4xx_HAL_Driver/Src/stm32f4xx_hal_rcc.c **** 
 993              		.loc 1 812 5 is_stmt 1 view .LVU322
 994 007e B368     		ldr	r3, [r6, #8]
 995 0080 23F07843 		bic	r3, r3, #-134217728
 996 0084 44EAC504 		orr	r4, r4, r5, lsl #3
 997              	.LVL71:
 812:ThirdParty/STM32F4xx_HAL_Driver/Src/stm32f4xx_hal_rcc.c **** 
 998              		.loc 1 812 5 is_stmt 0 view .LVU323
 999 0088 1C43     		orrs	r4, r4, r3
 1000 008a B460     		str	r4, [r6, #8]
ARM GAS  /tmp/ccCyRDhy.s 			page 35


 1001              		.loc 1 820 1 view .LVU324
 1002 008c DCE7     		b	.L91
 1003              	.L96:
 1004 008e 00BF     		.align	2
 1005              	.L95:
 1006 0090 00380240 		.word	1073887232
 1007 0094 00000240 		.word	1073872896
 1008 0098 00080240 		.word	1073874944
 1009              		.cfi_endproc
 1010              	.LFE136:
 1012              		.section	.text.HAL_RCC_EnableCSS,"ax",%progbits
 1013              		.align	1
 1014              		.global	HAL_RCC_EnableCSS
 1015              		.syntax unified
 1016              		.thumb
 1017              		.thumb_func
 1019              	HAL_RCC_EnableCSS:
 1020              	.LFB137:
 821:ThirdParty/STM32F4xx_HAL_Driver/Src/stm32f4xx_hal_rcc.c **** 
 822:ThirdParty/STM32F4xx_HAL_Driver/Src/stm32f4xx_hal_rcc.c **** /**
 823:ThirdParty/STM32F4xx_HAL_Driver/Src/stm32f4xx_hal_rcc.c ****   * @brief  Enables the Clock Security System.
 824:ThirdParty/STM32F4xx_HAL_Driver/Src/stm32f4xx_hal_rcc.c ****   * @note   If a failure is detected on the HSE oscillator clock, this oscillator
 825:ThirdParty/STM32F4xx_HAL_Driver/Src/stm32f4xx_hal_rcc.c ****   *         is automatically disabled and an interrupt is generated to inform the
 826:ThirdParty/STM32F4xx_HAL_Driver/Src/stm32f4xx_hal_rcc.c ****   *         software about the failure (Clock Security System Interrupt, CSSI),
 827:ThirdParty/STM32F4xx_HAL_Driver/Src/stm32f4xx_hal_rcc.c ****   *         allowing the MCU to perform rescue operations. The CSSI is linked to
 828:ThirdParty/STM32F4xx_HAL_Driver/Src/stm32f4xx_hal_rcc.c ****   *         the Cortex-M4 NMI (Non-Maskable Interrupt) exception vector.
 829:ThirdParty/STM32F4xx_HAL_Driver/Src/stm32f4xx_hal_rcc.c ****   * @retval None
 830:ThirdParty/STM32F4xx_HAL_Driver/Src/stm32f4xx_hal_rcc.c ****   */
 831:ThirdParty/STM32F4xx_HAL_Driver/Src/stm32f4xx_hal_rcc.c **** void HAL_RCC_EnableCSS(void)
 832:ThirdParty/STM32F4xx_HAL_Driver/Src/stm32f4xx_hal_rcc.c **** {
 1021              		.loc 1 832 1 is_stmt 1 view -0
 1022              		.cfi_startproc
 1023              		@ args = 0, pretend = 0, frame = 0
 1024              		@ frame_needed = 0, uses_anonymous_args = 0
 1025              		@ link register save eliminated.
 833:ThirdParty/STM32F4xx_HAL_Driver/Src/stm32f4xx_hal_rcc.c ****   *(__IO uint32_t *) RCC_CR_CSSON_BB = (uint32_t)ENABLE;
 1026              		.loc 1 833 3 view .LVU326
 1027              		.loc 1 833 38 is_stmt 0 view .LVU327
 1028 0000 014B     		ldr	r3, .L98
 1029 0002 0122     		movs	r2, #1
 1030 0004 DA64     		str	r2, [r3, #76]
 834:ThirdParty/STM32F4xx_HAL_Driver/Src/stm32f4xx_hal_rcc.c **** }
 1031              		.loc 1 834 1 view .LVU328
 1032 0006 7047     		bx	lr
 1033              	.L99:
 1034              		.align	2
 1035              	.L98:
 1036 0008 00004742 		.word	1111949312
 1037              		.cfi_endproc
 1038              	.LFE137:
 1040              		.section	.text.HAL_RCC_DisableCSS,"ax",%progbits
 1041              		.align	1
 1042              		.global	HAL_RCC_DisableCSS
 1043              		.syntax unified
 1044              		.thumb
 1045              		.thumb_func
 1047              	HAL_RCC_DisableCSS:
ARM GAS  /tmp/ccCyRDhy.s 			page 36


 1048              	.LFB138:
 835:ThirdParty/STM32F4xx_HAL_Driver/Src/stm32f4xx_hal_rcc.c **** 
 836:ThirdParty/STM32F4xx_HAL_Driver/Src/stm32f4xx_hal_rcc.c **** /**
 837:ThirdParty/STM32F4xx_HAL_Driver/Src/stm32f4xx_hal_rcc.c ****   * @brief  Disables the Clock Security System.
 838:ThirdParty/STM32F4xx_HAL_Driver/Src/stm32f4xx_hal_rcc.c ****   * @retval None
 839:ThirdParty/STM32F4xx_HAL_Driver/Src/stm32f4xx_hal_rcc.c ****   */
 840:ThirdParty/STM32F4xx_HAL_Driver/Src/stm32f4xx_hal_rcc.c **** void HAL_RCC_DisableCSS(void)
 841:ThirdParty/STM32F4xx_HAL_Driver/Src/stm32f4xx_hal_rcc.c **** {
 1049              		.loc 1 841 1 is_stmt 1 view -0
 1050              		.cfi_startproc
 1051              		@ args = 0, pretend = 0, frame = 0
 1052              		@ frame_needed = 0, uses_anonymous_args = 0
 1053              		@ link register save eliminated.
 842:ThirdParty/STM32F4xx_HAL_Driver/Src/stm32f4xx_hal_rcc.c ****   *(__IO uint32_t *) RCC_CR_CSSON_BB = (uint32_t)DISABLE;
 1054              		.loc 1 842 3 view .LVU330
 1055              		.loc 1 842 38 is_stmt 0 view .LVU331
 1056 0000 014B     		ldr	r3, .L101
 1057 0002 0022     		movs	r2, #0
 1058 0004 DA64     		str	r2, [r3, #76]
 843:ThirdParty/STM32F4xx_HAL_Driver/Src/stm32f4xx_hal_rcc.c **** }
 1059              		.loc 1 843 1 view .LVU332
 1060 0006 7047     		bx	lr
 1061              	.L102:
 1062              		.align	2
 1063              	.L101:
 1064 0008 00004742 		.word	1111949312
 1065              		.cfi_endproc
 1066              	.LFE138:
 1068              		.global	__aeabi_uldivmod
 1069              		.section	.text.HAL_RCC_GetSysClockFreq,"ax",%progbits
 1070              		.align	1
 1071              		.weak	HAL_RCC_GetSysClockFreq
 1072              		.syntax unified
 1073              		.thumb
 1074              		.thumb_func
 1076              	HAL_RCC_GetSysClockFreq:
 1077              	.LFB139:
 844:ThirdParty/STM32F4xx_HAL_Driver/Src/stm32f4xx_hal_rcc.c **** 
 845:ThirdParty/STM32F4xx_HAL_Driver/Src/stm32f4xx_hal_rcc.c **** /**
 846:ThirdParty/STM32F4xx_HAL_Driver/Src/stm32f4xx_hal_rcc.c ****   * @brief  Returns the SYSCLK frequency
 847:ThirdParty/STM32F4xx_HAL_Driver/Src/stm32f4xx_hal_rcc.c ****   *
 848:ThirdParty/STM32F4xx_HAL_Driver/Src/stm32f4xx_hal_rcc.c ****   * @note   The system frequency computed by this function is not the real
 849:ThirdParty/STM32F4xx_HAL_Driver/Src/stm32f4xx_hal_rcc.c ****   *         frequency in the chip. It is calculated based on the predefined
 850:ThirdParty/STM32F4xx_HAL_Driver/Src/stm32f4xx_hal_rcc.c ****   *         constant and the selected clock source:
 851:ThirdParty/STM32F4xx_HAL_Driver/Src/stm32f4xx_hal_rcc.c ****   * @note     If SYSCLK source is HSI, function returns values based on HSI_VALUE(*)
 852:ThirdParty/STM32F4xx_HAL_Driver/Src/stm32f4xx_hal_rcc.c ****   * @note     If SYSCLK source is HSE, function returns values based on HSE_VALUE(**)
 853:ThirdParty/STM32F4xx_HAL_Driver/Src/stm32f4xx_hal_rcc.c ****   * @note     If SYSCLK source is PLL, function returns values based on HSE_VALUE(**)
 854:ThirdParty/STM32F4xx_HAL_Driver/Src/stm32f4xx_hal_rcc.c ****   *           or HSI_VALUE(*) multiplied/divided by the PLL factors.
 855:ThirdParty/STM32F4xx_HAL_Driver/Src/stm32f4xx_hal_rcc.c ****   * @note     (*) HSI_VALUE is a constant defined in stm32f4xx_hal_conf.h file (default value
 856:ThirdParty/STM32F4xx_HAL_Driver/Src/stm32f4xx_hal_rcc.c ****   *               16 MHz) but the real value may vary depending on the variations
 857:ThirdParty/STM32F4xx_HAL_Driver/Src/stm32f4xx_hal_rcc.c ****   *               in voltage and temperature.
 858:ThirdParty/STM32F4xx_HAL_Driver/Src/stm32f4xx_hal_rcc.c ****   * @note     (**) HSE_VALUE is a constant defined in stm32f4xx_hal_conf.h file (default value
 859:ThirdParty/STM32F4xx_HAL_Driver/Src/stm32f4xx_hal_rcc.c ****   *                25 MHz), user has to ensure that HSE_VALUE is same as the real
 860:ThirdParty/STM32F4xx_HAL_Driver/Src/stm32f4xx_hal_rcc.c ****   *                frequency of the crystal used. Otherwise, this function may
 861:ThirdParty/STM32F4xx_HAL_Driver/Src/stm32f4xx_hal_rcc.c ****   *                have wrong result.
 862:ThirdParty/STM32F4xx_HAL_Driver/Src/stm32f4xx_hal_rcc.c ****   *
 863:ThirdParty/STM32F4xx_HAL_Driver/Src/stm32f4xx_hal_rcc.c ****   * @note   The result of this function could be not correct when using fractional
ARM GAS  /tmp/ccCyRDhy.s 			page 37


 864:ThirdParty/STM32F4xx_HAL_Driver/Src/stm32f4xx_hal_rcc.c ****   *         value for HSE crystal.
 865:ThirdParty/STM32F4xx_HAL_Driver/Src/stm32f4xx_hal_rcc.c ****   *
 866:ThirdParty/STM32F4xx_HAL_Driver/Src/stm32f4xx_hal_rcc.c ****   * @note   This function can be used by the user application to compute the
 867:ThirdParty/STM32F4xx_HAL_Driver/Src/stm32f4xx_hal_rcc.c ****   *         baudrate for the communication peripherals or configure other parameters.
 868:ThirdParty/STM32F4xx_HAL_Driver/Src/stm32f4xx_hal_rcc.c ****   *
 869:ThirdParty/STM32F4xx_HAL_Driver/Src/stm32f4xx_hal_rcc.c ****   * @note   Each time SYSCLK changes, this function must be called to update the
 870:ThirdParty/STM32F4xx_HAL_Driver/Src/stm32f4xx_hal_rcc.c ****   *         right SYSCLK value. Otherwise, any configuration based on this function will be incorre
 871:ThirdParty/STM32F4xx_HAL_Driver/Src/stm32f4xx_hal_rcc.c ****   *
 872:ThirdParty/STM32F4xx_HAL_Driver/Src/stm32f4xx_hal_rcc.c ****   *
 873:ThirdParty/STM32F4xx_HAL_Driver/Src/stm32f4xx_hal_rcc.c ****   * @retval SYSCLK frequency
 874:ThirdParty/STM32F4xx_HAL_Driver/Src/stm32f4xx_hal_rcc.c ****   */
 875:ThirdParty/STM32F4xx_HAL_Driver/Src/stm32f4xx_hal_rcc.c **** __weak uint32_t HAL_RCC_GetSysClockFreq(void)
 876:ThirdParty/STM32F4xx_HAL_Driver/Src/stm32f4xx_hal_rcc.c **** {
 1078              		.loc 1 876 1 is_stmt 1 view -0
 1079              		.cfi_startproc
 1080              		@ args = 0, pretend = 0, frame = 0
 1081              		@ frame_needed = 0, uses_anonymous_args = 0
 1082 0000 08B5     		push	{r3, lr}
 1083              	.LCFI10:
 1084              		.cfi_def_cfa_offset 8
 1085              		.cfi_offset 3, -8
 1086              		.cfi_offset 14, -4
 877:ThirdParty/STM32F4xx_HAL_Driver/Src/stm32f4xx_hal_rcc.c ****   uint32_t pllm = 0U, pllvco = 0U, pllp = 0U;
 1087              		.loc 1 877 3 view .LVU334
 1088              	.LVL72:
 878:ThirdParty/STM32F4xx_HAL_Driver/Src/stm32f4xx_hal_rcc.c ****   uint32_t sysclockfreq = 0U;
 1089              		.loc 1 878 3 view .LVU335
 879:ThirdParty/STM32F4xx_HAL_Driver/Src/stm32f4xx_hal_rcc.c **** 
 880:ThirdParty/STM32F4xx_HAL_Driver/Src/stm32f4xx_hal_rcc.c ****   /* Get SYSCLK source -------------------------------------------------------*/
 881:ThirdParty/STM32F4xx_HAL_Driver/Src/stm32f4xx_hal_rcc.c ****   switch (RCC->CFGR & RCC_CFGR_SWS)
 1090              		.loc 1 881 3 view .LVU336
 1091              		.loc 1 881 14 is_stmt 0 view .LVU337
 1092 0002 314B     		ldr	r3, .L110
 1093 0004 9B68     		ldr	r3, [r3, #8]
 1094              		.loc 1 881 21 view .LVU338
 1095 0006 03F00C03 		and	r3, r3, #12
 1096              		.loc 1 881 3 view .LVU339
 1097 000a 042B     		cmp	r3, #4
 1098 000c 57D0     		beq	.L107
 1099 000e 082B     		cmp	r3, #8
 1100 0010 57D1     		bne	.L108
 882:ThirdParty/STM32F4xx_HAL_Driver/Src/stm32f4xx_hal_rcc.c ****   {
 883:ThirdParty/STM32F4xx_HAL_Driver/Src/stm32f4xx_hal_rcc.c ****     case RCC_CFGR_SWS_HSI:  /* HSI used as system clock source */
 884:ThirdParty/STM32F4xx_HAL_Driver/Src/stm32f4xx_hal_rcc.c ****     {
 885:ThirdParty/STM32F4xx_HAL_Driver/Src/stm32f4xx_hal_rcc.c ****       sysclockfreq = HSI_VALUE;
 886:ThirdParty/STM32F4xx_HAL_Driver/Src/stm32f4xx_hal_rcc.c ****        break;
 887:ThirdParty/STM32F4xx_HAL_Driver/Src/stm32f4xx_hal_rcc.c ****     }
 888:ThirdParty/STM32F4xx_HAL_Driver/Src/stm32f4xx_hal_rcc.c ****     case RCC_CFGR_SWS_HSE:  /* HSE used as system clock  source */
 889:ThirdParty/STM32F4xx_HAL_Driver/Src/stm32f4xx_hal_rcc.c ****     {
 890:ThirdParty/STM32F4xx_HAL_Driver/Src/stm32f4xx_hal_rcc.c ****       sysclockfreq = HSE_VALUE;
 891:ThirdParty/STM32F4xx_HAL_Driver/Src/stm32f4xx_hal_rcc.c ****       break;
 892:ThirdParty/STM32F4xx_HAL_Driver/Src/stm32f4xx_hal_rcc.c ****     }
 893:ThirdParty/STM32F4xx_HAL_Driver/Src/stm32f4xx_hal_rcc.c ****     case RCC_CFGR_SWS_PLL:  /* PLL used as system clock  source */
 894:ThirdParty/STM32F4xx_HAL_Driver/Src/stm32f4xx_hal_rcc.c ****     {
 895:ThirdParty/STM32F4xx_HAL_Driver/Src/stm32f4xx_hal_rcc.c ****       /* PLL_VCO = (HSE_VALUE or HSI_VALUE / PLLM) * PLLN
 896:ThirdParty/STM32F4xx_HAL_Driver/Src/stm32f4xx_hal_rcc.c ****       SYSCLK = PLL_VCO / PLLP */
 897:ThirdParty/STM32F4xx_HAL_Driver/Src/stm32f4xx_hal_rcc.c ****       pllm = RCC->PLLCFGR & RCC_PLLCFGR_PLLM;
ARM GAS  /tmp/ccCyRDhy.s 			page 38


 1101              		.loc 1 897 7 is_stmt 1 view .LVU340
 1102              		.loc 1 897 17 is_stmt 0 view .LVU341
 1103 0012 2D4B     		ldr	r3, .L110
 1104 0014 5A68     		ldr	r2, [r3, #4]
 1105              		.loc 1 897 12 view .LVU342
 1106 0016 02F03F02 		and	r2, r2, #63
 1107              	.LVL73:
 898:ThirdParty/STM32F4xx_HAL_Driver/Src/stm32f4xx_hal_rcc.c ****       if(__HAL_RCC_GET_PLL_OSCSOURCE() != RCC_PLLSOURCE_HSI)
 1108              		.loc 1 898 7 is_stmt 1 view .LVU343
 1109              		.loc 1 898 10 is_stmt 0 view .LVU344
 1110 001a 5B68     		ldr	r3, [r3, #4]
 1111              		.loc 1 898 9 view .LVU345
 1112 001c 13F4800F 		tst	r3, #4194304
 1113 0020 2AD0     		beq	.L105
 899:ThirdParty/STM32F4xx_HAL_Driver/Src/stm32f4xx_hal_rcc.c ****       {
 900:ThirdParty/STM32F4xx_HAL_Driver/Src/stm32f4xx_hal_rcc.c ****         /* HSE used as PLL clock source */
 901:ThirdParty/STM32F4xx_HAL_Driver/Src/stm32f4xx_hal_rcc.c ****         pllvco = (uint32_t) ((((uint64_t) HSE_VALUE * ((uint64_t) ((RCC->PLLCFGR & RCC_PLLCFGR_PLLN
 1114              		.loc 1 901 9 is_stmt 1 view .LVU346
 1115              		.loc 1 901 72 is_stmt 0 view .LVU347
 1116 0022 294B     		ldr	r3, .L110
 1117 0024 5968     		ldr	r1, [r3, #4]
 1118              		.loc 1 901 56 view .LVU348
 1119 0026 C1F3881C 		ubfx	ip, r1, #6, #9
 1120              		.loc 1 901 53 view .LVU349
 1121 002a 4FEA4C11 		lsl	r1, ip, #5
 1122 002e B1EB0C00 		subs	r0, r1, ip
 1123 0032 6EEB0E0E 		sbc	lr, lr, lr
 1124 0036 4FEA8E13 		lsl	r3, lr, #6
 1125 003a 43EA9063 		orr	r3, r3, r0, lsr #26
 1126 003e 8101     		lsls	r1, r0, #6
 1127 0040 091A     		subs	r1, r1, r0
 1128 0042 63EB0E03 		sbc	r3, r3, lr
 1129 0046 DB00     		lsls	r3, r3, #3
 1130 0048 43EA5173 		orr	r3, r3, r1, lsr #29
 1131 004c C900     		lsls	r1, r1, #3
 1132 004e 11EB0C0C 		adds	ip, r1, ip
 1133 0052 43F10003 		adc	r3, r3, #0
 1134 0056 5902     		lsls	r1, r3, #9
 1135              		.loc 1 901 130 view .LVU350
 1136 0058 0023     		movs	r3, #0
 1137 005a 4FEA4C20 		lsl	r0, ip, #9
 1138 005e 41EADC51 		orr	r1, r1, ip, lsr #23
 1139 0062 FFF7FEFF 		bl	__aeabi_uldivmod
 1140              	.LVL74:
 1141              	.L106:
 902:ThirdParty/STM32F4xx_HAL_Driver/Src/stm32f4xx_hal_rcc.c ****       }
 903:ThirdParty/STM32F4xx_HAL_Driver/Src/stm32f4xx_hal_rcc.c ****       else
 904:ThirdParty/STM32F4xx_HAL_Driver/Src/stm32f4xx_hal_rcc.c ****       {
 905:ThirdParty/STM32F4xx_HAL_Driver/Src/stm32f4xx_hal_rcc.c ****         /* HSI used as PLL clock source */
 906:ThirdParty/STM32F4xx_HAL_Driver/Src/stm32f4xx_hal_rcc.c ****         pllvco = (uint32_t) ((((uint64_t) HSI_VALUE * ((uint64_t) ((RCC->PLLCFGR & RCC_PLLCFGR_PLLN
 907:ThirdParty/STM32F4xx_HAL_Driver/Src/stm32f4xx_hal_rcc.c ****       }
 908:ThirdParty/STM32F4xx_HAL_Driver/Src/stm32f4xx_hal_rcc.c ****       pllp = ((((RCC->PLLCFGR & RCC_PLLCFGR_PLLP) >> RCC_PLLCFGR_PLLP_Pos) + 1U) *2U);
 1142              		.loc 1 908 7 is_stmt 1 view .LVU351
 1143              		.loc 1 908 21 is_stmt 0 view .LVU352
 1144 0066 184B     		ldr	r3, .L110
 1145 0068 5B68     		ldr	r3, [r3, #4]
 1146              		.loc 1 908 51 view .LVU353
ARM GAS  /tmp/ccCyRDhy.s 			page 39


 1147 006a C3F30143 		ubfx	r3, r3, #16, #2
 1148              		.loc 1 908 76 view .LVU354
 1149 006e 0133     		adds	r3, r3, #1
 1150              		.loc 1 908 12 view .LVU355
 1151 0070 5B00     		lsls	r3, r3, #1
 1152              	.LVL75:
 909:ThirdParty/STM32F4xx_HAL_Driver/Src/stm32f4xx_hal_rcc.c **** 
 910:ThirdParty/STM32F4xx_HAL_Driver/Src/stm32f4xx_hal_rcc.c ****       sysclockfreq = pllvco/pllp;
 1153              		.loc 1 910 7 is_stmt 1 view .LVU356
 1154              		.loc 1 910 20 is_stmt 0 view .LVU357
 1155 0072 B0FBF3F0 		udiv	r0, r0, r3
 1156              	.LVL76:
 911:ThirdParty/STM32F4xx_HAL_Driver/Src/stm32f4xx_hal_rcc.c ****       break;
 1157              		.loc 1 911 7 is_stmt 1 view .LVU358
 1158 0076 25E0     		b	.L103
 1159              	.LVL77:
 1160              	.L105:
 906:ThirdParty/STM32F4xx_HAL_Driver/Src/stm32f4xx_hal_rcc.c ****       }
 1161              		.loc 1 906 9 view .LVU359
 906:ThirdParty/STM32F4xx_HAL_Driver/Src/stm32f4xx_hal_rcc.c ****       }
 1162              		.loc 1 906 72 is_stmt 0 view .LVU360
 1163 0078 134B     		ldr	r3, .L110
 1164 007a 5968     		ldr	r1, [r3, #4]
 906:ThirdParty/STM32F4xx_HAL_Driver/Src/stm32f4xx_hal_rcc.c ****       }
 1165              		.loc 1 906 56 view .LVU361
 1166 007c C1F3881C 		ubfx	ip, r1, #6, #9
 906:ThirdParty/STM32F4xx_HAL_Driver/Src/stm32f4xx_hal_rcc.c ****       }
 1167              		.loc 1 906 53 view .LVU362
 1168 0080 4FEA4C11 		lsl	r1, ip, #5
 1169 0084 B1EB0C00 		subs	r0, r1, ip
 1170 0088 6EEB0E0E 		sbc	lr, lr, lr
 1171 008c 4FEA8E13 		lsl	r3, lr, #6
 1172 0090 43EA9063 		orr	r3, r3, r0, lsr #26
 1173 0094 8101     		lsls	r1, r0, #6
 1174 0096 091A     		subs	r1, r1, r0
 1175 0098 63EB0E03 		sbc	r3, r3, lr
 1176 009c DB00     		lsls	r3, r3, #3
 1177 009e 43EA5173 		orr	r3, r3, r1, lsr #29
 1178 00a2 C900     		lsls	r1, r1, #3
 1179 00a4 11EB0C0C 		adds	ip, r1, ip
 1180 00a8 43F10003 		adc	r3, r3, #0
 1181 00ac 9902     		lsls	r1, r3, #10
 906:ThirdParty/STM32F4xx_HAL_Driver/Src/stm32f4xx_hal_rcc.c ****       }
 1182              		.loc 1 906 130 view .LVU363
 1183 00ae 0023     		movs	r3, #0
 1184 00b0 4FEA8C20 		lsl	r0, ip, #10
 1185 00b4 41EA9C51 		orr	r1, r1, ip, lsr #22
 1186 00b8 FFF7FEFF 		bl	__aeabi_uldivmod
 1187              	.LVL78:
 906:ThirdParty/STM32F4xx_HAL_Driver/Src/stm32f4xx_hal_rcc.c ****       }
 1188              		.loc 1 906 130 view .LVU364
 1189 00bc D3E7     		b	.L106
 1190              	.LVL79:
 1191              	.L107:
 890:ThirdParty/STM32F4xx_HAL_Driver/Src/stm32f4xx_hal_rcc.c ****       break;
 1192              		.loc 1 890 20 view .LVU365
 1193 00be 0348     		ldr	r0, .L110+4
ARM GAS  /tmp/ccCyRDhy.s 			page 40


 1194 00c0 00E0     		b	.L103
 1195              	.L108:
 881:ThirdParty/STM32F4xx_HAL_Driver/Src/stm32f4xx_hal_rcc.c ****   {
 1196              		.loc 1 881 3 view .LVU366
 1197 00c2 0348     		ldr	r0, .L110+8
 1198              	.LVL80:
 912:ThirdParty/STM32F4xx_HAL_Driver/Src/stm32f4xx_hal_rcc.c ****     }
 913:ThirdParty/STM32F4xx_HAL_Driver/Src/stm32f4xx_hal_rcc.c ****     default:
 914:ThirdParty/STM32F4xx_HAL_Driver/Src/stm32f4xx_hal_rcc.c ****     {
 915:ThirdParty/STM32F4xx_HAL_Driver/Src/stm32f4xx_hal_rcc.c ****       sysclockfreq = HSI_VALUE;
 916:ThirdParty/STM32F4xx_HAL_Driver/Src/stm32f4xx_hal_rcc.c ****       break;
 917:ThirdParty/STM32F4xx_HAL_Driver/Src/stm32f4xx_hal_rcc.c ****     }
 918:ThirdParty/STM32F4xx_HAL_Driver/Src/stm32f4xx_hal_rcc.c ****   }
 919:ThirdParty/STM32F4xx_HAL_Driver/Src/stm32f4xx_hal_rcc.c ****   return sysclockfreq;
 1199              		.loc 1 919 3 is_stmt 1 view .LVU367
 1200              	.L103:
 920:ThirdParty/STM32F4xx_HAL_Driver/Src/stm32f4xx_hal_rcc.c **** }
 1201              		.loc 1 920 1 is_stmt 0 view .LVU368
 1202 00c4 08BD     		pop	{r3, pc}
 1203              	.L111:
 1204 00c6 00BF     		.align	2
 1205              	.L110:
 1206 00c8 00380240 		.word	1073887232
 1207 00cc 00127A00 		.word	8000000
 1208 00d0 0024F400 		.word	16000000
 1209              		.cfi_endproc
 1210              	.LFE139:
 1212              		.section	.text.HAL_RCC_ClockConfig,"ax",%progbits
 1213              		.align	1
 1214              		.global	HAL_RCC_ClockConfig
 1215              		.syntax unified
 1216              		.thumb
 1217              		.thumb_func
 1219              	HAL_RCC_ClockConfig:
 1220              	.LVL81:
 1221              	.LFB135:
 582:ThirdParty/STM32F4xx_HAL_Driver/Src/stm32f4xx_hal_rcc.c ****   uint32_t tickstart;
 1222              		.loc 1 582 1 is_stmt 1 view -0
 1223              		.cfi_startproc
 1224              		@ args = 0, pretend = 0, frame = 0
 1225              		@ frame_needed = 0, uses_anonymous_args = 0
 583:ThirdParty/STM32F4xx_HAL_Driver/Src/stm32f4xx_hal_rcc.c **** 
 1226              		.loc 1 583 3 view .LVU370
 586:ThirdParty/STM32F4xx_HAL_Driver/Src/stm32f4xx_hal_rcc.c ****   {
 1227              		.loc 1 586 3 view .LVU371
 586:ThirdParty/STM32F4xx_HAL_Driver/Src/stm32f4xx_hal_rcc.c ****   {
 1228              		.loc 1 586 5 is_stmt 0 view .LVU372
 1229 0000 0028     		cmp	r0, #0
 1230 0002 00F09A80 		beq	.L127
 582:ThirdParty/STM32F4xx_HAL_Driver/Src/stm32f4xx_hal_rcc.c ****   uint32_t tickstart;
 1231              		.loc 1 582 1 view .LVU373
 1232 0006 70B5     		push	{r4, r5, r6, lr}
 1233              	.LCFI11:
 1234              		.cfi_def_cfa_offset 16
 1235              		.cfi_offset 4, -16
 1236              		.cfi_offset 5, -12
 1237              		.cfi_offset 6, -8
ARM GAS  /tmp/ccCyRDhy.s 			page 41


 1238              		.cfi_offset 14, -4
 1239 0008 0D46     		mov	r5, r1
 1240 000a 0446     		mov	r4, r0
 592:ThirdParty/STM32F4xx_HAL_Driver/Src/stm32f4xx_hal_rcc.c ****   assert_param(IS_FLASH_LATENCY(FLatency));
 1241              		.loc 1 592 3 is_stmt 1 view .LVU374
 593:ThirdParty/STM32F4xx_HAL_Driver/Src/stm32f4xx_hal_rcc.c **** 
 1242              		.loc 1 593 3 view .LVU375
 600:ThirdParty/STM32F4xx_HAL_Driver/Src/stm32f4xx_hal_rcc.c ****   {
 1243              		.loc 1 600 3 view .LVU376
 600:ThirdParty/STM32F4xx_HAL_Driver/Src/stm32f4xx_hal_rcc.c ****   {
 1244              		.loc 1 600 17 is_stmt 0 view .LVU377
 1245 000c 4F4B     		ldr	r3, .L140
 1246 000e 1B68     		ldr	r3, [r3]
 1247 0010 03F00F03 		and	r3, r3, #15
 600:ThirdParty/STM32F4xx_HAL_Driver/Src/stm32f4xx_hal_rcc.c ****   {
 1248              		.loc 1 600 5 view .LVU378
 1249 0014 8B42     		cmp	r3, r1
 1250 0016 08D2     		bcs	.L114
 603:ThirdParty/STM32F4xx_HAL_Driver/Src/stm32f4xx_hal_rcc.c **** 
 1251              		.loc 1 603 5 is_stmt 1 view .LVU379
 1252 0018 CBB2     		uxtb	r3, r1
 1253 001a 4C4A     		ldr	r2, .L140
 1254 001c 1370     		strb	r3, [r2]
 607:ThirdParty/STM32F4xx_HAL_Driver/Src/stm32f4xx_hal_rcc.c ****     {
 1255              		.loc 1 607 5 view .LVU380
 607:ThirdParty/STM32F4xx_HAL_Driver/Src/stm32f4xx_hal_rcc.c ****     {
 1256              		.loc 1 607 8 is_stmt 0 view .LVU381
 1257 001e 1368     		ldr	r3, [r2]
 1258 0020 03F00F03 		and	r3, r3, #15
 607:ThirdParty/STM32F4xx_HAL_Driver/Src/stm32f4xx_hal_rcc.c ****     {
 1259              		.loc 1 607 7 view .LVU382
 1260 0024 8B42     		cmp	r3, r1
 1261 0026 40F08A80 		bne	.L128
 1262              	.L114:
 614:ThirdParty/STM32F4xx_HAL_Driver/Src/stm32f4xx_hal_rcc.c ****   {
 1263              		.loc 1 614 3 is_stmt 1 view .LVU383
 614:ThirdParty/STM32F4xx_HAL_Driver/Src/stm32f4xx_hal_rcc.c ****   {
 1264              		.loc 1 614 25 is_stmt 0 view .LVU384
 1265 002a 2368     		ldr	r3, [r4]
 614:ThirdParty/STM32F4xx_HAL_Driver/Src/stm32f4xx_hal_rcc.c ****   {
 1266              		.loc 1 614 5 view .LVU385
 1267 002c 13F0020F 		tst	r3, #2
 1268 0030 17D0     		beq	.L115
 618:ThirdParty/STM32F4xx_HAL_Driver/Src/stm32f4xx_hal_rcc.c ****     {
 1269              		.loc 1 618 5 is_stmt 1 view .LVU386
 618:ThirdParty/STM32F4xx_HAL_Driver/Src/stm32f4xx_hal_rcc.c ****     {
 1270              		.loc 1 618 7 is_stmt 0 view .LVU387
 1271 0032 13F0040F 		tst	r3, #4
 1272 0036 04D0     		beq	.L116
 620:ThirdParty/STM32F4xx_HAL_Driver/Src/stm32f4xx_hal_rcc.c ****     }
 1273              		.loc 1 620 7 is_stmt 1 view .LVU388
 1274 0038 454A     		ldr	r2, .L140+4
 1275 003a 9368     		ldr	r3, [r2, #8]
 1276 003c 43F4E053 		orr	r3, r3, #7168
 1277 0040 9360     		str	r3, [r2, #8]
 1278              	.L116:
 623:ThirdParty/STM32F4xx_HAL_Driver/Src/stm32f4xx_hal_rcc.c ****     {
ARM GAS  /tmp/ccCyRDhy.s 			page 42


 1279              		.loc 1 623 5 view .LVU389
 623:ThirdParty/STM32F4xx_HAL_Driver/Src/stm32f4xx_hal_rcc.c ****     {
 1280              		.loc 1 623 27 is_stmt 0 view .LVU390
 1281 0042 2368     		ldr	r3, [r4]
 623:ThirdParty/STM32F4xx_HAL_Driver/Src/stm32f4xx_hal_rcc.c ****     {
 1282              		.loc 1 623 7 view .LVU391
 1283 0044 13F0080F 		tst	r3, #8
 1284 0048 04D0     		beq	.L117
 625:ThirdParty/STM32F4xx_HAL_Driver/Src/stm32f4xx_hal_rcc.c ****     }
 1285              		.loc 1 625 7 is_stmt 1 view .LVU392
 1286 004a 414A     		ldr	r2, .L140+4
 1287 004c 9368     		ldr	r3, [r2, #8]
 1288 004e 43F46043 		orr	r3, r3, #57344
 1289 0052 9360     		str	r3, [r2, #8]
 1290              	.L117:
 628:ThirdParty/STM32F4xx_HAL_Driver/Src/stm32f4xx_hal_rcc.c ****     MODIFY_REG(RCC->CFGR, RCC_CFGR_HPRE, RCC_ClkInitStruct->AHBCLKDivider);
 1291              		.loc 1 628 5 view .LVU393
 629:ThirdParty/STM32F4xx_HAL_Driver/Src/stm32f4xx_hal_rcc.c ****   }
 1292              		.loc 1 629 5 view .LVU394
 1293 0054 3E4A     		ldr	r2, .L140+4
 1294 0056 9368     		ldr	r3, [r2, #8]
 1295 0058 23F0F003 		bic	r3, r3, #240
 1296 005c A168     		ldr	r1, [r4, #8]
 1297              	.LVL82:
 629:ThirdParty/STM32F4xx_HAL_Driver/Src/stm32f4xx_hal_rcc.c ****   }
 1298              		.loc 1 629 5 is_stmt 0 view .LVU395
 1299 005e 0B43     		orrs	r3, r3, r1
 1300 0060 9360     		str	r3, [r2, #8]
 1301              	.L115:
 633:ThirdParty/STM32F4xx_HAL_Driver/Src/stm32f4xx_hal_rcc.c ****   {
 1302              		.loc 1 633 3 is_stmt 1 view .LVU396
 633:ThirdParty/STM32F4xx_HAL_Driver/Src/stm32f4xx_hal_rcc.c ****   {
 1303              		.loc 1 633 25 is_stmt 0 view .LVU397
 1304 0062 2368     		ldr	r3, [r4]
 633:ThirdParty/STM32F4xx_HAL_Driver/Src/stm32f4xx_hal_rcc.c ****   {
 1305              		.loc 1 633 5 view .LVU398
 1306 0064 13F0010F 		tst	r3, #1
 1307 0068 32D0     		beq	.L118
 635:ThirdParty/STM32F4xx_HAL_Driver/Src/stm32f4xx_hal_rcc.c **** 
 1308              		.loc 1 635 5 is_stmt 1 view .LVU399
 638:ThirdParty/STM32F4xx_HAL_Driver/Src/stm32f4xx_hal_rcc.c ****     {
 1309              		.loc 1 638 5 view .LVU400
 638:ThirdParty/STM32F4xx_HAL_Driver/Src/stm32f4xx_hal_rcc.c ****     {
 1310              		.loc 1 638 25 is_stmt 0 view .LVU401
 1311 006a 6368     		ldr	r3, [r4, #4]
 638:ThirdParty/STM32F4xx_HAL_Driver/Src/stm32f4xx_hal_rcc.c ****     {
 1312              		.loc 1 638 7 view .LVU402
 1313 006c 012B     		cmp	r3, #1
 1314 006e 21D0     		beq	.L138
 647:ThirdParty/STM32F4xx_HAL_Driver/Src/stm32f4xx_hal_rcc.c ****             (RCC_ClkInitStruct->SYSCLKSource == RCC_SYSCLKSOURCE_PLLRCLK))
 1315              		.loc 1 647 10 is_stmt 1 view .LVU403
 647:ThirdParty/STM32F4xx_HAL_Driver/Src/stm32f4xx_hal_rcc.c ****             (RCC_ClkInitStruct->SYSCLKSource == RCC_SYSCLKSOURCE_PLLRCLK))
 1316              		.loc 1 647 76 is_stmt 0 view .LVU404
 1317 0070 9A1E     		subs	r2, r3, #2
 647:ThirdParty/STM32F4xx_HAL_Driver/Src/stm32f4xx_hal_rcc.c ****             (RCC_ClkInitStruct->SYSCLKSource == RCC_SYSCLKSOURCE_PLLRCLK))
 1318              		.loc 1 647 12 view .LVU405
 1319 0072 012A     		cmp	r2, #1
ARM GAS  /tmp/ccCyRDhy.s 			page 43


 1320 0074 25D9     		bls	.L139
 660:ThirdParty/STM32F4xx_HAL_Driver/Src/stm32f4xx_hal_rcc.c ****       {
 1321              		.loc 1 660 7 is_stmt 1 view .LVU406
 660:ThirdParty/STM32F4xx_HAL_Driver/Src/stm32f4xx_hal_rcc.c ****       {
 1322              		.loc 1 660 10 is_stmt 0 view .LVU407
 1323 0076 364A     		ldr	r2, .L140+4
 1324 0078 1268     		ldr	r2, [r2]
 660:ThirdParty/STM32F4xx_HAL_Driver/Src/stm32f4xx_hal_rcc.c ****       {
 1325              		.loc 1 660 9 view .LVU408
 1326 007a 12F0020F 		tst	r2, #2
 1327 007e 60D0     		beq	.L131
 1328              	.L120:
 666:ThirdParty/STM32F4xx_HAL_Driver/Src/stm32f4xx_hal_rcc.c **** 
 1329              		.loc 1 666 5 is_stmt 1 view .LVU409
 1330 0080 3349     		ldr	r1, .L140+4
 1331 0082 8A68     		ldr	r2, [r1, #8]
 1332 0084 22F00302 		bic	r2, r2, #3
 1333 0088 1343     		orrs	r3, r3, r2
 1334 008a 8B60     		str	r3, [r1, #8]
 669:ThirdParty/STM32F4xx_HAL_Driver/Src/stm32f4xx_hal_rcc.c **** 
 1335              		.loc 1 669 5 view .LVU410
 669:ThirdParty/STM32F4xx_HAL_Driver/Src/stm32f4xx_hal_rcc.c **** 
 1336              		.loc 1 669 17 is_stmt 0 view .LVU411
 1337 008c FFF7FEFF 		bl	HAL_GetTick
 1338              	.LVL83:
 669:ThirdParty/STM32F4xx_HAL_Driver/Src/stm32f4xx_hal_rcc.c **** 
 1339              		.loc 1 669 17 view .LVU412
 1340 0090 0646     		mov	r6, r0
 1341              	.LVL84:
 671:ThirdParty/STM32F4xx_HAL_Driver/Src/stm32f4xx_hal_rcc.c ****     {
 1342              		.loc 1 671 5 is_stmt 1 view .LVU413
 1343              	.L122:
 671:ThirdParty/STM32F4xx_HAL_Driver/Src/stm32f4xx_hal_rcc.c ****     {
 1344              		.loc 1 671 11 view .LVU414
 671:ThirdParty/STM32F4xx_HAL_Driver/Src/stm32f4xx_hal_rcc.c ****     {
 1345              		.loc 1 671 12 is_stmt 0 view .LVU415
 1346 0092 2F4B     		ldr	r3, .L140+4
 1347 0094 9B68     		ldr	r3, [r3, #8]
 1348 0096 03F00C03 		and	r3, r3, #12
 671:ThirdParty/STM32F4xx_HAL_Driver/Src/stm32f4xx_hal_rcc.c ****     {
 1349              		.loc 1 671 63 view .LVU416
 1350 009a 6268     		ldr	r2, [r4, #4]
 671:ThirdParty/STM32F4xx_HAL_Driver/Src/stm32f4xx_hal_rcc.c ****     {
 1351              		.loc 1 671 11 view .LVU417
 1352 009c B3EB820F 		cmp	r3, r2, lsl #2
 1353 00a0 16D0     		beq	.L118
 673:ThirdParty/STM32F4xx_HAL_Driver/Src/stm32f4xx_hal_rcc.c ****       {
 1354              		.loc 1 673 7 is_stmt 1 view .LVU418
 673:ThirdParty/STM32F4xx_HAL_Driver/Src/stm32f4xx_hal_rcc.c ****       {
 1355              		.loc 1 673 12 is_stmt 0 view .LVU419
 1356 00a2 FFF7FEFF 		bl	HAL_GetTick
 1357              	.LVL85:
 673:ThirdParty/STM32F4xx_HAL_Driver/Src/stm32f4xx_hal_rcc.c ****       {
 1358              		.loc 1 673 26 view .LVU420
 1359 00a6 801B     		subs	r0, r0, r6
 673:ThirdParty/STM32F4xx_HAL_Driver/Src/stm32f4xx_hal_rcc.c ****       {
 1360              		.loc 1 673 10 view .LVU421
ARM GAS  /tmp/ccCyRDhy.s 			page 44


 1361 00a8 41F28833 		movw	r3, #5000
 1362 00ac 9842     		cmp	r0, r3
 1363 00ae F0D9     		bls	.L122
 675:ThirdParty/STM32F4xx_HAL_Driver/Src/stm32f4xx_hal_rcc.c ****       }
 1364              		.loc 1 675 16 view .LVU422
 1365 00b0 0320     		movs	r0, #3
 1366 00b2 41E0     		b	.L113
 1367              	.LVL86:
 1368              	.L138:
 641:ThirdParty/STM32F4xx_HAL_Driver/Src/stm32f4xx_hal_rcc.c ****       {
 1369              		.loc 1 641 7 is_stmt 1 view .LVU423
 641:ThirdParty/STM32F4xx_HAL_Driver/Src/stm32f4xx_hal_rcc.c ****       {
 1370              		.loc 1 641 10 is_stmt 0 view .LVU424
 1371 00b4 264A     		ldr	r2, .L140+4
 1372 00b6 1268     		ldr	r2, [r2]
 641:ThirdParty/STM32F4xx_HAL_Driver/Src/stm32f4xx_hal_rcc.c ****       {
 1373              		.loc 1 641 9 view .LVU425
 1374 00b8 12F4003F 		tst	r2, #131072
 1375 00bc E0D1     		bne	.L120
 643:ThirdParty/STM32F4xx_HAL_Driver/Src/stm32f4xx_hal_rcc.c ****       }
 1376              		.loc 1 643 16 view .LVU426
 1377 00be 0120     		movs	r0, #1
 1378              	.LVL87:
 643:ThirdParty/STM32F4xx_HAL_Driver/Src/stm32f4xx_hal_rcc.c ****       }
 1379              		.loc 1 643 16 view .LVU427
 1380 00c0 3AE0     		b	.L113
 1381              	.LVL88:
 1382              	.L139:
 651:ThirdParty/STM32F4xx_HAL_Driver/Src/stm32f4xx_hal_rcc.c ****       {
 1383              		.loc 1 651 7 is_stmt 1 view .LVU428
 651:ThirdParty/STM32F4xx_HAL_Driver/Src/stm32f4xx_hal_rcc.c ****       {
 1384              		.loc 1 651 10 is_stmt 0 view .LVU429
 1385 00c2 234A     		ldr	r2, .L140+4
 1386 00c4 1268     		ldr	r2, [r2]
 651:ThirdParty/STM32F4xx_HAL_Driver/Src/stm32f4xx_hal_rcc.c ****       {
 1387              		.loc 1 651 9 view .LVU430
 1388 00c6 12F0007F 		tst	r2, #33554432
 1389 00ca D9D1     		bne	.L120
 653:ThirdParty/STM32F4xx_HAL_Driver/Src/stm32f4xx_hal_rcc.c ****       }
 1390              		.loc 1 653 16 view .LVU431
 1391 00cc 0120     		movs	r0, #1
 1392              	.LVL89:
 653:ThirdParty/STM32F4xx_HAL_Driver/Src/stm32f4xx_hal_rcc.c ****       }
 1393              		.loc 1 653 16 view .LVU432
 1394 00ce 33E0     		b	.L113
 1395              	.L118:
 681:ThirdParty/STM32F4xx_HAL_Driver/Src/stm32f4xx_hal_rcc.c ****   {
 1396              		.loc 1 681 3 is_stmt 1 view .LVU433
 681:ThirdParty/STM32F4xx_HAL_Driver/Src/stm32f4xx_hal_rcc.c ****   {
 1397              		.loc 1 681 17 is_stmt 0 view .LVU434
 1398 00d0 1E4B     		ldr	r3, .L140
 1399 00d2 1B68     		ldr	r3, [r3]
 1400 00d4 03F00F03 		and	r3, r3, #15
 681:ThirdParty/STM32F4xx_HAL_Driver/Src/stm32f4xx_hal_rcc.c ****   {
 1401              		.loc 1 681 5 view .LVU435
 1402 00d8 AB42     		cmp	r3, r5
 1403 00da 07D9     		bls	.L124
ARM GAS  /tmp/ccCyRDhy.s 			page 45


 684:ThirdParty/STM32F4xx_HAL_Driver/Src/stm32f4xx_hal_rcc.c **** 
 1404              		.loc 1 684 5 is_stmt 1 view .LVU436
 1405 00dc EAB2     		uxtb	r2, r5
 1406 00de 1B4B     		ldr	r3, .L140
 1407 00e0 1A70     		strb	r2, [r3]
 688:ThirdParty/STM32F4xx_HAL_Driver/Src/stm32f4xx_hal_rcc.c ****     {
 1408              		.loc 1 688 5 view .LVU437
 688:ThirdParty/STM32F4xx_HAL_Driver/Src/stm32f4xx_hal_rcc.c ****     {
 1409              		.loc 1 688 8 is_stmt 0 view .LVU438
 1410 00e2 1B68     		ldr	r3, [r3]
 1411 00e4 03F00F03 		and	r3, r3, #15
 688:ThirdParty/STM32F4xx_HAL_Driver/Src/stm32f4xx_hal_rcc.c ****     {
 1412              		.loc 1 688 7 view .LVU439
 1413 00e8 AB42     		cmp	r3, r5
 1414 00ea 2CD1     		bne	.L133
 1415              	.L124:
 695:ThirdParty/STM32F4xx_HAL_Driver/Src/stm32f4xx_hal_rcc.c ****   {
 1416              		.loc 1 695 3 is_stmt 1 view .LVU440
 695:ThirdParty/STM32F4xx_HAL_Driver/Src/stm32f4xx_hal_rcc.c ****   {
 1417              		.loc 1 695 25 is_stmt 0 view .LVU441
 1418 00ec 2368     		ldr	r3, [r4]
 695:ThirdParty/STM32F4xx_HAL_Driver/Src/stm32f4xx_hal_rcc.c ****   {
 1419              		.loc 1 695 5 view .LVU442
 1420 00ee 13F0040F 		tst	r3, #4
 1421 00f2 06D0     		beq	.L125
 697:ThirdParty/STM32F4xx_HAL_Driver/Src/stm32f4xx_hal_rcc.c ****     MODIFY_REG(RCC->CFGR, RCC_CFGR_PPRE1, RCC_ClkInitStruct->APB1CLKDivider);
 1422              		.loc 1 697 5 is_stmt 1 view .LVU443
 698:ThirdParty/STM32F4xx_HAL_Driver/Src/stm32f4xx_hal_rcc.c ****   }
 1423              		.loc 1 698 5 view .LVU444
 1424 00f4 164A     		ldr	r2, .L140+4
 1425 00f6 9368     		ldr	r3, [r2, #8]
 1426 00f8 23F4E053 		bic	r3, r3, #7168
 1427 00fc E168     		ldr	r1, [r4, #12]
 1428 00fe 0B43     		orrs	r3, r3, r1
 1429 0100 9360     		str	r3, [r2, #8]
 1430              	.L125:
 702:ThirdParty/STM32F4xx_HAL_Driver/Src/stm32f4xx_hal_rcc.c ****   {
 1431              		.loc 1 702 3 view .LVU445
 702:ThirdParty/STM32F4xx_HAL_Driver/Src/stm32f4xx_hal_rcc.c ****   {
 1432              		.loc 1 702 25 is_stmt 0 view .LVU446
 1433 0102 2368     		ldr	r3, [r4]
 702:ThirdParty/STM32F4xx_HAL_Driver/Src/stm32f4xx_hal_rcc.c ****   {
 1434              		.loc 1 702 5 view .LVU447
 1435 0104 13F0080F 		tst	r3, #8
 1436 0108 07D0     		beq	.L126
 704:ThirdParty/STM32F4xx_HAL_Driver/Src/stm32f4xx_hal_rcc.c ****     MODIFY_REG(RCC->CFGR, RCC_CFGR_PPRE2, ((RCC_ClkInitStruct->APB2CLKDivider) << 3U));
 1437              		.loc 1 704 5 is_stmt 1 view .LVU448
 705:ThirdParty/STM32F4xx_HAL_Driver/Src/stm32f4xx_hal_rcc.c ****   }
 1438              		.loc 1 705 5 view .LVU449
 1439 010a 114A     		ldr	r2, .L140+4
 1440 010c 9368     		ldr	r3, [r2, #8]
 1441 010e 23F46043 		bic	r3, r3, #57344
 1442 0112 2169     		ldr	r1, [r4, #16]
 1443 0114 43EAC103 		orr	r3, r3, r1, lsl #3
 1444 0118 9360     		str	r3, [r2, #8]
 1445              	.L126:
 709:ThirdParty/STM32F4xx_HAL_Driver/Src/stm32f4xx_hal_rcc.c **** 
ARM GAS  /tmp/ccCyRDhy.s 			page 46


 1446              		.loc 1 709 3 view .LVU450
 709:ThirdParty/STM32F4xx_HAL_Driver/Src/stm32f4xx_hal_rcc.c **** 
 1447              		.loc 1 709 21 is_stmt 0 view .LVU451
 1448 011a FFF7FEFF 		bl	HAL_RCC_GetSysClockFreq
 1449              	.LVL90:
 709:ThirdParty/STM32F4xx_HAL_Driver/Src/stm32f4xx_hal_rcc.c **** 
 1450              		.loc 1 709 68 view .LVU452
 1451 011e 0C4B     		ldr	r3, .L140+4
 1452 0120 9B68     		ldr	r3, [r3, #8]
 709:ThirdParty/STM32F4xx_HAL_Driver/Src/stm32f4xx_hal_rcc.c **** 
 1453              		.loc 1 709 91 view .LVU453
 1454 0122 C3F30313 		ubfx	r3, r3, #4, #4
 709:ThirdParty/STM32F4xx_HAL_Driver/Src/stm32f4xx_hal_rcc.c **** 
 1455              		.loc 1 709 63 view .LVU454
 1456 0126 0B4A     		ldr	r2, .L140+8
 1457 0128 D35C     		ldrb	r3, [r2, r3]	@ zero_extendqisi2
 709:ThirdParty/STM32F4xx_HAL_Driver/Src/stm32f4xx_hal_rcc.c **** 
 1458              		.loc 1 709 47 view .LVU455
 1459 012a D840     		lsrs	r0, r0, r3
 709:ThirdParty/STM32F4xx_HAL_Driver/Src/stm32f4xx_hal_rcc.c **** 
 1460              		.loc 1 709 19 view .LVU456
 1461 012c 0A4B     		ldr	r3, .L140+12
 1462 012e 1860     		str	r0, [r3]
 712:ThirdParty/STM32F4xx_HAL_Driver/Src/stm32f4xx_hal_rcc.c **** 
 1463              		.loc 1 712 3 is_stmt 1 view .LVU457
 1464 0130 0620     		movs	r0, #6
 1465 0132 FFF7FEFF 		bl	HAL_InitTick
 1466              	.LVL91:
 714:ThirdParty/STM32F4xx_HAL_Driver/Src/stm32f4xx_hal_rcc.c **** }
 1467              		.loc 1 714 3 view .LVU458
 714:ThirdParty/STM32F4xx_HAL_Driver/Src/stm32f4xx_hal_rcc.c **** }
 1468              		.loc 1 714 10 is_stmt 0 view .LVU459
 1469 0136 0020     		movs	r0, #0
 1470              	.L113:
 715:ThirdParty/STM32F4xx_HAL_Driver/Src/stm32f4xx_hal_rcc.c **** 
 1471              		.loc 1 715 1 view .LVU460
 1472 0138 70BD     		pop	{r4, r5, r6, pc}
 1473              	.LVL92:
 1474              	.L127:
 1475              	.LCFI12:
 1476              		.cfi_def_cfa_offset 0
 1477              		.cfi_restore 4
 1478              		.cfi_restore 5
 1479              		.cfi_restore 6
 1480              		.cfi_restore 14
 588:ThirdParty/STM32F4xx_HAL_Driver/Src/stm32f4xx_hal_rcc.c ****   }
 1481              		.loc 1 588 12 view .LVU461
 1482 013a 0120     		movs	r0, #1
 1483              	.LVL93:
 715:ThirdParty/STM32F4xx_HAL_Driver/Src/stm32f4xx_hal_rcc.c **** 
 1484              		.loc 1 715 1 view .LVU462
 1485 013c 7047     		bx	lr
 1486              	.LVL94:
 1487              	.L128:
 1488              	.LCFI13:
 1489              		.cfi_def_cfa_offset 16
 1490              		.cfi_offset 4, -16
ARM GAS  /tmp/ccCyRDhy.s 			page 47


 1491              		.cfi_offset 5, -12
 1492              		.cfi_offset 6, -8
 1493              		.cfi_offset 14, -4
 609:ThirdParty/STM32F4xx_HAL_Driver/Src/stm32f4xx_hal_rcc.c ****     }
 1494              		.loc 1 609 14 view .LVU463
 1495 013e 0120     		movs	r0, #1
 1496              	.LVL95:
 609:ThirdParty/STM32F4xx_HAL_Driver/Src/stm32f4xx_hal_rcc.c ****     }
 1497              		.loc 1 609 14 view .LVU464
 1498 0140 FAE7     		b	.L113
 1499              	.LVL96:
 1500              	.L131:
 662:ThirdParty/STM32F4xx_HAL_Driver/Src/stm32f4xx_hal_rcc.c ****       }
 1501              		.loc 1 662 16 view .LVU465
 1502 0142 0120     		movs	r0, #1
 1503              	.LVL97:
 662:ThirdParty/STM32F4xx_HAL_Driver/Src/stm32f4xx_hal_rcc.c ****       }
 1504              		.loc 1 662 16 view .LVU466
 1505 0144 F8E7     		b	.L113
 1506              	.L133:
 690:ThirdParty/STM32F4xx_HAL_Driver/Src/stm32f4xx_hal_rcc.c ****     }
 1507              		.loc 1 690 14 view .LVU467
 1508 0146 0120     		movs	r0, #1
 1509 0148 F6E7     		b	.L113
 1510              	.L141:
 1511 014a 00BF     		.align	2
 1512              	.L140:
 1513 014c 003C0240 		.word	1073888256
 1514 0150 00380240 		.word	1073887232
 1515 0154 00000000 		.word	AHBPrescTable
 1516 0158 00000000 		.word	SystemCoreClock
 1517              		.cfi_endproc
 1518              	.LFE135:
 1520              		.section	.text.HAL_RCC_GetHCLKFreq,"ax",%progbits
 1521              		.align	1
 1522              		.global	HAL_RCC_GetHCLKFreq
 1523              		.syntax unified
 1524              		.thumb
 1525              		.thumb_func
 1527              	HAL_RCC_GetHCLKFreq:
 1528              	.LFB140:
 921:ThirdParty/STM32F4xx_HAL_Driver/Src/stm32f4xx_hal_rcc.c **** 
 922:ThirdParty/STM32F4xx_HAL_Driver/Src/stm32f4xx_hal_rcc.c **** /**
 923:ThirdParty/STM32F4xx_HAL_Driver/Src/stm32f4xx_hal_rcc.c ****   * @brief  Returns the HCLK frequency
 924:ThirdParty/STM32F4xx_HAL_Driver/Src/stm32f4xx_hal_rcc.c ****   * @note   Each time HCLK changes, this function must be called to update the
 925:ThirdParty/STM32F4xx_HAL_Driver/Src/stm32f4xx_hal_rcc.c ****   *         right HCLK value. Otherwise, any configuration based on this function will be incorrect
 926:ThirdParty/STM32F4xx_HAL_Driver/Src/stm32f4xx_hal_rcc.c ****   *
 927:ThirdParty/STM32F4xx_HAL_Driver/Src/stm32f4xx_hal_rcc.c ****   * @note   The SystemCoreClock CMSIS variable is used to store System Clock Frequency
 928:ThirdParty/STM32F4xx_HAL_Driver/Src/stm32f4xx_hal_rcc.c ****   *         and updated within this function
 929:ThirdParty/STM32F4xx_HAL_Driver/Src/stm32f4xx_hal_rcc.c ****   * @retval HCLK frequency
 930:ThirdParty/STM32F4xx_HAL_Driver/Src/stm32f4xx_hal_rcc.c ****   */
 931:ThirdParty/STM32F4xx_HAL_Driver/Src/stm32f4xx_hal_rcc.c **** uint32_t HAL_RCC_GetHCLKFreq(void)
 932:ThirdParty/STM32F4xx_HAL_Driver/Src/stm32f4xx_hal_rcc.c **** {
 1529              		.loc 1 932 1 is_stmt 1 view -0
 1530              		.cfi_startproc
 1531              		@ args = 0, pretend = 0, frame = 0
 1532              		@ frame_needed = 0, uses_anonymous_args = 0
ARM GAS  /tmp/ccCyRDhy.s 			page 48


 1533              		@ link register save eliminated.
 933:ThirdParty/STM32F4xx_HAL_Driver/Src/stm32f4xx_hal_rcc.c ****   return SystemCoreClock;
 1534              		.loc 1 933 3 view .LVU469
 934:ThirdParty/STM32F4xx_HAL_Driver/Src/stm32f4xx_hal_rcc.c **** }
 1535              		.loc 1 934 1 is_stmt 0 view .LVU470
 1536 0000 014B     		ldr	r3, .L143
 1537 0002 1868     		ldr	r0, [r3]
 1538 0004 7047     		bx	lr
 1539              	.L144:
 1540 0006 00BF     		.align	2
 1541              	.L143:
 1542 0008 00000000 		.word	SystemCoreClock
 1543              		.cfi_endproc
 1544              	.LFE140:
 1546              		.section	.text.HAL_RCC_GetPCLK1Freq,"ax",%progbits
 1547              		.align	1
 1548              		.global	HAL_RCC_GetPCLK1Freq
 1549              		.syntax unified
 1550              		.thumb
 1551              		.thumb_func
 1553              	HAL_RCC_GetPCLK1Freq:
 1554              	.LFB141:
 935:ThirdParty/STM32F4xx_HAL_Driver/Src/stm32f4xx_hal_rcc.c **** 
 936:ThirdParty/STM32F4xx_HAL_Driver/Src/stm32f4xx_hal_rcc.c **** /**
 937:ThirdParty/STM32F4xx_HAL_Driver/Src/stm32f4xx_hal_rcc.c ****   * @brief  Returns the PCLK1 frequency
 938:ThirdParty/STM32F4xx_HAL_Driver/Src/stm32f4xx_hal_rcc.c ****   * @note   Each time PCLK1 changes, this function must be called to update the
 939:ThirdParty/STM32F4xx_HAL_Driver/Src/stm32f4xx_hal_rcc.c ****   *         right PCLK1 value. Otherwise, any configuration based on this function will be incorrec
 940:ThirdParty/STM32F4xx_HAL_Driver/Src/stm32f4xx_hal_rcc.c ****   * @retval PCLK1 frequency
 941:ThirdParty/STM32F4xx_HAL_Driver/Src/stm32f4xx_hal_rcc.c ****   */
 942:ThirdParty/STM32F4xx_HAL_Driver/Src/stm32f4xx_hal_rcc.c **** uint32_t HAL_RCC_GetPCLK1Freq(void)
 943:ThirdParty/STM32F4xx_HAL_Driver/Src/stm32f4xx_hal_rcc.c **** {
 1555              		.loc 1 943 1 is_stmt 1 view -0
 1556              		.cfi_startproc
 1557              		@ args = 0, pretend = 0, frame = 0
 1558              		@ frame_needed = 0, uses_anonymous_args = 0
 1559 0000 08B5     		push	{r3, lr}
 1560              	.LCFI14:
 1561              		.cfi_def_cfa_offset 8
 1562              		.cfi_offset 3, -8
 1563              		.cfi_offset 14, -4
 944:ThirdParty/STM32F4xx_HAL_Driver/Src/stm32f4xx_hal_rcc.c ****   /* Get HCLK source and Compute PCLK1 frequency ---------------------------*/
 945:ThirdParty/STM32F4xx_HAL_Driver/Src/stm32f4xx_hal_rcc.c ****   return (HAL_RCC_GetHCLKFreq() >> APBPrescTable[(RCC->CFGR & RCC_CFGR_PPRE1)>> RCC_CFGR_PPRE1_Pos]
 1564              		.loc 1 945 3 view .LVU472
 1565              		.loc 1 945 11 is_stmt 0 view .LVU473
 1566 0002 FFF7FEFF 		bl	HAL_RCC_GetHCLKFreq
 1567              	.LVL98:
 1568              		.loc 1 945 54 view .LVU474
 1569 0006 044B     		ldr	r3, .L147
 1570 0008 9B68     		ldr	r3, [r3, #8]
 1571              		.loc 1 945 78 view .LVU475
 1572 000a C3F38223 		ubfx	r3, r3, #10, #3
 1573              		.loc 1 945 49 view .LVU476
 1574 000e 034A     		ldr	r2, .L147+4
 1575 0010 D35C     		ldrb	r3, [r2, r3]	@ zero_extendqisi2
 946:ThirdParty/STM32F4xx_HAL_Driver/Src/stm32f4xx_hal_rcc.c **** }
 1576              		.loc 1 946 1 view .LVU477
 1577 0012 D840     		lsrs	r0, r0, r3
ARM GAS  /tmp/ccCyRDhy.s 			page 49


 1578 0014 08BD     		pop	{r3, pc}
 1579              	.L148:
 1580 0016 00BF     		.align	2
 1581              	.L147:
 1582 0018 00380240 		.word	1073887232
 1583 001c 00000000 		.word	APBPrescTable
 1584              		.cfi_endproc
 1585              	.LFE141:
 1587              		.section	.text.HAL_RCC_GetPCLK2Freq,"ax",%progbits
 1588              		.align	1
 1589              		.global	HAL_RCC_GetPCLK2Freq
 1590              		.syntax unified
 1591              		.thumb
 1592              		.thumb_func
 1594              	HAL_RCC_GetPCLK2Freq:
 1595              	.LFB142:
 947:ThirdParty/STM32F4xx_HAL_Driver/Src/stm32f4xx_hal_rcc.c **** 
 948:ThirdParty/STM32F4xx_HAL_Driver/Src/stm32f4xx_hal_rcc.c **** /**
 949:ThirdParty/STM32F4xx_HAL_Driver/Src/stm32f4xx_hal_rcc.c ****   * @brief  Returns the PCLK2 frequency
 950:ThirdParty/STM32F4xx_HAL_Driver/Src/stm32f4xx_hal_rcc.c ****   * @note   Each time PCLK2 changes, this function must be called to update the
 951:ThirdParty/STM32F4xx_HAL_Driver/Src/stm32f4xx_hal_rcc.c ****   *         right PCLK2 value. Otherwise, any configuration based on this function will be incorrec
 952:ThirdParty/STM32F4xx_HAL_Driver/Src/stm32f4xx_hal_rcc.c ****   * @retval PCLK2 frequency
 953:ThirdParty/STM32F4xx_HAL_Driver/Src/stm32f4xx_hal_rcc.c ****   */
 954:ThirdParty/STM32F4xx_HAL_Driver/Src/stm32f4xx_hal_rcc.c **** uint32_t HAL_RCC_GetPCLK2Freq(void)
 955:ThirdParty/STM32F4xx_HAL_Driver/Src/stm32f4xx_hal_rcc.c **** {
 1596              		.loc 1 955 1 is_stmt 1 view -0
 1597              		.cfi_startproc
 1598              		@ args = 0, pretend = 0, frame = 0
 1599              		@ frame_needed = 0, uses_anonymous_args = 0
 1600 0000 08B5     		push	{r3, lr}
 1601              	.LCFI15:
 1602              		.cfi_def_cfa_offset 8
 1603              		.cfi_offset 3, -8
 1604              		.cfi_offset 14, -4
 956:ThirdParty/STM32F4xx_HAL_Driver/Src/stm32f4xx_hal_rcc.c ****   /* Get HCLK source and Compute PCLK2 frequency ---------------------------*/
 957:ThirdParty/STM32F4xx_HAL_Driver/Src/stm32f4xx_hal_rcc.c ****   return (HAL_RCC_GetHCLKFreq()>> APBPrescTable[(RCC->CFGR & RCC_CFGR_PPRE2)>> RCC_CFGR_PPRE2_Pos])
 1605              		.loc 1 957 3 view .LVU479
 1606              		.loc 1 957 11 is_stmt 0 view .LVU480
 1607 0002 FFF7FEFF 		bl	HAL_RCC_GetHCLKFreq
 1608              	.LVL99:
 1609              		.loc 1 957 53 view .LVU481
 1610 0006 044B     		ldr	r3, .L151
 1611 0008 9B68     		ldr	r3, [r3, #8]
 1612              		.loc 1 957 77 view .LVU482
 1613 000a C3F34233 		ubfx	r3, r3, #13, #3
 1614              		.loc 1 957 48 view .LVU483
 1615 000e 034A     		ldr	r2, .L151+4
 1616 0010 D35C     		ldrb	r3, [r2, r3]	@ zero_extendqisi2
 958:ThirdParty/STM32F4xx_HAL_Driver/Src/stm32f4xx_hal_rcc.c **** }
 1617              		.loc 1 958 1 view .LVU484
 1618 0012 D840     		lsrs	r0, r0, r3
 1619 0014 08BD     		pop	{r3, pc}
 1620              	.L152:
 1621 0016 00BF     		.align	2
 1622              	.L151:
 1623 0018 00380240 		.word	1073887232
 1624 001c 00000000 		.word	APBPrescTable
ARM GAS  /tmp/ccCyRDhy.s 			page 50


 1625              		.cfi_endproc
 1626              	.LFE142:
 1628              		.section	.text.HAL_RCC_GetOscConfig,"ax",%progbits
 1629              		.align	1
 1630              		.weak	HAL_RCC_GetOscConfig
 1631              		.syntax unified
 1632              		.thumb
 1633              		.thumb_func
 1635              	HAL_RCC_GetOscConfig:
 1636              	.LVL100:
 1637              	.LFB143:
 959:ThirdParty/STM32F4xx_HAL_Driver/Src/stm32f4xx_hal_rcc.c **** 
 960:ThirdParty/STM32F4xx_HAL_Driver/Src/stm32f4xx_hal_rcc.c **** /**
 961:ThirdParty/STM32F4xx_HAL_Driver/Src/stm32f4xx_hal_rcc.c ****   * @brief  Configures the RCC_OscInitStruct according to the internal
 962:ThirdParty/STM32F4xx_HAL_Driver/Src/stm32f4xx_hal_rcc.c ****   * RCC configuration registers.
 963:ThirdParty/STM32F4xx_HAL_Driver/Src/stm32f4xx_hal_rcc.c ****   * @param  RCC_OscInitStruct pointer to an RCC_OscInitTypeDef structure that
 964:ThirdParty/STM32F4xx_HAL_Driver/Src/stm32f4xx_hal_rcc.c ****   * will be configured.
 965:ThirdParty/STM32F4xx_HAL_Driver/Src/stm32f4xx_hal_rcc.c ****   * @retval None
 966:ThirdParty/STM32F4xx_HAL_Driver/Src/stm32f4xx_hal_rcc.c ****   */
 967:ThirdParty/STM32F4xx_HAL_Driver/Src/stm32f4xx_hal_rcc.c **** __weak void HAL_RCC_GetOscConfig(RCC_OscInitTypeDef  *RCC_OscInitStruct)
 968:ThirdParty/STM32F4xx_HAL_Driver/Src/stm32f4xx_hal_rcc.c **** {
 1638              		.loc 1 968 1 is_stmt 1 view -0
 1639              		.cfi_startproc
 1640              		@ args = 0, pretend = 0, frame = 0
 1641              		@ frame_needed = 0, uses_anonymous_args = 0
 1642              		@ link register save eliminated.
 969:ThirdParty/STM32F4xx_HAL_Driver/Src/stm32f4xx_hal_rcc.c ****   /* Set all possible values for the Oscillator type parameter ---------------*/
 970:ThirdParty/STM32F4xx_HAL_Driver/Src/stm32f4xx_hal_rcc.c ****   RCC_OscInitStruct->OscillatorType = RCC_OSCILLATORTYPE_HSE | RCC_OSCILLATORTYPE_HSI | RCC_OSCILLA
 1643              		.loc 1 970 3 view .LVU486
 1644              		.loc 1 970 37 is_stmt 0 view .LVU487
 1645 0000 0F23     		movs	r3, #15
 1646 0002 0360     		str	r3, [r0]
 971:ThirdParty/STM32F4xx_HAL_Driver/Src/stm32f4xx_hal_rcc.c **** 
 972:ThirdParty/STM32F4xx_HAL_Driver/Src/stm32f4xx_hal_rcc.c ****   /* Get the HSE configuration -----------------------------------------------*/
 973:ThirdParty/STM32F4xx_HAL_Driver/Src/stm32f4xx_hal_rcc.c ****   if((RCC->CR &RCC_CR_HSEBYP) == RCC_CR_HSEBYP)
 1647              		.loc 1 973 3 is_stmt 1 view .LVU488
 1648              		.loc 1 973 10 is_stmt 0 view .LVU489
 1649 0004 304B     		ldr	r3, .L166
 1650 0006 1B68     		ldr	r3, [r3]
 1651              		.loc 1 973 5 view .LVU490
 1652 0008 13F4802F 		tst	r3, #262144
 1653 000c 3BD0     		beq	.L154
 974:ThirdParty/STM32F4xx_HAL_Driver/Src/stm32f4xx_hal_rcc.c ****   {
 975:ThirdParty/STM32F4xx_HAL_Driver/Src/stm32f4xx_hal_rcc.c ****     RCC_OscInitStruct->HSEState = RCC_HSE_BYPASS;
 1654              		.loc 1 975 5 is_stmt 1 view .LVU491
 1655              		.loc 1 975 33 is_stmt 0 view .LVU492
 1656 000e 4FF4A023 		mov	r3, #327680
 1657 0012 4360     		str	r3, [r0, #4]
 1658              	.L155:
 976:ThirdParty/STM32F4xx_HAL_Driver/Src/stm32f4xx_hal_rcc.c ****   }
 977:ThirdParty/STM32F4xx_HAL_Driver/Src/stm32f4xx_hal_rcc.c ****   else if((RCC->CR &RCC_CR_HSEON) == RCC_CR_HSEON)
 978:ThirdParty/STM32F4xx_HAL_Driver/Src/stm32f4xx_hal_rcc.c ****   {
 979:ThirdParty/STM32F4xx_HAL_Driver/Src/stm32f4xx_hal_rcc.c ****     RCC_OscInitStruct->HSEState = RCC_HSE_ON;
 980:ThirdParty/STM32F4xx_HAL_Driver/Src/stm32f4xx_hal_rcc.c ****   }
 981:ThirdParty/STM32F4xx_HAL_Driver/Src/stm32f4xx_hal_rcc.c ****   else
 982:ThirdParty/STM32F4xx_HAL_Driver/Src/stm32f4xx_hal_rcc.c ****   {
 983:ThirdParty/STM32F4xx_HAL_Driver/Src/stm32f4xx_hal_rcc.c ****     RCC_OscInitStruct->HSEState = RCC_HSE_OFF;
ARM GAS  /tmp/ccCyRDhy.s 			page 51


 984:ThirdParty/STM32F4xx_HAL_Driver/Src/stm32f4xx_hal_rcc.c ****   }
 985:ThirdParty/STM32F4xx_HAL_Driver/Src/stm32f4xx_hal_rcc.c **** 
 986:ThirdParty/STM32F4xx_HAL_Driver/Src/stm32f4xx_hal_rcc.c ****   /* Get the HSI configuration -----------------------------------------------*/
 987:ThirdParty/STM32F4xx_HAL_Driver/Src/stm32f4xx_hal_rcc.c ****   if((RCC->CR &RCC_CR_HSION) == RCC_CR_HSION)
 1659              		.loc 1 987 3 is_stmt 1 view .LVU493
 1660              		.loc 1 987 10 is_stmt 0 view .LVU494
 1661 0014 2C4B     		ldr	r3, .L166
 1662 0016 1B68     		ldr	r3, [r3]
 1663              		.loc 1 987 5 view .LVU495
 1664 0018 13F0010F 		tst	r3, #1
 1665 001c 3FD0     		beq	.L157
 988:ThirdParty/STM32F4xx_HAL_Driver/Src/stm32f4xx_hal_rcc.c ****   {
 989:ThirdParty/STM32F4xx_HAL_Driver/Src/stm32f4xx_hal_rcc.c ****     RCC_OscInitStruct->HSIState = RCC_HSI_ON;
 1666              		.loc 1 989 5 is_stmt 1 view .LVU496
 1667              		.loc 1 989 33 is_stmt 0 view .LVU497
 1668 001e 0123     		movs	r3, #1
 1669 0020 C360     		str	r3, [r0, #12]
 1670              	.L158:
 990:ThirdParty/STM32F4xx_HAL_Driver/Src/stm32f4xx_hal_rcc.c ****   }
 991:ThirdParty/STM32F4xx_HAL_Driver/Src/stm32f4xx_hal_rcc.c ****   else
 992:ThirdParty/STM32F4xx_HAL_Driver/Src/stm32f4xx_hal_rcc.c ****   {
 993:ThirdParty/STM32F4xx_HAL_Driver/Src/stm32f4xx_hal_rcc.c ****     RCC_OscInitStruct->HSIState = RCC_HSI_OFF;
 994:ThirdParty/STM32F4xx_HAL_Driver/Src/stm32f4xx_hal_rcc.c ****   }
 995:ThirdParty/STM32F4xx_HAL_Driver/Src/stm32f4xx_hal_rcc.c **** 
 996:ThirdParty/STM32F4xx_HAL_Driver/Src/stm32f4xx_hal_rcc.c ****   RCC_OscInitStruct->HSICalibrationValue = (uint32_t)((RCC->CR &RCC_CR_HSITRIM) >> RCC_CR_HSITRIM_P
 1671              		.loc 1 996 3 is_stmt 1 view .LVU498
 1672              		.loc 1 996 59 is_stmt 0 view .LVU499
 1673 0022 294A     		ldr	r2, .L166
 1674 0024 1368     		ldr	r3, [r2]
 1675              		.loc 1 996 44 view .LVU500
 1676 0026 C3F3C403 		ubfx	r3, r3, #3, #5
 1677              		.loc 1 996 42 view .LVU501
 1678 002a 0361     		str	r3, [r0, #16]
 997:ThirdParty/STM32F4xx_HAL_Driver/Src/stm32f4xx_hal_rcc.c **** 
 998:ThirdParty/STM32F4xx_HAL_Driver/Src/stm32f4xx_hal_rcc.c ****   /* Get the LSE configuration -----------------------------------------------*/
 999:ThirdParty/STM32F4xx_HAL_Driver/Src/stm32f4xx_hal_rcc.c ****   if((RCC->BDCR &RCC_BDCR_LSEBYP) == RCC_BDCR_LSEBYP)
 1679              		.loc 1 999 3 is_stmt 1 view .LVU502
 1680              		.loc 1 999 10 is_stmt 0 view .LVU503
 1681 002c 136F     		ldr	r3, [r2, #112]
 1682              		.loc 1 999 5 view .LVU504
 1683 002e 13F0040F 		tst	r3, #4
 1684 0032 37D0     		beq	.L159
1000:ThirdParty/STM32F4xx_HAL_Driver/Src/stm32f4xx_hal_rcc.c ****   {
1001:ThirdParty/STM32F4xx_HAL_Driver/Src/stm32f4xx_hal_rcc.c ****     RCC_OscInitStruct->LSEState = RCC_LSE_BYPASS;
 1685              		.loc 1 1001 5 is_stmt 1 view .LVU505
 1686              		.loc 1 1001 33 is_stmt 0 view .LVU506
 1687 0034 0523     		movs	r3, #5
 1688 0036 8360     		str	r3, [r0, #8]
 1689              	.L160:
1002:ThirdParty/STM32F4xx_HAL_Driver/Src/stm32f4xx_hal_rcc.c ****   }
1003:ThirdParty/STM32F4xx_HAL_Driver/Src/stm32f4xx_hal_rcc.c ****   else if((RCC->BDCR &RCC_BDCR_LSEON) == RCC_BDCR_LSEON)
1004:ThirdParty/STM32F4xx_HAL_Driver/Src/stm32f4xx_hal_rcc.c ****   {
1005:ThirdParty/STM32F4xx_HAL_Driver/Src/stm32f4xx_hal_rcc.c ****     RCC_OscInitStruct->LSEState = RCC_LSE_ON;
1006:ThirdParty/STM32F4xx_HAL_Driver/Src/stm32f4xx_hal_rcc.c ****   }
1007:ThirdParty/STM32F4xx_HAL_Driver/Src/stm32f4xx_hal_rcc.c ****   else
1008:ThirdParty/STM32F4xx_HAL_Driver/Src/stm32f4xx_hal_rcc.c ****   {
1009:ThirdParty/STM32F4xx_HAL_Driver/Src/stm32f4xx_hal_rcc.c ****     RCC_OscInitStruct->LSEState = RCC_LSE_OFF;
ARM GAS  /tmp/ccCyRDhy.s 			page 52


1010:ThirdParty/STM32F4xx_HAL_Driver/Src/stm32f4xx_hal_rcc.c ****   }
1011:ThirdParty/STM32F4xx_HAL_Driver/Src/stm32f4xx_hal_rcc.c **** 
1012:ThirdParty/STM32F4xx_HAL_Driver/Src/stm32f4xx_hal_rcc.c ****   /* Get the LSI configuration -----------------------------------------------*/
1013:ThirdParty/STM32F4xx_HAL_Driver/Src/stm32f4xx_hal_rcc.c ****   if((RCC->CSR &RCC_CSR_LSION) == RCC_CSR_LSION)
 1690              		.loc 1 1013 3 is_stmt 1 view .LVU507
 1691              		.loc 1 1013 10 is_stmt 0 view .LVU508
 1692 0038 234B     		ldr	r3, .L166
 1693 003a 5B6F     		ldr	r3, [r3, #116]
 1694              		.loc 1 1013 5 view .LVU509
 1695 003c 13F0010F 		tst	r3, #1
 1696 0040 3BD0     		beq	.L162
1014:ThirdParty/STM32F4xx_HAL_Driver/Src/stm32f4xx_hal_rcc.c ****   {
1015:ThirdParty/STM32F4xx_HAL_Driver/Src/stm32f4xx_hal_rcc.c ****     RCC_OscInitStruct->LSIState = RCC_LSI_ON;
 1697              		.loc 1 1015 5 is_stmt 1 view .LVU510
 1698              		.loc 1 1015 33 is_stmt 0 view .LVU511
 1699 0042 0123     		movs	r3, #1
 1700 0044 4361     		str	r3, [r0, #20]
 1701              	.L163:
1016:ThirdParty/STM32F4xx_HAL_Driver/Src/stm32f4xx_hal_rcc.c ****   }
1017:ThirdParty/STM32F4xx_HAL_Driver/Src/stm32f4xx_hal_rcc.c ****   else
1018:ThirdParty/STM32F4xx_HAL_Driver/Src/stm32f4xx_hal_rcc.c ****   {
1019:ThirdParty/STM32F4xx_HAL_Driver/Src/stm32f4xx_hal_rcc.c ****     RCC_OscInitStruct->LSIState = RCC_LSI_OFF;
1020:ThirdParty/STM32F4xx_HAL_Driver/Src/stm32f4xx_hal_rcc.c ****   }
1021:ThirdParty/STM32F4xx_HAL_Driver/Src/stm32f4xx_hal_rcc.c **** 
1022:ThirdParty/STM32F4xx_HAL_Driver/Src/stm32f4xx_hal_rcc.c ****   /* Get the PLL configuration -----------------------------------------------*/
1023:ThirdParty/STM32F4xx_HAL_Driver/Src/stm32f4xx_hal_rcc.c ****   if((RCC->CR &RCC_CR_PLLON) == RCC_CR_PLLON)
 1702              		.loc 1 1023 3 is_stmt 1 view .LVU512
 1703              		.loc 1 1023 10 is_stmt 0 view .LVU513
 1704 0046 204B     		ldr	r3, .L166
 1705 0048 1B68     		ldr	r3, [r3]
 1706              		.loc 1 1023 5 view .LVU514
 1707 004a 13F0807F 		tst	r3, #16777216
 1708 004e 37D0     		beq	.L164
1024:ThirdParty/STM32F4xx_HAL_Driver/Src/stm32f4xx_hal_rcc.c ****   {
1025:ThirdParty/STM32F4xx_HAL_Driver/Src/stm32f4xx_hal_rcc.c ****     RCC_OscInitStruct->PLL.PLLState = RCC_PLL_ON;
 1709              		.loc 1 1025 5 is_stmt 1 view .LVU515
 1710              		.loc 1 1025 37 is_stmt 0 view .LVU516
 1711 0050 0223     		movs	r3, #2
 1712 0052 8361     		str	r3, [r0, #24]
 1713              	.L165:
1026:ThirdParty/STM32F4xx_HAL_Driver/Src/stm32f4xx_hal_rcc.c ****   }
1027:ThirdParty/STM32F4xx_HAL_Driver/Src/stm32f4xx_hal_rcc.c ****   else
1028:ThirdParty/STM32F4xx_HAL_Driver/Src/stm32f4xx_hal_rcc.c ****   {
1029:ThirdParty/STM32F4xx_HAL_Driver/Src/stm32f4xx_hal_rcc.c ****     RCC_OscInitStruct->PLL.PLLState = RCC_PLL_OFF;
1030:ThirdParty/STM32F4xx_HAL_Driver/Src/stm32f4xx_hal_rcc.c ****   }
1031:ThirdParty/STM32F4xx_HAL_Driver/Src/stm32f4xx_hal_rcc.c ****   RCC_OscInitStruct->PLL.PLLSource = (uint32_t)(RCC->PLLCFGR & RCC_PLLCFGR_PLLSRC);
 1714              		.loc 1 1031 3 is_stmt 1 view .LVU517
 1715              		.loc 1 1031 52 is_stmt 0 view .LVU518
 1716 0054 1C4A     		ldr	r2, .L166
 1717 0056 5368     		ldr	r3, [r2, #4]
 1718              		.loc 1 1031 38 view .LVU519
 1719 0058 03F48003 		and	r3, r3, #4194304
 1720              		.loc 1 1031 36 view .LVU520
 1721 005c C361     		str	r3, [r0, #28]
1032:ThirdParty/STM32F4xx_HAL_Driver/Src/stm32f4xx_hal_rcc.c ****   RCC_OscInitStruct->PLL.PLLM = (uint32_t)(RCC->PLLCFGR & RCC_PLLCFGR_PLLM);
 1722              		.loc 1 1032 3 is_stmt 1 view .LVU521
 1723              		.loc 1 1032 47 is_stmt 0 view .LVU522
ARM GAS  /tmp/ccCyRDhy.s 			page 53


 1724 005e 5368     		ldr	r3, [r2, #4]
 1725              		.loc 1 1032 33 view .LVU523
 1726 0060 03F03F03 		and	r3, r3, #63
 1727              		.loc 1 1032 31 view .LVU524
 1728 0064 0362     		str	r3, [r0, #32]
1033:ThirdParty/STM32F4xx_HAL_Driver/Src/stm32f4xx_hal_rcc.c ****   RCC_OscInitStruct->PLL.PLLN = (uint32_t)((RCC->PLLCFGR & RCC_PLLCFGR_PLLN) >> RCC_PLLCFGR_PLLN_Po
 1729              		.loc 1 1033 3 is_stmt 1 view .LVU525
 1730              		.loc 1 1033 48 is_stmt 0 view .LVU526
 1731 0066 5368     		ldr	r3, [r2, #4]
 1732              		.loc 1 1033 33 view .LVU527
 1733 0068 C3F38813 		ubfx	r3, r3, #6, #9
 1734              		.loc 1 1033 31 view .LVU528
 1735 006c 4362     		str	r3, [r0, #36]
1034:ThirdParty/STM32F4xx_HAL_Driver/Src/stm32f4xx_hal_rcc.c ****   RCC_OscInitStruct->PLL.PLLP = (uint32_t)((((RCC->PLLCFGR & RCC_PLLCFGR_PLLP) + RCC_PLLCFGR_PLLP_0
 1736              		.loc 1 1034 3 is_stmt 1 view .LVU529
 1737              		.loc 1 1034 50 is_stmt 0 view .LVU530
 1738 006e 5368     		ldr	r3, [r2, #4]
 1739              		.loc 1 1034 60 view .LVU531
 1740 0070 03F44033 		and	r3, r3, #196608
 1741              		.loc 1 1034 80 view .LVU532
 1742 0074 03F58033 		add	r3, r3, #65536
 1743              		.loc 1 1034 33 view .LVU533
 1744 0078 DB0B     		lsrs	r3, r3, #15
 1745              		.loc 1 1034 31 view .LVU534
 1746 007a 8362     		str	r3, [r0, #40]
1035:ThirdParty/STM32F4xx_HAL_Driver/Src/stm32f4xx_hal_rcc.c ****   RCC_OscInitStruct->PLL.PLLQ = (uint32_t)((RCC->PLLCFGR & RCC_PLLCFGR_PLLQ) >> RCC_PLLCFGR_PLLQ_Po
 1747              		.loc 1 1035 3 is_stmt 1 view .LVU535
 1748              		.loc 1 1035 48 is_stmt 0 view .LVU536
 1749 007c 5368     		ldr	r3, [r2, #4]
 1750              		.loc 1 1035 33 view .LVU537
 1751 007e C3F30363 		ubfx	r3, r3, #24, #4
 1752              		.loc 1 1035 31 view .LVU538
 1753 0082 C362     		str	r3, [r0, #44]
1036:ThirdParty/STM32F4xx_HAL_Driver/Src/stm32f4xx_hal_rcc.c **** }
 1754              		.loc 1 1036 1 view .LVU539
 1755 0084 7047     		bx	lr
 1756              	.L154:
 977:ThirdParty/STM32F4xx_HAL_Driver/Src/stm32f4xx_hal_rcc.c ****   {
 1757              		.loc 1 977 8 is_stmt 1 view .LVU540
 977:ThirdParty/STM32F4xx_HAL_Driver/Src/stm32f4xx_hal_rcc.c ****   {
 1758              		.loc 1 977 15 is_stmt 0 view .LVU541
 1759 0086 104B     		ldr	r3, .L166
 1760 0088 1B68     		ldr	r3, [r3]
 977:ThirdParty/STM32F4xx_HAL_Driver/Src/stm32f4xx_hal_rcc.c ****   {
 1761              		.loc 1 977 10 view .LVU542
 1762 008a 13F4803F 		tst	r3, #65536
 1763 008e 03D0     		beq	.L156
 979:ThirdParty/STM32F4xx_HAL_Driver/Src/stm32f4xx_hal_rcc.c ****   }
 1764              		.loc 1 979 5 is_stmt 1 view .LVU543
 979:ThirdParty/STM32F4xx_HAL_Driver/Src/stm32f4xx_hal_rcc.c ****   }
 1765              		.loc 1 979 33 is_stmt 0 view .LVU544
 1766 0090 4FF48033 		mov	r3, #65536
 1767 0094 4360     		str	r3, [r0, #4]
 1768 0096 BDE7     		b	.L155
 1769              	.L156:
 983:ThirdParty/STM32F4xx_HAL_Driver/Src/stm32f4xx_hal_rcc.c ****   }
 1770              		.loc 1 983 5 is_stmt 1 view .LVU545
ARM GAS  /tmp/ccCyRDhy.s 			page 54


 983:ThirdParty/STM32F4xx_HAL_Driver/Src/stm32f4xx_hal_rcc.c ****   }
 1771              		.loc 1 983 33 is_stmt 0 view .LVU546
 1772 0098 0023     		movs	r3, #0
 1773 009a 4360     		str	r3, [r0, #4]
 1774 009c BAE7     		b	.L155
 1775              	.L157:
 993:ThirdParty/STM32F4xx_HAL_Driver/Src/stm32f4xx_hal_rcc.c ****   }
 1776              		.loc 1 993 5 is_stmt 1 view .LVU547
 993:ThirdParty/STM32F4xx_HAL_Driver/Src/stm32f4xx_hal_rcc.c ****   }
 1777              		.loc 1 993 33 is_stmt 0 view .LVU548
 1778 009e 0023     		movs	r3, #0
 1779 00a0 C360     		str	r3, [r0, #12]
 1780 00a2 BEE7     		b	.L158
 1781              	.L159:
1003:ThirdParty/STM32F4xx_HAL_Driver/Src/stm32f4xx_hal_rcc.c ****   {
 1782              		.loc 1 1003 8 is_stmt 1 view .LVU549
1003:ThirdParty/STM32F4xx_HAL_Driver/Src/stm32f4xx_hal_rcc.c ****   {
 1783              		.loc 1 1003 15 is_stmt 0 view .LVU550
 1784 00a4 084B     		ldr	r3, .L166
 1785 00a6 1B6F     		ldr	r3, [r3, #112]
1003:ThirdParty/STM32F4xx_HAL_Driver/Src/stm32f4xx_hal_rcc.c ****   {
 1786              		.loc 1 1003 10 view .LVU551
 1787 00a8 13F0010F 		tst	r3, #1
 1788 00ac 02D0     		beq	.L161
1005:ThirdParty/STM32F4xx_HAL_Driver/Src/stm32f4xx_hal_rcc.c ****   }
 1789              		.loc 1 1005 5 is_stmt 1 view .LVU552
1005:ThirdParty/STM32F4xx_HAL_Driver/Src/stm32f4xx_hal_rcc.c ****   }
 1790              		.loc 1 1005 33 is_stmt 0 view .LVU553
 1791 00ae 0123     		movs	r3, #1
 1792 00b0 8360     		str	r3, [r0, #8]
 1793 00b2 C1E7     		b	.L160
 1794              	.L161:
1009:ThirdParty/STM32F4xx_HAL_Driver/Src/stm32f4xx_hal_rcc.c ****   }
 1795              		.loc 1 1009 5 is_stmt 1 view .LVU554
1009:ThirdParty/STM32F4xx_HAL_Driver/Src/stm32f4xx_hal_rcc.c ****   }
 1796              		.loc 1 1009 33 is_stmt 0 view .LVU555
 1797 00b4 0023     		movs	r3, #0
 1798 00b6 8360     		str	r3, [r0, #8]
 1799 00b8 BEE7     		b	.L160
 1800              	.L162:
1019:ThirdParty/STM32F4xx_HAL_Driver/Src/stm32f4xx_hal_rcc.c ****   }
 1801              		.loc 1 1019 5 is_stmt 1 view .LVU556
1019:ThirdParty/STM32F4xx_HAL_Driver/Src/stm32f4xx_hal_rcc.c ****   }
 1802              		.loc 1 1019 33 is_stmt 0 view .LVU557
 1803 00ba 0023     		movs	r3, #0
 1804 00bc 4361     		str	r3, [r0, #20]
 1805 00be C2E7     		b	.L163
 1806              	.L164:
1029:ThirdParty/STM32F4xx_HAL_Driver/Src/stm32f4xx_hal_rcc.c ****   }
 1807              		.loc 1 1029 5 is_stmt 1 view .LVU558
1029:ThirdParty/STM32F4xx_HAL_Driver/Src/stm32f4xx_hal_rcc.c ****   }
 1808              		.loc 1 1029 37 is_stmt 0 view .LVU559
 1809 00c0 0123     		movs	r3, #1
 1810 00c2 8361     		str	r3, [r0, #24]
 1811 00c4 C6E7     		b	.L165
 1812              	.L167:
 1813 00c6 00BF     		.align	2
ARM GAS  /tmp/ccCyRDhy.s 			page 55


 1814              	.L166:
 1815 00c8 00380240 		.word	1073887232
 1816              		.cfi_endproc
 1817              	.LFE143:
 1819              		.section	.text.HAL_RCC_GetClockConfig,"ax",%progbits
 1820              		.align	1
 1821              		.global	HAL_RCC_GetClockConfig
 1822              		.syntax unified
 1823              		.thumb
 1824              		.thumb_func
 1826              	HAL_RCC_GetClockConfig:
 1827              	.LVL101:
 1828              	.LFB144:
1037:ThirdParty/STM32F4xx_HAL_Driver/Src/stm32f4xx_hal_rcc.c **** 
1038:ThirdParty/STM32F4xx_HAL_Driver/Src/stm32f4xx_hal_rcc.c **** /**
1039:ThirdParty/STM32F4xx_HAL_Driver/Src/stm32f4xx_hal_rcc.c ****   * @brief  Configures the RCC_ClkInitStruct according to the internal
1040:ThirdParty/STM32F4xx_HAL_Driver/Src/stm32f4xx_hal_rcc.c ****   * RCC configuration registers.
1041:ThirdParty/STM32F4xx_HAL_Driver/Src/stm32f4xx_hal_rcc.c ****   * @param  RCC_ClkInitStruct pointer to an RCC_ClkInitTypeDef structure that
1042:ThirdParty/STM32F4xx_HAL_Driver/Src/stm32f4xx_hal_rcc.c ****   * will be configured.
1043:ThirdParty/STM32F4xx_HAL_Driver/Src/stm32f4xx_hal_rcc.c ****   * @param  pFLatency Pointer on the Flash Latency.
1044:ThirdParty/STM32F4xx_HAL_Driver/Src/stm32f4xx_hal_rcc.c ****   * @retval None
1045:ThirdParty/STM32F4xx_HAL_Driver/Src/stm32f4xx_hal_rcc.c ****   */
1046:ThirdParty/STM32F4xx_HAL_Driver/Src/stm32f4xx_hal_rcc.c **** void HAL_RCC_GetClockConfig(RCC_ClkInitTypeDef  *RCC_ClkInitStruct, uint32_t *pFLatency)
1047:ThirdParty/STM32F4xx_HAL_Driver/Src/stm32f4xx_hal_rcc.c **** {
 1829              		.loc 1 1047 1 is_stmt 1 view -0
 1830              		.cfi_startproc
 1831              		@ args = 0, pretend = 0, frame = 0
 1832              		@ frame_needed = 0, uses_anonymous_args = 0
 1833              		@ link register save eliminated.
1048:ThirdParty/STM32F4xx_HAL_Driver/Src/stm32f4xx_hal_rcc.c ****   /* Set all possible values for the Clock type parameter --------------------*/
1049:ThirdParty/STM32F4xx_HAL_Driver/Src/stm32f4xx_hal_rcc.c ****   RCC_ClkInitStruct->ClockType = RCC_CLOCKTYPE_SYSCLK | RCC_CLOCKTYPE_HCLK | RCC_CLOCKTYPE_PCLK1 | 
 1834              		.loc 1 1049 3 view .LVU561
 1835              		.loc 1 1049 32 is_stmt 0 view .LVU562
 1836 0000 0F23     		movs	r3, #15
 1837 0002 0360     		str	r3, [r0]
1050:ThirdParty/STM32F4xx_HAL_Driver/Src/stm32f4xx_hal_rcc.c **** 
1051:ThirdParty/STM32F4xx_HAL_Driver/Src/stm32f4xx_hal_rcc.c ****   /* Get the SYSCLK configuration --------------------------------------------*/
1052:ThirdParty/STM32F4xx_HAL_Driver/Src/stm32f4xx_hal_rcc.c ****   RCC_ClkInitStruct->SYSCLKSource = (uint32_t)(RCC->CFGR & RCC_CFGR_SW);
 1838              		.loc 1 1052 3 is_stmt 1 view .LVU563
 1839              		.loc 1 1052 51 is_stmt 0 view .LVU564
 1840 0004 0B4B     		ldr	r3, .L169
 1841 0006 9A68     		ldr	r2, [r3, #8]
 1842              		.loc 1 1052 37 view .LVU565
 1843 0008 02F00302 		and	r2, r2, #3
 1844              		.loc 1 1052 35 view .LVU566
 1845 000c 4260     		str	r2, [r0, #4]
1053:ThirdParty/STM32F4xx_HAL_Driver/Src/stm32f4xx_hal_rcc.c **** 
1054:ThirdParty/STM32F4xx_HAL_Driver/Src/stm32f4xx_hal_rcc.c ****   /* Get the HCLK configuration ----------------------------------------------*/
1055:ThirdParty/STM32F4xx_HAL_Driver/Src/stm32f4xx_hal_rcc.c ****   RCC_ClkInitStruct->AHBCLKDivider = (uint32_t)(RCC->CFGR & RCC_CFGR_HPRE);
 1846              		.loc 1 1055 3 is_stmt 1 view .LVU567
 1847              		.loc 1 1055 52 is_stmt 0 view .LVU568
 1848 000e 9A68     		ldr	r2, [r3, #8]
 1849              		.loc 1 1055 38 view .LVU569
 1850 0010 02F0F002 		and	r2, r2, #240
 1851              		.loc 1 1055 36 view .LVU570
 1852 0014 8260     		str	r2, [r0, #8]
1056:ThirdParty/STM32F4xx_HAL_Driver/Src/stm32f4xx_hal_rcc.c **** 
ARM GAS  /tmp/ccCyRDhy.s 			page 56


1057:ThirdParty/STM32F4xx_HAL_Driver/Src/stm32f4xx_hal_rcc.c ****   /* Get the APB1 configuration ----------------------------------------------*/
1058:ThirdParty/STM32F4xx_HAL_Driver/Src/stm32f4xx_hal_rcc.c ****   RCC_ClkInitStruct->APB1CLKDivider = (uint32_t)(RCC->CFGR & RCC_CFGR_PPRE1);
 1853              		.loc 1 1058 3 is_stmt 1 view .LVU571
 1854              		.loc 1 1058 53 is_stmt 0 view .LVU572
 1855 0016 9A68     		ldr	r2, [r3, #8]
 1856              		.loc 1 1058 39 view .LVU573
 1857 0018 02F4E052 		and	r2, r2, #7168
 1858              		.loc 1 1058 37 view .LVU574
 1859 001c C260     		str	r2, [r0, #12]
1059:ThirdParty/STM32F4xx_HAL_Driver/Src/stm32f4xx_hal_rcc.c **** 
1060:ThirdParty/STM32F4xx_HAL_Driver/Src/stm32f4xx_hal_rcc.c ****   /* Get the APB2 configuration ----------------------------------------------*/
1061:ThirdParty/STM32F4xx_HAL_Driver/Src/stm32f4xx_hal_rcc.c ****   RCC_ClkInitStruct->APB2CLKDivider = (uint32_t)((RCC->CFGR & RCC_CFGR_PPRE2) >> 3U);
 1860              		.loc 1 1061 3 is_stmt 1 view .LVU575
 1861              		.loc 1 1061 54 is_stmt 0 view .LVU576
 1862 001e 9B68     		ldr	r3, [r3, #8]
 1863              		.loc 1 1061 39 view .LVU577
 1864 0020 DB08     		lsrs	r3, r3, #3
 1865 0022 03F4E053 		and	r3, r3, #7168
 1866              		.loc 1 1061 37 view .LVU578
 1867 0026 0361     		str	r3, [r0, #16]
1062:ThirdParty/STM32F4xx_HAL_Driver/Src/stm32f4xx_hal_rcc.c **** 
1063:ThirdParty/STM32F4xx_HAL_Driver/Src/stm32f4xx_hal_rcc.c ****   /* Get the Flash Wait State (Latency) configuration ------------------------*/
1064:ThirdParty/STM32F4xx_HAL_Driver/Src/stm32f4xx_hal_rcc.c ****   *pFLatency = (uint32_t)(FLASH->ACR & FLASH_ACR_LATENCY);
 1868              		.loc 1 1064 3 is_stmt 1 view .LVU579
 1869              		.loc 1 1064 32 is_stmt 0 view .LVU580
 1870 0028 034B     		ldr	r3, .L169+4
 1871 002a 1B68     		ldr	r3, [r3]
 1872              		.loc 1 1064 16 view .LVU581
 1873 002c 03F00F03 		and	r3, r3, #15
 1874              		.loc 1 1064 14 view .LVU582
 1875 0030 0B60     		str	r3, [r1]
1065:ThirdParty/STM32F4xx_HAL_Driver/Src/stm32f4xx_hal_rcc.c **** }
 1876              		.loc 1 1065 1 view .LVU583
 1877 0032 7047     		bx	lr
 1878              	.L170:
 1879              		.align	2
 1880              	.L169:
 1881 0034 00380240 		.word	1073887232
 1882 0038 003C0240 		.word	1073888256
 1883              		.cfi_endproc
 1884              	.LFE144:
 1886              		.section	.text.HAL_RCC_CSSCallback,"ax",%progbits
 1887              		.align	1
 1888              		.weak	HAL_RCC_CSSCallback
 1889              		.syntax unified
 1890              		.thumb
 1891              		.thumb_func
 1893              	HAL_RCC_CSSCallback:
 1894              	.LFB146:
1066:ThirdParty/STM32F4xx_HAL_Driver/Src/stm32f4xx_hal_rcc.c **** 
1067:ThirdParty/STM32F4xx_HAL_Driver/Src/stm32f4xx_hal_rcc.c **** /**
1068:ThirdParty/STM32F4xx_HAL_Driver/Src/stm32f4xx_hal_rcc.c ****   * @brief This function handles the RCC CSS interrupt request.
1069:ThirdParty/STM32F4xx_HAL_Driver/Src/stm32f4xx_hal_rcc.c ****   * @note This API should be called under the NMI_Handler().
1070:ThirdParty/STM32F4xx_HAL_Driver/Src/stm32f4xx_hal_rcc.c ****   * @retval None
1071:ThirdParty/STM32F4xx_HAL_Driver/Src/stm32f4xx_hal_rcc.c ****   */
1072:ThirdParty/STM32F4xx_HAL_Driver/Src/stm32f4xx_hal_rcc.c **** void HAL_RCC_NMI_IRQHandler(void)
1073:ThirdParty/STM32F4xx_HAL_Driver/Src/stm32f4xx_hal_rcc.c **** {
ARM GAS  /tmp/ccCyRDhy.s 			page 57


1074:ThirdParty/STM32F4xx_HAL_Driver/Src/stm32f4xx_hal_rcc.c ****   /* Check RCC CSSF flag  */
1075:ThirdParty/STM32F4xx_HAL_Driver/Src/stm32f4xx_hal_rcc.c ****   if(__HAL_RCC_GET_IT(RCC_IT_CSS))
1076:ThirdParty/STM32F4xx_HAL_Driver/Src/stm32f4xx_hal_rcc.c ****   {
1077:ThirdParty/STM32F4xx_HAL_Driver/Src/stm32f4xx_hal_rcc.c ****     /* RCC Clock Security System interrupt user callback */
1078:ThirdParty/STM32F4xx_HAL_Driver/Src/stm32f4xx_hal_rcc.c ****     HAL_RCC_CSSCallback();
1079:ThirdParty/STM32F4xx_HAL_Driver/Src/stm32f4xx_hal_rcc.c **** 
1080:ThirdParty/STM32F4xx_HAL_Driver/Src/stm32f4xx_hal_rcc.c ****     /* Clear RCC CSS pending bit */
1081:ThirdParty/STM32F4xx_HAL_Driver/Src/stm32f4xx_hal_rcc.c ****     __HAL_RCC_CLEAR_IT(RCC_IT_CSS);
1082:ThirdParty/STM32F4xx_HAL_Driver/Src/stm32f4xx_hal_rcc.c ****   }
1083:ThirdParty/STM32F4xx_HAL_Driver/Src/stm32f4xx_hal_rcc.c **** }
1084:ThirdParty/STM32F4xx_HAL_Driver/Src/stm32f4xx_hal_rcc.c **** 
1085:ThirdParty/STM32F4xx_HAL_Driver/Src/stm32f4xx_hal_rcc.c **** /**
1086:ThirdParty/STM32F4xx_HAL_Driver/Src/stm32f4xx_hal_rcc.c ****   * @brief  RCC Clock Security System interrupt callback
1087:ThirdParty/STM32F4xx_HAL_Driver/Src/stm32f4xx_hal_rcc.c ****   * @retval None
1088:ThirdParty/STM32F4xx_HAL_Driver/Src/stm32f4xx_hal_rcc.c ****   */
1089:ThirdParty/STM32F4xx_HAL_Driver/Src/stm32f4xx_hal_rcc.c **** __weak void HAL_RCC_CSSCallback(void)
1090:ThirdParty/STM32F4xx_HAL_Driver/Src/stm32f4xx_hal_rcc.c **** {
 1895              		.loc 1 1090 1 is_stmt 1 view -0
 1896              		.cfi_startproc
 1897              		@ args = 0, pretend = 0, frame = 0
 1898              		@ frame_needed = 0, uses_anonymous_args = 0
 1899              		@ link register save eliminated.
1091:ThirdParty/STM32F4xx_HAL_Driver/Src/stm32f4xx_hal_rcc.c ****   /* NOTE : This function Should not be modified, when the callback is needed,
1092:ThirdParty/STM32F4xx_HAL_Driver/Src/stm32f4xx_hal_rcc.c ****             the HAL_RCC_CSSCallback could be implemented in the user file
1093:ThirdParty/STM32F4xx_HAL_Driver/Src/stm32f4xx_hal_rcc.c ****    */
1094:ThirdParty/STM32F4xx_HAL_Driver/Src/stm32f4xx_hal_rcc.c **** }
 1900              		.loc 1 1094 1 view .LVU585
 1901 0000 7047     		bx	lr
 1902              		.cfi_endproc
 1903              	.LFE146:
 1905              		.section	.text.HAL_RCC_NMI_IRQHandler,"ax",%progbits
 1906              		.align	1
 1907              		.global	HAL_RCC_NMI_IRQHandler
 1908              		.syntax unified
 1909              		.thumb
 1910              		.thumb_func
 1912              	HAL_RCC_NMI_IRQHandler:
 1913              	.LFB145:
1073:ThirdParty/STM32F4xx_HAL_Driver/Src/stm32f4xx_hal_rcc.c ****   /* Check RCC CSSF flag  */
 1914              		.loc 1 1073 1 view -0
 1915              		.cfi_startproc
 1916              		@ args = 0, pretend = 0, frame = 0
 1917              		@ frame_needed = 0, uses_anonymous_args = 0
 1918 0000 08B5     		push	{r3, lr}
 1919              	.LCFI16:
 1920              		.cfi_def_cfa_offset 8
 1921              		.cfi_offset 3, -8
 1922              		.cfi_offset 14, -4
1075:ThirdParty/STM32F4xx_HAL_Driver/Src/stm32f4xx_hal_rcc.c ****   {
 1923              		.loc 1 1075 3 view .LVU587
1075:ThirdParty/STM32F4xx_HAL_Driver/Src/stm32f4xx_hal_rcc.c ****   {
 1924              		.loc 1 1075 6 is_stmt 0 view .LVU588
 1925 0002 064B     		ldr	r3, .L176
 1926 0004 DB68     		ldr	r3, [r3, #12]
1075:ThirdParty/STM32F4xx_HAL_Driver/Src/stm32f4xx_hal_rcc.c ****   {
 1927              		.loc 1 1075 5 view .LVU589
 1928 0006 13F0800F 		tst	r3, #128
ARM GAS  /tmp/ccCyRDhy.s 			page 58


 1929 000a 00D1     		bne	.L175
 1930              	.L172:
1083:ThirdParty/STM32F4xx_HAL_Driver/Src/stm32f4xx_hal_rcc.c **** 
 1931              		.loc 1 1083 1 view .LVU590
 1932 000c 08BD     		pop	{r3, pc}
 1933              	.L175:
1078:ThirdParty/STM32F4xx_HAL_Driver/Src/stm32f4xx_hal_rcc.c **** 
 1934              		.loc 1 1078 5 is_stmt 1 view .LVU591
 1935 000e FFF7FEFF 		bl	HAL_RCC_CSSCallback
 1936              	.LVL102:
1081:ThirdParty/STM32F4xx_HAL_Driver/Src/stm32f4xx_hal_rcc.c ****   }
 1937              		.loc 1 1081 5 view .LVU592
 1938 0012 024B     		ldr	r3, .L176
 1939 0014 8022     		movs	r2, #128
 1940 0016 9A73     		strb	r2, [r3, #14]
1083:ThirdParty/STM32F4xx_HAL_Driver/Src/stm32f4xx_hal_rcc.c **** 
 1941              		.loc 1 1083 1 is_stmt 0 view .LVU593
 1942 0018 F8E7     		b	.L172
 1943              	.L177:
 1944 001a 00BF     		.align	2
 1945              	.L176:
 1946 001c 00380240 		.word	1073887232
 1947              		.cfi_endproc
 1948              	.LFE145:
 1950              		.text
 1951              	.Letext0:
 1952              		.file 2 "/opt/gcc-arm-none-eabi/arm-none-eabi/include/machine/_default_types.h"
 1953              		.file 3 "/opt/gcc-arm-none-eabi/arm-none-eabi/include/sys/_stdint.h"
 1954              		.file 4 "ThirdParty/CMSIS/Device/ST/STM32F4xx/Include/system_stm32f4xx.h"
 1955              		.file 5 "ThirdParty/CMSIS/Device/ST/STM32F4xx/Include/stm32f405xx.h"
 1956              		.file 6 "ThirdParty/CMSIS/Device/ST/STM32F4xx/Include/stm32f4xx.h"
 1957              		.file 7 "ThirdParty/STM32F4xx_HAL_Driver/Inc/stm32f4xx_hal_def.h"
 1958              		.file 8 "ThirdParty/STM32F4xx_HAL_Driver/Inc/stm32f4xx_hal_rcc_ex.h"
 1959              		.file 9 "ThirdParty/STM32F4xx_HAL_Driver/Inc/stm32f4xx_hal_rcc.h"
 1960              		.file 10 "ThirdParty/STM32F4xx_HAL_Driver/Inc/stm32f4xx_hal_gpio.h"
 1961              		.file 11 "ThirdParty/STM32F4xx_HAL_Driver/Inc/stm32f4xx_hal.h"
ARM GAS  /tmp/ccCyRDhy.s 			page 59

