ARM GAS  /tmp/ccHJyd2u.s 			page 1


   1              		.cpu cortex-m4
   2              		.arch armv7e-m
   3              		.fpu fpv4-sp-d16
   4              		.eabi_attribute 27, 1
   5              		.eabi_attribute 28, 1
   6              		.eabi_attribute 20, 1
   7              		.eabi_attribute 21, 1
   8              		.eabi_attribute 23, 3
   9              		.eabi_attribute 24, 1
  10              		.eabi_attribute 25, 1
  11              		.eabi_attribute 26, 1
  12              		.eabi_attribute 30, 1
  13              		.eabi_attribute 34, 1
  14              		.eabi_attribute 18, 4
  15              		.file	"stm32f4xx_hal_adc_ex.c"
  16              		.text
  17              	.Ltext0:
  18              		.cfi_sections	.debug_frame
  19              		.section	.text.ADC_MultiModeDMAError,"ax",%progbits
  20              		.align	1
  21              		.syntax unified
  22              		.thumb
  23              		.thumb_func
  25              	ADC_MultiModeDMAError:
  26              	.LVL0:
  27              	.LFB147:
  28              		.file 1 "ThirdParty/STM32F4xx_HAL_Driver/Src/stm32f4xx_hal_adc_ex.c"
   1:ThirdParty/STM32F4xx_HAL_Driver/Src/stm32f4xx_hal_adc_ex.c **** /**
   2:ThirdParty/STM32F4xx_HAL_Driver/Src/stm32f4xx_hal_adc_ex.c ****   ******************************************************************************
   3:ThirdParty/STM32F4xx_HAL_Driver/Src/stm32f4xx_hal_adc_ex.c ****   * @file    stm32f4xx_hal_adc_ex.c
   4:ThirdParty/STM32F4xx_HAL_Driver/Src/stm32f4xx_hal_adc_ex.c ****   * @author  MCD Application Team
   5:ThirdParty/STM32F4xx_HAL_Driver/Src/stm32f4xx_hal_adc_ex.c ****   * @brief   This file provides firmware functions to manage the following 
   6:ThirdParty/STM32F4xx_HAL_Driver/Src/stm32f4xx_hal_adc_ex.c ****   *          functionalities of the ADC extension peripheral:
   7:ThirdParty/STM32F4xx_HAL_Driver/Src/stm32f4xx_hal_adc_ex.c ****   *           + Extended features functions
   8:ThirdParty/STM32F4xx_HAL_Driver/Src/stm32f4xx_hal_adc_ex.c ****   *         
   9:ThirdParty/STM32F4xx_HAL_Driver/Src/stm32f4xx_hal_adc_ex.c ****   @verbatim
  10:ThirdParty/STM32F4xx_HAL_Driver/Src/stm32f4xx_hal_adc_ex.c ****   ==============================================================================
  11:ThirdParty/STM32F4xx_HAL_Driver/Src/stm32f4xx_hal_adc_ex.c ****                     ##### How to use this driver #####
  12:ThirdParty/STM32F4xx_HAL_Driver/Src/stm32f4xx_hal_adc_ex.c ****   ==============================================================================
  13:ThirdParty/STM32F4xx_HAL_Driver/Src/stm32f4xx_hal_adc_ex.c ****     [..]
  14:ThirdParty/STM32F4xx_HAL_Driver/Src/stm32f4xx_hal_adc_ex.c ****     (#)Initialize the ADC low level resources by implementing the HAL_ADC_MspInit():
  15:ThirdParty/STM32F4xx_HAL_Driver/Src/stm32f4xx_hal_adc_ex.c ****        (##) Enable the ADC interface clock using __HAL_RCC_ADC_CLK_ENABLE()
  16:ThirdParty/STM32F4xx_HAL_Driver/Src/stm32f4xx_hal_adc_ex.c ****        (##) ADC pins configuration
  17:ThirdParty/STM32F4xx_HAL_Driver/Src/stm32f4xx_hal_adc_ex.c ****              (+++) Enable the clock for the ADC GPIOs using the following function:
  18:ThirdParty/STM32F4xx_HAL_Driver/Src/stm32f4xx_hal_adc_ex.c ****                    __HAL_RCC_GPIOx_CLK_ENABLE()  
  19:ThirdParty/STM32F4xx_HAL_Driver/Src/stm32f4xx_hal_adc_ex.c ****              (+++) Configure these ADC pins in analog mode using HAL_GPIO_Init() 
  20:ThirdParty/STM32F4xx_HAL_Driver/Src/stm32f4xx_hal_adc_ex.c ****        (##) In case of using interrupts (e.g. HAL_ADC_Start_IT())
  21:ThirdParty/STM32F4xx_HAL_Driver/Src/stm32f4xx_hal_adc_ex.c ****              (+++) Configure the ADC interrupt priority using HAL_NVIC_SetPriority()
  22:ThirdParty/STM32F4xx_HAL_Driver/Src/stm32f4xx_hal_adc_ex.c ****              (+++) Enable the ADC IRQ handler using HAL_NVIC_EnableIRQ()
  23:ThirdParty/STM32F4xx_HAL_Driver/Src/stm32f4xx_hal_adc_ex.c ****              (+++) In ADC IRQ handler, call HAL_ADC_IRQHandler()
  24:ThirdParty/STM32F4xx_HAL_Driver/Src/stm32f4xx_hal_adc_ex.c ****       (##) In case of using DMA to control data transfer (e.g. HAL_ADC_Start_DMA())
  25:ThirdParty/STM32F4xx_HAL_Driver/Src/stm32f4xx_hal_adc_ex.c ****              (+++) Enable the DMAx interface clock using __HAL_RCC_DMAx_CLK_ENABLE()
  26:ThirdParty/STM32F4xx_HAL_Driver/Src/stm32f4xx_hal_adc_ex.c ****              (+++) Configure and enable two DMA streams stream for managing data
  27:ThirdParty/STM32F4xx_HAL_Driver/Src/stm32f4xx_hal_adc_ex.c ****                  transfer from peripheral to memory (output stream)
  28:ThirdParty/STM32F4xx_HAL_Driver/Src/stm32f4xx_hal_adc_ex.c ****              (+++) Associate the initialized DMA handle to the ADC DMA handle
  29:ThirdParty/STM32F4xx_HAL_Driver/Src/stm32f4xx_hal_adc_ex.c ****                  using  __HAL_LINKDMA()
  30:ThirdParty/STM32F4xx_HAL_Driver/Src/stm32f4xx_hal_adc_ex.c ****              (+++) Configure the priority and enable the NVIC for the transfer complete
ARM GAS  /tmp/ccHJyd2u.s 			page 2


  31:ThirdParty/STM32F4xx_HAL_Driver/Src/stm32f4xx_hal_adc_ex.c ****                  interrupt on the two DMA Streams. The output stream should have higher
  32:ThirdParty/STM32F4xx_HAL_Driver/Src/stm32f4xx_hal_adc_ex.c ****                  priority than the input stream.
  33:ThirdParty/STM32F4xx_HAL_Driver/Src/stm32f4xx_hal_adc_ex.c ****      (#) Configure the ADC Prescaler, conversion resolution and data alignment 
  34:ThirdParty/STM32F4xx_HAL_Driver/Src/stm32f4xx_hal_adc_ex.c ****          using the HAL_ADC_Init() function. 
  35:ThirdParty/STM32F4xx_HAL_Driver/Src/stm32f4xx_hal_adc_ex.c ****   
  36:ThirdParty/STM32F4xx_HAL_Driver/Src/stm32f4xx_hal_adc_ex.c ****      (#) Configure the ADC Injected channels group features, use HAL_ADC_Init()
  37:ThirdParty/STM32F4xx_HAL_Driver/Src/stm32f4xx_hal_adc_ex.c ****          and HAL_ADC_ConfigChannel() functions.
  38:ThirdParty/STM32F4xx_HAL_Driver/Src/stm32f4xx_hal_adc_ex.c ****          
  39:ThirdParty/STM32F4xx_HAL_Driver/Src/stm32f4xx_hal_adc_ex.c ****      (#) Three operation modes are available within this driver :     
  40:ThirdParty/STM32F4xx_HAL_Driver/Src/stm32f4xx_hal_adc_ex.c ****   
  41:ThirdParty/STM32F4xx_HAL_Driver/Src/stm32f4xx_hal_adc_ex.c ****      *** Polling mode IO operation ***
  42:ThirdParty/STM32F4xx_HAL_Driver/Src/stm32f4xx_hal_adc_ex.c ****      =================================
  43:ThirdParty/STM32F4xx_HAL_Driver/Src/stm32f4xx_hal_adc_ex.c ****      [..]    
  44:ThirdParty/STM32F4xx_HAL_Driver/Src/stm32f4xx_hal_adc_ex.c ****        (+) Start the ADC peripheral using HAL_ADCEx_InjectedStart() 
  45:ThirdParty/STM32F4xx_HAL_Driver/Src/stm32f4xx_hal_adc_ex.c ****        (+) Wait for end of conversion using HAL_ADC_PollForConversion(), at this stage
  46:ThirdParty/STM32F4xx_HAL_Driver/Src/stm32f4xx_hal_adc_ex.c ****            user can specify the value of timeout according to his end application      
  47:ThirdParty/STM32F4xx_HAL_Driver/Src/stm32f4xx_hal_adc_ex.c ****        (+) To read the ADC converted values, use the HAL_ADCEx_InjectedGetValue() function.
  48:ThirdParty/STM32F4xx_HAL_Driver/Src/stm32f4xx_hal_adc_ex.c ****        (+) Stop the ADC peripheral using HAL_ADCEx_InjectedStop()
  49:ThirdParty/STM32F4xx_HAL_Driver/Src/stm32f4xx_hal_adc_ex.c ****   
  50:ThirdParty/STM32F4xx_HAL_Driver/Src/stm32f4xx_hal_adc_ex.c ****      *** Interrupt mode IO operation ***    
  51:ThirdParty/STM32F4xx_HAL_Driver/Src/stm32f4xx_hal_adc_ex.c ****      ===================================
  52:ThirdParty/STM32F4xx_HAL_Driver/Src/stm32f4xx_hal_adc_ex.c ****      [..]    
  53:ThirdParty/STM32F4xx_HAL_Driver/Src/stm32f4xx_hal_adc_ex.c ****        (+) Start the ADC peripheral using HAL_ADCEx_InjectedStart_IT() 
  54:ThirdParty/STM32F4xx_HAL_Driver/Src/stm32f4xx_hal_adc_ex.c ****        (+) Use HAL_ADC_IRQHandler() called under ADC_IRQHandler() Interrupt subroutine
  55:ThirdParty/STM32F4xx_HAL_Driver/Src/stm32f4xx_hal_adc_ex.c ****        (+) At ADC end of conversion HAL_ADCEx_InjectedConvCpltCallback() function is executed and u
  56:ThirdParty/STM32F4xx_HAL_Driver/Src/stm32f4xx_hal_adc_ex.c ****             add his own code by customization of function pointer HAL_ADCEx_InjectedConvCpltCallbac
  57:ThirdParty/STM32F4xx_HAL_Driver/Src/stm32f4xx_hal_adc_ex.c ****        (+) In case of ADC Error, HAL_ADCEx_InjectedErrorCallback() function is executed and user ca
  58:ThirdParty/STM32F4xx_HAL_Driver/Src/stm32f4xx_hal_adc_ex.c ****             add his own code by customization of function pointer HAL_ADCEx_InjectedErrorCallback
  59:ThirdParty/STM32F4xx_HAL_Driver/Src/stm32f4xx_hal_adc_ex.c ****        (+) Stop the ADC peripheral using HAL_ADCEx_InjectedStop_IT()
  60:ThirdParty/STM32F4xx_HAL_Driver/Src/stm32f4xx_hal_adc_ex.c ****        
  61:ThirdParty/STM32F4xx_HAL_Driver/Src/stm32f4xx_hal_adc_ex.c ****             
  62:ThirdParty/STM32F4xx_HAL_Driver/Src/stm32f4xx_hal_adc_ex.c ****      *** DMA mode IO operation ***    
  63:ThirdParty/STM32F4xx_HAL_Driver/Src/stm32f4xx_hal_adc_ex.c ****      ==============================
  64:ThirdParty/STM32F4xx_HAL_Driver/Src/stm32f4xx_hal_adc_ex.c ****      [..]    
  65:ThirdParty/STM32F4xx_HAL_Driver/Src/stm32f4xx_hal_adc_ex.c ****        (+) Start the ADC peripheral using HAL_ADCEx_InjectedStart_DMA(), at this stage the user spe
  66:ThirdParty/STM32F4xx_HAL_Driver/Src/stm32f4xx_hal_adc_ex.c ****            of data to be transferred at each end of conversion 
  67:ThirdParty/STM32F4xx_HAL_Driver/Src/stm32f4xx_hal_adc_ex.c ****        (+) At The end of data transfer ba HAL_ADCEx_InjectedConvCpltCallback() function is executed
  68:ThirdParty/STM32F4xx_HAL_Driver/Src/stm32f4xx_hal_adc_ex.c ****             add his own code by customization of function pointer HAL_ADCEx_InjectedConvCpltCallbac
  69:ThirdParty/STM32F4xx_HAL_Driver/Src/stm32f4xx_hal_adc_ex.c ****        (+) In case of transfer Error, HAL_ADCEx_InjectedErrorCallback() function is executed and us
  70:ThirdParty/STM32F4xx_HAL_Driver/Src/stm32f4xx_hal_adc_ex.c ****             add his own code by customization of function pointer HAL_ADCEx_InjectedErrorCallback
  71:ThirdParty/STM32F4xx_HAL_Driver/Src/stm32f4xx_hal_adc_ex.c ****         (+) Stop the ADC peripheral using HAL_ADCEx_InjectedStop_DMA()
  72:ThirdParty/STM32F4xx_HAL_Driver/Src/stm32f4xx_hal_adc_ex.c ****         
  73:ThirdParty/STM32F4xx_HAL_Driver/Src/stm32f4xx_hal_adc_ex.c ****      *** Multi mode ADCs Regular channels configuration ***
  74:ThirdParty/STM32F4xx_HAL_Driver/Src/stm32f4xx_hal_adc_ex.c ****      ======================================================
  75:ThirdParty/STM32F4xx_HAL_Driver/Src/stm32f4xx_hal_adc_ex.c ****      [..]        
  76:ThirdParty/STM32F4xx_HAL_Driver/Src/stm32f4xx_hal_adc_ex.c ****        (+) Select the Multi mode ADC regular channels features (dual or triple mode)  
  77:ThirdParty/STM32F4xx_HAL_Driver/Src/stm32f4xx_hal_adc_ex.c ****           and configure the DMA mode using HAL_ADCEx_MultiModeConfigChannel() functions. 
  78:ThirdParty/STM32F4xx_HAL_Driver/Src/stm32f4xx_hal_adc_ex.c ****        (+) Start the ADC peripheral using HAL_ADCEx_MultiModeStart_DMA(), at this stage the user sp
  79:ThirdParty/STM32F4xx_HAL_Driver/Src/stm32f4xx_hal_adc_ex.c ****            of data to be transferred at each end of conversion           
  80:ThirdParty/STM32F4xx_HAL_Driver/Src/stm32f4xx_hal_adc_ex.c ****        (+) Read the ADCs converted values using the HAL_ADCEx_MultiModeGetValue() function.
  81:ThirdParty/STM32F4xx_HAL_Driver/Src/stm32f4xx_hal_adc_ex.c ****   
  82:ThirdParty/STM32F4xx_HAL_Driver/Src/stm32f4xx_hal_adc_ex.c ****   
  83:ThirdParty/STM32F4xx_HAL_Driver/Src/stm32f4xx_hal_adc_ex.c ****     @endverbatim
  84:ThirdParty/STM32F4xx_HAL_Driver/Src/stm32f4xx_hal_adc_ex.c ****   ******************************************************************************
  85:ThirdParty/STM32F4xx_HAL_Driver/Src/stm32f4xx_hal_adc_ex.c ****   * @attention
  86:ThirdParty/STM32F4xx_HAL_Driver/Src/stm32f4xx_hal_adc_ex.c ****   *
  87:ThirdParty/STM32F4xx_HAL_Driver/Src/stm32f4xx_hal_adc_ex.c ****   * <h2><center>&copy; COPYRIGHT(c) 2017 STMicroelectronics</center></h2>
ARM GAS  /tmp/ccHJyd2u.s 			page 3


  88:ThirdParty/STM32F4xx_HAL_Driver/Src/stm32f4xx_hal_adc_ex.c ****   *
  89:ThirdParty/STM32F4xx_HAL_Driver/Src/stm32f4xx_hal_adc_ex.c ****   * Redistribution and use in source and binary forms, with or without modification,
  90:ThirdParty/STM32F4xx_HAL_Driver/Src/stm32f4xx_hal_adc_ex.c ****   * are permitted provided that the following conditions are met:
  91:ThirdParty/STM32F4xx_HAL_Driver/Src/stm32f4xx_hal_adc_ex.c ****   *   1. Redistributions of source code must retain the above copyright notice,
  92:ThirdParty/STM32F4xx_HAL_Driver/Src/stm32f4xx_hal_adc_ex.c ****   *      this list of conditions and the following disclaimer.
  93:ThirdParty/STM32F4xx_HAL_Driver/Src/stm32f4xx_hal_adc_ex.c ****   *   2. Redistributions in binary form must reproduce the above copyright notice,
  94:ThirdParty/STM32F4xx_HAL_Driver/Src/stm32f4xx_hal_adc_ex.c ****   *      this list of conditions and the following disclaimer in the documentation
  95:ThirdParty/STM32F4xx_HAL_Driver/Src/stm32f4xx_hal_adc_ex.c ****   *      and/or other materials provided with the distribution.
  96:ThirdParty/STM32F4xx_HAL_Driver/Src/stm32f4xx_hal_adc_ex.c ****   *   3. Neither the name of STMicroelectronics nor the names of its contributors
  97:ThirdParty/STM32F4xx_HAL_Driver/Src/stm32f4xx_hal_adc_ex.c ****   *      may be used to endorse or promote products derived from this software
  98:ThirdParty/STM32F4xx_HAL_Driver/Src/stm32f4xx_hal_adc_ex.c ****   *      without specific prior written permission.
  99:ThirdParty/STM32F4xx_HAL_Driver/Src/stm32f4xx_hal_adc_ex.c ****   *
 100:ThirdParty/STM32F4xx_HAL_Driver/Src/stm32f4xx_hal_adc_ex.c ****   * THIS SOFTWARE IS PROVIDED BY THE COPYRIGHT HOLDERS AND CONTRIBUTORS "AS IS"
 101:ThirdParty/STM32F4xx_HAL_Driver/Src/stm32f4xx_hal_adc_ex.c ****   * AND ANY EXPRESS OR IMPLIED WARRANTIES, INCLUDING, BUT NOT LIMITED TO, THE
 102:ThirdParty/STM32F4xx_HAL_Driver/Src/stm32f4xx_hal_adc_ex.c ****   * IMPLIED WARRANTIES OF MERCHANTABILITY AND FITNESS FOR A PARTICULAR PURPOSE ARE
 103:ThirdParty/STM32F4xx_HAL_Driver/Src/stm32f4xx_hal_adc_ex.c ****   * DISCLAIMED. IN NO EVENT SHALL THE COPYRIGHT HOLDER OR CONTRIBUTORS BE LIABLE
 104:ThirdParty/STM32F4xx_HAL_Driver/Src/stm32f4xx_hal_adc_ex.c ****   * FOR ANY DIRECT, INDIRECT, INCIDENTAL, SPECIAL, EXEMPLARY, OR CONSEQUENTIAL
 105:ThirdParty/STM32F4xx_HAL_Driver/Src/stm32f4xx_hal_adc_ex.c ****   * DAMAGES (INCLUDING, BUT NOT LIMITED TO, PROCUREMENT OF SUBSTITUTE GOODS OR
 106:ThirdParty/STM32F4xx_HAL_Driver/Src/stm32f4xx_hal_adc_ex.c ****   * SERVICES; LOSS OF USE, DATA, OR PROFITS; OR BUSINESS INTERRUPTION) HOWEVER
 107:ThirdParty/STM32F4xx_HAL_Driver/Src/stm32f4xx_hal_adc_ex.c ****   * CAUSED AND ON ANY THEORY OF LIABILITY, WHETHER IN CONTRACT, STRICT LIABILITY,
 108:ThirdParty/STM32F4xx_HAL_Driver/Src/stm32f4xx_hal_adc_ex.c ****   * OR TORT (INCLUDING NEGLIGENCE OR OTHERWISE) ARISING IN ANY WAY OUT OF THE USE
 109:ThirdParty/STM32F4xx_HAL_Driver/Src/stm32f4xx_hal_adc_ex.c ****   * OF THIS SOFTWARE, EVEN IF ADVISED OF THE POSSIBILITY OF SUCH DAMAGE.
 110:ThirdParty/STM32F4xx_HAL_Driver/Src/stm32f4xx_hal_adc_ex.c ****   *
 111:ThirdParty/STM32F4xx_HAL_Driver/Src/stm32f4xx_hal_adc_ex.c ****   ******************************************************************************
 112:ThirdParty/STM32F4xx_HAL_Driver/Src/stm32f4xx_hal_adc_ex.c ****   */ 
 113:ThirdParty/STM32F4xx_HAL_Driver/Src/stm32f4xx_hal_adc_ex.c **** 
 114:ThirdParty/STM32F4xx_HAL_Driver/Src/stm32f4xx_hal_adc_ex.c **** /* Includes ------------------------------------------------------------------*/
 115:ThirdParty/STM32F4xx_HAL_Driver/Src/stm32f4xx_hal_adc_ex.c **** #include "stm32f4xx_hal.h"
 116:ThirdParty/STM32F4xx_HAL_Driver/Src/stm32f4xx_hal_adc_ex.c **** 
 117:ThirdParty/STM32F4xx_HAL_Driver/Src/stm32f4xx_hal_adc_ex.c **** /** @addtogroup STM32F4xx_HAL_Driver
 118:ThirdParty/STM32F4xx_HAL_Driver/Src/stm32f4xx_hal_adc_ex.c ****   * @{
 119:ThirdParty/STM32F4xx_HAL_Driver/Src/stm32f4xx_hal_adc_ex.c ****   */
 120:ThirdParty/STM32F4xx_HAL_Driver/Src/stm32f4xx_hal_adc_ex.c **** 
 121:ThirdParty/STM32F4xx_HAL_Driver/Src/stm32f4xx_hal_adc_ex.c **** /** @defgroup ADCEx ADCEx
 122:ThirdParty/STM32F4xx_HAL_Driver/Src/stm32f4xx_hal_adc_ex.c ****   * @brief ADC Extended driver modules
 123:ThirdParty/STM32F4xx_HAL_Driver/Src/stm32f4xx_hal_adc_ex.c ****   * @{
 124:ThirdParty/STM32F4xx_HAL_Driver/Src/stm32f4xx_hal_adc_ex.c ****   */ 
 125:ThirdParty/STM32F4xx_HAL_Driver/Src/stm32f4xx_hal_adc_ex.c **** 
 126:ThirdParty/STM32F4xx_HAL_Driver/Src/stm32f4xx_hal_adc_ex.c **** #ifdef HAL_ADC_MODULE_ENABLED
 127:ThirdParty/STM32F4xx_HAL_Driver/Src/stm32f4xx_hal_adc_ex.c ****     
 128:ThirdParty/STM32F4xx_HAL_Driver/Src/stm32f4xx_hal_adc_ex.c **** /* Private typedef -----------------------------------------------------------*/
 129:ThirdParty/STM32F4xx_HAL_Driver/Src/stm32f4xx_hal_adc_ex.c **** /* Private define ------------------------------------------------------------*/ 
 130:ThirdParty/STM32F4xx_HAL_Driver/Src/stm32f4xx_hal_adc_ex.c **** /* Private macro -------------------------------------------------------------*/
 131:ThirdParty/STM32F4xx_HAL_Driver/Src/stm32f4xx_hal_adc_ex.c **** /* Private variables ---------------------------------------------------------*/
 132:ThirdParty/STM32F4xx_HAL_Driver/Src/stm32f4xx_hal_adc_ex.c **** /** @addtogroup ADCEx_Private_Functions
 133:ThirdParty/STM32F4xx_HAL_Driver/Src/stm32f4xx_hal_adc_ex.c ****   * @{
 134:ThirdParty/STM32F4xx_HAL_Driver/Src/stm32f4xx_hal_adc_ex.c ****   */
 135:ThirdParty/STM32F4xx_HAL_Driver/Src/stm32f4xx_hal_adc_ex.c **** /* Private function prototypes -----------------------------------------------*/
 136:ThirdParty/STM32F4xx_HAL_Driver/Src/stm32f4xx_hal_adc_ex.c **** static void ADC_MultiModeDMAConvCplt(DMA_HandleTypeDef *hdma);
 137:ThirdParty/STM32F4xx_HAL_Driver/Src/stm32f4xx_hal_adc_ex.c **** static void ADC_MultiModeDMAError(DMA_HandleTypeDef *hdma);
 138:ThirdParty/STM32F4xx_HAL_Driver/Src/stm32f4xx_hal_adc_ex.c **** static void ADC_MultiModeDMAHalfConvCplt(DMA_HandleTypeDef *hdma); 
 139:ThirdParty/STM32F4xx_HAL_Driver/Src/stm32f4xx_hal_adc_ex.c **** /**
 140:ThirdParty/STM32F4xx_HAL_Driver/Src/stm32f4xx_hal_adc_ex.c ****   * @}
 141:ThirdParty/STM32F4xx_HAL_Driver/Src/stm32f4xx_hal_adc_ex.c ****   */
 142:ThirdParty/STM32F4xx_HAL_Driver/Src/stm32f4xx_hal_adc_ex.c **** 
 143:ThirdParty/STM32F4xx_HAL_Driver/Src/stm32f4xx_hal_adc_ex.c **** /* Exported functions --------------------------------------------------------*/
 144:ThirdParty/STM32F4xx_HAL_Driver/Src/stm32f4xx_hal_adc_ex.c **** /** @defgroup ADCEx_Exported_Functions ADC Exported Functions
ARM GAS  /tmp/ccHJyd2u.s 			page 4


 145:ThirdParty/STM32F4xx_HAL_Driver/Src/stm32f4xx_hal_adc_ex.c ****   * @{
 146:ThirdParty/STM32F4xx_HAL_Driver/Src/stm32f4xx_hal_adc_ex.c ****   */
 147:ThirdParty/STM32F4xx_HAL_Driver/Src/stm32f4xx_hal_adc_ex.c **** 
 148:ThirdParty/STM32F4xx_HAL_Driver/Src/stm32f4xx_hal_adc_ex.c **** /** @defgroup ADCEx_Exported_Functions_Group1  Extended features functions 
 149:ThirdParty/STM32F4xx_HAL_Driver/Src/stm32f4xx_hal_adc_ex.c ****   *  @brief    Extended features functions  
 150:ThirdParty/STM32F4xx_HAL_Driver/Src/stm32f4xx_hal_adc_ex.c ****   *
 151:ThirdParty/STM32F4xx_HAL_Driver/Src/stm32f4xx_hal_adc_ex.c **** @verbatim   
 152:ThirdParty/STM32F4xx_HAL_Driver/Src/stm32f4xx_hal_adc_ex.c ****  ===============================================================================
 153:ThirdParty/STM32F4xx_HAL_Driver/Src/stm32f4xx_hal_adc_ex.c ****                  ##### Extended features functions #####
 154:ThirdParty/STM32F4xx_HAL_Driver/Src/stm32f4xx_hal_adc_ex.c ****  ===============================================================================  
 155:ThirdParty/STM32F4xx_HAL_Driver/Src/stm32f4xx_hal_adc_ex.c ****     [..]  This section provides functions allowing to:
 156:ThirdParty/STM32F4xx_HAL_Driver/Src/stm32f4xx_hal_adc_ex.c ****       (+) Start conversion of injected channel.
 157:ThirdParty/STM32F4xx_HAL_Driver/Src/stm32f4xx_hal_adc_ex.c ****       (+) Stop conversion of injected channel.
 158:ThirdParty/STM32F4xx_HAL_Driver/Src/stm32f4xx_hal_adc_ex.c ****       (+) Start multimode and enable DMA transfer.
 159:ThirdParty/STM32F4xx_HAL_Driver/Src/stm32f4xx_hal_adc_ex.c ****       (+) Stop multimode and disable DMA transfer.
 160:ThirdParty/STM32F4xx_HAL_Driver/Src/stm32f4xx_hal_adc_ex.c ****       (+) Get result of injected channel conversion.
 161:ThirdParty/STM32F4xx_HAL_Driver/Src/stm32f4xx_hal_adc_ex.c ****       (+) Get result of multimode conversion.
 162:ThirdParty/STM32F4xx_HAL_Driver/Src/stm32f4xx_hal_adc_ex.c ****       (+) Configure injected channels.
 163:ThirdParty/STM32F4xx_HAL_Driver/Src/stm32f4xx_hal_adc_ex.c ****       (+) Configure multimode.
 164:ThirdParty/STM32F4xx_HAL_Driver/Src/stm32f4xx_hal_adc_ex.c ****                
 165:ThirdParty/STM32F4xx_HAL_Driver/Src/stm32f4xx_hal_adc_ex.c **** @endverbatim
 166:ThirdParty/STM32F4xx_HAL_Driver/Src/stm32f4xx_hal_adc_ex.c ****   * @{
 167:ThirdParty/STM32F4xx_HAL_Driver/Src/stm32f4xx_hal_adc_ex.c ****   */
 168:ThirdParty/STM32F4xx_HAL_Driver/Src/stm32f4xx_hal_adc_ex.c **** 
 169:ThirdParty/STM32F4xx_HAL_Driver/Src/stm32f4xx_hal_adc_ex.c **** /**
 170:ThirdParty/STM32F4xx_HAL_Driver/Src/stm32f4xx_hal_adc_ex.c ****   * @brief  Enables the selected ADC software start conversion of the injected channels.
 171:ThirdParty/STM32F4xx_HAL_Driver/Src/stm32f4xx_hal_adc_ex.c ****   * @param  hadc pointer to a ADC_HandleTypeDef structure that contains
 172:ThirdParty/STM32F4xx_HAL_Driver/Src/stm32f4xx_hal_adc_ex.c ****   *         the configuration information for the specified ADC.
 173:ThirdParty/STM32F4xx_HAL_Driver/Src/stm32f4xx_hal_adc_ex.c ****   * @retval HAL status
 174:ThirdParty/STM32F4xx_HAL_Driver/Src/stm32f4xx_hal_adc_ex.c ****   */
 175:ThirdParty/STM32F4xx_HAL_Driver/Src/stm32f4xx_hal_adc_ex.c **** HAL_StatusTypeDef HAL_ADCEx_InjectedStart(ADC_HandleTypeDef* hadc)
 176:ThirdParty/STM32F4xx_HAL_Driver/Src/stm32f4xx_hal_adc_ex.c **** {
 177:ThirdParty/STM32F4xx_HAL_Driver/Src/stm32f4xx_hal_adc_ex.c ****   __IO uint32_t counter = 0U;
 178:ThirdParty/STM32F4xx_HAL_Driver/Src/stm32f4xx_hal_adc_ex.c ****   uint32_t tmp1 = 0U, tmp2 = 0U;
 179:ThirdParty/STM32F4xx_HAL_Driver/Src/stm32f4xx_hal_adc_ex.c ****   ADC_Common_TypeDef *tmpADC_Common;
 180:ThirdParty/STM32F4xx_HAL_Driver/Src/stm32f4xx_hal_adc_ex.c ****   
 181:ThirdParty/STM32F4xx_HAL_Driver/Src/stm32f4xx_hal_adc_ex.c ****   /* Process locked */
 182:ThirdParty/STM32F4xx_HAL_Driver/Src/stm32f4xx_hal_adc_ex.c ****   __HAL_LOCK(hadc);
 183:ThirdParty/STM32F4xx_HAL_Driver/Src/stm32f4xx_hal_adc_ex.c ****   
 184:ThirdParty/STM32F4xx_HAL_Driver/Src/stm32f4xx_hal_adc_ex.c ****   /* Enable the ADC peripheral */
 185:ThirdParty/STM32F4xx_HAL_Driver/Src/stm32f4xx_hal_adc_ex.c ****   
 186:ThirdParty/STM32F4xx_HAL_Driver/Src/stm32f4xx_hal_adc_ex.c ****   /* Check if ADC peripheral is disabled in order to enable it and wait during 
 187:ThirdParty/STM32F4xx_HAL_Driver/Src/stm32f4xx_hal_adc_ex.c ****      Tstab time the ADC's stabilization */
 188:ThirdParty/STM32F4xx_HAL_Driver/Src/stm32f4xx_hal_adc_ex.c ****   if((hadc->Instance->CR2 & ADC_CR2_ADON) != ADC_CR2_ADON)
 189:ThirdParty/STM32F4xx_HAL_Driver/Src/stm32f4xx_hal_adc_ex.c ****   {  
 190:ThirdParty/STM32F4xx_HAL_Driver/Src/stm32f4xx_hal_adc_ex.c ****     /* Enable the Peripheral */
 191:ThirdParty/STM32F4xx_HAL_Driver/Src/stm32f4xx_hal_adc_ex.c ****     __HAL_ADC_ENABLE(hadc);
 192:ThirdParty/STM32F4xx_HAL_Driver/Src/stm32f4xx_hal_adc_ex.c ****     
 193:ThirdParty/STM32F4xx_HAL_Driver/Src/stm32f4xx_hal_adc_ex.c ****     /* Delay for ADC stabilization time */
 194:ThirdParty/STM32F4xx_HAL_Driver/Src/stm32f4xx_hal_adc_ex.c ****     /* Compute number of CPU cycles to wait for */
 195:ThirdParty/STM32F4xx_HAL_Driver/Src/stm32f4xx_hal_adc_ex.c ****     counter = (ADC_STAB_DELAY_US * (SystemCoreClock / 1000000U));
 196:ThirdParty/STM32F4xx_HAL_Driver/Src/stm32f4xx_hal_adc_ex.c ****     while(counter != 0U)
 197:ThirdParty/STM32F4xx_HAL_Driver/Src/stm32f4xx_hal_adc_ex.c ****     {
 198:ThirdParty/STM32F4xx_HAL_Driver/Src/stm32f4xx_hal_adc_ex.c ****       counter--;
 199:ThirdParty/STM32F4xx_HAL_Driver/Src/stm32f4xx_hal_adc_ex.c ****     }
 200:ThirdParty/STM32F4xx_HAL_Driver/Src/stm32f4xx_hal_adc_ex.c ****   }
 201:ThirdParty/STM32F4xx_HAL_Driver/Src/stm32f4xx_hal_adc_ex.c ****   
ARM GAS  /tmp/ccHJyd2u.s 			page 5


 202:ThirdParty/STM32F4xx_HAL_Driver/Src/stm32f4xx_hal_adc_ex.c ****   /* Start conversion if ADC is effectively enabled */
 203:ThirdParty/STM32F4xx_HAL_Driver/Src/stm32f4xx_hal_adc_ex.c ****   if(HAL_IS_BIT_SET(hadc->Instance->CR2, ADC_CR2_ADON))
 204:ThirdParty/STM32F4xx_HAL_Driver/Src/stm32f4xx_hal_adc_ex.c ****   {
 205:ThirdParty/STM32F4xx_HAL_Driver/Src/stm32f4xx_hal_adc_ex.c ****     /* Set ADC state                                                          */
 206:ThirdParty/STM32F4xx_HAL_Driver/Src/stm32f4xx_hal_adc_ex.c ****     /* - Clear state bitfield related to injected group conversion results    */
 207:ThirdParty/STM32F4xx_HAL_Driver/Src/stm32f4xx_hal_adc_ex.c ****     /* - Set state bitfield related to injected operation                     */
 208:ThirdParty/STM32F4xx_HAL_Driver/Src/stm32f4xx_hal_adc_ex.c ****     ADC_STATE_CLR_SET(hadc->State,
 209:ThirdParty/STM32F4xx_HAL_Driver/Src/stm32f4xx_hal_adc_ex.c ****                       HAL_ADC_STATE_READY | HAL_ADC_STATE_INJ_EOC,
 210:ThirdParty/STM32F4xx_HAL_Driver/Src/stm32f4xx_hal_adc_ex.c ****                       HAL_ADC_STATE_INJ_BUSY);
 211:ThirdParty/STM32F4xx_HAL_Driver/Src/stm32f4xx_hal_adc_ex.c ****     
 212:ThirdParty/STM32F4xx_HAL_Driver/Src/stm32f4xx_hal_adc_ex.c ****     /* Check if a regular conversion is ongoing */
 213:ThirdParty/STM32F4xx_HAL_Driver/Src/stm32f4xx_hal_adc_ex.c ****     /* Note: On this device, there is no ADC error code fields related to     */
 214:ThirdParty/STM32F4xx_HAL_Driver/Src/stm32f4xx_hal_adc_ex.c ****     /*       conversions on group injected only. In case of conversion on     */
 215:ThirdParty/STM32F4xx_HAL_Driver/Src/stm32f4xx_hal_adc_ex.c ****     /*       going on group regular, no error code is reset.                  */
 216:ThirdParty/STM32F4xx_HAL_Driver/Src/stm32f4xx_hal_adc_ex.c ****     if (HAL_IS_BIT_CLR(hadc->State, HAL_ADC_STATE_REG_BUSY))
 217:ThirdParty/STM32F4xx_HAL_Driver/Src/stm32f4xx_hal_adc_ex.c ****     {
 218:ThirdParty/STM32F4xx_HAL_Driver/Src/stm32f4xx_hal_adc_ex.c ****       /* Reset ADC all error code fields */
 219:ThirdParty/STM32F4xx_HAL_Driver/Src/stm32f4xx_hal_adc_ex.c ****       ADC_CLEAR_ERRORCODE(hadc);
 220:ThirdParty/STM32F4xx_HAL_Driver/Src/stm32f4xx_hal_adc_ex.c ****     }
 221:ThirdParty/STM32F4xx_HAL_Driver/Src/stm32f4xx_hal_adc_ex.c ****     
 222:ThirdParty/STM32F4xx_HAL_Driver/Src/stm32f4xx_hal_adc_ex.c ****     /* Process unlocked */
 223:ThirdParty/STM32F4xx_HAL_Driver/Src/stm32f4xx_hal_adc_ex.c ****     /* Unlock before starting ADC conversions: in case of potential           */
 224:ThirdParty/STM32F4xx_HAL_Driver/Src/stm32f4xx_hal_adc_ex.c ****     /* interruption, to let the process to ADC IRQ Handler.                   */
 225:ThirdParty/STM32F4xx_HAL_Driver/Src/stm32f4xx_hal_adc_ex.c ****     __HAL_UNLOCK(hadc);
 226:ThirdParty/STM32F4xx_HAL_Driver/Src/stm32f4xx_hal_adc_ex.c ****     
 227:ThirdParty/STM32F4xx_HAL_Driver/Src/stm32f4xx_hal_adc_ex.c ****     /* Clear injected group conversion flag */
 228:ThirdParty/STM32F4xx_HAL_Driver/Src/stm32f4xx_hal_adc_ex.c ****     /* (To ensure of no unknown state from potential previous ADC operations) */
 229:ThirdParty/STM32F4xx_HAL_Driver/Src/stm32f4xx_hal_adc_ex.c ****     __HAL_ADC_CLEAR_FLAG(hadc, ADC_FLAG_JEOC);
 230:ThirdParty/STM32F4xx_HAL_Driver/Src/stm32f4xx_hal_adc_ex.c **** 
 231:ThirdParty/STM32F4xx_HAL_Driver/Src/stm32f4xx_hal_adc_ex.c ****     /* Pointer to the common control register to which is belonging hadc    */
 232:ThirdParty/STM32F4xx_HAL_Driver/Src/stm32f4xx_hal_adc_ex.c ****     /* (Depending on STM32F4 product, there may be up to 3 ADC and 1 common */
 233:ThirdParty/STM32F4xx_HAL_Driver/Src/stm32f4xx_hal_adc_ex.c ****     /* control register)                                                    */
 234:ThirdParty/STM32F4xx_HAL_Driver/Src/stm32f4xx_hal_adc_ex.c ****     tmpADC_Common = ADC_COMMON_REGISTER(hadc);
 235:ThirdParty/STM32F4xx_HAL_Driver/Src/stm32f4xx_hal_adc_ex.c **** 
 236:ThirdParty/STM32F4xx_HAL_Driver/Src/stm32f4xx_hal_adc_ex.c ****     /* Check if Multimode enabled */
 237:ThirdParty/STM32F4xx_HAL_Driver/Src/stm32f4xx_hal_adc_ex.c ****     if(HAL_IS_BIT_CLR(tmpADC_Common->CCR, ADC_CCR_MULTI))
 238:ThirdParty/STM32F4xx_HAL_Driver/Src/stm32f4xx_hal_adc_ex.c ****     {
 239:ThirdParty/STM32F4xx_HAL_Driver/Src/stm32f4xx_hal_adc_ex.c ****       tmp1 = HAL_IS_BIT_CLR(hadc->Instance->CR2, ADC_CR2_JEXTEN);
 240:ThirdParty/STM32F4xx_HAL_Driver/Src/stm32f4xx_hal_adc_ex.c ****       tmp2 = HAL_IS_BIT_CLR(hadc->Instance->CR1, ADC_CR1_JAUTO);
 241:ThirdParty/STM32F4xx_HAL_Driver/Src/stm32f4xx_hal_adc_ex.c ****       if(tmp1 && tmp2)
 242:ThirdParty/STM32F4xx_HAL_Driver/Src/stm32f4xx_hal_adc_ex.c ****       {
 243:ThirdParty/STM32F4xx_HAL_Driver/Src/stm32f4xx_hal_adc_ex.c ****         /* Enable the selected ADC software conversion for injected group */
 244:ThirdParty/STM32F4xx_HAL_Driver/Src/stm32f4xx_hal_adc_ex.c ****         hadc->Instance->CR2 |= ADC_CR2_JSWSTART;
 245:ThirdParty/STM32F4xx_HAL_Driver/Src/stm32f4xx_hal_adc_ex.c ****       }
 246:ThirdParty/STM32F4xx_HAL_Driver/Src/stm32f4xx_hal_adc_ex.c ****     }
 247:ThirdParty/STM32F4xx_HAL_Driver/Src/stm32f4xx_hal_adc_ex.c ****     else
 248:ThirdParty/STM32F4xx_HAL_Driver/Src/stm32f4xx_hal_adc_ex.c ****     {
 249:ThirdParty/STM32F4xx_HAL_Driver/Src/stm32f4xx_hal_adc_ex.c ****       tmp1 = HAL_IS_BIT_CLR(hadc->Instance->CR2, ADC_CR2_JEXTEN);
 250:ThirdParty/STM32F4xx_HAL_Driver/Src/stm32f4xx_hal_adc_ex.c ****       tmp2 = HAL_IS_BIT_CLR(hadc->Instance->CR1, ADC_CR1_JAUTO);
 251:ThirdParty/STM32F4xx_HAL_Driver/Src/stm32f4xx_hal_adc_ex.c ****       if((hadc->Instance == ADC1) && tmp1 && tmp2)  
 252:ThirdParty/STM32F4xx_HAL_Driver/Src/stm32f4xx_hal_adc_ex.c ****       {
 253:ThirdParty/STM32F4xx_HAL_Driver/Src/stm32f4xx_hal_adc_ex.c ****         /* Enable the selected ADC software conversion for injected group */
 254:ThirdParty/STM32F4xx_HAL_Driver/Src/stm32f4xx_hal_adc_ex.c ****         hadc->Instance->CR2 |= ADC_CR2_JSWSTART;
 255:ThirdParty/STM32F4xx_HAL_Driver/Src/stm32f4xx_hal_adc_ex.c ****       }
 256:ThirdParty/STM32F4xx_HAL_Driver/Src/stm32f4xx_hal_adc_ex.c ****     }
 257:ThirdParty/STM32F4xx_HAL_Driver/Src/stm32f4xx_hal_adc_ex.c ****   }
 258:ThirdParty/STM32F4xx_HAL_Driver/Src/stm32f4xx_hal_adc_ex.c ****   
ARM GAS  /tmp/ccHJyd2u.s 			page 6


 259:ThirdParty/STM32F4xx_HAL_Driver/Src/stm32f4xx_hal_adc_ex.c ****   /* Return function status */
 260:ThirdParty/STM32F4xx_HAL_Driver/Src/stm32f4xx_hal_adc_ex.c ****   return HAL_OK;
 261:ThirdParty/STM32F4xx_HAL_Driver/Src/stm32f4xx_hal_adc_ex.c **** }
 262:ThirdParty/STM32F4xx_HAL_Driver/Src/stm32f4xx_hal_adc_ex.c **** 
 263:ThirdParty/STM32F4xx_HAL_Driver/Src/stm32f4xx_hal_adc_ex.c **** /**
 264:ThirdParty/STM32F4xx_HAL_Driver/Src/stm32f4xx_hal_adc_ex.c ****   * @brief  Enables the interrupt and starts ADC conversion of injected channels.
 265:ThirdParty/STM32F4xx_HAL_Driver/Src/stm32f4xx_hal_adc_ex.c ****   * @param  hadc pointer to a ADC_HandleTypeDef structure that contains
 266:ThirdParty/STM32F4xx_HAL_Driver/Src/stm32f4xx_hal_adc_ex.c ****   *         the configuration information for the specified ADC.
 267:ThirdParty/STM32F4xx_HAL_Driver/Src/stm32f4xx_hal_adc_ex.c ****   *
 268:ThirdParty/STM32F4xx_HAL_Driver/Src/stm32f4xx_hal_adc_ex.c ****   * @retval HAL status.
 269:ThirdParty/STM32F4xx_HAL_Driver/Src/stm32f4xx_hal_adc_ex.c ****   */
 270:ThirdParty/STM32F4xx_HAL_Driver/Src/stm32f4xx_hal_adc_ex.c **** HAL_StatusTypeDef HAL_ADCEx_InjectedStart_IT(ADC_HandleTypeDef* hadc)
 271:ThirdParty/STM32F4xx_HAL_Driver/Src/stm32f4xx_hal_adc_ex.c **** {
 272:ThirdParty/STM32F4xx_HAL_Driver/Src/stm32f4xx_hal_adc_ex.c ****   __IO uint32_t counter = 0U;
 273:ThirdParty/STM32F4xx_HAL_Driver/Src/stm32f4xx_hal_adc_ex.c ****   uint32_t tmp1 = 0U, tmp2 = 0U;
 274:ThirdParty/STM32F4xx_HAL_Driver/Src/stm32f4xx_hal_adc_ex.c ****   ADC_Common_TypeDef *tmpADC_Common;
 275:ThirdParty/STM32F4xx_HAL_Driver/Src/stm32f4xx_hal_adc_ex.c ****   
 276:ThirdParty/STM32F4xx_HAL_Driver/Src/stm32f4xx_hal_adc_ex.c ****   /* Process locked */
 277:ThirdParty/STM32F4xx_HAL_Driver/Src/stm32f4xx_hal_adc_ex.c ****   __HAL_LOCK(hadc);
 278:ThirdParty/STM32F4xx_HAL_Driver/Src/stm32f4xx_hal_adc_ex.c ****   
 279:ThirdParty/STM32F4xx_HAL_Driver/Src/stm32f4xx_hal_adc_ex.c ****   /* Enable the ADC peripheral */
 280:ThirdParty/STM32F4xx_HAL_Driver/Src/stm32f4xx_hal_adc_ex.c ****   
 281:ThirdParty/STM32F4xx_HAL_Driver/Src/stm32f4xx_hal_adc_ex.c ****   /* Check if ADC peripheral is disabled in order to enable it and wait during 
 282:ThirdParty/STM32F4xx_HAL_Driver/Src/stm32f4xx_hal_adc_ex.c ****      Tstab time the ADC's stabilization */
 283:ThirdParty/STM32F4xx_HAL_Driver/Src/stm32f4xx_hal_adc_ex.c ****   if((hadc->Instance->CR2 & ADC_CR2_ADON) != ADC_CR2_ADON)
 284:ThirdParty/STM32F4xx_HAL_Driver/Src/stm32f4xx_hal_adc_ex.c ****   {  
 285:ThirdParty/STM32F4xx_HAL_Driver/Src/stm32f4xx_hal_adc_ex.c ****     /* Enable the Peripheral */
 286:ThirdParty/STM32F4xx_HAL_Driver/Src/stm32f4xx_hal_adc_ex.c ****     __HAL_ADC_ENABLE(hadc);
 287:ThirdParty/STM32F4xx_HAL_Driver/Src/stm32f4xx_hal_adc_ex.c ****     
 288:ThirdParty/STM32F4xx_HAL_Driver/Src/stm32f4xx_hal_adc_ex.c ****     /* Delay for ADC stabilization time */
 289:ThirdParty/STM32F4xx_HAL_Driver/Src/stm32f4xx_hal_adc_ex.c ****     /* Compute number of CPU cycles to wait for */
 290:ThirdParty/STM32F4xx_HAL_Driver/Src/stm32f4xx_hal_adc_ex.c ****     counter = (ADC_STAB_DELAY_US * (SystemCoreClock / 1000000U));
 291:ThirdParty/STM32F4xx_HAL_Driver/Src/stm32f4xx_hal_adc_ex.c ****     while(counter != 0U)
 292:ThirdParty/STM32F4xx_HAL_Driver/Src/stm32f4xx_hal_adc_ex.c ****     {
 293:ThirdParty/STM32F4xx_HAL_Driver/Src/stm32f4xx_hal_adc_ex.c ****       counter--;
 294:ThirdParty/STM32F4xx_HAL_Driver/Src/stm32f4xx_hal_adc_ex.c ****     }
 295:ThirdParty/STM32F4xx_HAL_Driver/Src/stm32f4xx_hal_adc_ex.c ****   }
 296:ThirdParty/STM32F4xx_HAL_Driver/Src/stm32f4xx_hal_adc_ex.c ****   
 297:ThirdParty/STM32F4xx_HAL_Driver/Src/stm32f4xx_hal_adc_ex.c ****   /* Start conversion if ADC is effectively enabled */
 298:ThirdParty/STM32F4xx_HAL_Driver/Src/stm32f4xx_hal_adc_ex.c ****   if(HAL_IS_BIT_SET(hadc->Instance->CR2, ADC_CR2_ADON))
 299:ThirdParty/STM32F4xx_HAL_Driver/Src/stm32f4xx_hal_adc_ex.c ****   {
 300:ThirdParty/STM32F4xx_HAL_Driver/Src/stm32f4xx_hal_adc_ex.c ****     /* Set ADC state                                                          */
 301:ThirdParty/STM32F4xx_HAL_Driver/Src/stm32f4xx_hal_adc_ex.c ****     /* - Clear state bitfield related to injected group conversion results    */
 302:ThirdParty/STM32F4xx_HAL_Driver/Src/stm32f4xx_hal_adc_ex.c ****     /* - Set state bitfield related to injected operation                     */
 303:ThirdParty/STM32F4xx_HAL_Driver/Src/stm32f4xx_hal_adc_ex.c ****     ADC_STATE_CLR_SET(hadc->State,
 304:ThirdParty/STM32F4xx_HAL_Driver/Src/stm32f4xx_hal_adc_ex.c ****                       HAL_ADC_STATE_READY | HAL_ADC_STATE_INJ_EOC,
 305:ThirdParty/STM32F4xx_HAL_Driver/Src/stm32f4xx_hal_adc_ex.c ****                       HAL_ADC_STATE_INJ_BUSY);
 306:ThirdParty/STM32F4xx_HAL_Driver/Src/stm32f4xx_hal_adc_ex.c ****     
 307:ThirdParty/STM32F4xx_HAL_Driver/Src/stm32f4xx_hal_adc_ex.c ****     /* Check if a regular conversion is ongoing */
 308:ThirdParty/STM32F4xx_HAL_Driver/Src/stm32f4xx_hal_adc_ex.c ****     /* Note: On this device, there is no ADC error code fields related to     */
 309:ThirdParty/STM32F4xx_HAL_Driver/Src/stm32f4xx_hal_adc_ex.c ****     /*       conversions on group injected only. In case of conversion on     */
 310:ThirdParty/STM32F4xx_HAL_Driver/Src/stm32f4xx_hal_adc_ex.c ****     /*       going on group regular, no error code is reset.                  */
 311:ThirdParty/STM32F4xx_HAL_Driver/Src/stm32f4xx_hal_adc_ex.c ****     if (HAL_IS_BIT_CLR(hadc->State, HAL_ADC_STATE_REG_BUSY))
 312:ThirdParty/STM32F4xx_HAL_Driver/Src/stm32f4xx_hal_adc_ex.c ****     {
 313:ThirdParty/STM32F4xx_HAL_Driver/Src/stm32f4xx_hal_adc_ex.c ****       /* Reset ADC all error code fields */
 314:ThirdParty/STM32F4xx_HAL_Driver/Src/stm32f4xx_hal_adc_ex.c ****       ADC_CLEAR_ERRORCODE(hadc);
 315:ThirdParty/STM32F4xx_HAL_Driver/Src/stm32f4xx_hal_adc_ex.c ****     }
ARM GAS  /tmp/ccHJyd2u.s 			page 7


 316:ThirdParty/STM32F4xx_HAL_Driver/Src/stm32f4xx_hal_adc_ex.c ****     
 317:ThirdParty/STM32F4xx_HAL_Driver/Src/stm32f4xx_hal_adc_ex.c ****     /* Process unlocked */
 318:ThirdParty/STM32F4xx_HAL_Driver/Src/stm32f4xx_hal_adc_ex.c ****     /* Unlock before starting ADC conversions: in case of potential           */
 319:ThirdParty/STM32F4xx_HAL_Driver/Src/stm32f4xx_hal_adc_ex.c ****     /* interruption, to let the process to ADC IRQ Handler.                   */
 320:ThirdParty/STM32F4xx_HAL_Driver/Src/stm32f4xx_hal_adc_ex.c ****     __HAL_UNLOCK(hadc);
 321:ThirdParty/STM32F4xx_HAL_Driver/Src/stm32f4xx_hal_adc_ex.c ****     
 322:ThirdParty/STM32F4xx_HAL_Driver/Src/stm32f4xx_hal_adc_ex.c ****     /* Clear injected group conversion flag */
 323:ThirdParty/STM32F4xx_HAL_Driver/Src/stm32f4xx_hal_adc_ex.c ****     /* (To ensure of no unknown state from potential previous ADC operations) */
 324:ThirdParty/STM32F4xx_HAL_Driver/Src/stm32f4xx_hal_adc_ex.c ****     __HAL_ADC_CLEAR_FLAG(hadc, ADC_FLAG_JEOC);
 325:ThirdParty/STM32F4xx_HAL_Driver/Src/stm32f4xx_hal_adc_ex.c ****     
 326:ThirdParty/STM32F4xx_HAL_Driver/Src/stm32f4xx_hal_adc_ex.c ****     /* Enable end of conversion interrupt for injected channels */
 327:ThirdParty/STM32F4xx_HAL_Driver/Src/stm32f4xx_hal_adc_ex.c ****     __HAL_ADC_ENABLE_IT(hadc, ADC_IT_JEOC);
 328:ThirdParty/STM32F4xx_HAL_Driver/Src/stm32f4xx_hal_adc_ex.c **** 
 329:ThirdParty/STM32F4xx_HAL_Driver/Src/stm32f4xx_hal_adc_ex.c ****     /* Pointer to the common control register to which is belonging hadc    */
 330:ThirdParty/STM32F4xx_HAL_Driver/Src/stm32f4xx_hal_adc_ex.c ****     /* (Depending on STM32F4 product, there may be up to 3 ADC and 1 common */
 331:ThirdParty/STM32F4xx_HAL_Driver/Src/stm32f4xx_hal_adc_ex.c ****     /* control register)                                                    */
 332:ThirdParty/STM32F4xx_HAL_Driver/Src/stm32f4xx_hal_adc_ex.c ****     tmpADC_Common = ADC_COMMON_REGISTER(hadc);
 333:ThirdParty/STM32F4xx_HAL_Driver/Src/stm32f4xx_hal_adc_ex.c ****     
 334:ThirdParty/STM32F4xx_HAL_Driver/Src/stm32f4xx_hal_adc_ex.c ****     /* Check if Multimode enabled */
 335:ThirdParty/STM32F4xx_HAL_Driver/Src/stm32f4xx_hal_adc_ex.c ****     if(HAL_IS_BIT_CLR(tmpADC_Common->CCR, ADC_CCR_MULTI))
 336:ThirdParty/STM32F4xx_HAL_Driver/Src/stm32f4xx_hal_adc_ex.c ****     {
 337:ThirdParty/STM32F4xx_HAL_Driver/Src/stm32f4xx_hal_adc_ex.c ****       tmp1 = HAL_IS_BIT_CLR(hadc->Instance->CR2, ADC_CR2_JEXTEN);
 338:ThirdParty/STM32F4xx_HAL_Driver/Src/stm32f4xx_hal_adc_ex.c ****       tmp2 = HAL_IS_BIT_CLR(hadc->Instance->CR1, ADC_CR1_JAUTO);
 339:ThirdParty/STM32F4xx_HAL_Driver/Src/stm32f4xx_hal_adc_ex.c ****       if(tmp1 && tmp2)
 340:ThirdParty/STM32F4xx_HAL_Driver/Src/stm32f4xx_hal_adc_ex.c ****       {
 341:ThirdParty/STM32F4xx_HAL_Driver/Src/stm32f4xx_hal_adc_ex.c ****         /* Enable the selected ADC software conversion for injected group */
 342:ThirdParty/STM32F4xx_HAL_Driver/Src/stm32f4xx_hal_adc_ex.c ****         hadc->Instance->CR2 |= ADC_CR2_JSWSTART;
 343:ThirdParty/STM32F4xx_HAL_Driver/Src/stm32f4xx_hal_adc_ex.c ****       }
 344:ThirdParty/STM32F4xx_HAL_Driver/Src/stm32f4xx_hal_adc_ex.c ****     }
 345:ThirdParty/STM32F4xx_HAL_Driver/Src/stm32f4xx_hal_adc_ex.c ****     else
 346:ThirdParty/STM32F4xx_HAL_Driver/Src/stm32f4xx_hal_adc_ex.c ****     {
 347:ThirdParty/STM32F4xx_HAL_Driver/Src/stm32f4xx_hal_adc_ex.c ****       tmp1 = HAL_IS_BIT_CLR(hadc->Instance->CR2, ADC_CR2_JEXTEN);
 348:ThirdParty/STM32F4xx_HAL_Driver/Src/stm32f4xx_hal_adc_ex.c ****       tmp2 = HAL_IS_BIT_CLR(hadc->Instance->CR1, ADC_CR1_JAUTO);
 349:ThirdParty/STM32F4xx_HAL_Driver/Src/stm32f4xx_hal_adc_ex.c ****       if((hadc->Instance == ADC1) && tmp1 && tmp2)  
 350:ThirdParty/STM32F4xx_HAL_Driver/Src/stm32f4xx_hal_adc_ex.c ****       {
 351:ThirdParty/STM32F4xx_HAL_Driver/Src/stm32f4xx_hal_adc_ex.c ****         /* Enable the selected ADC software conversion for injected group */
 352:ThirdParty/STM32F4xx_HAL_Driver/Src/stm32f4xx_hal_adc_ex.c ****         hadc->Instance->CR2 |= ADC_CR2_JSWSTART;
 353:ThirdParty/STM32F4xx_HAL_Driver/Src/stm32f4xx_hal_adc_ex.c ****       }
 354:ThirdParty/STM32F4xx_HAL_Driver/Src/stm32f4xx_hal_adc_ex.c ****     }
 355:ThirdParty/STM32F4xx_HAL_Driver/Src/stm32f4xx_hal_adc_ex.c ****   }
 356:ThirdParty/STM32F4xx_HAL_Driver/Src/stm32f4xx_hal_adc_ex.c ****   
 357:ThirdParty/STM32F4xx_HAL_Driver/Src/stm32f4xx_hal_adc_ex.c ****   /* Return function status */
 358:ThirdParty/STM32F4xx_HAL_Driver/Src/stm32f4xx_hal_adc_ex.c ****   return HAL_OK;
 359:ThirdParty/STM32F4xx_HAL_Driver/Src/stm32f4xx_hal_adc_ex.c **** }
 360:ThirdParty/STM32F4xx_HAL_Driver/Src/stm32f4xx_hal_adc_ex.c **** 
 361:ThirdParty/STM32F4xx_HAL_Driver/Src/stm32f4xx_hal_adc_ex.c **** /**
 362:ThirdParty/STM32F4xx_HAL_Driver/Src/stm32f4xx_hal_adc_ex.c ****   * @brief  Stop conversion of injected channels. Disable ADC peripheral if
 363:ThirdParty/STM32F4xx_HAL_Driver/Src/stm32f4xx_hal_adc_ex.c ****   *         no regular conversion is on going.
 364:ThirdParty/STM32F4xx_HAL_Driver/Src/stm32f4xx_hal_adc_ex.c ****   * @note   If ADC must be disabled and if conversion is on going on 
 365:ThirdParty/STM32F4xx_HAL_Driver/Src/stm32f4xx_hal_adc_ex.c ****   *         regular group, function HAL_ADC_Stop must be used to stop both
 366:ThirdParty/STM32F4xx_HAL_Driver/Src/stm32f4xx_hal_adc_ex.c ****   *         injected and regular groups, and disable the ADC.
 367:ThirdParty/STM32F4xx_HAL_Driver/Src/stm32f4xx_hal_adc_ex.c ****   * @note   If injected group mode auto-injection is enabled,
 368:ThirdParty/STM32F4xx_HAL_Driver/Src/stm32f4xx_hal_adc_ex.c ****   *         function HAL_ADC_Stop must be used.
 369:ThirdParty/STM32F4xx_HAL_Driver/Src/stm32f4xx_hal_adc_ex.c ****   * @note   In case of auto-injection mode, HAL_ADC_Stop must be used.
 370:ThirdParty/STM32F4xx_HAL_Driver/Src/stm32f4xx_hal_adc_ex.c ****   * @param  hadc ADC handle
 371:ThirdParty/STM32F4xx_HAL_Driver/Src/stm32f4xx_hal_adc_ex.c ****   * @retval None
 372:ThirdParty/STM32F4xx_HAL_Driver/Src/stm32f4xx_hal_adc_ex.c ****   */
ARM GAS  /tmp/ccHJyd2u.s 			page 8


 373:ThirdParty/STM32F4xx_HAL_Driver/Src/stm32f4xx_hal_adc_ex.c **** HAL_StatusTypeDef HAL_ADCEx_InjectedStop(ADC_HandleTypeDef* hadc)
 374:ThirdParty/STM32F4xx_HAL_Driver/Src/stm32f4xx_hal_adc_ex.c **** {
 375:ThirdParty/STM32F4xx_HAL_Driver/Src/stm32f4xx_hal_adc_ex.c ****   HAL_StatusTypeDef tmp_hal_status = HAL_OK;
 376:ThirdParty/STM32F4xx_HAL_Driver/Src/stm32f4xx_hal_adc_ex.c ****   
 377:ThirdParty/STM32F4xx_HAL_Driver/Src/stm32f4xx_hal_adc_ex.c ****   /* Check the parameters */
 378:ThirdParty/STM32F4xx_HAL_Driver/Src/stm32f4xx_hal_adc_ex.c ****   assert_param(IS_ADC_ALL_INSTANCE(hadc->Instance));
 379:ThirdParty/STM32F4xx_HAL_Driver/Src/stm32f4xx_hal_adc_ex.c **** 
 380:ThirdParty/STM32F4xx_HAL_Driver/Src/stm32f4xx_hal_adc_ex.c ****   /* Process locked */
 381:ThirdParty/STM32F4xx_HAL_Driver/Src/stm32f4xx_hal_adc_ex.c ****   __HAL_LOCK(hadc);
 382:ThirdParty/STM32F4xx_HAL_Driver/Src/stm32f4xx_hal_adc_ex.c ****     
 383:ThirdParty/STM32F4xx_HAL_Driver/Src/stm32f4xx_hal_adc_ex.c ****   /* Stop potential conversion and disable ADC peripheral                     */
 384:ThirdParty/STM32F4xx_HAL_Driver/Src/stm32f4xx_hal_adc_ex.c ****   /* Conditioned to:                                                          */
 385:ThirdParty/STM32F4xx_HAL_Driver/Src/stm32f4xx_hal_adc_ex.c ****   /* - No conversion on the other group (regular group) is intended to        */
 386:ThirdParty/STM32F4xx_HAL_Driver/Src/stm32f4xx_hal_adc_ex.c ****   /*   continue (injected and regular groups stop conversion and ADC disable  */
 387:ThirdParty/STM32F4xx_HAL_Driver/Src/stm32f4xx_hal_adc_ex.c ****   /*   are common)                                                            */
 388:ThirdParty/STM32F4xx_HAL_Driver/Src/stm32f4xx_hal_adc_ex.c ****   /* - In case of auto-injection mode, HAL_ADC_Stop must be used.             */
 389:ThirdParty/STM32F4xx_HAL_Driver/Src/stm32f4xx_hal_adc_ex.c ****   if(((hadc->State & HAL_ADC_STATE_REG_BUSY) == RESET)  &&
 390:ThirdParty/STM32F4xx_HAL_Driver/Src/stm32f4xx_hal_adc_ex.c ****      HAL_IS_BIT_CLR(hadc->Instance->CR1, ADC_CR1_JAUTO)   )
 391:ThirdParty/STM32F4xx_HAL_Driver/Src/stm32f4xx_hal_adc_ex.c ****   {
 392:ThirdParty/STM32F4xx_HAL_Driver/Src/stm32f4xx_hal_adc_ex.c ****     /* Stop potential conversion on going, on regular and injected groups */
 393:ThirdParty/STM32F4xx_HAL_Driver/Src/stm32f4xx_hal_adc_ex.c ****     /* Disable ADC peripheral */
 394:ThirdParty/STM32F4xx_HAL_Driver/Src/stm32f4xx_hal_adc_ex.c ****     __HAL_ADC_DISABLE(hadc);
 395:ThirdParty/STM32F4xx_HAL_Driver/Src/stm32f4xx_hal_adc_ex.c ****     
 396:ThirdParty/STM32F4xx_HAL_Driver/Src/stm32f4xx_hal_adc_ex.c ****     /* Check if ADC is effectively disabled */
 397:ThirdParty/STM32F4xx_HAL_Driver/Src/stm32f4xx_hal_adc_ex.c ****     if(HAL_IS_BIT_CLR(hadc->Instance->CR2, ADC_CR2_ADON))
 398:ThirdParty/STM32F4xx_HAL_Driver/Src/stm32f4xx_hal_adc_ex.c ****     {
 399:ThirdParty/STM32F4xx_HAL_Driver/Src/stm32f4xx_hal_adc_ex.c ****       /* Set ADC state */
 400:ThirdParty/STM32F4xx_HAL_Driver/Src/stm32f4xx_hal_adc_ex.c ****       ADC_STATE_CLR_SET(hadc->State,
 401:ThirdParty/STM32F4xx_HAL_Driver/Src/stm32f4xx_hal_adc_ex.c ****                         HAL_ADC_STATE_REG_BUSY | HAL_ADC_STATE_INJ_BUSY,
 402:ThirdParty/STM32F4xx_HAL_Driver/Src/stm32f4xx_hal_adc_ex.c ****                         HAL_ADC_STATE_READY);
 403:ThirdParty/STM32F4xx_HAL_Driver/Src/stm32f4xx_hal_adc_ex.c ****     }
 404:ThirdParty/STM32F4xx_HAL_Driver/Src/stm32f4xx_hal_adc_ex.c ****   }
 405:ThirdParty/STM32F4xx_HAL_Driver/Src/stm32f4xx_hal_adc_ex.c ****   else
 406:ThirdParty/STM32F4xx_HAL_Driver/Src/stm32f4xx_hal_adc_ex.c ****   {
 407:ThirdParty/STM32F4xx_HAL_Driver/Src/stm32f4xx_hal_adc_ex.c ****     /* Update ADC state machine to error */
 408:ThirdParty/STM32F4xx_HAL_Driver/Src/stm32f4xx_hal_adc_ex.c ****     SET_BIT(hadc->State, HAL_ADC_STATE_ERROR_CONFIG);
 409:ThirdParty/STM32F4xx_HAL_Driver/Src/stm32f4xx_hal_adc_ex.c ****       
 410:ThirdParty/STM32F4xx_HAL_Driver/Src/stm32f4xx_hal_adc_ex.c ****     tmp_hal_status = HAL_ERROR;
 411:ThirdParty/STM32F4xx_HAL_Driver/Src/stm32f4xx_hal_adc_ex.c ****   }
 412:ThirdParty/STM32F4xx_HAL_Driver/Src/stm32f4xx_hal_adc_ex.c ****   
 413:ThirdParty/STM32F4xx_HAL_Driver/Src/stm32f4xx_hal_adc_ex.c ****   /* Process unlocked */
 414:ThirdParty/STM32F4xx_HAL_Driver/Src/stm32f4xx_hal_adc_ex.c ****   __HAL_UNLOCK(hadc);
 415:ThirdParty/STM32F4xx_HAL_Driver/Src/stm32f4xx_hal_adc_ex.c ****   
 416:ThirdParty/STM32F4xx_HAL_Driver/Src/stm32f4xx_hal_adc_ex.c ****   /* Return function status */
 417:ThirdParty/STM32F4xx_HAL_Driver/Src/stm32f4xx_hal_adc_ex.c ****   return tmp_hal_status;
 418:ThirdParty/STM32F4xx_HAL_Driver/Src/stm32f4xx_hal_adc_ex.c **** }
 419:ThirdParty/STM32F4xx_HAL_Driver/Src/stm32f4xx_hal_adc_ex.c **** 
 420:ThirdParty/STM32F4xx_HAL_Driver/Src/stm32f4xx_hal_adc_ex.c **** /**
 421:ThirdParty/STM32F4xx_HAL_Driver/Src/stm32f4xx_hal_adc_ex.c ****   * @brief  Poll for injected conversion complete
 422:ThirdParty/STM32F4xx_HAL_Driver/Src/stm32f4xx_hal_adc_ex.c ****   * @param  hadc pointer to a ADC_HandleTypeDef structure that contains
 423:ThirdParty/STM32F4xx_HAL_Driver/Src/stm32f4xx_hal_adc_ex.c ****   *         the configuration information for the specified ADC.
 424:ThirdParty/STM32F4xx_HAL_Driver/Src/stm32f4xx_hal_adc_ex.c ****   * @param  Timeout Timeout value in millisecond.  
 425:ThirdParty/STM32F4xx_HAL_Driver/Src/stm32f4xx_hal_adc_ex.c ****   * @retval HAL status
 426:ThirdParty/STM32F4xx_HAL_Driver/Src/stm32f4xx_hal_adc_ex.c ****   */
 427:ThirdParty/STM32F4xx_HAL_Driver/Src/stm32f4xx_hal_adc_ex.c **** HAL_StatusTypeDef HAL_ADCEx_InjectedPollForConversion(ADC_HandleTypeDef* hadc, uint32_t Timeout)
 428:ThirdParty/STM32F4xx_HAL_Driver/Src/stm32f4xx_hal_adc_ex.c **** {
 429:ThirdParty/STM32F4xx_HAL_Driver/Src/stm32f4xx_hal_adc_ex.c ****   uint32_t tickstart = 0U;
ARM GAS  /tmp/ccHJyd2u.s 			page 9


 430:ThirdParty/STM32F4xx_HAL_Driver/Src/stm32f4xx_hal_adc_ex.c **** 
 431:ThirdParty/STM32F4xx_HAL_Driver/Src/stm32f4xx_hal_adc_ex.c ****   /* Get tick */ 
 432:ThirdParty/STM32F4xx_HAL_Driver/Src/stm32f4xx_hal_adc_ex.c ****   tickstart = HAL_GetTick();
 433:ThirdParty/STM32F4xx_HAL_Driver/Src/stm32f4xx_hal_adc_ex.c **** 
 434:ThirdParty/STM32F4xx_HAL_Driver/Src/stm32f4xx_hal_adc_ex.c ****   /* Check End of conversion flag */
 435:ThirdParty/STM32F4xx_HAL_Driver/Src/stm32f4xx_hal_adc_ex.c ****   while(!(__HAL_ADC_GET_FLAG(hadc, ADC_FLAG_JEOC)))
 436:ThirdParty/STM32F4xx_HAL_Driver/Src/stm32f4xx_hal_adc_ex.c ****   {
 437:ThirdParty/STM32F4xx_HAL_Driver/Src/stm32f4xx_hal_adc_ex.c ****     /* Check for the Timeout */
 438:ThirdParty/STM32F4xx_HAL_Driver/Src/stm32f4xx_hal_adc_ex.c ****     if(Timeout != HAL_MAX_DELAY)
 439:ThirdParty/STM32F4xx_HAL_Driver/Src/stm32f4xx_hal_adc_ex.c ****     {
 440:ThirdParty/STM32F4xx_HAL_Driver/Src/stm32f4xx_hal_adc_ex.c ****       if((Timeout == 0U)||((HAL_GetTick() - tickstart ) > Timeout))
 441:ThirdParty/STM32F4xx_HAL_Driver/Src/stm32f4xx_hal_adc_ex.c ****       {
 442:ThirdParty/STM32F4xx_HAL_Driver/Src/stm32f4xx_hal_adc_ex.c ****         hadc->State= HAL_ADC_STATE_TIMEOUT;
 443:ThirdParty/STM32F4xx_HAL_Driver/Src/stm32f4xx_hal_adc_ex.c ****         /* Process unlocked */
 444:ThirdParty/STM32F4xx_HAL_Driver/Src/stm32f4xx_hal_adc_ex.c ****         __HAL_UNLOCK(hadc);
 445:ThirdParty/STM32F4xx_HAL_Driver/Src/stm32f4xx_hal_adc_ex.c ****         return HAL_TIMEOUT;
 446:ThirdParty/STM32F4xx_HAL_Driver/Src/stm32f4xx_hal_adc_ex.c ****       }
 447:ThirdParty/STM32F4xx_HAL_Driver/Src/stm32f4xx_hal_adc_ex.c ****     }
 448:ThirdParty/STM32F4xx_HAL_Driver/Src/stm32f4xx_hal_adc_ex.c ****   }
 449:ThirdParty/STM32F4xx_HAL_Driver/Src/stm32f4xx_hal_adc_ex.c ****   
 450:ThirdParty/STM32F4xx_HAL_Driver/Src/stm32f4xx_hal_adc_ex.c ****   /* Clear injected group conversion flag */
 451:ThirdParty/STM32F4xx_HAL_Driver/Src/stm32f4xx_hal_adc_ex.c ****   __HAL_ADC_CLEAR_FLAG(hadc, ADC_FLAG_JSTRT | ADC_FLAG_JEOC);
 452:ThirdParty/STM32F4xx_HAL_Driver/Src/stm32f4xx_hal_adc_ex.c ****     
 453:ThirdParty/STM32F4xx_HAL_Driver/Src/stm32f4xx_hal_adc_ex.c ****   /* Update ADC state machine */
 454:ThirdParty/STM32F4xx_HAL_Driver/Src/stm32f4xx_hal_adc_ex.c ****   SET_BIT(hadc->State, HAL_ADC_STATE_INJ_EOC);
 455:ThirdParty/STM32F4xx_HAL_Driver/Src/stm32f4xx_hal_adc_ex.c ****   
 456:ThirdParty/STM32F4xx_HAL_Driver/Src/stm32f4xx_hal_adc_ex.c ****   /* Determine whether any further conversion upcoming on group injected      */
 457:ThirdParty/STM32F4xx_HAL_Driver/Src/stm32f4xx_hal_adc_ex.c ****   /* by external trigger, continuous mode or scan sequence on going.          */
 458:ThirdParty/STM32F4xx_HAL_Driver/Src/stm32f4xx_hal_adc_ex.c ****   /* Note: On STM32F4, there is no independent flag of end of sequence.       */
 459:ThirdParty/STM32F4xx_HAL_Driver/Src/stm32f4xx_hal_adc_ex.c ****   /*       The test of scan sequence on going is done either with scan        */
 460:ThirdParty/STM32F4xx_HAL_Driver/Src/stm32f4xx_hal_adc_ex.c ****   /*       sequence disabled or with end of conversion flag set to            */
 461:ThirdParty/STM32F4xx_HAL_Driver/Src/stm32f4xx_hal_adc_ex.c ****   /*       of end of sequence.                                                */
 462:ThirdParty/STM32F4xx_HAL_Driver/Src/stm32f4xx_hal_adc_ex.c ****   if(ADC_IS_SOFTWARE_START_INJECTED(hadc)                    &&
 463:ThirdParty/STM32F4xx_HAL_Driver/Src/stm32f4xx_hal_adc_ex.c ****      (HAL_IS_BIT_CLR(hadc->Instance->JSQR, ADC_JSQR_JL)  ||
 464:ThirdParty/STM32F4xx_HAL_Driver/Src/stm32f4xx_hal_adc_ex.c ****       HAL_IS_BIT_CLR(hadc->Instance->CR2, ADC_CR2_EOCS)    ) &&
 465:ThirdParty/STM32F4xx_HAL_Driver/Src/stm32f4xx_hal_adc_ex.c ****      (HAL_IS_BIT_CLR(hadc->Instance->CR1, ADC_CR1_JAUTO) &&
 466:ThirdParty/STM32F4xx_HAL_Driver/Src/stm32f4xx_hal_adc_ex.c ****       (ADC_IS_SOFTWARE_START_REGULAR(hadc)       &&
 467:ThirdParty/STM32F4xx_HAL_Driver/Src/stm32f4xx_hal_adc_ex.c ****       (hadc->Init.ContinuousConvMode == DISABLE)   )       )   )
 468:ThirdParty/STM32F4xx_HAL_Driver/Src/stm32f4xx_hal_adc_ex.c ****   {
 469:ThirdParty/STM32F4xx_HAL_Driver/Src/stm32f4xx_hal_adc_ex.c ****     /* Set ADC state */
 470:ThirdParty/STM32F4xx_HAL_Driver/Src/stm32f4xx_hal_adc_ex.c ****     CLEAR_BIT(hadc->State, HAL_ADC_STATE_INJ_BUSY);
 471:ThirdParty/STM32F4xx_HAL_Driver/Src/stm32f4xx_hal_adc_ex.c ****     
 472:ThirdParty/STM32F4xx_HAL_Driver/Src/stm32f4xx_hal_adc_ex.c ****     if (HAL_IS_BIT_CLR(hadc->State, HAL_ADC_STATE_REG_BUSY))
 473:ThirdParty/STM32F4xx_HAL_Driver/Src/stm32f4xx_hal_adc_ex.c ****     { 
 474:ThirdParty/STM32F4xx_HAL_Driver/Src/stm32f4xx_hal_adc_ex.c ****       SET_BIT(hadc->State, HAL_ADC_STATE_READY);
 475:ThirdParty/STM32F4xx_HAL_Driver/Src/stm32f4xx_hal_adc_ex.c ****     }
 476:ThirdParty/STM32F4xx_HAL_Driver/Src/stm32f4xx_hal_adc_ex.c ****   }
 477:ThirdParty/STM32F4xx_HAL_Driver/Src/stm32f4xx_hal_adc_ex.c ****   
 478:ThirdParty/STM32F4xx_HAL_Driver/Src/stm32f4xx_hal_adc_ex.c ****   /* Return ADC state */
 479:ThirdParty/STM32F4xx_HAL_Driver/Src/stm32f4xx_hal_adc_ex.c ****   return HAL_OK;
 480:ThirdParty/STM32F4xx_HAL_Driver/Src/stm32f4xx_hal_adc_ex.c **** }      
 481:ThirdParty/STM32F4xx_HAL_Driver/Src/stm32f4xx_hal_adc_ex.c ****   
 482:ThirdParty/STM32F4xx_HAL_Driver/Src/stm32f4xx_hal_adc_ex.c **** /**
 483:ThirdParty/STM32F4xx_HAL_Driver/Src/stm32f4xx_hal_adc_ex.c ****   * @brief  Stop conversion of injected channels, disable interruption of 
 484:ThirdParty/STM32F4xx_HAL_Driver/Src/stm32f4xx_hal_adc_ex.c ****   *         end-of-conversion. Disable ADC peripheral if no regular conversion
 485:ThirdParty/STM32F4xx_HAL_Driver/Src/stm32f4xx_hal_adc_ex.c ****   *         is on going.
 486:ThirdParty/STM32F4xx_HAL_Driver/Src/stm32f4xx_hal_adc_ex.c ****   * @note   If ADC must be disabled and if conversion is on going on 
ARM GAS  /tmp/ccHJyd2u.s 			page 10


 487:ThirdParty/STM32F4xx_HAL_Driver/Src/stm32f4xx_hal_adc_ex.c ****   *         regular group, function HAL_ADC_Stop must be used to stop both
 488:ThirdParty/STM32F4xx_HAL_Driver/Src/stm32f4xx_hal_adc_ex.c ****   *         injected and regular groups, and disable the ADC.
 489:ThirdParty/STM32F4xx_HAL_Driver/Src/stm32f4xx_hal_adc_ex.c ****   * @note   If injected group mode auto-injection is enabled,
 490:ThirdParty/STM32F4xx_HAL_Driver/Src/stm32f4xx_hal_adc_ex.c ****   *         function HAL_ADC_Stop must be used.
 491:ThirdParty/STM32F4xx_HAL_Driver/Src/stm32f4xx_hal_adc_ex.c ****   * @param  hadc ADC handle
 492:ThirdParty/STM32F4xx_HAL_Driver/Src/stm32f4xx_hal_adc_ex.c ****   * @retval None
 493:ThirdParty/STM32F4xx_HAL_Driver/Src/stm32f4xx_hal_adc_ex.c ****   */
 494:ThirdParty/STM32F4xx_HAL_Driver/Src/stm32f4xx_hal_adc_ex.c **** HAL_StatusTypeDef HAL_ADCEx_InjectedStop_IT(ADC_HandleTypeDef* hadc)
 495:ThirdParty/STM32F4xx_HAL_Driver/Src/stm32f4xx_hal_adc_ex.c **** {
 496:ThirdParty/STM32F4xx_HAL_Driver/Src/stm32f4xx_hal_adc_ex.c ****   HAL_StatusTypeDef tmp_hal_status = HAL_OK;
 497:ThirdParty/STM32F4xx_HAL_Driver/Src/stm32f4xx_hal_adc_ex.c ****   
 498:ThirdParty/STM32F4xx_HAL_Driver/Src/stm32f4xx_hal_adc_ex.c ****   /* Check the parameters */
 499:ThirdParty/STM32F4xx_HAL_Driver/Src/stm32f4xx_hal_adc_ex.c ****   assert_param(IS_ADC_ALL_INSTANCE(hadc->Instance));
 500:ThirdParty/STM32F4xx_HAL_Driver/Src/stm32f4xx_hal_adc_ex.c **** 
 501:ThirdParty/STM32F4xx_HAL_Driver/Src/stm32f4xx_hal_adc_ex.c ****   /* Process locked */
 502:ThirdParty/STM32F4xx_HAL_Driver/Src/stm32f4xx_hal_adc_ex.c ****   __HAL_LOCK(hadc);
 503:ThirdParty/STM32F4xx_HAL_Driver/Src/stm32f4xx_hal_adc_ex.c ****     
 504:ThirdParty/STM32F4xx_HAL_Driver/Src/stm32f4xx_hal_adc_ex.c ****   /* Stop potential conversion and disable ADC peripheral                     */
 505:ThirdParty/STM32F4xx_HAL_Driver/Src/stm32f4xx_hal_adc_ex.c ****   /* Conditioned to:                                                          */
 506:ThirdParty/STM32F4xx_HAL_Driver/Src/stm32f4xx_hal_adc_ex.c ****   /* - No conversion on the other group (regular group) is intended to        */
 507:ThirdParty/STM32F4xx_HAL_Driver/Src/stm32f4xx_hal_adc_ex.c ****   /*   continue (injected and regular groups stop conversion and ADC disable  */
 508:ThirdParty/STM32F4xx_HAL_Driver/Src/stm32f4xx_hal_adc_ex.c ****   /*   are common)                                                            */
 509:ThirdParty/STM32F4xx_HAL_Driver/Src/stm32f4xx_hal_adc_ex.c ****   /* - In case of auto-injection mode, HAL_ADC_Stop must be used.             */ 
 510:ThirdParty/STM32F4xx_HAL_Driver/Src/stm32f4xx_hal_adc_ex.c ****   if(((hadc->State & HAL_ADC_STATE_REG_BUSY) == RESET)  &&
 511:ThirdParty/STM32F4xx_HAL_Driver/Src/stm32f4xx_hal_adc_ex.c ****      HAL_IS_BIT_CLR(hadc->Instance->CR1, ADC_CR1_JAUTO)   )
 512:ThirdParty/STM32F4xx_HAL_Driver/Src/stm32f4xx_hal_adc_ex.c ****   {
 513:ThirdParty/STM32F4xx_HAL_Driver/Src/stm32f4xx_hal_adc_ex.c ****     /* Stop potential conversion on going, on regular and injected groups */
 514:ThirdParty/STM32F4xx_HAL_Driver/Src/stm32f4xx_hal_adc_ex.c ****     /* Disable ADC peripheral */
 515:ThirdParty/STM32F4xx_HAL_Driver/Src/stm32f4xx_hal_adc_ex.c ****     __HAL_ADC_DISABLE(hadc);
 516:ThirdParty/STM32F4xx_HAL_Driver/Src/stm32f4xx_hal_adc_ex.c ****     
 517:ThirdParty/STM32F4xx_HAL_Driver/Src/stm32f4xx_hal_adc_ex.c ****     /* Check if ADC is effectively disabled */
 518:ThirdParty/STM32F4xx_HAL_Driver/Src/stm32f4xx_hal_adc_ex.c ****     if(HAL_IS_BIT_CLR(hadc->Instance->CR2, ADC_CR2_ADON))
 519:ThirdParty/STM32F4xx_HAL_Driver/Src/stm32f4xx_hal_adc_ex.c ****     {
 520:ThirdParty/STM32F4xx_HAL_Driver/Src/stm32f4xx_hal_adc_ex.c ****       /* Disable ADC end of conversion interrupt for injected channels */
 521:ThirdParty/STM32F4xx_HAL_Driver/Src/stm32f4xx_hal_adc_ex.c ****       __HAL_ADC_DISABLE_IT(hadc, ADC_IT_JEOC);
 522:ThirdParty/STM32F4xx_HAL_Driver/Src/stm32f4xx_hal_adc_ex.c ****       
 523:ThirdParty/STM32F4xx_HAL_Driver/Src/stm32f4xx_hal_adc_ex.c ****       /* Set ADC state */
 524:ThirdParty/STM32F4xx_HAL_Driver/Src/stm32f4xx_hal_adc_ex.c ****       ADC_STATE_CLR_SET(hadc->State,
 525:ThirdParty/STM32F4xx_HAL_Driver/Src/stm32f4xx_hal_adc_ex.c ****                         HAL_ADC_STATE_REG_BUSY | HAL_ADC_STATE_INJ_BUSY,
 526:ThirdParty/STM32F4xx_HAL_Driver/Src/stm32f4xx_hal_adc_ex.c ****                         HAL_ADC_STATE_READY);
 527:ThirdParty/STM32F4xx_HAL_Driver/Src/stm32f4xx_hal_adc_ex.c ****     }
 528:ThirdParty/STM32F4xx_HAL_Driver/Src/stm32f4xx_hal_adc_ex.c ****   }
 529:ThirdParty/STM32F4xx_HAL_Driver/Src/stm32f4xx_hal_adc_ex.c ****   else
 530:ThirdParty/STM32F4xx_HAL_Driver/Src/stm32f4xx_hal_adc_ex.c ****   {
 531:ThirdParty/STM32F4xx_HAL_Driver/Src/stm32f4xx_hal_adc_ex.c ****     /* Update ADC state machine to error */
 532:ThirdParty/STM32F4xx_HAL_Driver/Src/stm32f4xx_hal_adc_ex.c ****     SET_BIT(hadc->State, HAL_ADC_STATE_ERROR_CONFIG);
 533:ThirdParty/STM32F4xx_HAL_Driver/Src/stm32f4xx_hal_adc_ex.c ****       
 534:ThirdParty/STM32F4xx_HAL_Driver/Src/stm32f4xx_hal_adc_ex.c ****     tmp_hal_status = HAL_ERROR;
 535:ThirdParty/STM32F4xx_HAL_Driver/Src/stm32f4xx_hal_adc_ex.c ****   }
 536:ThirdParty/STM32F4xx_HAL_Driver/Src/stm32f4xx_hal_adc_ex.c ****   
 537:ThirdParty/STM32F4xx_HAL_Driver/Src/stm32f4xx_hal_adc_ex.c ****   /* Process unlocked */
 538:ThirdParty/STM32F4xx_HAL_Driver/Src/stm32f4xx_hal_adc_ex.c ****   __HAL_UNLOCK(hadc);
 539:ThirdParty/STM32F4xx_HAL_Driver/Src/stm32f4xx_hal_adc_ex.c ****   
 540:ThirdParty/STM32F4xx_HAL_Driver/Src/stm32f4xx_hal_adc_ex.c ****   /* Return function status */
 541:ThirdParty/STM32F4xx_HAL_Driver/Src/stm32f4xx_hal_adc_ex.c ****   return tmp_hal_status;
 542:ThirdParty/STM32F4xx_HAL_Driver/Src/stm32f4xx_hal_adc_ex.c **** }
 543:ThirdParty/STM32F4xx_HAL_Driver/Src/stm32f4xx_hal_adc_ex.c **** 
ARM GAS  /tmp/ccHJyd2u.s 			page 11


 544:ThirdParty/STM32F4xx_HAL_Driver/Src/stm32f4xx_hal_adc_ex.c **** /**
 545:ThirdParty/STM32F4xx_HAL_Driver/Src/stm32f4xx_hal_adc_ex.c ****   * @brief  Gets the converted value from data register of injected channel.
 546:ThirdParty/STM32F4xx_HAL_Driver/Src/stm32f4xx_hal_adc_ex.c ****   * @param  hadc pointer to a ADC_HandleTypeDef structure that contains
 547:ThirdParty/STM32F4xx_HAL_Driver/Src/stm32f4xx_hal_adc_ex.c ****   *         the configuration information for the specified ADC.
 548:ThirdParty/STM32F4xx_HAL_Driver/Src/stm32f4xx_hal_adc_ex.c ****   * @param  InjectedRank the ADC injected rank.
 549:ThirdParty/STM32F4xx_HAL_Driver/Src/stm32f4xx_hal_adc_ex.c ****   *          This parameter can be one of the following values:
 550:ThirdParty/STM32F4xx_HAL_Driver/Src/stm32f4xx_hal_adc_ex.c ****   *            @arg ADC_INJECTED_RANK_1: Injected Channel1 selected
 551:ThirdParty/STM32F4xx_HAL_Driver/Src/stm32f4xx_hal_adc_ex.c ****   *            @arg ADC_INJECTED_RANK_2: Injected Channel2 selected
 552:ThirdParty/STM32F4xx_HAL_Driver/Src/stm32f4xx_hal_adc_ex.c ****   *            @arg ADC_INJECTED_RANK_3: Injected Channel3 selected
 553:ThirdParty/STM32F4xx_HAL_Driver/Src/stm32f4xx_hal_adc_ex.c ****   *            @arg ADC_INJECTED_RANK_4: Injected Channel4 selected
 554:ThirdParty/STM32F4xx_HAL_Driver/Src/stm32f4xx_hal_adc_ex.c ****   * @retval None
 555:ThirdParty/STM32F4xx_HAL_Driver/Src/stm32f4xx_hal_adc_ex.c ****   */
 556:ThirdParty/STM32F4xx_HAL_Driver/Src/stm32f4xx_hal_adc_ex.c **** uint32_t HAL_ADCEx_InjectedGetValue(ADC_HandleTypeDef* hadc, uint32_t InjectedRank)
 557:ThirdParty/STM32F4xx_HAL_Driver/Src/stm32f4xx_hal_adc_ex.c **** {
 558:ThirdParty/STM32F4xx_HAL_Driver/Src/stm32f4xx_hal_adc_ex.c ****   __IO uint32_t tmp = 0U;
 559:ThirdParty/STM32F4xx_HAL_Driver/Src/stm32f4xx_hal_adc_ex.c ****   
 560:ThirdParty/STM32F4xx_HAL_Driver/Src/stm32f4xx_hal_adc_ex.c ****   /* Check the parameters */
 561:ThirdParty/STM32F4xx_HAL_Driver/Src/stm32f4xx_hal_adc_ex.c ****   assert_param(IS_ADC_INJECTED_RANK(InjectedRank));
 562:ThirdParty/STM32F4xx_HAL_Driver/Src/stm32f4xx_hal_adc_ex.c ****   
 563:ThirdParty/STM32F4xx_HAL_Driver/Src/stm32f4xx_hal_adc_ex.c ****   /* Clear injected group conversion flag to have similar behaviour as        */
 564:ThirdParty/STM32F4xx_HAL_Driver/Src/stm32f4xx_hal_adc_ex.c ****   /* regular group: reading data register also clears end of conversion flag. */
 565:ThirdParty/STM32F4xx_HAL_Driver/Src/stm32f4xx_hal_adc_ex.c ****   __HAL_ADC_CLEAR_FLAG(hadc, ADC_FLAG_JEOC);
 566:ThirdParty/STM32F4xx_HAL_Driver/Src/stm32f4xx_hal_adc_ex.c ****   
 567:ThirdParty/STM32F4xx_HAL_Driver/Src/stm32f4xx_hal_adc_ex.c ****   /* Return the selected ADC converted value */ 
 568:ThirdParty/STM32F4xx_HAL_Driver/Src/stm32f4xx_hal_adc_ex.c ****   switch(InjectedRank)
 569:ThirdParty/STM32F4xx_HAL_Driver/Src/stm32f4xx_hal_adc_ex.c ****   {  
 570:ThirdParty/STM32F4xx_HAL_Driver/Src/stm32f4xx_hal_adc_ex.c ****     case ADC_INJECTED_RANK_4:
 571:ThirdParty/STM32F4xx_HAL_Driver/Src/stm32f4xx_hal_adc_ex.c ****     {
 572:ThirdParty/STM32F4xx_HAL_Driver/Src/stm32f4xx_hal_adc_ex.c ****       tmp =  hadc->Instance->JDR4;
 573:ThirdParty/STM32F4xx_HAL_Driver/Src/stm32f4xx_hal_adc_ex.c ****     }  
 574:ThirdParty/STM32F4xx_HAL_Driver/Src/stm32f4xx_hal_adc_ex.c ****     break;
 575:ThirdParty/STM32F4xx_HAL_Driver/Src/stm32f4xx_hal_adc_ex.c ****     case ADC_INJECTED_RANK_3: 
 576:ThirdParty/STM32F4xx_HAL_Driver/Src/stm32f4xx_hal_adc_ex.c ****     {  
 577:ThirdParty/STM32F4xx_HAL_Driver/Src/stm32f4xx_hal_adc_ex.c ****       tmp =  hadc->Instance->JDR3;
 578:ThirdParty/STM32F4xx_HAL_Driver/Src/stm32f4xx_hal_adc_ex.c ****     }  
 579:ThirdParty/STM32F4xx_HAL_Driver/Src/stm32f4xx_hal_adc_ex.c ****     break;
 580:ThirdParty/STM32F4xx_HAL_Driver/Src/stm32f4xx_hal_adc_ex.c ****     case ADC_INJECTED_RANK_2: 
 581:ThirdParty/STM32F4xx_HAL_Driver/Src/stm32f4xx_hal_adc_ex.c ****     {  
 582:ThirdParty/STM32F4xx_HAL_Driver/Src/stm32f4xx_hal_adc_ex.c ****       tmp =  hadc->Instance->JDR2;
 583:ThirdParty/STM32F4xx_HAL_Driver/Src/stm32f4xx_hal_adc_ex.c ****     }
 584:ThirdParty/STM32F4xx_HAL_Driver/Src/stm32f4xx_hal_adc_ex.c ****     break;
 585:ThirdParty/STM32F4xx_HAL_Driver/Src/stm32f4xx_hal_adc_ex.c ****     case ADC_INJECTED_RANK_1:
 586:ThirdParty/STM32F4xx_HAL_Driver/Src/stm32f4xx_hal_adc_ex.c ****     {
 587:ThirdParty/STM32F4xx_HAL_Driver/Src/stm32f4xx_hal_adc_ex.c ****       tmp =  hadc->Instance->JDR1;
 588:ThirdParty/STM32F4xx_HAL_Driver/Src/stm32f4xx_hal_adc_ex.c ****     }
 589:ThirdParty/STM32F4xx_HAL_Driver/Src/stm32f4xx_hal_adc_ex.c ****     break;
 590:ThirdParty/STM32F4xx_HAL_Driver/Src/stm32f4xx_hal_adc_ex.c ****     default:
 591:ThirdParty/STM32F4xx_HAL_Driver/Src/stm32f4xx_hal_adc_ex.c ****     break;  
 592:ThirdParty/STM32F4xx_HAL_Driver/Src/stm32f4xx_hal_adc_ex.c ****   }
 593:ThirdParty/STM32F4xx_HAL_Driver/Src/stm32f4xx_hal_adc_ex.c ****   return tmp;
 594:ThirdParty/STM32F4xx_HAL_Driver/Src/stm32f4xx_hal_adc_ex.c **** }
 595:ThirdParty/STM32F4xx_HAL_Driver/Src/stm32f4xx_hal_adc_ex.c **** 
 596:ThirdParty/STM32F4xx_HAL_Driver/Src/stm32f4xx_hal_adc_ex.c **** /**
 597:ThirdParty/STM32F4xx_HAL_Driver/Src/stm32f4xx_hal_adc_ex.c ****   * @brief  Enables ADC DMA request after last transfer (Multi-ADC mode) and enables ADC peripheral
 598:ThirdParty/STM32F4xx_HAL_Driver/Src/stm32f4xx_hal_adc_ex.c ****   * 
 599:ThirdParty/STM32F4xx_HAL_Driver/Src/stm32f4xx_hal_adc_ex.c ****   * @note   Caution: This function must be used only with the ADC master.  
 600:ThirdParty/STM32F4xx_HAL_Driver/Src/stm32f4xx_hal_adc_ex.c ****   *
ARM GAS  /tmp/ccHJyd2u.s 			page 12


 601:ThirdParty/STM32F4xx_HAL_Driver/Src/stm32f4xx_hal_adc_ex.c ****   * @param  hadc pointer to a ADC_HandleTypeDef structure that contains
 602:ThirdParty/STM32F4xx_HAL_Driver/Src/stm32f4xx_hal_adc_ex.c ****   *         the configuration information for the specified ADC.
 603:ThirdParty/STM32F4xx_HAL_Driver/Src/stm32f4xx_hal_adc_ex.c ****   * @param  pData   Pointer to buffer in which transferred from ADC peripheral to memory will be st
 604:ThirdParty/STM32F4xx_HAL_Driver/Src/stm32f4xx_hal_adc_ex.c ****   * @param  Length  The length of data to be transferred from ADC peripheral to memory.  
 605:ThirdParty/STM32F4xx_HAL_Driver/Src/stm32f4xx_hal_adc_ex.c ****   * @retval HAL status
 606:ThirdParty/STM32F4xx_HAL_Driver/Src/stm32f4xx_hal_adc_ex.c ****   */
 607:ThirdParty/STM32F4xx_HAL_Driver/Src/stm32f4xx_hal_adc_ex.c **** HAL_StatusTypeDef HAL_ADCEx_MultiModeStart_DMA(ADC_HandleTypeDef* hadc, uint32_t* pData, uint32_t L
 608:ThirdParty/STM32F4xx_HAL_Driver/Src/stm32f4xx_hal_adc_ex.c **** {
 609:ThirdParty/STM32F4xx_HAL_Driver/Src/stm32f4xx_hal_adc_ex.c ****   __IO uint32_t counter = 0U;
 610:ThirdParty/STM32F4xx_HAL_Driver/Src/stm32f4xx_hal_adc_ex.c ****   ADC_Common_TypeDef *tmpADC_Common;
 611:ThirdParty/STM32F4xx_HAL_Driver/Src/stm32f4xx_hal_adc_ex.c ****   
 612:ThirdParty/STM32F4xx_HAL_Driver/Src/stm32f4xx_hal_adc_ex.c ****   /* Check the parameters */
 613:ThirdParty/STM32F4xx_HAL_Driver/Src/stm32f4xx_hal_adc_ex.c ****   assert_param(IS_FUNCTIONAL_STATE(hadc->Init.ContinuousConvMode));
 614:ThirdParty/STM32F4xx_HAL_Driver/Src/stm32f4xx_hal_adc_ex.c ****   assert_param(IS_ADC_EXT_TRIG_EDGE(hadc->Init.ExternalTrigConvEdge));
 615:ThirdParty/STM32F4xx_HAL_Driver/Src/stm32f4xx_hal_adc_ex.c ****   assert_param(IS_FUNCTIONAL_STATE(hadc->Init.DMAContinuousRequests));
 616:ThirdParty/STM32F4xx_HAL_Driver/Src/stm32f4xx_hal_adc_ex.c ****   
 617:ThirdParty/STM32F4xx_HAL_Driver/Src/stm32f4xx_hal_adc_ex.c ****   /* Process locked */
 618:ThirdParty/STM32F4xx_HAL_Driver/Src/stm32f4xx_hal_adc_ex.c ****   __HAL_LOCK(hadc);
 619:ThirdParty/STM32F4xx_HAL_Driver/Src/stm32f4xx_hal_adc_ex.c ****   
 620:ThirdParty/STM32F4xx_HAL_Driver/Src/stm32f4xx_hal_adc_ex.c ****   /* Check if ADC peripheral is disabled in order to enable it and wait during 
 621:ThirdParty/STM32F4xx_HAL_Driver/Src/stm32f4xx_hal_adc_ex.c ****      Tstab time the ADC's stabilization */
 622:ThirdParty/STM32F4xx_HAL_Driver/Src/stm32f4xx_hal_adc_ex.c ****   if((hadc->Instance->CR2 & ADC_CR2_ADON) != ADC_CR2_ADON)
 623:ThirdParty/STM32F4xx_HAL_Driver/Src/stm32f4xx_hal_adc_ex.c ****   {  
 624:ThirdParty/STM32F4xx_HAL_Driver/Src/stm32f4xx_hal_adc_ex.c ****     /* Enable the Peripheral */
 625:ThirdParty/STM32F4xx_HAL_Driver/Src/stm32f4xx_hal_adc_ex.c ****     __HAL_ADC_ENABLE(hadc);
 626:ThirdParty/STM32F4xx_HAL_Driver/Src/stm32f4xx_hal_adc_ex.c ****     
 627:ThirdParty/STM32F4xx_HAL_Driver/Src/stm32f4xx_hal_adc_ex.c ****     /* Delay for temperature sensor stabilization time */
 628:ThirdParty/STM32F4xx_HAL_Driver/Src/stm32f4xx_hal_adc_ex.c ****     /* Compute number of CPU cycles to wait for */
 629:ThirdParty/STM32F4xx_HAL_Driver/Src/stm32f4xx_hal_adc_ex.c ****     counter = (ADC_STAB_DELAY_US * (SystemCoreClock / 1000000U));
 630:ThirdParty/STM32F4xx_HAL_Driver/Src/stm32f4xx_hal_adc_ex.c ****     while(counter != 0U)
 631:ThirdParty/STM32F4xx_HAL_Driver/Src/stm32f4xx_hal_adc_ex.c ****     {
 632:ThirdParty/STM32F4xx_HAL_Driver/Src/stm32f4xx_hal_adc_ex.c ****       counter--;
 633:ThirdParty/STM32F4xx_HAL_Driver/Src/stm32f4xx_hal_adc_ex.c ****     }
 634:ThirdParty/STM32F4xx_HAL_Driver/Src/stm32f4xx_hal_adc_ex.c ****   }
 635:ThirdParty/STM32F4xx_HAL_Driver/Src/stm32f4xx_hal_adc_ex.c ****   
 636:ThirdParty/STM32F4xx_HAL_Driver/Src/stm32f4xx_hal_adc_ex.c ****   /* Start conversion if ADC is effectively enabled */
 637:ThirdParty/STM32F4xx_HAL_Driver/Src/stm32f4xx_hal_adc_ex.c ****   if(HAL_IS_BIT_SET(hadc->Instance->CR2, ADC_CR2_ADON))
 638:ThirdParty/STM32F4xx_HAL_Driver/Src/stm32f4xx_hal_adc_ex.c ****   {
 639:ThirdParty/STM32F4xx_HAL_Driver/Src/stm32f4xx_hal_adc_ex.c ****     /* Set ADC state                                                          */
 640:ThirdParty/STM32F4xx_HAL_Driver/Src/stm32f4xx_hal_adc_ex.c ****     /* - Clear state bitfield related to regular group conversion results     */
 641:ThirdParty/STM32F4xx_HAL_Driver/Src/stm32f4xx_hal_adc_ex.c ****     /* - Set state bitfield related to regular group operation                */
 642:ThirdParty/STM32F4xx_HAL_Driver/Src/stm32f4xx_hal_adc_ex.c ****     ADC_STATE_CLR_SET(hadc->State,
 643:ThirdParty/STM32F4xx_HAL_Driver/Src/stm32f4xx_hal_adc_ex.c ****                       HAL_ADC_STATE_READY | HAL_ADC_STATE_REG_EOC | HAL_ADC_STATE_REG_OVR,
 644:ThirdParty/STM32F4xx_HAL_Driver/Src/stm32f4xx_hal_adc_ex.c ****                       HAL_ADC_STATE_REG_BUSY);
 645:ThirdParty/STM32F4xx_HAL_Driver/Src/stm32f4xx_hal_adc_ex.c ****     
 646:ThirdParty/STM32F4xx_HAL_Driver/Src/stm32f4xx_hal_adc_ex.c ****     /* If conversions on group regular are also triggering group injected,    */
 647:ThirdParty/STM32F4xx_HAL_Driver/Src/stm32f4xx_hal_adc_ex.c ****     /* update ADC state.                                                      */
 648:ThirdParty/STM32F4xx_HAL_Driver/Src/stm32f4xx_hal_adc_ex.c ****     if (READ_BIT(hadc->Instance->CR1, ADC_CR1_JAUTO) != RESET)
 649:ThirdParty/STM32F4xx_HAL_Driver/Src/stm32f4xx_hal_adc_ex.c ****     {
 650:ThirdParty/STM32F4xx_HAL_Driver/Src/stm32f4xx_hal_adc_ex.c ****       ADC_STATE_CLR_SET(hadc->State, HAL_ADC_STATE_INJ_EOC, HAL_ADC_STATE_INJ_BUSY);  
 651:ThirdParty/STM32F4xx_HAL_Driver/Src/stm32f4xx_hal_adc_ex.c ****     }
 652:ThirdParty/STM32F4xx_HAL_Driver/Src/stm32f4xx_hal_adc_ex.c ****     
 653:ThirdParty/STM32F4xx_HAL_Driver/Src/stm32f4xx_hal_adc_ex.c ****     /* State machine update: Check if an injected conversion is ongoing */
 654:ThirdParty/STM32F4xx_HAL_Driver/Src/stm32f4xx_hal_adc_ex.c ****     if (HAL_IS_BIT_SET(hadc->State, HAL_ADC_STATE_INJ_BUSY))
 655:ThirdParty/STM32F4xx_HAL_Driver/Src/stm32f4xx_hal_adc_ex.c ****     {
 656:ThirdParty/STM32F4xx_HAL_Driver/Src/stm32f4xx_hal_adc_ex.c ****       /* Reset ADC error code fields related to conversions on group regular */
 657:ThirdParty/STM32F4xx_HAL_Driver/Src/stm32f4xx_hal_adc_ex.c ****       CLEAR_BIT(hadc->ErrorCode, (HAL_ADC_ERROR_OVR | HAL_ADC_ERROR_DMA));         
ARM GAS  /tmp/ccHJyd2u.s 			page 13


 658:ThirdParty/STM32F4xx_HAL_Driver/Src/stm32f4xx_hal_adc_ex.c ****     }
 659:ThirdParty/STM32F4xx_HAL_Driver/Src/stm32f4xx_hal_adc_ex.c ****     else
 660:ThirdParty/STM32F4xx_HAL_Driver/Src/stm32f4xx_hal_adc_ex.c ****     {
 661:ThirdParty/STM32F4xx_HAL_Driver/Src/stm32f4xx_hal_adc_ex.c ****       /* Reset ADC all error code fields */
 662:ThirdParty/STM32F4xx_HAL_Driver/Src/stm32f4xx_hal_adc_ex.c ****       ADC_CLEAR_ERRORCODE(hadc);
 663:ThirdParty/STM32F4xx_HAL_Driver/Src/stm32f4xx_hal_adc_ex.c ****     }
 664:ThirdParty/STM32F4xx_HAL_Driver/Src/stm32f4xx_hal_adc_ex.c ****     
 665:ThirdParty/STM32F4xx_HAL_Driver/Src/stm32f4xx_hal_adc_ex.c ****     /* Process unlocked */
 666:ThirdParty/STM32F4xx_HAL_Driver/Src/stm32f4xx_hal_adc_ex.c ****     /* Unlock before starting ADC conversions: in case of potential           */
 667:ThirdParty/STM32F4xx_HAL_Driver/Src/stm32f4xx_hal_adc_ex.c ****     /* interruption, to let the process to ADC IRQ Handler.                   */
 668:ThirdParty/STM32F4xx_HAL_Driver/Src/stm32f4xx_hal_adc_ex.c ****     __HAL_UNLOCK(hadc);
 669:ThirdParty/STM32F4xx_HAL_Driver/Src/stm32f4xx_hal_adc_ex.c ****     
 670:ThirdParty/STM32F4xx_HAL_Driver/Src/stm32f4xx_hal_adc_ex.c ****     /* Set the DMA transfer complete callback */
 671:ThirdParty/STM32F4xx_HAL_Driver/Src/stm32f4xx_hal_adc_ex.c ****     hadc->DMA_Handle->XferCpltCallback = ADC_MultiModeDMAConvCplt;
 672:ThirdParty/STM32F4xx_HAL_Driver/Src/stm32f4xx_hal_adc_ex.c ****     
 673:ThirdParty/STM32F4xx_HAL_Driver/Src/stm32f4xx_hal_adc_ex.c ****     /* Set the DMA half transfer complete callback */
 674:ThirdParty/STM32F4xx_HAL_Driver/Src/stm32f4xx_hal_adc_ex.c ****     hadc->DMA_Handle->XferHalfCpltCallback = ADC_MultiModeDMAHalfConvCplt;
 675:ThirdParty/STM32F4xx_HAL_Driver/Src/stm32f4xx_hal_adc_ex.c ****     
 676:ThirdParty/STM32F4xx_HAL_Driver/Src/stm32f4xx_hal_adc_ex.c ****     /* Set the DMA error callback */
 677:ThirdParty/STM32F4xx_HAL_Driver/Src/stm32f4xx_hal_adc_ex.c ****     hadc->DMA_Handle->XferErrorCallback = ADC_MultiModeDMAError ;
 678:ThirdParty/STM32F4xx_HAL_Driver/Src/stm32f4xx_hal_adc_ex.c ****     
 679:ThirdParty/STM32F4xx_HAL_Driver/Src/stm32f4xx_hal_adc_ex.c ****     /* Manage ADC and DMA start: ADC overrun interruption, DMA start, ADC     */
 680:ThirdParty/STM32F4xx_HAL_Driver/Src/stm32f4xx_hal_adc_ex.c ****     /* start (in case of SW start):                                           */
 681:ThirdParty/STM32F4xx_HAL_Driver/Src/stm32f4xx_hal_adc_ex.c ****     
 682:ThirdParty/STM32F4xx_HAL_Driver/Src/stm32f4xx_hal_adc_ex.c ****     /* Clear regular group conversion flag and overrun flag */
 683:ThirdParty/STM32F4xx_HAL_Driver/Src/stm32f4xx_hal_adc_ex.c ****     /* (To ensure of no unknown state from potential previous ADC operations) */
 684:ThirdParty/STM32F4xx_HAL_Driver/Src/stm32f4xx_hal_adc_ex.c ****     __HAL_ADC_CLEAR_FLAG(hadc, ADC_FLAG_EOC);
 685:ThirdParty/STM32F4xx_HAL_Driver/Src/stm32f4xx_hal_adc_ex.c **** 
 686:ThirdParty/STM32F4xx_HAL_Driver/Src/stm32f4xx_hal_adc_ex.c ****     /* Enable ADC overrun interrupt */
 687:ThirdParty/STM32F4xx_HAL_Driver/Src/stm32f4xx_hal_adc_ex.c ****     __HAL_ADC_ENABLE_IT(hadc, ADC_IT_OVR);
 688:ThirdParty/STM32F4xx_HAL_Driver/Src/stm32f4xx_hal_adc_ex.c **** 
 689:ThirdParty/STM32F4xx_HAL_Driver/Src/stm32f4xx_hal_adc_ex.c ****     /* Pointer to the common control register to which is belonging hadc    */
 690:ThirdParty/STM32F4xx_HAL_Driver/Src/stm32f4xx_hal_adc_ex.c ****     /* (Depending on STM32F4 product, there may be up to 3 ADC and 1 common */
 691:ThirdParty/STM32F4xx_HAL_Driver/Src/stm32f4xx_hal_adc_ex.c ****     /* control register)                                                    */
 692:ThirdParty/STM32F4xx_HAL_Driver/Src/stm32f4xx_hal_adc_ex.c ****     tmpADC_Common = ADC_COMMON_REGISTER(hadc);
 693:ThirdParty/STM32F4xx_HAL_Driver/Src/stm32f4xx_hal_adc_ex.c **** 
 694:ThirdParty/STM32F4xx_HAL_Driver/Src/stm32f4xx_hal_adc_ex.c ****     if (hadc->Init.DMAContinuousRequests != DISABLE)
 695:ThirdParty/STM32F4xx_HAL_Driver/Src/stm32f4xx_hal_adc_ex.c ****     {
 696:ThirdParty/STM32F4xx_HAL_Driver/Src/stm32f4xx_hal_adc_ex.c ****       /* Enable the selected ADC DMA request after last transfer */
 697:ThirdParty/STM32F4xx_HAL_Driver/Src/stm32f4xx_hal_adc_ex.c ****       tmpADC_Common->CCR |= ADC_CCR_DDS;
 698:ThirdParty/STM32F4xx_HAL_Driver/Src/stm32f4xx_hal_adc_ex.c ****     }
 699:ThirdParty/STM32F4xx_HAL_Driver/Src/stm32f4xx_hal_adc_ex.c ****     else
 700:ThirdParty/STM32F4xx_HAL_Driver/Src/stm32f4xx_hal_adc_ex.c ****     {
 701:ThirdParty/STM32F4xx_HAL_Driver/Src/stm32f4xx_hal_adc_ex.c ****       /* Disable the selected ADC EOC rising on each regular channel conversion */
 702:ThirdParty/STM32F4xx_HAL_Driver/Src/stm32f4xx_hal_adc_ex.c ****       tmpADC_Common->CCR &= ~ADC_CCR_DDS;
 703:ThirdParty/STM32F4xx_HAL_Driver/Src/stm32f4xx_hal_adc_ex.c ****     }
 704:ThirdParty/STM32F4xx_HAL_Driver/Src/stm32f4xx_hal_adc_ex.c ****     
 705:ThirdParty/STM32F4xx_HAL_Driver/Src/stm32f4xx_hal_adc_ex.c ****     /* Enable the DMA Stream */
 706:ThirdParty/STM32F4xx_HAL_Driver/Src/stm32f4xx_hal_adc_ex.c ****     HAL_DMA_Start_IT(hadc->DMA_Handle, (uint32_t)&tmpADC_Common->CDR, (uint32_t)pData, Length);
 707:ThirdParty/STM32F4xx_HAL_Driver/Src/stm32f4xx_hal_adc_ex.c ****     
 708:ThirdParty/STM32F4xx_HAL_Driver/Src/stm32f4xx_hal_adc_ex.c ****     /* if no external trigger present enable software conversion of regular channels */
 709:ThirdParty/STM32F4xx_HAL_Driver/Src/stm32f4xx_hal_adc_ex.c ****     if((hadc->Instance->CR2 & ADC_CR2_EXTEN) == RESET) 
 710:ThirdParty/STM32F4xx_HAL_Driver/Src/stm32f4xx_hal_adc_ex.c ****     {
 711:ThirdParty/STM32F4xx_HAL_Driver/Src/stm32f4xx_hal_adc_ex.c ****       /* Enable the selected ADC software conversion for regular group */
 712:ThirdParty/STM32F4xx_HAL_Driver/Src/stm32f4xx_hal_adc_ex.c ****       hadc->Instance->CR2 |= (uint32_t)ADC_CR2_SWSTART;
 713:ThirdParty/STM32F4xx_HAL_Driver/Src/stm32f4xx_hal_adc_ex.c ****     }
 714:ThirdParty/STM32F4xx_HAL_Driver/Src/stm32f4xx_hal_adc_ex.c ****   }
ARM GAS  /tmp/ccHJyd2u.s 			page 14


 715:ThirdParty/STM32F4xx_HAL_Driver/Src/stm32f4xx_hal_adc_ex.c ****   
 716:ThirdParty/STM32F4xx_HAL_Driver/Src/stm32f4xx_hal_adc_ex.c ****   /* Return function status */
 717:ThirdParty/STM32F4xx_HAL_Driver/Src/stm32f4xx_hal_adc_ex.c ****   return HAL_OK;
 718:ThirdParty/STM32F4xx_HAL_Driver/Src/stm32f4xx_hal_adc_ex.c **** }
 719:ThirdParty/STM32F4xx_HAL_Driver/Src/stm32f4xx_hal_adc_ex.c **** 
 720:ThirdParty/STM32F4xx_HAL_Driver/Src/stm32f4xx_hal_adc_ex.c **** /**
 721:ThirdParty/STM32F4xx_HAL_Driver/Src/stm32f4xx_hal_adc_ex.c ****   * @brief  Disables ADC DMA (multi-ADC mode) and disables ADC peripheral    
 722:ThirdParty/STM32F4xx_HAL_Driver/Src/stm32f4xx_hal_adc_ex.c ****   * @param  hadc pointer to a ADC_HandleTypeDef structure that contains
 723:ThirdParty/STM32F4xx_HAL_Driver/Src/stm32f4xx_hal_adc_ex.c ****   *         the configuration information for the specified ADC.
 724:ThirdParty/STM32F4xx_HAL_Driver/Src/stm32f4xx_hal_adc_ex.c ****   * @retval HAL status
 725:ThirdParty/STM32F4xx_HAL_Driver/Src/stm32f4xx_hal_adc_ex.c ****   */
 726:ThirdParty/STM32F4xx_HAL_Driver/Src/stm32f4xx_hal_adc_ex.c **** HAL_StatusTypeDef HAL_ADCEx_MultiModeStop_DMA(ADC_HandleTypeDef* hadc)
 727:ThirdParty/STM32F4xx_HAL_Driver/Src/stm32f4xx_hal_adc_ex.c **** {
 728:ThirdParty/STM32F4xx_HAL_Driver/Src/stm32f4xx_hal_adc_ex.c ****   HAL_StatusTypeDef tmp_hal_status = HAL_OK;
 729:ThirdParty/STM32F4xx_HAL_Driver/Src/stm32f4xx_hal_adc_ex.c ****   ADC_Common_TypeDef *tmpADC_Common;
 730:ThirdParty/STM32F4xx_HAL_Driver/Src/stm32f4xx_hal_adc_ex.c ****   
 731:ThirdParty/STM32F4xx_HAL_Driver/Src/stm32f4xx_hal_adc_ex.c ****   /* Check the parameters */
 732:ThirdParty/STM32F4xx_HAL_Driver/Src/stm32f4xx_hal_adc_ex.c ****   assert_param(IS_ADC_ALL_INSTANCE(hadc->Instance));
 733:ThirdParty/STM32F4xx_HAL_Driver/Src/stm32f4xx_hal_adc_ex.c ****   
 734:ThirdParty/STM32F4xx_HAL_Driver/Src/stm32f4xx_hal_adc_ex.c ****   /* Process locked */
 735:ThirdParty/STM32F4xx_HAL_Driver/Src/stm32f4xx_hal_adc_ex.c ****   __HAL_LOCK(hadc);
 736:ThirdParty/STM32F4xx_HAL_Driver/Src/stm32f4xx_hal_adc_ex.c ****   
 737:ThirdParty/STM32F4xx_HAL_Driver/Src/stm32f4xx_hal_adc_ex.c ****   /* Stop potential conversion on going, on regular and injected groups */
 738:ThirdParty/STM32F4xx_HAL_Driver/Src/stm32f4xx_hal_adc_ex.c ****   /* Disable ADC peripheral */
 739:ThirdParty/STM32F4xx_HAL_Driver/Src/stm32f4xx_hal_adc_ex.c ****   __HAL_ADC_DISABLE(hadc);
 740:ThirdParty/STM32F4xx_HAL_Driver/Src/stm32f4xx_hal_adc_ex.c **** 
 741:ThirdParty/STM32F4xx_HAL_Driver/Src/stm32f4xx_hal_adc_ex.c ****   /* Pointer to the common control register to which is belonging hadc    */
 742:ThirdParty/STM32F4xx_HAL_Driver/Src/stm32f4xx_hal_adc_ex.c ****   /* (Depending on STM32F4 product, there may be up to 3 ADC and 1 common */
 743:ThirdParty/STM32F4xx_HAL_Driver/Src/stm32f4xx_hal_adc_ex.c ****   /* control register)                                                    */
 744:ThirdParty/STM32F4xx_HAL_Driver/Src/stm32f4xx_hal_adc_ex.c ****   tmpADC_Common = ADC_COMMON_REGISTER(hadc);
 745:ThirdParty/STM32F4xx_HAL_Driver/Src/stm32f4xx_hal_adc_ex.c **** 
 746:ThirdParty/STM32F4xx_HAL_Driver/Src/stm32f4xx_hal_adc_ex.c ****   /* Check if ADC is effectively disabled */
 747:ThirdParty/STM32F4xx_HAL_Driver/Src/stm32f4xx_hal_adc_ex.c ****   if(HAL_IS_BIT_CLR(hadc->Instance->CR2, ADC_CR2_ADON))
 748:ThirdParty/STM32F4xx_HAL_Driver/Src/stm32f4xx_hal_adc_ex.c ****   {
 749:ThirdParty/STM32F4xx_HAL_Driver/Src/stm32f4xx_hal_adc_ex.c ****     /* Disable the selected ADC DMA mode for multimode */
 750:ThirdParty/STM32F4xx_HAL_Driver/Src/stm32f4xx_hal_adc_ex.c ****     tmpADC_Common->CCR &= ~ADC_CCR_DDS;
 751:ThirdParty/STM32F4xx_HAL_Driver/Src/stm32f4xx_hal_adc_ex.c ****     
 752:ThirdParty/STM32F4xx_HAL_Driver/Src/stm32f4xx_hal_adc_ex.c ****     /* Disable the DMA channel (in case of DMA in circular mode or stop while */
 753:ThirdParty/STM32F4xx_HAL_Driver/Src/stm32f4xx_hal_adc_ex.c ****     /* DMA transfer is on going)                                              */
 754:ThirdParty/STM32F4xx_HAL_Driver/Src/stm32f4xx_hal_adc_ex.c ****     tmp_hal_status = HAL_DMA_Abort(hadc->DMA_Handle);
 755:ThirdParty/STM32F4xx_HAL_Driver/Src/stm32f4xx_hal_adc_ex.c ****     
 756:ThirdParty/STM32F4xx_HAL_Driver/Src/stm32f4xx_hal_adc_ex.c ****     /* Disable ADC overrun interrupt */
 757:ThirdParty/STM32F4xx_HAL_Driver/Src/stm32f4xx_hal_adc_ex.c ****     __HAL_ADC_DISABLE_IT(hadc, ADC_IT_OVR);
 758:ThirdParty/STM32F4xx_HAL_Driver/Src/stm32f4xx_hal_adc_ex.c ****     
 759:ThirdParty/STM32F4xx_HAL_Driver/Src/stm32f4xx_hal_adc_ex.c ****     /* Set ADC state */
 760:ThirdParty/STM32F4xx_HAL_Driver/Src/stm32f4xx_hal_adc_ex.c ****     ADC_STATE_CLR_SET(hadc->State,
 761:ThirdParty/STM32F4xx_HAL_Driver/Src/stm32f4xx_hal_adc_ex.c ****                       HAL_ADC_STATE_REG_BUSY | HAL_ADC_STATE_INJ_BUSY,
 762:ThirdParty/STM32F4xx_HAL_Driver/Src/stm32f4xx_hal_adc_ex.c ****                       HAL_ADC_STATE_READY);
 763:ThirdParty/STM32F4xx_HAL_Driver/Src/stm32f4xx_hal_adc_ex.c ****   }
 764:ThirdParty/STM32F4xx_HAL_Driver/Src/stm32f4xx_hal_adc_ex.c ****   
 765:ThirdParty/STM32F4xx_HAL_Driver/Src/stm32f4xx_hal_adc_ex.c ****   /* Process unlocked */
 766:ThirdParty/STM32F4xx_HAL_Driver/Src/stm32f4xx_hal_adc_ex.c ****   __HAL_UNLOCK(hadc);
 767:ThirdParty/STM32F4xx_HAL_Driver/Src/stm32f4xx_hal_adc_ex.c ****   
 768:ThirdParty/STM32F4xx_HAL_Driver/Src/stm32f4xx_hal_adc_ex.c ****   /* Return function status */
 769:ThirdParty/STM32F4xx_HAL_Driver/Src/stm32f4xx_hal_adc_ex.c ****   return tmp_hal_status;
 770:ThirdParty/STM32F4xx_HAL_Driver/Src/stm32f4xx_hal_adc_ex.c **** }
 771:ThirdParty/STM32F4xx_HAL_Driver/Src/stm32f4xx_hal_adc_ex.c **** 
ARM GAS  /tmp/ccHJyd2u.s 			page 15


 772:ThirdParty/STM32F4xx_HAL_Driver/Src/stm32f4xx_hal_adc_ex.c **** /**
 773:ThirdParty/STM32F4xx_HAL_Driver/Src/stm32f4xx_hal_adc_ex.c ****   * @brief  Returns the last ADC1, ADC2 and ADC3 regular conversions results 
 774:ThirdParty/STM32F4xx_HAL_Driver/Src/stm32f4xx_hal_adc_ex.c ****   *         data in the selected multi mode.
 775:ThirdParty/STM32F4xx_HAL_Driver/Src/stm32f4xx_hal_adc_ex.c ****   * @param  hadc pointer to a ADC_HandleTypeDef structure that contains
 776:ThirdParty/STM32F4xx_HAL_Driver/Src/stm32f4xx_hal_adc_ex.c ****   *         the configuration information for the specified ADC.
 777:ThirdParty/STM32F4xx_HAL_Driver/Src/stm32f4xx_hal_adc_ex.c ****   * @retval The converted data value.
 778:ThirdParty/STM32F4xx_HAL_Driver/Src/stm32f4xx_hal_adc_ex.c ****   */
 779:ThirdParty/STM32F4xx_HAL_Driver/Src/stm32f4xx_hal_adc_ex.c **** uint32_t HAL_ADCEx_MultiModeGetValue(ADC_HandleTypeDef* hadc)
 780:ThirdParty/STM32F4xx_HAL_Driver/Src/stm32f4xx_hal_adc_ex.c **** {
 781:ThirdParty/STM32F4xx_HAL_Driver/Src/stm32f4xx_hal_adc_ex.c ****   ADC_Common_TypeDef *tmpADC_Common;
 782:ThirdParty/STM32F4xx_HAL_Driver/Src/stm32f4xx_hal_adc_ex.c **** 
 783:ThirdParty/STM32F4xx_HAL_Driver/Src/stm32f4xx_hal_adc_ex.c ****   /* Pointer to the common control register to which is belonging hadc    */
 784:ThirdParty/STM32F4xx_HAL_Driver/Src/stm32f4xx_hal_adc_ex.c ****   /* (Depending on STM32F4 product, there may be up to 3 ADC and 1 common */
 785:ThirdParty/STM32F4xx_HAL_Driver/Src/stm32f4xx_hal_adc_ex.c ****   /* control register)                                                    */
 786:ThirdParty/STM32F4xx_HAL_Driver/Src/stm32f4xx_hal_adc_ex.c ****   tmpADC_Common = ADC_COMMON_REGISTER(hadc);
 787:ThirdParty/STM32F4xx_HAL_Driver/Src/stm32f4xx_hal_adc_ex.c **** 
 788:ThirdParty/STM32F4xx_HAL_Driver/Src/stm32f4xx_hal_adc_ex.c ****   /* Return the multi mode conversion value */
 789:ThirdParty/STM32F4xx_HAL_Driver/Src/stm32f4xx_hal_adc_ex.c ****   return tmpADC_Common->CDR;
 790:ThirdParty/STM32F4xx_HAL_Driver/Src/stm32f4xx_hal_adc_ex.c **** }
 791:ThirdParty/STM32F4xx_HAL_Driver/Src/stm32f4xx_hal_adc_ex.c **** 
 792:ThirdParty/STM32F4xx_HAL_Driver/Src/stm32f4xx_hal_adc_ex.c **** /**
 793:ThirdParty/STM32F4xx_HAL_Driver/Src/stm32f4xx_hal_adc_ex.c ****   * @brief  Injected conversion complete callback in non blocking mode 
 794:ThirdParty/STM32F4xx_HAL_Driver/Src/stm32f4xx_hal_adc_ex.c ****   * @param  hadc pointer to a ADC_HandleTypeDef structure that contains
 795:ThirdParty/STM32F4xx_HAL_Driver/Src/stm32f4xx_hal_adc_ex.c ****   *         the configuration information for the specified ADC.
 796:ThirdParty/STM32F4xx_HAL_Driver/Src/stm32f4xx_hal_adc_ex.c ****   * @retval None
 797:ThirdParty/STM32F4xx_HAL_Driver/Src/stm32f4xx_hal_adc_ex.c ****   */
 798:ThirdParty/STM32F4xx_HAL_Driver/Src/stm32f4xx_hal_adc_ex.c **** __weak void HAL_ADCEx_InjectedConvCpltCallback(ADC_HandleTypeDef* hadc)
 799:ThirdParty/STM32F4xx_HAL_Driver/Src/stm32f4xx_hal_adc_ex.c **** {
 800:ThirdParty/STM32F4xx_HAL_Driver/Src/stm32f4xx_hal_adc_ex.c ****   /* Prevent unused argument(s) compilation warning */
 801:ThirdParty/STM32F4xx_HAL_Driver/Src/stm32f4xx_hal_adc_ex.c ****   UNUSED(hadc);
 802:ThirdParty/STM32F4xx_HAL_Driver/Src/stm32f4xx_hal_adc_ex.c ****   /* NOTE : This function Should not be modified, when the callback is needed,
 803:ThirdParty/STM32F4xx_HAL_Driver/Src/stm32f4xx_hal_adc_ex.c ****             the HAL_ADC_InjectedConvCpltCallback could be implemented in the user file
 804:ThirdParty/STM32F4xx_HAL_Driver/Src/stm32f4xx_hal_adc_ex.c ****    */
 805:ThirdParty/STM32F4xx_HAL_Driver/Src/stm32f4xx_hal_adc_ex.c **** }
 806:ThirdParty/STM32F4xx_HAL_Driver/Src/stm32f4xx_hal_adc_ex.c **** 
 807:ThirdParty/STM32F4xx_HAL_Driver/Src/stm32f4xx_hal_adc_ex.c **** /**
 808:ThirdParty/STM32F4xx_HAL_Driver/Src/stm32f4xx_hal_adc_ex.c ****   * @brief  Configures for the selected ADC injected channel its corresponding
 809:ThirdParty/STM32F4xx_HAL_Driver/Src/stm32f4xx_hal_adc_ex.c ****   *         rank in the sequencer and its sample time.
 810:ThirdParty/STM32F4xx_HAL_Driver/Src/stm32f4xx_hal_adc_ex.c ****   * @param  hadc pointer to a ADC_HandleTypeDef structure that contains
 811:ThirdParty/STM32F4xx_HAL_Driver/Src/stm32f4xx_hal_adc_ex.c ****   *         the configuration information for the specified ADC.
 812:ThirdParty/STM32F4xx_HAL_Driver/Src/stm32f4xx_hal_adc_ex.c ****   * @param  sConfigInjected ADC configuration structure for injected channel. 
 813:ThirdParty/STM32F4xx_HAL_Driver/Src/stm32f4xx_hal_adc_ex.c ****   * @retval None
 814:ThirdParty/STM32F4xx_HAL_Driver/Src/stm32f4xx_hal_adc_ex.c ****   */
 815:ThirdParty/STM32F4xx_HAL_Driver/Src/stm32f4xx_hal_adc_ex.c **** HAL_StatusTypeDef HAL_ADCEx_InjectedConfigChannel(ADC_HandleTypeDef* hadc, ADC_InjectionConfTypeDef
 816:ThirdParty/STM32F4xx_HAL_Driver/Src/stm32f4xx_hal_adc_ex.c **** {
 817:ThirdParty/STM32F4xx_HAL_Driver/Src/stm32f4xx_hal_adc_ex.c ****   
 818:ThirdParty/STM32F4xx_HAL_Driver/Src/stm32f4xx_hal_adc_ex.c **** #ifdef USE_FULL_ASSERT  
 819:ThirdParty/STM32F4xx_HAL_Driver/Src/stm32f4xx_hal_adc_ex.c ****   uint32_t tmp = 0U;
 820:ThirdParty/STM32F4xx_HAL_Driver/Src/stm32f4xx_hal_adc_ex.c ****   
 821:ThirdParty/STM32F4xx_HAL_Driver/Src/stm32f4xx_hal_adc_ex.c **** #endif /* USE_FULL_ASSERT  */
 822:ThirdParty/STM32F4xx_HAL_Driver/Src/stm32f4xx_hal_adc_ex.c **** 
 823:ThirdParty/STM32F4xx_HAL_Driver/Src/stm32f4xx_hal_adc_ex.c ****   ADC_Common_TypeDef *tmpADC_Common;
 824:ThirdParty/STM32F4xx_HAL_Driver/Src/stm32f4xx_hal_adc_ex.c **** 
 825:ThirdParty/STM32F4xx_HAL_Driver/Src/stm32f4xx_hal_adc_ex.c ****   /* Check the parameters */
 826:ThirdParty/STM32F4xx_HAL_Driver/Src/stm32f4xx_hal_adc_ex.c ****   assert_param(IS_ADC_CHANNEL(sConfigInjected->InjectedChannel));
 827:ThirdParty/STM32F4xx_HAL_Driver/Src/stm32f4xx_hal_adc_ex.c ****   assert_param(IS_ADC_INJECTED_RANK(sConfigInjected->InjectedRank));
 828:ThirdParty/STM32F4xx_HAL_Driver/Src/stm32f4xx_hal_adc_ex.c ****   assert_param(IS_ADC_SAMPLE_TIME(sConfigInjected->InjectedSamplingTime));
ARM GAS  /tmp/ccHJyd2u.s 			page 16


 829:ThirdParty/STM32F4xx_HAL_Driver/Src/stm32f4xx_hal_adc_ex.c ****   assert_param(IS_ADC_EXT_INJEC_TRIG(sConfigInjected->ExternalTrigInjecConv));
 830:ThirdParty/STM32F4xx_HAL_Driver/Src/stm32f4xx_hal_adc_ex.c ****   assert_param(IS_ADC_INJECTED_LENGTH(sConfigInjected->InjectedNbrOfConversion));
 831:ThirdParty/STM32F4xx_HAL_Driver/Src/stm32f4xx_hal_adc_ex.c ****   assert_param(IS_FUNCTIONAL_STATE(sConfigInjected->AutoInjectedConv));
 832:ThirdParty/STM32F4xx_HAL_Driver/Src/stm32f4xx_hal_adc_ex.c ****   assert_param(IS_FUNCTIONAL_STATE(sConfigInjected->InjectedDiscontinuousConvMode));
 833:ThirdParty/STM32F4xx_HAL_Driver/Src/stm32f4xx_hal_adc_ex.c **** 
 834:ThirdParty/STM32F4xx_HAL_Driver/Src/stm32f4xx_hal_adc_ex.c **** #ifdef USE_FULL_ASSERT
 835:ThirdParty/STM32F4xx_HAL_Driver/Src/stm32f4xx_hal_adc_ex.c ****   tmp = ADC_GET_RESOLUTION(hadc);
 836:ThirdParty/STM32F4xx_HAL_Driver/Src/stm32f4xx_hal_adc_ex.c ****   assert_param(IS_ADC_RANGE(tmp, sConfigInjected->InjectedOffset));
 837:ThirdParty/STM32F4xx_HAL_Driver/Src/stm32f4xx_hal_adc_ex.c **** #endif /* USE_FULL_ASSERT  */
 838:ThirdParty/STM32F4xx_HAL_Driver/Src/stm32f4xx_hal_adc_ex.c **** 
 839:ThirdParty/STM32F4xx_HAL_Driver/Src/stm32f4xx_hal_adc_ex.c ****   if(sConfigInjected->ExternalTrigInjecConv != ADC_INJECTED_SOFTWARE_START)
 840:ThirdParty/STM32F4xx_HAL_Driver/Src/stm32f4xx_hal_adc_ex.c ****   {
 841:ThirdParty/STM32F4xx_HAL_Driver/Src/stm32f4xx_hal_adc_ex.c ****     assert_param(IS_ADC_EXT_INJEC_TRIG_EDGE(sConfigInjected->ExternalTrigInjecConvEdge));
 842:ThirdParty/STM32F4xx_HAL_Driver/Src/stm32f4xx_hal_adc_ex.c ****   }
 843:ThirdParty/STM32F4xx_HAL_Driver/Src/stm32f4xx_hal_adc_ex.c **** 
 844:ThirdParty/STM32F4xx_HAL_Driver/Src/stm32f4xx_hal_adc_ex.c ****   /* Process locked */
 845:ThirdParty/STM32F4xx_HAL_Driver/Src/stm32f4xx_hal_adc_ex.c ****   __HAL_LOCK(hadc);
 846:ThirdParty/STM32F4xx_HAL_Driver/Src/stm32f4xx_hal_adc_ex.c ****   
 847:ThirdParty/STM32F4xx_HAL_Driver/Src/stm32f4xx_hal_adc_ex.c ****   /* if ADC_Channel_10 ... ADC_Channel_18 is selected */
 848:ThirdParty/STM32F4xx_HAL_Driver/Src/stm32f4xx_hal_adc_ex.c ****   if (sConfigInjected->InjectedChannel > ADC_CHANNEL_9)
 849:ThirdParty/STM32F4xx_HAL_Driver/Src/stm32f4xx_hal_adc_ex.c ****   {
 850:ThirdParty/STM32F4xx_HAL_Driver/Src/stm32f4xx_hal_adc_ex.c ****     /* Clear the old sample time */
 851:ThirdParty/STM32F4xx_HAL_Driver/Src/stm32f4xx_hal_adc_ex.c ****     hadc->Instance->SMPR1 &= ~ADC_SMPR1(ADC_SMPR1_SMP10, sConfigInjected->InjectedChannel);
 852:ThirdParty/STM32F4xx_HAL_Driver/Src/stm32f4xx_hal_adc_ex.c ****     
 853:ThirdParty/STM32F4xx_HAL_Driver/Src/stm32f4xx_hal_adc_ex.c ****     /* Set the new sample time */
 854:ThirdParty/STM32F4xx_HAL_Driver/Src/stm32f4xx_hal_adc_ex.c ****     hadc->Instance->SMPR1 |= ADC_SMPR1(sConfigInjected->InjectedSamplingTime, sConfigInjected->Inje
 855:ThirdParty/STM32F4xx_HAL_Driver/Src/stm32f4xx_hal_adc_ex.c ****   }
 856:ThirdParty/STM32F4xx_HAL_Driver/Src/stm32f4xx_hal_adc_ex.c ****   else /* ADC_Channel include in ADC_Channel_[0..9] */
 857:ThirdParty/STM32F4xx_HAL_Driver/Src/stm32f4xx_hal_adc_ex.c ****   {
 858:ThirdParty/STM32F4xx_HAL_Driver/Src/stm32f4xx_hal_adc_ex.c ****     /* Clear the old sample time */
 859:ThirdParty/STM32F4xx_HAL_Driver/Src/stm32f4xx_hal_adc_ex.c ****     hadc->Instance->SMPR2 &= ~ADC_SMPR2(ADC_SMPR2_SMP0, sConfigInjected->InjectedChannel);
 860:ThirdParty/STM32F4xx_HAL_Driver/Src/stm32f4xx_hal_adc_ex.c ****     
 861:ThirdParty/STM32F4xx_HAL_Driver/Src/stm32f4xx_hal_adc_ex.c ****     /* Set the new sample time */
 862:ThirdParty/STM32F4xx_HAL_Driver/Src/stm32f4xx_hal_adc_ex.c ****     hadc->Instance->SMPR2 |= ADC_SMPR2(sConfigInjected->InjectedSamplingTime, sConfigInjected->Inje
 863:ThirdParty/STM32F4xx_HAL_Driver/Src/stm32f4xx_hal_adc_ex.c ****   }
 864:ThirdParty/STM32F4xx_HAL_Driver/Src/stm32f4xx_hal_adc_ex.c ****   
 865:ThirdParty/STM32F4xx_HAL_Driver/Src/stm32f4xx_hal_adc_ex.c ****   /*---------------------------- ADCx JSQR Configuration -----------------*/
 866:ThirdParty/STM32F4xx_HAL_Driver/Src/stm32f4xx_hal_adc_ex.c ****   hadc->Instance->JSQR &= ~(ADC_JSQR_JL);
 867:ThirdParty/STM32F4xx_HAL_Driver/Src/stm32f4xx_hal_adc_ex.c ****   hadc->Instance->JSQR |=  ADC_SQR1(sConfigInjected->InjectedNbrOfConversion);
 868:ThirdParty/STM32F4xx_HAL_Driver/Src/stm32f4xx_hal_adc_ex.c ****   
 869:ThirdParty/STM32F4xx_HAL_Driver/Src/stm32f4xx_hal_adc_ex.c ****   /* Rank configuration */
 870:ThirdParty/STM32F4xx_HAL_Driver/Src/stm32f4xx_hal_adc_ex.c ****   
 871:ThirdParty/STM32F4xx_HAL_Driver/Src/stm32f4xx_hal_adc_ex.c ****   /* Clear the old SQx bits for the selected rank */
 872:ThirdParty/STM32F4xx_HAL_Driver/Src/stm32f4xx_hal_adc_ex.c ****   hadc->Instance->JSQR &= ~ADC_JSQR(ADC_JSQR_JSQ1, sConfigInjected->InjectedRank,sConfigInjected->I
 873:ThirdParty/STM32F4xx_HAL_Driver/Src/stm32f4xx_hal_adc_ex.c ****    
 874:ThirdParty/STM32F4xx_HAL_Driver/Src/stm32f4xx_hal_adc_ex.c ****   /* Set the SQx bits for the selected rank */
 875:ThirdParty/STM32F4xx_HAL_Driver/Src/stm32f4xx_hal_adc_ex.c ****   hadc->Instance->JSQR |= ADC_JSQR(sConfigInjected->InjectedChannel, sConfigInjected->InjectedRank,
 876:ThirdParty/STM32F4xx_HAL_Driver/Src/stm32f4xx_hal_adc_ex.c **** 
 877:ThirdParty/STM32F4xx_HAL_Driver/Src/stm32f4xx_hal_adc_ex.c ****   /* Enable external trigger if trigger selection is different of software  */
 878:ThirdParty/STM32F4xx_HAL_Driver/Src/stm32f4xx_hal_adc_ex.c ****   /* start.                                                                 */
 879:ThirdParty/STM32F4xx_HAL_Driver/Src/stm32f4xx_hal_adc_ex.c ****   /* Note: This configuration keeps the hardware feature of parameter       */
 880:ThirdParty/STM32F4xx_HAL_Driver/Src/stm32f4xx_hal_adc_ex.c ****   /*       ExternalTrigConvEdge "trigger edge none" equivalent to           */
 881:ThirdParty/STM32F4xx_HAL_Driver/Src/stm32f4xx_hal_adc_ex.c ****   /*       software start.                                                  */ 
 882:ThirdParty/STM32F4xx_HAL_Driver/Src/stm32f4xx_hal_adc_ex.c ****   if(sConfigInjected->ExternalTrigInjecConv != ADC_INJECTED_SOFTWARE_START)
 883:ThirdParty/STM32F4xx_HAL_Driver/Src/stm32f4xx_hal_adc_ex.c ****   {  
 884:ThirdParty/STM32F4xx_HAL_Driver/Src/stm32f4xx_hal_adc_ex.c ****     /* Select external trigger to start conversion */
 885:ThirdParty/STM32F4xx_HAL_Driver/Src/stm32f4xx_hal_adc_ex.c ****     hadc->Instance->CR2 &= ~(ADC_CR2_JEXTSEL);
ARM GAS  /tmp/ccHJyd2u.s 			page 17


 886:ThirdParty/STM32F4xx_HAL_Driver/Src/stm32f4xx_hal_adc_ex.c ****     hadc->Instance->CR2 |=  sConfigInjected->ExternalTrigInjecConv;
 887:ThirdParty/STM32F4xx_HAL_Driver/Src/stm32f4xx_hal_adc_ex.c ****     
 888:ThirdParty/STM32F4xx_HAL_Driver/Src/stm32f4xx_hal_adc_ex.c ****     /* Select external trigger polarity */
 889:ThirdParty/STM32F4xx_HAL_Driver/Src/stm32f4xx_hal_adc_ex.c ****     hadc->Instance->CR2 &= ~(ADC_CR2_JEXTEN);
 890:ThirdParty/STM32F4xx_HAL_Driver/Src/stm32f4xx_hal_adc_ex.c ****     hadc->Instance->CR2 |= sConfigInjected->ExternalTrigInjecConvEdge;
 891:ThirdParty/STM32F4xx_HAL_Driver/Src/stm32f4xx_hal_adc_ex.c ****   }
 892:ThirdParty/STM32F4xx_HAL_Driver/Src/stm32f4xx_hal_adc_ex.c ****   else
 893:ThirdParty/STM32F4xx_HAL_Driver/Src/stm32f4xx_hal_adc_ex.c ****   {
 894:ThirdParty/STM32F4xx_HAL_Driver/Src/stm32f4xx_hal_adc_ex.c ****     /* Reset the external trigger */
 895:ThirdParty/STM32F4xx_HAL_Driver/Src/stm32f4xx_hal_adc_ex.c ****     hadc->Instance->CR2 &= ~(ADC_CR2_JEXTSEL);
 896:ThirdParty/STM32F4xx_HAL_Driver/Src/stm32f4xx_hal_adc_ex.c ****     hadc->Instance->CR2 &= ~(ADC_CR2_JEXTEN);  
 897:ThirdParty/STM32F4xx_HAL_Driver/Src/stm32f4xx_hal_adc_ex.c ****   }
 898:ThirdParty/STM32F4xx_HAL_Driver/Src/stm32f4xx_hal_adc_ex.c ****   
 899:ThirdParty/STM32F4xx_HAL_Driver/Src/stm32f4xx_hal_adc_ex.c ****   if (sConfigInjected->AutoInjectedConv != DISABLE)
 900:ThirdParty/STM32F4xx_HAL_Driver/Src/stm32f4xx_hal_adc_ex.c ****   {
 901:ThirdParty/STM32F4xx_HAL_Driver/Src/stm32f4xx_hal_adc_ex.c ****     /* Enable the selected ADC automatic injected group conversion */
 902:ThirdParty/STM32F4xx_HAL_Driver/Src/stm32f4xx_hal_adc_ex.c ****     hadc->Instance->CR1 |= ADC_CR1_JAUTO;
 903:ThirdParty/STM32F4xx_HAL_Driver/Src/stm32f4xx_hal_adc_ex.c ****   }
 904:ThirdParty/STM32F4xx_HAL_Driver/Src/stm32f4xx_hal_adc_ex.c ****   else
 905:ThirdParty/STM32F4xx_HAL_Driver/Src/stm32f4xx_hal_adc_ex.c ****   {
 906:ThirdParty/STM32F4xx_HAL_Driver/Src/stm32f4xx_hal_adc_ex.c ****     /* Disable the selected ADC automatic injected group conversion */
 907:ThirdParty/STM32F4xx_HAL_Driver/Src/stm32f4xx_hal_adc_ex.c ****     hadc->Instance->CR1 &= ~(ADC_CR1_JAUTO);
 908:ThirdParty/STM32F4xx_HAL_Driver/Src/stm32f4xx_hal_adc_ex.c ****   }
 909:ThirdParty/STM32F4xx_HAL_Driver/Src/stm32f4xx_hal_adc_ex.c ****   
 910:ThirdParty/STM32F4xx_HAL_Driver/Src/stm32f4xx_hal_adc_ex.c ****   if (sConfigInjected->InjectedDiscontinuousConvMode != DISABLE)
 911:ThirdParty/STM32F4xx_HAL_Driver/Src/stm32f4xx_hal_adc_ex.c ****   {
 912:ThirdParty/STM32F4xx_HAL_Driver/Src/stm32f4xx_hal_adc_ex.c ****     /* Enable the selected ADC injected discontinuous mode */
 913:ThirdParty/STM32F4xx_HAL_Driver/Src/stm32f4xx_hal_adc_ex.c ****     hadc->Instance->CR1 |= ADC_CR1_JDISCEN;
 914:ThirdParty/STM32F4xx_HAL_Driver/Src/stm32f4xx_hal_adc_ex.c ****   }
 915:ThirdParty/STM32F4xx_HAL_Driver/Src/stm32f4xx_hal_adc_ex.c ****   else
 916:ThirdParty/STM32F4xx_HAL_Driver/Src/stm32f4xx_hal_adc_ex.c ****   {
 917:ThirdParty/STM32F4xx_HAL_Driver/Src/stm32f4xx_hal_adc_ex.c ****     /* Disable the selected ADC injected discontinuous mode */
 918:ThirdParty/STM32F4xx_HAL_Driver/Src/stm32f4xx_hal_adc_ex.c ****     hadc->Instance->CR1 &= ~(ADC_CR1_JDISCEN);
 919:ThirdParty/STM32F4xx_HAL_Driver/Src/stm32f4xx_hal_adc_ex.c ****   }
 920:ThirdParty/STM32F4xx_HAL_Driver/Src/stm32f4xx_hal_adc_ex.c ****   
 921:ThirdParty/STM32F4xx_HAL_Driver/Src/stm32f4xx_hal_adc_ex.c ****   switch(sConfigInjected->InjectedRank)
 922:ThirdParty/STM32F4xx_HAL_Driver/Src/stm32f4xx_hal_adc_ex.c ****   {
 923:ThirdParty/STM32F4xx_HAL_Driver/Src/stm32f4xx_hal_adc_ex.c ****     case 1U:
 924:ThirdParty/STM32F4xx_HAL_Driver/Src/stm32f4xx_hal_adc_ex.c ****       /* Set injected channel 1 offset */
 925:ThirdParty/STM32F4xx_HAL_Driver/Src/stm32f4xx_hal_adc_ex.c ****       hadc->Instance->JOFR1 &= ~(ADC_JOFR1_JOFFSET1);
 926:ThirdParty/STM32F4xx_HAL_Driver/Src/stm32f4xx_hal_adc_ex.c ****       hadc->Instance->JOFR1 |= sConfigInjected->InjectedOffset;
 927:ThirdParty/STM32F4xx_HAL_Driver/Src/stm32f4xx_hal_adc_ex.c ****       break;
 928:ThirdParty/STM32F4xx_HAL_Driver/Src/stm32f4xx_hal_adc_ex.c ****     case 2U:
 929:ThirdParty/STM32F4xx_HAL_Driver/Src/stm32f4xx_hal_adc_ex.c ****       /* Set injected channel 2 offset */
 930:ThirdParty/STM32F4xx_HAL_Driver/Src/stm32f4xx_hal_adc_ex.c ****       hadc->Instance->JOFR2 &= ~(ADC_JOFR2_JOFFSET2);
 931:ThirdParty/STM32F4xx_HAL_Driver/Src/stm32f4xx_hal_adc_ex.c ****       hadc->Instance->JOFR2 |= sConfigInjected->InjectedOffset;
 932:ThirdParty/STM32F4xx_HAL_Driver/Src/stm32f4xx_hal_adc_ex.c ****       break;
 933:ThirdParty/STM32F4xx_HAL_Driver/Src/stm32f4xx_hal_adc_ex.c ****     case 3U:
 934:ThirdParty/STM32F4xx_HAL_Driver/Src/stm32f4xx_hal_adc_ex.c ****       /* Set injected channel 3 offset */
 935:ThirdParty/STM32F4xx_HAL_Driver/Src/stm32f4xx_hal_adc_ex.c ****       hadc->Instance->JOFR3 &= ~(ADC_JOFR3_JOFFSET3);
 936:ThirdParty/STM32F4xx_HAL_Driver/Src/stm32f4xx_hal_adc_ex.c ****       hadc->Instance->JOFR3 |= sConfigInjected->InjectedOffset;
 937:ThirdParty/STM32F4xx_HAL_Driver/Src/stm32f4xx_hal_adc_ex.c ****       break;
 938:ThirdParty/STM32F4xx_HAL_Driver/Src/stm32f4xx_hal_adc_ex.c ****     default:
 939:ThirdParty/STM32F4xx_HAL_Driver/Src/stm32f4xx_hal_adc_ex.c ****       /* Set injected channel 4 offset */
 940:ThirdParty/STM32F4xx_HAL_Driver/Src/stm32f4xx_hal_adc_ex.c ****       hadc->Instance->JOFR4 &= ~(ADC_JOFR4_JOFFSET4);
 941:ThirdParty/STM32F4xx_HAL_Driver/Src/stm32f4xx_hal_adc_ex.c ****       hadc->Instance->JOFR4 |= sConfigInjected->InjectedOffset;
 942:ThirdParty/STM32F4xx_HAL_Driver/Src/stm32f4xx_hal_adc_ex.c ****       break;
ARM GAS  /tmp/ccHJyd2u.s 			page 18


 943:ThirdParty/STM32F4xx_HAL_Driver/Src/stm32f4xx_hal_adc_ex.c ****   }
 944:ThirdParty/STM32F4xx_HAL_Driver/Src/stm32f4xx_hal_adc_ex.c **** 
 945:ThirdParty/STM32F4xx_HAL_Driver/Src/stm32f4xx_hal_adc_ex.c ****   /* Pointer to the common control register to which is belonging hadc    */
 946:ThirdParty/STM32F4xx_HAL_Driver/Src/stm32f4xx_hal_adc_ex.c ****   /* (Depending on STM32F4 product, there may be up to 3 ADC and 1 common */
 947:ThirdParty/STM32F4xx_HAL_Driver/Src/stm32f4xx_hal_adc_ex.c ****   /* control register)                                                    */
 948:ThirdParty/STM32F4xx_HAL_Driver/Src/stm32f4xx_hal_adc_ex.c ****     tmpADC_Common = ADC_COMMON_REGISTER(hadc);
 949:ThirdParty/STM32F4xx_HAL_Driver/Src/stm32f4xx_hal_adc_ex.c **** 
 950:ThirdParty/STM32F4xx_HAL_Driver/Src/stm32f4xx_hal_adc_ex.c ****   /* if ADC1 Channel_18 is selected enable VBAT Channel */
 951:ThirdParty/STM32F4xx_HAL_Driver/Src/stm32f4xx_hal_adc_ex.c ****   if ((hadc->Instance == ADC1) && (sConfigInjected->InjectedChannel == ADC_CHANNEL_VBAT))
 952:ThirdParty/STM32F4xx_HAL_Driver/Src/stm32f4xx_hal_adc_ex.c ****   {
 953:ThirdParty/STM32F4xx_HAL_Driver/Src/stm32f4xx_hal_adc_ex.c ****     /* Enable the VBAT channel*/
 954:ThirdParty/STM32F4xx_HAL_Driver/Src/stm32f4xx_hal_adc_ex.c ****     tmpADC_Common->CCR |= ADC_CCR_VBATE;
 955:ThirdParty/STM32F4xx_HAL_Driver/Src/stm32f4xx_hal_adc_ex.c ****   }
 956:ThirdParty/STM32F4xx_HAL_Driver/Src/stm32f4xx_hal_adc_ex.c ****   
 957:ThirdParty/STM32F4xx_HAL_Driver/Src/stm32f4xx_hal_adc_ex.c ****   /* if ADC1 Channel_16 or Channel_17 is selected enable TSVREFE Channel(Temperature sensor and VRE
 958:ThirdParty/STM32F4xx_HAL_Driver/Src/stm32f4xx_hal_adc_ex.c ****   if ((hadc->Instance == ADC1) && ((sConfigInjected->InjectedChannel == ADC_CHANNEL_TEMPSENSOR) || 
 959:ThirdParty/STM32F4xx_HAL_Driver/Src/stm32f4xx_hal_adc_ex.c ****   {
 960:ThirdParty/STM32F4xx_HAL_Driver/Src/stm32f4xx_hal_adc_ex.c ****     /* Enable the TSVREFE channel*/
 961:ThirdParty/STM32F4xx_HAL_Driver/Src/stm32f4xx_hal_adc_ex.c ****     tmpADC_Common->CCR |= ADC_CCR_TSVREFE;
 962:ThirdParty/STM32F4xx_HAL_Driver/Src/stm32f4xx_hal_adc_ex.c ****   }
 963:ThirdParty/STM32F4xx_HAL_Driver/Src/stm32f4xx_hal_adc_ex.c ****   
 964:ThirdParty/STM32F4xx_HAL_Driver/Src/stm32f4xx_hal_adc_ex.c ****   /* Process unlocked */
 965:ThirdParty/STM32F4xx_HAL_Driver/Src/stm32f4xx_hal_adc_ex.c ****   __HAL_UNLOCK(hadc);
 966:ThirdParty/STM32F4xx_HAL_Driver/Src/stm32f4xx_hal_adc_ex.c ****   
 967:ThirdParty/STM32F4xx_HAL_Driver/Src/stm32f4xx_hal_adc_ex.c ****   /* Return function status */
 968:ThirdParty/STM32F4xx_HAL_Driver/Src/stm32f4xx_hal_adc_ex.c ****   return HAL_OK;
 969:ThirdParty/STM32F4xx_HAL_Driver/Src/stm32f4xx_hal_adc_ex.c **** }
 970:ThirdParty/STM32F4xx_HAL_Driver/Src/stm32f4xx_hal_adc_ex.c **** 
 971:ThirdParty/STM32F4xx_HAL_Driver/Src/stm32f4xx_hal_adc_ex.c **** /**
 972:ThirdParty/STM32F4xx_HAL_Driver/Src/stm32f4xx_hal_adc_ex.c ****   * @brief  Configures the ADC multi-mode 
 973:ThirdParty/STM32F4xx_HAL_Driver/Src/stm32f4xx_hal_adc_ex.c ****   * @param  hadc       pointer to a ADC_HandleTypeDef structure that contains
 974:ThirdParty/STM32F4xx_HAL_Driver/Src/stm32f4xx_hal_adc_ex.c ****   *                     the configuration information for the specified ADC.  
 975:ThirdParty/STM32F4xx_HAL_Driver/Src/stm32f4xx_hal_adc_ex.c ****   * @param  multimode  pointer to an ADC_MultiModeTypeDef structure that contains 
 976:ThirdParty/STM32F4xx_HAL_Driver/Src/stm32f4xx_hal_adc_ex.c ****   *                     the configuration information for  multimode.
 977:ThirdParty/STM32F4xx_HAL_Driver/Src/stm32f4xx_hal_adc_ex.c ****   * @retval HAL status
 978:ThirdParty/STM32F4xx_HAL_Driver/Src/stm32f4xx_hal_adc_ex.c ****   */
 979:ThirdParty/STM32F4xx_HAL_Driver/Src/stm32f4xx_hal_adc_ex.c **** HAL_StatusTypeDef HAL_ADCEx_MultiModeConfigChannel(ADC_HandleTypeDef* hadc, ADC_MultiModeTypeDef* m
 980:ThirdParty/STM32F4xx_HAL_Driver/Src/stm32f4xx_hal_adc_ex.c **** {
 981:ThirdParty/STM32F4xx_HAL_Driver/Src/stm32f4xx_hal_adc_ex.c **** 
 982:ThirdParty/STM32F4xx_HAL_Driver/Src/stm32f4xx_hal_adc_ex.c ****   ADC_Common_TypeDef *tmpADC_Common;
 983:ThirdParty/STM32F4xx_HAL_Driver/Src/stm32f4xx_hal_adc_ex.c **** 
 984:ThirdParty/STM32F4xx_HAL_Driver/Src/stm32f4xx_hal_adc_ex.c ****   /* Check the parameters */
 985:ThirdParty/STM32F4xx_HAL_Driver/Src/stm32f4xx_hal_adc_ex.c ****   assert_param(IS_ADC_MODE(multimode->Mode));
 986:ThirdParty/STM32F4xx_HAL_Driver/Src/stm32f4xx_hal_adc_ex.c ****   assert_param(IS_ADC_DMA_ACCESS_MODE(multimode->DMAAccessMode));
 987:ThirdParty/STM32F4xx_HAL_Driver/Src/stm32f4xx_hal_adc_ex.c ****   assert_param(IS_ADC_SAMPLING_DELAY(multimode->TwoSamplingDelay));
 988:ThirdParty/STM32F4xx_HAL_Driver/Src/stm32f4xx_hal_adc_ex.c ****   
 989:ThirdParty/STM32F4xx_HAL_Driver/Src/stm32f4xx_hal_adc_ex.c ****   /* Process locked */
 990:ThirdParty/STM32F4xx_HAL_Driver/Src/stm32f4xx_hal_adc_ex.c ****   __HAL_LOCK(hadc);
 991:ThirdParty/STM32F4xx_HAL_Driver/Src/stm32f4xx_hal_adc_ex.c **** 
 992:ThirdParty/STM32F4xx_HAL_Driver/Src/stm32f4xx_hal_adc_ex.c ****   /* Pointer to the common control register to which is belonging hadc    */
 993:ThirdParty/STM32F4xx_HAL_Driver/Src/stm32f4xx_hal_adc_ex.c ****   /* (Depending on STM32F4 product, there may be up to 3 ADC and 1 common */
 994:ThirdParty/STM32F4xx_HAL_Driver/Src/stm32f4xx_hal_adc_ex.c ****   /* control register)                                                    */
 995:ThirdParty/STM32F4xx_HAL_Driver/Src/stm32f4xx_hal_adc_ex.c ****   tmpADC_Common = ADC_COMMON_REGISTER(hadc);
 996:ThirdParty/STM32F4xx_HAL_Driver/Src/stm32f4xx_hal_adc_ex.c **** 
 997:ThirdParty/STM32F4xx_HAL_Driver/Src/stm32f4xx_hal_adc_ex.c ****   /* Set ADC mode */
 998:ThirdParty/STM32F4xx_HAL_Driver/Src/stm32f4xx_hal_adc_ex.c ****   tmpADC_Common->CCR &= ~(ADC_CCR_MULTI);
 999:ThirdParty/STM32F4xx_HAL_Driver/Src/stm32f4xx_hal_adc_ex.c ****   tmpADC_Common->CCR |= multimode->Mode;
ARM GAS  /tmp/ccHJyd2u.s 			page 19


1000:ThirdParty/STM32F4xx_HAL_Driver/Src/stm32f4xx_hal_adc_ex.c ****   
1001:ThirdParty/STM32F4xx_HAL_Driver/Src/stm32f4xx_hal_adc_ex.c ****   /* Set the ADC DMA access mode */
1002:ThirdParty/STM32F4xx_HAL_Driver/Src/stm32f4xx_hal_adc_ex.c ****   tmpADC_Common->CCR &= ~(ADC_CCR_DMA);
1003:ThirdParty/STM32F4xx_HAL_Driver/Src/stm32f4xx_hal_adc_ex.c ****   tmpADC_Common->CCR |= multimode->DMAAccessMode;
1004:ThirdParty/STM32F4xx_HAL_Driver/Src/stm32f4xx_hal_adc_ex.c ****   
1005:ThirdParty/STM32F4xx_HAL_Driver/Src/stm32f4xx_hal_adc_ex.c ****   /* Set delay between two sampling phases */
1006:ThirdParty/STM32F4xx_HAL_Driver/Src/stm32f4xx_hal_adc_ex.c ****   tmpADC_Common->CCR &= ~(ADC_CCR_DELAY);
1007:ThirdParty/STM32F4xx_HAL_Driver/Src/stm32f4xx_hal_adc_ex.c ****   tmpADC_Common->CCR |= multimode->TwoSamplingDelay;
1008:ThirdParty/STM32F4xx_HAL_Driver/Src/stm32f4xx_hal_adc_ex.c ****   
1009:ThirdParty/STM32F4xx_HAL_Driver/Src/stm32f4xx_hal_adc_ex.c ****   /* Process unlocked */
1010:ThirdParty/STM32F4xx_HAL_Driver/Src/stm32f4xx_hal_adc_ex.c ****   __HAL_UNLOCK(hadc);
1011:ThirdParty/STM32F4xx_HAL_Driver/Src/stm32f4xx_hal_adc_ex.c ****   
1012:ThirdParty/STM32F4xx_HAL_Driver/Src/stm32f4xx_hal_adc_ex.c ****   /* Return function status */
1013:ThirdParty/STM32F4xx_HAL_Driver/Src/stm32f4xx_hal_adc_ex.c ****   return HAL_OK;
1014:ThirdParty/STM32F4xx_HAL_Driver/Src/stm32f4xx_hal_adc_ex.c **** }
1015:ThirdParty/STM32F4xx_HAL_Driver/Src/stm32f4xx_hal_adc_ex.c **** 
1016:ThirdParty/STM32F4xx_HAL_Driver/Src/stm32f4xx_hal_adc_ex.c **** /**
1017:ThirdParty/STM32F4xx_HAL_Driver/Src/stm32f4xx_hal_adc_ex.c ****   * @}
1018:ThirdParty/STM32F4xx_HAL_Driver/Src/stm32f4xx_hal_adc_ex.c ****   */
1019:ThirdParty/STM32F4xx_HAL_Driver/Src/stm32f4xx_hal_adc_ex.c **** 
1020:ThirdParty/STM32F4xx_HAL_Driver/Src/stm32f4xx_hal_adc_ex.c **** /**
1021:ThirdParty/STM32F4xx_HAL_Driver/Src/stm32f4xx_hal_adc_ex.c ****   * @brief  DMA transfer complete callback. 
1022:ThirdParty/STM32F4xx_HAL_Driver/Src/stm32f4xx_hal_adc_ex.c ****   * @param  hdma pointer to a DMA_HandleTypeDef structure that contains
1023:ThirdParty/STM32F4xx_HAL_Driver/Src/stm32f4xx_hal_adc_ex.c ****   *                the configuration information for the specified DMA module.
1024:ThirdParty/STM32F4xx_HAL_Driver/Src/stm32f4xx_hal_adc_ex.c ****   * @retval None
1025:ThirdParty/STM32F4xx_HAL_Driver/Src/stm32f4xx_hal_adc_ex.c ****   */
1026:ThirdParty/STM32F4xx_HAL_Driver/Src/stm32f4xx_hal_adc_ex.c **** static void ADC_MultiModeDMAConvCplt(DMA_HandleTypeDef *hdma)   
1027:ThirdParty/STM32F4xx_HAL_Driver/Src/stm32f4xx_hal_adc_ex.c **** {
1028:ThirdParty/STM32F4xx_HAL_Driver/Src/stm32f4xx_hal_adc_ex.c ****   /* Retrieve ADC handle corresponding to current DMA handle */
1029:ThirdParty/STM32F4xx_HAL_Driver/Src/stm32f4xx_hal_adc_ex.c ****   ADC_HandleTypeDef* hadc = ( ADC_HandleTypeDef* )((DMA_HandleTypeDef* )hdma)->Parent;
1030:ThirdParty/STM32F4xx_HAL_Driver/Src/stm32f4xx_hal_adc_ex.c ****   
1031:ThirdParty/STM32F4xx_HAL_Driver/Src/stm32f4xx_hal_adc_ex.c ****   /* Update state machine on conversion status if not in error state */
1032:ThirdParty/STM32F4xx_HAL_Driver/Src/stm32f4xx_hal_adc_ex.c ****   if (HAL_IS_BIT_CLR(hadc->State, HAL_ADC_STATE_ERROR_INTERNAL | HAL_ADC_STATE_ERROR_DMA))
1033:ThirdParty/STM32F4xx_HAL_Driver/Src/stm32f4xx_hal_adc_ex.c ****   {
1034:ThirdParty/STM32F4xx_HAL_Driver/Src/stm32f4xx_hal_adc_ex.c ****     /* Update ADC state machine */
1035:ThirdParty/STM32F4xx_HAL_Driver/Src/stm32f4xx_hal_adc_ex.c ****     SET_BIT(hadc->State, HAL_ADC_STATE_REG_EOC);
1036:ThirdParty/STM32F4xx_HAL_Driver/Src/stm32f4xx_hal_adc_ex.c ****     
1037:ThirdParty/STM32F4xx_HAL_Driver/Src/stm32f4xx_hal_adc_ex.c ****     /* Determine whether any further conversion upcoming on group regular   */
1038:ThirdParty/STM32F4xx_HAL_Driver/Src/stm32f4xx_hal_adc_ex.c ****     /* by external trigger, continuous mode or scan sequence on going.      */
1039:ThirdParty/STM32F4xx_HAL_Driver/Src/stm32f4xx_hal_adc_ex.c ****     /* Note: On STM32F4, there is no independent flag of end of sequence.   */
1040:ThirdParty/STM32F4xx_HAL_Driver/Src/stm32f4xx_hal_adc_ex.c ****     /*       The test of scan sequence on going is done either with scan    */
1041:ThirdParty/STM32F4xx_HAL_Driver/Src/stm32f4xx_hal_adc_ex.c ****     /*       sequence disabled or with end of conversion flag set to        */
1042:ThirdParty/STM32F4xx_HAL_Driver/Src/stm32f4xx_hal_adc_ex.c ****     /*       of end of sequence.                                            */
1043:ThirdParty/STM32F4xx_HAL_Driver/Src/stm32f4xx_hal_adc_ex.c ****     if(ADC_IS_SOFTWARE_START_REGULAR(hadc)                   &&
1044:ThirdParty/STM32F4xx_HAL_Driver/Src/stm32f4xx_hal_adc_ex.c ****        (hadc->Init.ContinuousConvMode == DISABLE)            &&
1045:ThirdParty/STM32F4xx_HAL_Driver/Src/stm32f4xx_hal_adc_ex.c ****        (HAL_IS_BIT_CLR(hadc->Instance->SQR1, ADC_SQR1_L) || 
1046:ThirdParty/STM32F4xx_HAL_Driver/Src/stm32f4xx_hal_adc_ex.c ****         HAL_IS_BIT_CLR(hadc->Instance->CR2, ADC_CR2_EOCS)  )   )
1047:ThirdParty/STM32F4xx_HAL_Driver/Src/stm32f4xx_hal_adc_ex.c ****     {
1048:ThirdParty/STM32F4xx_HAL_Driver/Src/stm32f4xx_hal_adc_ex.c ****       /* Disable ADC end of single conversion interrupt on group regular */
1049:ThirdParty/STM32F4xx_HAL_Driver/Src/stm32f4xx_hal_adc_ex.c ****       /* Note: Overrun interrupt was enabled with EOC interrupt in          */
1050:ThirdParty/STM32F4xx_HAL_Driver/Src/stm32f4xx_hal_adc_ex.c ****       /* HAL_ADC_Start_IT(), but is not disabled here because can be used   */
1051:ThirdParty/STM32F4xx_HAL_Driver/Src/stm32f4xx_hal_adc_ex.c ****       /* by overrun IRQ process below.                                      */
1052:ThirdParty/STM32F4xx_HAL_Driver/Src/stm32f4xx_hal_adc_ex.c ****       __HAL_ADC_DISABLE_IT(hadc, ADC_IT_EOC);
1053:ThirdParty/STM32F4xx_HAL_Driver/Src/stm32f4xx_hal_adc_ex.c ****       
1054:ThirdParty/STM32F4xx_HAL_Driver/Src/stm32f4xx_hal_adc_ex.c ****       /* Set ADC state */
1055:ThirdParty/STM32F4xx_HAL_Driver/Src/stm32f4xx_hal_adc_ex.c ****       CLEAR_BIT(hadc->State, HAL_ADC_STATE_REG_BUSY);   
1056:ThirdParty/STM32F4xx_HAL_Driver/Src/stm32f4xx_hal_adc_ex.c ****       
ARM GAS  /tmp/ccHJyd2u.s 			page 20


1057:ThirdParty/STM32F4xx_HAL_Driver/Src/stm32f4xx_hal_adc_ex.c ****       if (HAL_IS_BIT_CLR(hadc->State, HAL_ADC_STATE_INJ_BUSY))
1058:ThirdParty/STM32F4xx_HAL_Driver/Src/stm32f4xx_hal_adc_ex.c ****       {
1059:ThirdParty/STM32F4xx_HAL_Driver/Src/stm32f4xx_hal_adc_ex.c ****         SET_BIT(hadc->State, HAL_ADC_STATE_READY);
1060:ThirdParty/STM32F4xx_HAL_Driver/Src/stm32f4xx_hal_adc_ex.c ****       }
1061:ThirdParty/STM32F4xx_HAL_Driver/Src/stm32f4xx_hal_adc_ex.c ****     }
1062:ThirdParty/STM32F4xx_HAL_Driver/Src/stm32f4xx_hal_adc_ex.c ****     
1063:ThirdParty/STM32F4xx_HAL_Driver/Src/stm32f4xx_hal_adc_ex.c ****     /* Conversion complete callback */
1064:ThirdParty/STM32F4xx_HAL_Driver/Src/stm32f4xx_hal_adc_ex.c ****     HAL_ADC_ConvCpltCallback(hadc);
1065:ThirdParty/STM32F4xx_HAL_Driver/Src/stm32f4xx_hal_adc_ex.c ****   }
1066:ThirdParty/STM32F4xx_HAL_Driver/Src/stm32f4xx_hal_adc_ex.c ****   else
1067:ThirdParty/STM32F4xx_HAL_Driver/Src/stm32f4xx_hal_adc_ex.c ****   {
1068:ThirdParty/STM32F4xx_HAL_Driver/Src/stm32f4xx_hal_adc_ex.c ****     /* Call DMA error callback */
1069:ThirdParty/STM32F4xx_HAL_Driver/Src/stm32f4xx_hal_adc_ex.c ****     hadc->DMA_Handle->XferErrorCallback(hdma);
1070:ThirdParty/STM32F4xx_HAL_Driver/Src/stm32f4xx_hal_adc_ex.c ****   }
1071:ThirdParty/STM32F4xx_HAL_Driver/Src/stm32f4xx_hal_adc_ex.c **** }
1072:ThirdParty/STM32F4xx_HAL_Driver/Src/stm32f4xx_hal_adc_ex.c **** 
1073:ThirdParty/STM32F4xx_HAL_Driver/Src/stm32f4xx_hal_adc_ex.c **** /**
1074:ThirdParty/STM32F4xx_HAL_Driver/Src/stm32f4xx_hal_adc_ex.c ****   * @brief  DMA half transfer complete callback. 
1075:ThirdParty/STM32F4xx_HAL_Driver/Src/stm32f4xx_hal_adc_ex.c ****   * @param  hdma pointer to a DMA_HandleTypeDef structure that contains
1076:ThirdParty/STM32F4xx_HAL_Driver/Src/stm32f4xx_hal_adc_ex.c ****   *                the configuration information for the specified DMA module.
1077:ThirdParty/STM32F4xx_HAL_Driver/Src/stm32f4xx_hal_adc_ex.c ****   * @retval None
1078:ThirdParty/STM32F4xx_HAL_Driver/Src/stm32f4xx_hal_adc_ex.c ****   */
1079:ThirdParty/STM32F4xx_HAL_Driver/Src/stm32f4xx_hal_adc_ex.c **** static void ADC_MultiModeDMAHalfConvCplt(DMA_HandleTypeDef *hdma)   
1080:ThirdParty/STM32F4xx_HAL_Driver/Src/stm32f4xx_hal_adc_ex.c **** {
1081:ThirdParty/STM32F4xx_HAL_Driver/Src/stm32f4xx_hal_adc_ex.c ****     ADC_HandleTypeDef* hadc = ( ADC_HandleTypeDef* )((DMA_HandleTypeDef* )hdma)->Parent;
1082:ThirdParty/STM32F4xx_HAL_Driver/Src/stm32f4xx_hal_adc_ex.c ****     /* Conversion complete callback */
1083:ThirdParty/STM32F4xx_HAL_Driver/Src/stm32f4xx_hal_adc_ex.c ****     HAL_ADC_ConvHalfCpltCallback(hadc); 
1084:ThirdParty/STM32F4xx_HAL_Driver/Src/stm32f4xx_hal_adc_ex.c **** }
1085:ThirdParty/STM32F4xx_HAL_Driver/Src/stm32f4xx_hal_adc_ex.c **** 
1086:ThirdParty/STM32F4xx_HAL_Driver/Src/stm32f4xx_hal_adc_ex.c **** /**
1087:ThirdParty/STM32F4xx_HAL_Driver/Src/stm32f4xx_hal_adc_ex.c ****   * @brief  DMA error callback 
1088:ThirdParty/STM32F4xx_HAL_Driver/Src/stm32f4xx_hal_adc_ex.c ****   * @param  hdma pointer to a DMA_HandleTypeDef structure that contains
1089:ThirdParty/STM32F4xx_HAL_Driver/Src/stm32f4xx_hal_adc_ex.c ****   *                the configuration information for the specified DMA module.
1090:ThirdParty/STM32F4xx_HAL_Driver/Src/stm32f4xx_hal_adc_ex.c ****   * @retval None
1091:ThirdParty/STM32F4xx_HAL_Driver/Src/stm32f4xx_hal_adc_ex.c ****   */
1092:ThirdParty/STM32F4xx_HAL_Driver/Src/stm32f4xx_hal_adc_ex.c **** static void ADC_MultiModeDMAError(DMA_HandleTypeDef *hdma)   
1093:ThirdParty/STM32F4xx_HAL_Driver/Src/stm32f4xx_hal_adc_ex.c **** {
  29              		.loc 1 1093 1 view -0
  30              		.cfi_startproc
  31              		@ args = 0, pretend = 0, frame = 0
  32              		@ frame_needed = 0, uses_anonymous_args = 0
  33              		.loc 1 1093 1 is_stmt 0 view .LVU1
  34 0000 08B5     		push	{r3, lr}
  35              	.LCFI0:
  36              		.cfi_def_cfa_offset 8
  37              		.cfi_offset 3, -8
  38              		.cfi_offset 14, -4
1094:ThirdParty/STM32F4xx_HAL_Driver/Src/stm32f4xx_hal_adc_ex.c ****     ADC_HandleTypeDef* hadc = ( ADC_HandleTypeDef* )((DMA_HandleTypeDef* )hdma)->Parent;
  39              		.loc 1 1094 5 is_stmt 1 view .LVU2
  40              		.loc 1 1094 24 is_stmt 0 view .LVU3
  41 0002 806B     		ldr	r0, [r0, #56]
  42              	.LVL1:
1095:ThirdParty/STM32F4xx_HAL_Driver/Src/stm32f4xx_hal_adc_ex.c ****     hadc->State= HAL_ADC_STATE_ERROR_DMA;
  43              		.loc 1 1095 5 is_stmt 1 view .LVU4
  44              		.loc 1 1095 16 is_stmt 0 view .LVU5
  45 0004 4023     		movs	r3, #64
  46 0006 0364     		str	r3, [r0, #64]
ARM GAS  /tmp/ccHJyd2u.s 			page 21


1096:ThirdParty/STM32F4xx_HAL_Driver/Src/stm32f4xx_hal_adc_ex.c ****     /* Set ADC error code to DMA error */
1097:ThirdParty/STM32F4xx_HAL_Driver/Src/stm32f4xx_hal_adc_ex.c ****     hadc->ErrorCode |= HAL_ADC_ERROR_DMA;
  47              		.loc 1 1097 5 is_stmt 1 view .LVU6
  48              		.loc 1 1097 21 is_stmt 0 view .LVU7
  49 0008 436C     		ldr	r3, [r0, #68]
  50 000a 43F00403 		orr	r3, r3, #4
  51 000e 4364     		str	r3, [r0, #68]
1098:ThirdParty/STM32F4xx_HAL_Driver/Src/stm32f4xx_hal_adc_ex.c ****     HAL_ADC_ErrorCallback(hadc); 
  52              		.loc 1 1098 5 is_stmt 1 view .LVU8
  53 0010 FFF7FEFF 		bl	HAL_ADC_ErrorCallback
  54              	.LVL2:
1099:ThirdParty/STM32F4xx_HAL_Driver/Src/stm32f4xx_hal_adc_ex.c **** }
  55              		.loc 1 1099 1 is_stmt 0 view .LVU9
  56 0014 08BD     		pop	{r3, pc}
  57              		.cfi_endproc
  58              	.LFE147:
  60              		.section	.text.ADC_MultiModeDMAHalfConvCplt,"ax",%progbits
  61              		.align	1
  62              		.syntax unified
  63              		.thumb
  64              		.thumb_func
  66              	ADC_MultiModeDMAHalfConvCplt:
  67              	.LVL3:
  68              	.LFB146:
1080:ThirdParty/STM32F4xx_HAL_Driver/Src/stm32f4xx_hal_adc_ex.c ****     ADC_HandleTypeDef* hadc = ( ADC_HandleTypeDef* )((DMA_HandleTypeDef* )hdma)->Parent;
  69              		.loc 1 1080 1 is_stmt 1 view -0
  70              		.cfi_startproc
  71              		@ args = 0, pretend = 0, frame = 0
  72              		@ frame_needed = 0, uses_anonymous_args = 0
1080:ThirdParty/STM32F4xx_HAL_Driver/Src/stm32f4xx_hal_adc_ex.c ****     ADC_HandleTypeDef* hadc = ( ADC_HandleTypeDef* )((DMA_HandleTypeDef* )hdma)->Parent;
  73              		.loc 1 1080 1 is_stmt 0 view .LVU11
  74 0000 08B5     		push	{r3, lr}
  75              	.LCFI1:
  76              		.cfi_def_cfa_offset 8
  77              		.cfi_offset 3, -8
  78              		.cfi_offset 14, -4
1081:ThirdParty/STM32F4xx_HAL_Driver/Src/stm32f4xx_hal_adc_ex.c ****     /* Conversion complete callback */
  79              		.loc 1 1081 5 is_stmt 1 view .LVU12
  80              	.LVL4:
1083:ThirdParty/STM32F4xx_HAL_Driver/Src/stm32f4xx_hal_adc_ex.c **** }
  81              		.loc 1 1083 5 view .LVU13
  82 0002 806B     		ldr	r0, [r0, #56]
  83              	.LVL5:
1083:ThirdParty/STM32F4xx_HAL_Driver/Src/stm32f4xx_hal_adc_ex.c **** }
  84              		.loc 1 1083 5 is_stmt 0 view .LVU14
  85 0004 FFF7FEFF 		bl	HAL_ADC_ConvHalfCpltCallback
  86              	.LVL6:
1084:ThirdParty/STM32F4xx_HAL_Driver/Src/stm32f4xx_hal_adc_ex.c **** 
  87              		.loc 1 1084 1 view .LVU15
  88 0008 08BD     		pop	{r3, pc}
  89              		.cfi_endproc
  90              	.LFE146:
  92              		.section	.text.ADC_MultiModeDMAConvCplt,"ax",%progbits
  93              		.align	1
  94              		.syntax unified
  95              		.thumb
  96              		.thumb_func
ARM GAS  /tmp/ccHJyd2u.s 			page 22


  98              	ADC_MultiModeDMAConvCplt:
  99              	.LVL7:
 100              	.LFB145:
1027:ThirdParty/STM32F4xx_HAL_Driver/Src/stm32f4xx_hal_adc_ex.c ****   /* Retrieve ADC handle corresponding to current DMA handle */
 101              		.loc 1 1027 1 is_stmt 1 view -0
 102              		.cfi_startproc
 103              		@ args = 0, pretend = 0, frame = 0
 104              		@ frame_needed = 0, uses_anonymous_args = 0
1027:ThirdParty/STM32F4xx_HAL_Driver/Src/stm32f4xx_hal_adc_ex.c ****   /* Retrieve ADC handle corresponding to current DMA handle */
 105              		.loc 1 1027 1 is_stmt 0 view .LVU17
 106 0000 08B5     		push	{r3, lr}
 107              	.LCFI2:
 108              		.cfi_def_cfa_offset 8
 109              		.cfi_offset 3, -8
 110              		.cfi_offset 14, -4
1029:ThirdParty/STM32F4xx_HAL_Driver/Src/stm32f4xx_hal_adc_ex.c ****   
 111              		.loc 1 1029 3 is_stmt 1 view .LVU18
1029:ThirdParty/STM32F4xx_HAL_Driver/Src/stm32f4xx_hal_adc_ex.c ****   
 112              		.loc 1 1029 22 is_stmt 0 view .LVU19
 113 0002 836B     		ldr	r3, [r0, #56]
 114              	.LVL8:
1032:ThirdParty/STM32F4xx_HAL_Driver/Src/stm32f4xx_hal_adc_ex.c ****   {
 115              		.loc 1 1032 3 is_stmt 1 view .LVU20
1032:ThirdParty/STM32F4xx_HAL_Driver/Src/stm32f4xx_hal_adc_ex.c ****   {
 116              		.loc 1 1032 7 is_stmt 0 view .LVU21
 117 0004 1A6C     		ldr	r2, [r3, #64]
1032:ThirdParty/STM32F4xx_HAL_Driver/Src/stm32f4xx_hal_adc_ex.c ****   {
 118              		.loc 1 1032 6 view .LVU22
 119 0006 12F0500F 		tst	r2, #80
 120 000a 26D1     		bne	.L6
1035:ThirdParty/STM32F4xx_HAL_Driver/Src/stm32f4xx_hal_adc_ex.c ****     
 121              		.loc 1 1035 5 is_stmt 1 view .LVU23
 122 000c 1A6C     		ldr	r2, [r3, #64]
 123 000e 42F40072 		orr	r2, r2, #512
 124 0012 1A64     		str	r2, [r3, #64]
1043:ThirdParty/STM32F4xx_HAL_Driver/Src/stm32f4xx_hal_adc_ex.c ****        (hadc->Init.ContinuousConvMode == DISABLE)            &&
 125              		.loc 1 1043 5 view .LVU24
1043:ThirdParty/STM32F4xx_HAL_Driver/Src/stm32f4xx_hal_adc_ex.c ****        (hadc->Init.ContinuousConvMode == DISABLE)            &&
 126              		.loc 1 1043 8 is_stmt 0 view .LVU25
 127 0014 1A68     		ldr	r2, [r3]
 128 0016 9168     		ldr	r1, [r2, #8]
1043:ThirdParty/STM32F4xx_HAL_Driver/Src/stm32f4xx_hal_adc_ex.c ****        (hadc->Init.ContinuousConvMode == DISABLE)            &&
 129              		.loc 1 1043 7 view .LVU26
 130 0018 11F0405F 		tst	r1, #805306368
 131 001c 19D1     		bne	.L7
1044:ThirdParty/STM32F4xx_HAL_Driver/Src/stm32f4xx_hal_adc_ex.c ****        (HAL_IS_BIT_CLR(hadc->Instance->SQR1, ADC_SQR1_L) || 
 132              		.loc 1 1044 19 discriminator 1 view .LVU27
 133 001e 9969     		ldr	r1, [r3, #24]
1043:ThirdParty/STM32F4xx_HAL_Driver/Src/stm32f4xx_hal_adc_ex.c ****        (hadc->Init.ContinuousConvMode == DISABLE)            &&
 134              		.loc 1 1043 62 discriminator 1 view .LVU28
 135 0020 B9B9     		cbnz	r1, .L7
1045:ThirdParty/STM32F4xx_HAL_Driver/Src/stm32f4xx_hal_adc_ex.c ****         HAL_IS_BIT_CLR(hadc->Instance->CR2, ADC_CR2_EOCS)  )   )
 136              		.loc 1 1045 9 view .LVU29
 137 0022 D16A     		ldr	r1, [r2, #44]
1044:ThirdParty/STM32F4xx_HAL_Driver/Src/stm32f4xx_hal_adc_ex.c ****        (HAL_IS_BIT_CLR(hadc->Instance->SQR1, ADC_SQR1_L) || 
 138              		.loc 1 1044 62 view .LVU30
 139 0024 11F4700F 		tst	r1, #15728640
ARM GAS  /tmp/ccHJyd2u.s 			page 23


 140 0028 03D0     		beq	.L8
1046:ThirdParty/STM32F4xx_HAL_Driver/Src/stm32f4xx_hal_adc_ex.c ****     {
 141              		.loc 1 1046 9 view .LVU31
 142 002a 9168     		ldr	r1, [r2, #8]
1045:ThirdParty/STM32F4xx_HAL_Driver/Src/stm32f4xx_hal_adc_ex.c ****         HAL_IS_BIT_CLR(hadc->Instance->CR2, ADC_CR2_EOCS)  )   )
 143              		.loc 1 1045 58 view .LVU32
 144 002c 11F4806F 		tst	r1, #1024
 145 0030 0FD1     		bne	.L7
 146              	.L8:
1052:ThirdParty/STM32F4xx_HAL_Driver/Src/stm32f4xx_hal_adc_ex.c ****       
 147              		.loc 1 1052 7 is_stmt 1 view .LVU33
 148 0032 5168     		ldr	r1, [r2, #4]
 149 0034 21F02001 		bic	r1, r1, #32
 150 0038 5160     		str	r1, [r2, #4]
1055:ThirdParty/STM32F4xx_HAL_Driver/Src/stm32f4xx_hal_adc_ex.c ****       
 151              		.loc 1 1055 7 view .LVU34
 152 003a 1A6C     		ldr	r2, [r3, #64]
 153 003c 22F48072 		bic	r2, r2, #256
 154 0040 1A64     		str	r2, [r3, #64]
1057:ThirdParty/STM32F4xx_HAL_Driver/Src/stm32f4xx_hal_adc_ex.c ****       {
 155              		.loc 1 1057 7 view .LVU35
1057:ThirdParty/STM32F4xx_HAL_Driver/Src/stm32f4xx_hal_adc_ex.c ****       {
 156              		.loc 1 1057 11 is_stmt 0 view .LVU36
 157 0042 1A6C     		ldr	r2, [r3, #64]
1057:ThirdParty/STM32F4xx_HAL_Driver/Src/stm32f4xx_hal_adc_ex.c ****       {
 158              		.loc 1 1057 10 view .LVU37
 159 0044 12F4805F 		tst	r2, #4096
 160 0048 03D1     		bne	.L7
1059:ThirdParty/STM32F4xx_HAL_Driver/Src/stm32f4xx_hal_adc_ex.c ****       }
 161              		.loc 1 1059 9 is_stmt 1 view .LVU38
 162 004a 1A6C     		ldr	r2, [r3, #64]
 163 004c 42F00102 		orr	r2, r2, #1
 164 0050 1A64     		str	r2, [r3, #64]
 165              	.L7:
1064:ThirdParty/STM32F4xx_HAL_Driver/Src/stm32f4xx_hal_adc_ex.c ****   }
 166              		.loc 1 1064 5 view .LVU39
 167 0052 1846     		mov	r0, r3
 168              	.LVL9:
1064:ThirdParty/STM32F4xx_HAL_Driver/Src/stm32f4xx_hal_adc_ex.c ****   }
 169              		.loc 1 1064 5 is_stmt 0 view .LVU40
 170 0054 FFF7FEFF 		bl	HAL_ADC_ConvCpltCallback
 171              	.LVL10:
 172              	.L5:
1071:ThirdParty/STM32F4xx_HAL_Driver/Src/stm32f4xx_hal_adc_ex.c **** 
 173              		.loc 1 1071 1 view .LVU41
 174 0058 08BD     		pop	{r3, pc}
 175              	.LVL11:
 176              	.L6:
1069:ThirdParty/STM32F4xx_HAL_Driver/Src/stm32f4xx_hal_adc_ex.c ****   }
 177              		.loc 1 1069 5 is_stmt 1 view .LVU42
1069:ThirdParty/STM32F4xx_HAL_Driver/Src/stm32f4xx_hal_adc_ex.c ****   }
 178              		.loc 1 1069 9 is_stmt 0 view .LVU43
 179 005a 9B6B     		ldr	r3, [r3, #56]
 180              	.LVL12:
1069:ThirdParty/STM32F4xx_HAL_Driver/Src/stm32f4xx_hal_adc_ex.c ****   }
 181              		.loc 1 1069 21 view .LVU44
 182 005c DB6C     		ldr	r3, [r3, #76]
ARM GAS  /tmp/ccHJyd2u.s 			page 24


1069:ThirdParty/STM32F4xx_HAL_Driver/Src/stm32f4xx_hal_adc_ex.c ****   }
 183              		.loc 1 1069 5 view .LVU45
 184 005e 9847     		blx	r3
 185              	.LVL13:
1071:ThirdParty/STM32F4xx_HAL_Driver/Src/stm32f4xx_hal_adc_ex.c **** 
 186              		.loc 1 1071 1 view .LVU46
 187 0060 FAE7     		b	.L5
 188              		.cfi_endproc
 189              	.LFE145:
 191              		.section	.text.HAL_ADCEx_InjectedStart,"ax",%progbits
 192              		.align	1
 193              		.global	HAL_ADCEx_InjectedStart
 194              		.syntax unified
 195              		.thumb
 196              		.thumb_func
 198              	HAL_ADCEx_InjectedStart:
 199              	.LVL14:
 200              	.LFB133:
 176:ThirdParty/STM32F4xx_HAL_Driver/Src/stm32f4xx_hal_adc_ex.c ****   __IO uint32_t counter = 0U;
 201              		.loc 1 176 1 is_stmt 1 view -0
 202              		.cfi_startproc
 203              		@ args = 0, pretend = 0, frame = 8
 204              		@ frame_needed = 0, uses_anonymous_args = 0
 205              		@ link register save eliminated.
 176:ThirdParty/STM32F4xx_HAL_Driver/Src/stm32f4xx_hal_adc_ex.c ****   __IO uint32_t counter = 0U;
 206              		.loc 1 176 1 is_stmt 0 view .LVU48
 207 0000 82B0     		sub	sp, sp, #8
 208              	.LCFI3:
 209              		.cfi_def_cfa_offset 8
 177:ThirdParty/STM32F4xx_HAL_Driver/Src/stm32f4xx_hal_adc_ex.c ****   uint32_t tmp1 = 0U, tmp2 = 0U;
 210              		.loc 1 177 3 is_stmt 1 view .LVU49
 177:ThirdParty/STM32F4xx_HAL_Driver/Src/stm32f4xx_hal_adc_ex.c ****   uint32_t tmp1 = 0U, tmp2 = 0U;
 211              		.loc 1 177 17 is_stmt 0 view .LVU50
 212 0002 0023     		movs	r3, #0
 213 0004 0193     		str	r3, [sp, #4]
 178:ThirdParty/STM32F4xx_HAL_Driver/Src/stm32f4xx_hal_adc_ex.c ****   ADC_Common_TypeDef *tmpADC_Common;
 214              		.loc 1 178 3 is_stmt 1 view .LVU51
 215              	.LVL15:
 179:ThirdParty/STM32F4xx_HAL_Driver/Src/stm32f4xx_hal_adc_ex.c ****   
 216              		.loc 1 179 3 view .LVU52
 182:ThirdParty/STM32F4xx_HAL_Driver/Src/stm32f4xx_hal_adc_ex.c ****   
 217              		.loc 1 182 3 view .LVU53
 182:ThirdParty/STM32F4xx_HAL_Driver/Src/stm32f4xx_hal_adc_ex.c ****   
 218              		.loc 1 182 3 view .LVU54
 219 0006 90F83C30 		ldrb	r3, [r0, #60]	@ zero_extendqisi2
 220 000a 012B     		cmp	r3, #1
 221 000c 5CD0     		beq	.L18
 182:ThirdParty/STM32F4xx_HAL_Driver/Src/stm32f4xx_hal_adc_ex.c ****   
 222              		.loc 1 182 3 discriminator 2 view .LVU55
 223 000e 0123     		movs	r3, #1
 224 0010 80F83C30 		strb	r3, [r0, #60]
 182:ThirdParty/STM32F4xx_HAL_Driver/Src/stm32f4xx_hal_adc_ex.c ****   
 225              		.loc 1 182 3 discriminator 2 view .LVU56
 188:ThirdParty/STM32F4xx_HAL_Driver/Src/stm32f4xx_hal_adc_ex.c ****   {  
 226              		.loc 1 188 3 discriminator 2 view .LVU57
 188:ThirdParty/STM32F4xx_HAL_Driver/Src/stm32f4xx_hal_adc_ex.c ****   {  
 227              		.loc 1 188 11 is_stmt 0 discriminator 2 view .LVU58
ARM GAS  /tmp/ccHJyd2u.s 			page 25


 228 0014 0368     		ldr	r3, [r0]
 188:ThirdParty/STM32F4xx_HAL_Driver/Src/stm32f4xx_hal_adc_ex.c ****   {  
 229              		.loc 1 188 21 discriminator 2 view .LVU59
 230 0016 9A68     		ldr	r2, [r3, #8]
 188:ThirdParty/STM32F4xx_HAL_Driver/Src/stm32f4xx_hal_adc_ex.c ****   {  
 231              		.loc 1 188 5 discriminator 2 view .LVU60
 232 0018 12F0010F 		tst	r2, #1
 233 001c 13D1     		bne	.L13
 191:ThirdParty/STM32F4xx_HAL_Driver/Src/stm32f4xx_hal_adc_ex.c ****     
 234              		.loc 1 191 5 is_stmt 1 view .LVU61
 235 001e 9A68     		ldr	r2, [r3, #8]
 236 0020 42F00102 		orr	r2, r2, #1
 237 0024 9A60     		str	r2, [r3, #8]
 195:ThirdParty/STM32F4xx_HAL_Driver/Src/stm32f4xx_hal_adc_ex.c ****     while(counter != 0U)
 238              		.loc 1 195 5 view .LVU62
 195:ThirdParty/STM32F4xx_HAL_Driver/Src/stm32f4xx_hal_adc_ex.c ****     while(counter != 0U)
 239              		.loc 1 195 53 is_stmt 0 view .LVU63
 240 0026 2F4B     		ldr	r3, .L27
 241 0028 1B68     		ldr	r3, [r3]
 242 002a 2F4A     		ldr	r2, .L27+4
 243 002c A2FB0323 		umull	r2, r3, r2, r3
 244 0030 9B0C     		lsrs	r3, r3, #18
 195:ThirdParty/STM32F4xx_HAL_Driver/Src/stm32f4xx_hal_adc_ex.c ****     while(counter != 0U)
 245              		.loc 1 195 34 view .LVU64
 246 0032 03EB4303 		add	r3, r3, r3, lsl #1
 195:ThirdParty/STM32F4xx_HAL_Driver/Src/stm32f4xx_hal_adc_ex.c ****     while(counter != 0U)
 247              		.loc 1 195 13 view .LVU65
 248 0036 0193     		str	r3, [sp, #4]
 196:ThirdParty/STM32F4xx_HAL_Driver/Src/stm32f4xx_hal_adc_ex.c ****     {
 249              		.loc 1 196 5 is_stmt 1 view .LVU66
 196:ThirdParty/STM32F4xx_HAL_Driver/Src/stm32f4xx_hal_adc_ex.c ****     {
 250              		.loc 1 196 10 is_stmt 0 view .LVU67
 251 0038 02E0     		b	.L14
 252              	.L15:
 198:ThirdParty/STM32F4xx_HAL_Driver/Src/stm32f4xx_hal_adc_ex.c ****     }
 253              		.loc 1 198 7 is_stmt 1 view .LVU68
 198:ThirdParty/STM32F4xx_HAL_Driver/Src/stm32f4xx_hal_adc_ex.c ****     }
 254              		.loc 1 198 14 is_stmt 0 view .LVU69
 255 003a 019B     		ldr	r3, [sp, #4]
 256 003c 013B     		subs	r3, r3, #1
 257 003e 0193     		str	r3, [sp, #4]
 258              	.L14:
 196:ThirdParty/STM32F4xx_HAL_Driver/Src/stm32f4xx_hal_adc_ex.c ****     {
 259              		.loc 1 196 10 is_stmt 1 view .LVU70
 196:ThirdParty/STM32F4xx_HAL_Driver/Src/stm32f4xx_hal_adc_ex.c ****     {
 260              		.loc 1 196 19 is_stmt 0 view .LVU71
 261 0040 019B     		ldr	r3, [sp, #4]
 196:ThirdParty/STM32F4xx_HAL_Driver/Src/stm32f4xx_hal_adc_ex.c ****     {
 262              		.loc 1 196 10 view .LVU72
 263 0042 002B     		cmp	r3, #0
 264 0044 F9D1     		bne	.L15
 265              	.L13:
 203:ThirdParty/STM32F4xx_HAL_Driver/Src/stm32f4xx_hal_adc_ex.c ****   {
 266              		.loc 1 203 3 is_stmt 1 view .LVU73
 203:ThirdParty/STM32F4xx_HAL_Driver/Src/stm32f4xx_hal_adc_ex.c ****   {
 267              		.loc 1 203 6 is_stmt 0 view .LVU74
 268 0046 0268     		ldr	r2, [r0]
ARM GAS  /tmp/ccHJyd2u.s 			page 26


 269 0048 9368     		ldr	r3, [r2, #8]
 203:ThirdParty/STM32F4xx_HAL_Driver/Src/stm32f4xx_hal_adc_ex.c ****   {
 270              		.loc 1 203 5 view .LVU75
 271 004a 13F0010F 		tst	r3, #1
 272 004e 3DD0     		beq	.L19
 208:ThirdParty/STM32F4xx_HAL_Driver/Src/stm32f4xx_hal_adc_ex.c ****                       HAL_ADC_STATE_READY | HAL_ADC_STATE_INJ_EOC,
 273              		.loc 1 208 5 is_stmt 1 view .LVU76
 274 0050 036C     		ldr	r3, [r0, #64]
 275 0052 23F44053 		bic	r3, r3, #12288
 276 0056 23F00103 		bic	r3, r3, #1
 277 005a 43F48053 		orr	r3, r3, #4096
 278 005e 0364     		str	r3, [r0, #64]
 216:ThirdParty/STM32F4xx_HAL_Driver/Src/stm32f4xx_hal_adc_ex.c ****     {
 279              		.loc 1 216 5 view .LVU77
 216:ThirdParty/STM32F4xx_HAL_Driver/Src/stm32f4xx_hal_adc_ex.c ****     {
 280              		.loc 1 216 9 is_stmt 0 view .LVU78
 281 0060 036C     		ldr	r3, [r0, #64]
 216:ThirdParty/STM32F4xx_HAL_Driver/Src/stm32f4xx_hal_adc_ex.c ****     {
 282              		.loc 1 216 8 view .LVU79
 283 0062 13F4807F 		tst	r3, #256
 284 0066 01D1     		bne	.L16
 219:ThirdParty/STM32F4xx_HAL_Driver/Src/stm32f4xx_hal_adc_ex.c ****     }
 285              		.loc 1 219 7 is_stmt 1 view .LVU80
 286 0068 0023     		movs	r3, #0
 287 006a 4364     		str	r3, [r0, #68]
 288              	.L16:
 225:ThirdParty/STM32F4xx_HAL_Driver/Src/stm32f4xx_hal_adc_ex.c ****     
 289              		.loc 1 225 5 view .LVU81
 225:ThirdParty/STM32F4xx_HAL_Driver/Src/stm32f4xx_hal_adc_ex.c ****     
 290              		.loc 1 225 5 view .LVU82
 291 006c 0023     		movs	r3, #0
 292 006e 80F83C30 		strb	r3, [r0, #60]
 225:ThirdParty/STM32F4xx_HAL_Driver/Src/stm32f4xx_hal_adc_ex.c ****     
 293              		.loc 1 225 5 view .LVU83
 229:ThirdParty/STM32F4xx_HAL_Driver/Src/stm32f4xx_hal_adc_ex.c **** 
 294              		.loc 1 229 5 view .LVU84
 295 0072 6FF00403 		mvn	r3, #4
 296 0076 1360     		str	r3, [r2]
 234:ThirdParty/STM32F4xx_HAL_Driver/Src/stm32f4xx_hal_adc_ex.c **** 
 297              		.loc 1 234 5 view .LVU85
 298              	.LVL16:
 237:ThirdParty/STM32F4xx_HAL_Driver/Src/stm32f4xx_hal_adc_ex.c ****     {
 299              		.loc 1 237 5 view .LVU86
 237:ThirdParty/STM32F4xx_HAL_Driver/Src/stm32f4xx_hal_adc_ex.c ****     {
 300              		.loc 1 237 8 is_stmt 0 view .LVU87
 301 0078 1C4B     		ldr	r3, .L27+8
 302 007a 5B68     		ldr	r3, [r3, #4]
 237:ThirdParty/STM32F4xx_HAL_Driver/Src/stm32f4xx_hal_adc_ex.c ****     {
 303              		.loc 1 237 7 view .LVU88
 304 007c 13F01F0F 		tst	r3, #31
 305 0080 0ED1     		bne	.L17
 239:ThirdParty/STM32F4xx_HAL_Driver/Src/stm32f4xx_hal_adc_ex.c ****       tmp2 = HAL_IS_BIT_CLR(hadc->Instance->CR1, ADC_CR1_JAUTO);
 306              		.loc 1 239 7 is_stmt 1 view .LVU89
 239:ThirdParty/STM32F4xx_HAL_Driver/Src/stm32f4xx_hal_adc_ex.c ****       tmp2 = HAL_IS_BIT_CLR(hadc->Instance->CR1, ADC_CR1_JAUTO);
 307              		.loc 1 239 14 is_stmt 0 view .LVU90
 308 0082 0268     		ldr	r2, [r0]
 309 0084 9168     		ldr	r1, [r2, #8]
ARM GAS  /tmp/ccHJyd2u.s 			page 27


 310              	.LVL17:
 240:ThirdParty/STM32F4xx_HAL_Driver/Src/stm32f4xx_hal_adc_ex.c ****       if(tmp1 && tmp2)
 311              		.loc 1 240 7 is_stmt 1 view .LVU91
 240:ThirdParty/STM32F4xx_HAL_Driver/Src/stm32f4xx_hal_adc_ex.c ****       if(tmp1 && tmp2)
 312              		.loc 1 240 14 is_stmt 0 view .LVU92
 313 0086 5368     		ldr	r3, [r2, #4]
 314 0088 03F48063 		and	r3, r3, #1024
 315              	.LVL18:
 241:ThirdParty/STM32F4xx_HAL_Driver/Src/stm32f4xx_hal_adc_ex.c ****       {
 316              		.loc 1 241 7 is_stmt 1 view .LVU93
 241:ThirdParty/STM32F4xx_HAL_Driver/Src/stm32f4xx_hal_adc_ex.c ****       {
 317              		.loc 1 241 9 is_stmt 0 view .LVU94
 318 008c 11F4401F 		tst	r1, #3145728
 319 0090 1FD1     		bne	.L20
 241:ThirdParty/STM32F4xx_HAL_Driver/Src/stm32f4xx_hal_adc_ex.c ****       {
 320              		.loc 1 241 15 discriminator 1 view .LVU95
 321 0092 03BB     		cbnz	r3, .L21
 244:ThirdParty/STM32F4xx_HAL_Driver/Src/stm32f4xx_hal_adc_ex.c ****       }
 322              		.loc 1 244 9 is_stmt 1 view .LVU96
 244:ThirdParty/STM32F4xx_HAL_Driver/Src/stm32f4xx_hal_adc_ex.c ****       }
 323              		.loc 1 244 29 is_stmt 0 view .LVU97
 324 0094 9368     		ldr	r3, [r2, #8]
 325              	.LVL19:
 244:ThirdParty/STM32F4xx_HAL_Driver/Src/stm32f4xx_hal_adc_ex.c ****       }
 326              		.loc 1 244 29 view .LVU98
 327 0096 43F48003 		orr	r3, r3, #4194304
 328 009a 9360     		str	r3, [r2, #8]
 260:ThirdParty/STM32F4xx_HAL_Driver/Src/stm32f4xx_hal_adc_ex.c **** }
 329              		.loc 1 260 10 view .LVU99
 330 009c 0020     		movs	r0, #0
 331              	.LVL20:
 260:ThirdParty/STM32F4xx_HAL_Driver/Src/stm32f4xx_hal_adc_ex.c **** }
 332              		.loc 1 260 10 view .LVU100
 333 009e 16E0     		b	.L12
 334              	.LVL21:
 335              	.L17:
 249:ThirdParty/STM32F4xx_HAL_Driver/Src/stm32f4xx_hal_adc_ex.c ****       tmp2 = HAL_IS_BIT_CLR(hadc->Instance->CR1, ADC_CR1_JAUTO);
 336              		.loc 1 249 7 is_stmt 1 view .LVU101
 249:ThirdParty/STM32F4xx_HAL_Driver/Src/stm32f4xx_hal_adc_ex.c ****       tmp2 = HAL_IS_BIT_CLR(hadc->Instance->CR1, ADC_CR1_JAUTO);
 337              		.loc 1 249 14 is_stmt 0 view .LVU102
 338 00a0 0368     		ldr	r3, [r0]
 339 00a2 9A68     		ldr	r2, [r3, #8]
 340 00a4 02F44012 		and	r2, r2, #3145728
 341              	.LVL22:
 250:ThirdParty/STM32F4xx_HAL_Driver/Src/stm32f4xx_hal_adc_ex.c ****       if((hadc->Instance == ADC1) && tmp1 && tmp2)  
 342              		.loc 1 250 7 is_stmt 1 view .LVU103
 250:ThirdParty/STM32F4xx_HAL_Driver/Src/stm32f4xx_hal_adc_ex.c ****       if((hadc->Instance == ADC1) && tmp1 && tmp2)  
 343              		.loc 1 250 14 is_stmt 0 view .LVU104
 344 00a8 5968     		ldr	r1, [r3, #4]
 345 00aa 01F48061 		and	r1, r1, #1024
 346              	.LVL23:
 251:ThirdParty/STM32F4xx_HAL_Driver/Src/stm32f4xx_hal_adc_ex.c ****       {
 347              		.loc 1 251 7 is_stmt 1 view .LVU105
 251:ThirdParty/STM32F4xx_HAL_Driver/Src/stm32f4xx_hal_adc_ex.c ****       {
 348              		.loc 1 251 9 is_stmt 0 view .LVU106
 349 00ae 1048     		ldr	r0, .L27+12
 350              	.LVL24:
ARM GAS  /tmp/ccHJyd2u.s 			page 28


 251:ThirdParty/STM32F4xx_HAL_Driver/Src/stm32f4xx_hal_adc_ex.c ****       {
 351              		.loc 1 251 9 view .LVU107
 352 00b0 8342     		cmp	r3, r0
 353 00b2 01D0     		beq	.L26
 260:ThirdParty/STM32F4xx_HAL_Driver/Src/stm32f4xx_hal_adc_ex.c **** }
 354              		.loc 1 260 10 view .LVU108
 355 00b4 0020     		movs	r0, #0
 356 00b6 0AE0     		b	.L12
 357              	.L26:
 251:ThirdParty/STM32F4xx_HAL_Driver/Src/stm32f4xx_hal_adc_ex.c ****       {
 358              		.loc 1 251 35 discriminator 1 view .LVU109
 359 00b8 7AB9     		cbnz	r2, .L23
 251:ThirdParty/STM32F4xx_HAL_Driver/Src/stm32f4xx_hal_adc_ex.c ****       {
 360              		.loc 1 251 43 discriminator 2 view .LVU110
 361 00ba 81B9     		cbnz	r1, .L24
 254:ThirdParty/STM32F4xx_HAL_Driver/Src/stm32f4xx_hal_adc_ex.c ****       }
 362              		.loc 1 254 9 is_stmt 1 view .LVU111
 254:ThirdParty/STM32F4xx_HAL_Driver/Src/stm32f4xx_hal_adc_ex.c ****       }
 363              		.loc 1 254 29 is_stmt 0 view .LVU112
 364 00bc 9A68     		ldr	r2, [r3, #8]
 365              	.LVL25:
 254:ThirdParty/STM32F4xx_HAL_Driver/Src/stm32f4xx_hal_adc_ex.c ****       }
 366              		.loc 1 254 29 view .LVU113
 367 00be 42F48002 		orr	r2, r2, #4194304
 368 00c2 9A60     		str	r2, [r3, #8]
 260:ThirdParty/STM32F4xx_HAL_Driver/Src/stm32f4xx_hal_adc_ex.c **** }
 369              		.loc 1 260 10 view .LVU114
 370 00c4 0020     		movs	r0, #0
 371 00c6 02E0     		b	.L12
 372              	.LVL26:
 373              	.L18:
 182:ThirdParty/STM32F4xx_HAL_Driver/Src/stm32f4xx_hal_adc_ex.c ****   
 374              		.loc 1 182 3 view .LVU115
 375 00c8 0220     		movs	r0, #2
 376              	.LVL27:
 182:ThirdParty/STM32F4xx_HAL_Driver/Src/stm32f4xx_hal_adc_ex.c ****   
 377              		.loc 1 182 3 view .LVU116
 378 00ca 00E0     		b	.L12
 379              	.LVL28:
 380              	.L19:
 260:ThirdParty/STM32F4xx_HAL_Driver/Src/stm32f4xx_hal_adc_ex.c **** }
 381              		.loc 1 260 10 view .LVU117
 382 00cc 0020     		movs	r0, #0
 383              	.LVL29:
 384              	.L12:
 261:ThirdParty/STM32F4xx_HAL_Driver/Src/stm32f4xx_hal_adc_ex.c **** 
 385              		.loc 1 261 1 view .LVU118
 386 00ce 02B0     		add	sp, sp, #8
 387              	.LCFI4:
 388              		.cfi_remember_state
 389              		.cfi_def_cfa_offset 0
 390              		@ sp needed
 391 00d0 7047     		bx	lr
 392              	.LVL30:
 393              	.L20:
 394              	.LCFI5:
 395              		.cfi_restore_state
ARM GAS  /tmp/ccHJyd2u.s 			page 29


 260:ThirdParty/STM32F4xx_HAL_Driver/Src/stm32f4xx_hal_adc_ex.c **** }
 396              		.loc 1 260 10 view .LVU119
 397 00d2 0020     		movs	r0, #0
 398              	.LVL31:
 260:ThirdParty/STM32F4xx_HAL_Driver/Src/stm32f4xx_hal_adc_ex.c **** }
 399              		.loc 1 260 10 view .LVU120
 400 00d4 FBE7     		b	.L12
 401              	.LVL32:
 402              	.L21:
 260:ThirdParty/STM32F4xx_HAL_Driver/Src/stm32f4xx_hal_adc_ex.c **** }
 403              		.loc 1 260 10 view .LVU121
 404 00d6 0020     		movs	r0, #0
 405              	.LVL33:
 260:ThirdParty/STM32F4xx_HAL_Driver/Src/stm32f4xx_hal_adc_ex.c **** }
 406              		.loc 1 260 10 view .LVU122
 407 00d8 F9E7     		b	.L12
 408              	.LVL34:
 409              	.L23:
 260:ThirdParty/STM32F4xx_HAL_Driver/Src/stm32f4xx_hal_adc_ex.c **** }
 410              		.loc 1 260 10 view .LVU123
 411 00da 0020     		movs	r0, #0
 412 00dc F7E7     		b	.L12
 413              	.L24:
 414 00de 0020     		movs	r0, #0
 415 00e0 F5E7     		b	.L12
 416              	.L28:
 417 00e2 00BF     		.align	2
 418              	.L27:
 419 00e4 00000000 		.word	SystemCoreClock
 420 00e8 83DE1B43 		.word	1125899907
 421 00ec 00230140 		.word	1073816320
 422 00f0 00200140 		.word	1073815552
 423              		.cfi_endproc
 424              	.LFE133:
 426              		.section	.text.HAL_ADCEx_InjectedStart_IT,"ax",%progbits
 427              		.align	1
 428              		.global	HAL_ADCEx_InjectedStart_IT
 429              		.syntax unified
 430              		.thumb
 431              		.thumb_func
 433              	HAL_ADCEx_InjectedStart_IT:
 434              	.LVL35:
 435              	.LFB134:
 271:ThirdParty/STM32F4xx_HAL_Driver/Src/stm32f4xx_hal_adc_ex.c ****   __IO uint32_t counter = 0U;
 436              		.loc 1 271 1 is_stmt 1 view -0
 437              		.cfi_startproc
 438              		@ args = 0, pretend = 0, frame = 8
 439              		@ frame_needed = 0, uses_anonymous_args = 0
 440              		@ link register save eliminated.
 271:ThirdParty/STM32F4xx_HAL_Driver/Src/stm32f4xx_hal_adc_ex.c ****   __IO uint32_t counter = 0U;
 441              		.loc 1 271 1 is_stmt 0 view .LVU125
 442 0000 82B0     		sub	sp, sp, #8
 443              	.LCFI6:
 444              		.cfi_def_cfa_offset 8
 272:ThirdParty/STM32F4xx_HAL_Driver/Src/stm32f4xx_hal_adc_ex.c ****   uint32_t tmp1 = 0U, tmp2 = 0U;
 445              		.loc 1 272 3 is_stmt 1 view .LVU126
 272:ThirdParty/STM32F4xx_HAL_Driver/Src/stm32f4xx_hal_adc_ex.c ****   uint32_t tmp1 = 0U, tmp2 = 0U;
ARM GAS  /tmp/ccHJyd2u.s 			page 30


 446              		.loc 1 272 17 is_stmt 0 view .LVU127
 447 0002 0023     		movs	r3, #0
 448 0004 0193     		str	r3, [sp, #4]
 273:ThirdParty/STM32F4xx_HAL_Driver/Src/stm32f4xx_hal_adc_ex.c ****   ADC_Common_TypeDef *tmpADC_Common;
 449              		.loc 1 273 3 is_stmt 1 view .LVU128
 450              	.LVL36:
 274:ThirdParty/STM32F4xx_HAL_Driver/Src/stm32f4xx_hal_adc_ex.c ****   
 451              		.loc 1 274 3 view .LVU129
 277:ThirdParty/STM32F4xx_HAL_Driver/Src/stm32f4xx_hal_adc_ex.c ****   
 452              		.loc 1 277 3 view .LVU130
 277:ThirdParty/STM32F4xx_HAL_Driver/Src/stm32f4xx_hal_adc_ex.c ****   
 453              		.loc 1 277 3 view .LVU131
 454 0006 90F83C30 		ldrb	r3, [r0, #60]	@ zero_extendqisi2
 455 000a 012B     		cmp	r3, #1
 456 000c 61D0     		beq	.L36
 277:ThirdParty/STM32F4xx_HAL_Driver/Src/stm32f4xx_hal_adc_ex.c ****   
 457              		.loc 1 277 3 discriminator 2 view .LVU132
 458 000e 0123     		movs	r3, #1
 459 0010 80F83C30 		strb	r3, [r0, #60]
 277:ThirdParty/STM32F4xx_HAL_Driver/Src/stm32f4xx_hal_adc_ex.c ****   
 460              		.loc 1 277 3 discriminator 2 view .LVU133
 283:ThirdParty/STM32F4xx_HAL_Driver/Src/stm32f4xx_hal_adc_ex.c ****   {  
 461              		.loc 1 283 3 discriminator 2 view .LVU134
 283:ThirdParty/STM32F4xx_HAL_Driver/Src/stm32f4xx_hal_adc_ex.c ****   {  
 462              		.loc 1 283 11 is_stmt 0 discriminator 2 view .LVU135
 463 0014 0368     		ldr	r3, [r0]
 283:ThirdParty/STM32F4xx_HAL_Driver/Src/stm32f4xx_hal_adc_ex.c ****   {  
 464              		.loc 1 283 21 discriminator 2 view .LVU136
 465 0016 9A68     		ldr	r2, [r3, #8]
 283:ThirdParty/STM32F4xx_HAL_Driver/Src/stm32f4xx_hal_adc_ex.c ****   {  
 466              		.loc 1 283 5 discriminator 2 view .LVU137
 467 0018 12F0010F 		tst	r2, #1
 468 001c 13D1     		bne	.L31
 286:ThirdParty/STM32F4xx_HAL_Driver/Src/stm32f4xx_hal_adc_ex.c ****     
 469              		.loc 1 286 5 is_stmt 1 view .LVU138
 470 001e 9A68     		ldr	r2, [r3, #8]
 471 0020 42F00102 		orr	r2, r2, #1
 472 0024 9A60     		str	r2, [r3, #8]
 290:ThirdParty/STM32F4xx_HAL_Driver/Src/stm32f4xx_hal_adc_ex.c ****     while(counter != 0U)
 473              		.loc 1 290 5 view .LVU139
 290:ThirdParty/STM32F4xx_HAL_Driver/Src/stm32f4xx_hal_adc_ex.c ****     while(counter != 0U)
 474              		.loc 1 290 53 is_stmt 0 view .LVU140
 475 0026 314B     		ldr	r3, .L45
 476 0028 1B68     		ldr	r3, [r3]
 477 002a 314A     		ldr	r2, .L45+4
 478 002c A2FB0323 		umull	r2, r3, r2, r3
 479 0030 9B0C     		lsrs	r3, r3, #18
 290:ThirdParty/STM32F4xx_HAL_Driver/Src/stm32f4xx_hal_adc_ex.c ****     while(counter != 0U)
 480              		.loc 1 290 34 view .LVU141
 481 0032 03EB4303 		add	r3, r3, r3, lsl #1
 290:ThirdParty/STM32F4xx_HAL_Driver/Src/stm32f4xx_hal_adc_ex.c ****     while(counter != 0U)
 482              		.loc 1 290 13 view .LVU142
 483 0036 0193     		str	r3, [sp, #4]
 291:ThirdParty/STM32F4xx_HAL_Driver/Src/stm32f4xx_hal_adc_ex.c ****     {
 484              		.loc 1 291 5 is_stmt 1 view .LVU143
 291:ThirdParty/STM32F4xx_HAL_Driver/Src/stm32f4xx_hal_adc_ex.c ****     {
 485              		.loc 1 291 10 is_stmt 0 view .LVU144
ARM GAS  /tmp/ccHJyd2u.s 			page 31


 486 0038 02E0     		b	.L32
 487              	.L33:
 293:ThirdParty/STM32F4xx_HAL_Driver/Src/stm32f4xx_hal_adc_ex.c ****     }
 488              		.loc 1 293 7 is_stmt 1 view .LVU145
 293:ThirdParty/STM32F4xx_HAL_Driver/Src/stm32f4xx_hal_adc_ex.c ****     }
 489              		.loc 1 293 14 is_stmt 0 view .LVU146
 490 003a 019B     		ldr	r3, [sp, #4]
 491 003c 013B     		subs	r3, r3, #1
 492 003e 0193     		str	r3, [sp, #4]
 493              	.L32:
 291:ThirdParty/STM32F4xx_HAL_Driver/Src/stm32f4xx_hal_adc_ex.c ****     {
 494              		.loc 1 291 10 is_stmt 1 view .LVU147
 291:ThirdParty/STM32F4xx_HAL_Driver/Src/stm32f4xx_hal_adc_ex.c ****     {
 495              		.loc 1 291 19 is_stmt 0 view .LVU148
 496 0040 019B     		ldr	r3, [sp, #4]
 291:ThirdParty/STM32F4xx_HAL_Driver/Src/stm32f4xx_hal_adc_ex.c ****     {
 497              		.loc 1 291 10 view .LVU149
 498 0042 002B     		cmp	r3, #0
 499 0044 F9D1     		bne	.L33
 500              	.L31:
 298:ThirdParty/STM32F4xx_HAL_Driver/Src/stm32f4xx_hal_adc_ex.c ****   {
 501              		.loc 1 298 3 is_stmt 1 view .LVU150
 298:ThirdParty/STM32F4xx_HAL_Driver/Src/stm32f4xx_hal_adc_ex.c ****   {
 502              		.loc 1 298 6 is_stmt 0 view .LVU151
 503 0046 0268     		ldr	r2, [r0]
 504 0048 9368     		ldr	r3, [r2, #8]
 298:ThirdParty/STM32F4xx_HAL_Driver/Src/stm32f4xx_hal_adc_ex.c ****   {
 505              		.loc 1 298 5 view .LVU152
 506 004a 13F0010F 		tst	r3, #1
 507 004e 42D0     		beq	.L37
 303:ThirdParty/STM32F4xx_HAL_Driver/Src/stm32f4xx_hal_adc_ex.c ****                       HAL_ADC_STATE_READY | HAL_ADC_STATE_INJ_EOC,
 508              		.loc 1 303 5 is_stmt 1 view .LVU153
 509 0050 036C     		ldr	r3, [r0, #64]
 510 0052 23F44053 		bic	r3, r3, #12288
 511 0056 23F00103 		bic	r3, r3, #1
 512 005a 43F48053 		orr	r3, r3, #4096
 513 005e 0364     		str	r3, [r0, #64]
 311:ThirdParty/STM32F4xx_HAL_Driver/Src/stm32f4xx_hal_adc_ex.c ****     {
 514              		.loc 1 311 5 view .LVU154
 311:ThirdParty/STM32F4xx_HAL_Driver/Src/stm32f4xx_hal_adc_ex.c ****     {
 515              		.loc 1 311 9 is_stmt 0 view .LVU155
 516 0060 036C     		ldr	r3, [r0, #64]
 311:ThirdParty/STM32F4xx_HAL_Driver/Src/stm32f4xx_hal_adc_ex.c ****     {
 517              		.loc 1 311 8 view .LVU156
 518 0062 13F4807F 		tst	r3, #256
 519 0066 01D1     		bne	.L34
 314:ThirdParty/STM32F4xx_HAL_Driver/Src/stm32f4xx_hal_adc_ex.c ****     }
 520              		.loc 1 314 7 is_stmt 1 view .LVU157
 521 0068 0023     		movs	r3, #0
 522 006a 4364     		str	r3, [r0, #68]
 523              	.L34:
 320:ThirdParty/STM32F4xx_HAL_Driver/Src/stm32f4xx_hal_adc_ex.c ****     
 524              		.loc 1 320 5 view .LVU158
 320:ThirdParty/STM32F4xx_HAL_Driver/Src/stm32f4xx_hal_adc_ex.c ****     
 525              		.loc 1 320 5 view .LVU159
 526 006c 0023     		movs	r3, #0
 527 006e 80F83C30 		strb	r3, [r0, #60]
ARM GAS  /tmp/ccHJyd2u.s 			page 32


 320:ThirdParty/STM32F4xx_HAL_Driver/Src/stm32f4xx_hal_adc_ex.c ****     
 528              		.loc 1 320 5 view .LVU160
 324:ThirdParty/STM32F4xx_HAL_Driver/Src/stm32f4xx_hal_adc_ex.c ****     
 529              		.loc 1 324 5 view .LVU161
 530 0072 6FF00403 		mvn	r3, #4
 531 0076 1360     		str	r3, [r2]
 327:ThirdParty/STM32F4xx_HAL_Driver/Src/stm32f4xx_hal_adc_ex.c **** 
 532              		.loc 1 327 5 view .LVU162
 533 0078 0268     		ldr	r2, [r0]
 534 007a 5368     		ldr	r3, [r2, #4]
 535 007c 43F08003 		orr	r3, r3, #128
 536 0080 5360     		str	r3, [r2, #4]
 332:ThirdParty/STM32F4xx_HAL_Driver/Src/stm32f4xx_hal_adc_ex.c ****     
 537              		.loc 1 332 5 view .LVU163
 538              	.LVL37:
 335:ThirdParty/STM32F4xx_HAL_Driver/Src/stm32f4xx_hal_adc_ex.c ****     {
 539              		.loc 1 335 5 view .LVU164
 335:ThirdParty/STM32F4xx_HAL_Driver/Src/stm32f4xx_hal_adc_ex.c ****     {
 540              		.loc 1 335 8 is_stmt 0 view .LVU165
 541 0082 1C4B     		ldr	r3, .L45+8
 542 0084 5B68     		ldr	r3, [r3, #4]
 335:ThirdParty/STM32F4xx_HAL_Driver/Src/stm32f4xx_hal_adc_ex.c ****     {
 543              		.loc 1 335 7 view .LVU166
 544 0086 13F01F0F 		tst	r3, #31
 545 008a 0ED1     		bne	.L35
 337:ThirdParty/STM32F4xx_HAL_Driver/Src/stm32f4xx_hal_adc_ex.c ****       tmp2 = HAL_IS_BIT_CLR(hadc->Instance->CR1, ADC_CR1_JAUTO);
 546              		.loc 1 337 7 is_stmt 1 view .LVU167
 337:ThirdParty/STM32F4xx_HAL_Driver/Src/stm32f4xx_hal_adc_ex.c ****       tmp2 = HAL_IS_BIT_CLR(hadc->Instance->CR1, ADC_CR1_JAUTO);
 547              		.loc 1 337 14 is_stmt 0 view .LVU168
 548 008c 0268     		ldr	r2, [r0]
 549 008e 9168     		ldr	r1, [r2, #8]
 550              	.LVL38:
 338:ThirdParty/STM32F4xx_HAL_Driver/Src/stm32f4xx_hal_adc_ex.c ****       if(tmp1 && tmp2)
 551              		.loc 1 338 7 is_stmt 1 view .LVU169
 338:ThirdParty/STM32F4xx_HAL_Driver/Src/stm32f4xx_hal_adc_ex.c ****       if(tmp1 && tmp2)
 552              		.loc 1 338 14 is_stmt 0 view .LVU170
 553 0090 5368     		ldr	r3, [r2, #4]
 554 0092 03F48063 		and	r3, r3, #1024
 555              	.LVL39:
 339:ThirdParty/STM32F4xx_HAL_Driver/Src/stm32f4xx_hal_adc_ex.c ****       {
 556              		.loc 1 339 7 is_stmt 1 view .LVU171
 339:ThirdParty/STM32F4xx_HAL_Driver/Src/stm32f4xx_hal_adc_ex.c ****       {
 557              		.loc 1 339 9 is_stmt 0 view .LVU172
 558 0096 11F4401F 		tst	r1, #3145728
 559 009a 1FD1     		bne	.L38
 339:ThirdParty/STM32F4xx_HAL_Driver/Src/stm32f4xx_hal_adc_ex.c ****       {
 560              		.loc 1 339 15 discriminator 1 view .LVU173
 561 009c 03BB     		cbnz	r3, .L39
 342:ThirdParty/STM32F4xx_HAL_Driver/Src/stm32f4xx_hal_adc_ex.c ****       }
 562              		.loc 1 342 9 is_stmt 1 view .LVU174
 342:ThirdParty/STM32F4xx_HAL_Driver/Src/stm32f4xx_hal_adc_ex.c ****       }
 563              		.loc 1 342 29 is_stmt 0 view .LVU175
 564 009e 9368     		ldr	r3, [r2, #8]
 565              	.LVL40:
 342:ThirdParty/STM32F4xx_HAL_Driver/Src/stm32f4xx_hal_adc_ex.c ****       }
 566              		.loc 1 342 29 view .LVU176
 567 00a0 43F48003 		orr	r3, r3, #4194304
ARM GAS  /tmp/ccHJyd2u.s 			page 33


 568 00a4 9360     		str	r3, [r2, #8]
 358:ThirdParty/STM32F4xx_HAL_Driver/Src/stm32f4xx_hal_adc_ex.c **** }
 569              		.loc 1 358 10 view .LVU177
 570 00a6 0020     		movs	r0, #0
 571              	.LVL41:
 358:ThirdParty/STM32F4xx_HAL_Driver/Src/stm32f4xx_hal_adc_ex.c **** }
 572              		.loc 1 358 10 view .LVU178
 573 00a8 16E0     		b	.L30
 574              	.LVL42:
 575              	.L35:
 347:ThirdParty/STM32F4xx_HAL_Driver/Src/stm32f4xx_hal_adc_ex.c ****       tmp2 = HAL_IS_BIT_CLR(hadc->Instance->CR1, ADC_CR1_JAUTO);
 576              		.loc 1 347 7 is_stmt 1 view .LVU179
 347:ThirdParty/STM32F4xx_HAL_Driver/Src/stm32f4xx_hal_adc_ex.c ****       tmp2 = HAL_IS_BIT_CLR(hadc->Instance->CR1, ADC_CR1_JAUTO);
 577              		.loc 1 347 14 is_stmt 0 view .LVU180
 578 00aa 0368     		ldr	r3, [r0]
 579 00ac 9A68     		ldr	r2, [r3, #8]
 580 00ae 02F44012 		and	r2, r2, #3145728
 581              	.LVL43:
 348:ThirdParty/STM32F4xx_HAL_Driver/Src/stm32f4xx_hal_adc_ex.c ****       if((hadc->Instance == ADC1) && tmp1 && tmp2)  
 582              		.loc 1 348 7 is_stmt 1 view .LVU181
 348:ThirdParty/STM32F4xx_HAL_Driver/Src/stm32f4xx_hal_adc_ex.c ****       if((hadc->Instance == ADC1) && tmp1 && tmp2)  
 583              		.loc 1 348 14 is_stmt 0 view .LVU182
 584 00b2 5968     		ldr	r1, [r3, #4]
 585 00b4 01F48061 		and	r1, r1, #1024
 586              	.LVL44:
 349:ThirdParty/STM32F4xx_HAL_Driver/Src/stm32f4xx_hal_adc_ex.c ****       {
 587              		.loc 1 349 7 is_stmt 1 view .LVU183
 349:ThirdParty/STM32F4xx_HAL_Driver/Src/stm32f4xx_hal_adc_ex.c ****       {
 588              		.loc 1 349 9 is_stmt 0 view .LVU184
 589 00b8 0F48     		ldr	r0, .L45+12
 590              	.LVL45:
 349:ThirdParty/STM32F4xx_HAL_Driver/Src/stm32f4xx_hal_adc_ex.c ****       {
 591              		.loc 1 349 9 view .LVU185
 592 00ba 8342     		cmp	r3, r0
 593 00bc 01D0     		beq	.L44
 358:ThirdParty/STM32F4xx_HAL_Driver/Src/stm32f4xx_hal_adc_ex.c **** }
 594              		.loc 1 358 10 view .LVU186
 595 00be 0020     		movs	r0, #0
 596 00c0 0AE0     		b	.L30
 597              	.L44:
 349:ThirdParty/STM32F4xx_HAL_Driver/Src/stm32f4xx_hal_adc_ex.c ****       {
 598              		.loc 1 349 35 discriminator 1 view .LVU187
 599 00c2 7AB9     		cbnz	r2, .L41
 349:ThirdParty/STM32F4xx_HAL_Driver/Src/stm32f4xx_hal_adc_ex.c ****       {
 600              		.loc 1 349 43 discriminator 2 view .LVU188
 601 00c4 81B9     		cbnz	r1, .L42
 352:ThirdParty/STM32F4xx_HAL_Driver/Src/stm32f4xx_hal_adc_ex.c ****       }
 602              		.loc 1 352 9 is_stmt 1 view .LVU189
 352:ThirdParty/STM32F4xx_HAL_Driver/Src/stm32f4xx_hal_adc_ex.c ****       }
 603              		.loc 1 352 29 is_stmt 0 view .LVU190
 604 00c6 9A68     		ldr	r2, [r3, #8]
 605              	.LVL46:
 352:ThirdParty/STM32F4xx_HAL_Driver/Src/stm32f4xx_hal_adc_ex.c ****       }
 606              		.loc 1 352 29 view .LVU191
 607 00c8 42F48002 		orr	r2, r2, #4194304
 608 00cc 9A60     		str	r2, [r3, #8]
 358:ThirdParty/STM32F4xx_HAL_Driver/Src/stm32f4xx_hal_adc_ex.c **** }
ARM GAS  /tmp/ccHJyd2u.s 			page 34


 609              		.loc 1 358 10 view .LVU192
 610 00ce 0020     		movs	r0, #0
 611 00d0 02E0     		b	.L30
 612              	.LVL47:
 613              	.L36:
 277:ThirdParty/STM32F4xx_HAL_Driver/Src/stm32f4xx_hal_adc_ex.c ****   
 614              		.loc 1 277 3 view .LVU193
 615 00d2 0220     		movs	r0, #2
 616              	.LVL48:
 277:ThirdParty/STM32F4xx_HAL_Driver/Src/stm32f4xx_hal_adc_ex.c ****   
 617              		.loc 1 277 3 view .LVU194
 618 00d4 00E0     		b	.L30
 619              	.LVL49:
 620              	.L37:
 358:ThirdParty/STM32F4xx_HAL_Driver/Src/stm32f4xx_hal_adc_ex.c **** }
 621              		.loc 1 358 10 view .LVU195
 622 00d6 0020     		movs	r0, #0
 623              	.LVL50:
 624              	.L30:
 359:ThirdParty/STM32F4xx_HAL_Driver/Src/stm32f4xx_hal_adc_ex.c **** 
 625              		.loc 1 359 1 view .LVU196
 626 00d8 02B0     		add	sp, sp, #8
 627              	.LCFI7:
 628              		.cfi_remember_state
 629              		.cfi_def_cfa_offset 0
 630              		@ sp needed
 631 00da 7047     		bx	lr
 632              	.LVL51:
 633              	.L38:
 634              	.LCFI8:
 635              		.cfi_restore_state
 358:ThirdParty/STM32F4xx_HAL_Driver/Src/stm32f4xx_hal_adc_ex.c **** }
 636              		.loc 1 358 10 view .LVU197
 637 00dc 0020     		movs	r0, #0
 638              	.LVL52:
 358:ThirdParty/STM32F4xx_HAL_Driver/Src/stm32f4xx_hal_adc_ex.c **** }
 639              		.loc 1 358 10 view .LVU198
 640 00de FBE7     		b	.L30
 641              	.LVL53:
 642              	.L39:
 358:ThirdParty/STM32F4xx_HAL_Driver/Src/stm32f4xx_hal_adc_ex.c **** }
 643              		.loc 1 358 10 view .LVU199
 644 00e0 0020     		movs	r0, #0
 645              	.LVL54:
 358:ThirdParty/STM32F4xx_HAL_Driver/Src/stm32f4xx_hal_adc_ex.c **** }
 646              		.loc 1 358 10 view .LVU200
 647 00e2 F9E7     		b	.L30
 648              	.LVL55:
 649              	.L41:
 358:ThirdParty/STM32F4xx_HAL_Driver/Src/stm32f4xx_hal_adc_ex.c **** }
 650              		.loc 1 358 10 view .LVU201
 651 00e4 0020     		movs	r0, #0
 652 00e6 F7E7     		b	.L30
 653              	.L42:
 654 00e8 0020     		movs	r0, #0
 655 00ea F5E7     		b	.L30
 656              	.L46:
ARM GAS  /tmp/ccHJyd2u.s 			page 35


 657              		.align	2
 658              	.L45:
 659 00ec 00000000 		.word	SystemCoreClock
 660 00f0 83DE1B43 		.word	1125899907
 661 00f4 00230140 		.word	1073816320
 662 00f8 00200140 		.word	1073815552
 663              		.cfi_endproc
 664              	.LFE134:
 666              		.section	.text.HAL_ADCEx_InjectedStop,"ax",%progbits
 667              		.align	1
 668              		.global	HAL_ADCEx_InjectedStop
 669              		.syntax unified
 670              		.thumb
 671              		.thumb_func
 673              	HAL_ADCEx_InjectedStop:
 674              	.LVL56:
 675              	.LFB135:
 374:ThirdParty/STM32F4xx_HAL_Driver/Src/stm32f4xx_hal_adc_ex.c ****   HAL_StatusTypeDef tmp_hal_status = HAL_OK;
 676              		.loc 1 374 1 is_stmt 1 view -0
 677              		.cfi_startproc
 678              		@ args = 0, pretend = 0, frame = 0
 679              		@ frame_needed = 0, uses_anonymous_args = 0
 680              		@ link register save eliminated.
 374:ThirdParty/STM32F4xx_HAL_Driver/Src/stm32f4xx_hal_adc_ex.c ****   HAL_StatusTypeDef tmp_hal_status = HAL_OK;
 681              		.loc 1 374 1 is_stmt 0 view .LVU203
 682 0000 0346     		mov	r3, r0
 375:ThirdParty/STM32F4xx_HAL_Driver/Src/stm32f4xx_hal_adc_ex.c ****   
 683              		.loc 1 375 3 is_stmt 1 view .LVU204
 684              	.LVL57:
 378:ThirdParty/STM32F4xx_HAL_Driver/Src/stm32f4xx_hal_adc_ex.c **** 
 685              		.loc 1 378 3 view .LVU205
 381:ThirdParty/STM32F4xx_HAL_Driver/Src/stm32f4xx_hal_adc_ex.c ****     
 686              		.loc 1 381 3 view .LVU206
 381:ThirdParty/STM32F4xx_HAL_Driver/Src/stm32f4xx_hal_adc_ex.c ****     
 687              		.loc 1 381 3 view .LVU207
 688 0002 90F83C20 		ldrb	r2, [r0, #60]	@ zero_extendqisi2
 689 0006 012A     		cmp	r2, #1
 690 0008 29D0     		beq	.L51
 381:ThirdParty/STM32F4xx_HAL_Driver/Src/stm32f4xx_hal_adc_ex.c ****     
 691              		.loc 1 381 3 discriminator 2 view .LVU208
 692 000a 0122     		movs	r2, #1
 693 000c 80F83C20 		strb	r2, [r0, #60]
 381:ThirdParty/STM32F4xx_HAL_Driver/Src/stm32f4xx_hal_adc_ex.c ****     
 694              		.loc 1 381 3 discriminator 2 view .LVU209
 389:ThirdParty/STM32F4xx_HAL_Driver/Src/stm32f4xx_hal_adc_ex.c ****      HAL_IS_BIT_CLR(hadc->Instance->CR1, ADC_CR1_JAUTO)   )
 695              		.loc 1 389 3 discriminator 2 view .LVU210
 389:ThirdParty/STM32F4xx_HAL_Driver/Src/stm32f4xx_hal_adc_ex.c ****      HAL_IS_BIT_CLR(hadc->Instance->CR1, ADC_CR1_JAUTO)   )
 696              		.loc 1 389 12 is_stmt 0 discriminator 2 view .LVU211
 697 0010 026C     		ldr	r2, [r0, #64]
 389:ThirdParty/STM32F4xx_HAL_Driver/Src/stm32f4xx_hal_adc_ex.c ****      HAL_IS_BIT_CLR(hadc->Instance->CR1, ADC_CR1_JAUTO)   )
 698              		.loc 1 389 5 discriminator 2 view .LVU212
 699 0012 12F4807F 		tst	r2, #256
 700 0016 17D1     		bne	.L49
 390:ThirdParty/STM32F4xx_HAL_Driver/Src/stm32f4xx_hal_adc_ex.c ****   {
 701              		.loc 1 390 6 discriminator 1 view .LVU213
 702 0018 0268     		ldr	r2, [r0]
 703 001a 5168     		ldr	r1, [r2, #4]
ARM GAS  /tmp/ccHJyd2u.s 			page 36


 389:ThirdParty/STM32F4xx_HAL_Driver/Src/stm32f4xx_hal_adc_ex.c ****      HAL_IS_BIT_CLR(hadc->Instance->CR1, ADC_CR1_JAUTO)   )
 704              		.loc 1 389 57 discriminator 1 view .LVU214
 705 001c 11F4806F 		tst	r1, #1024
 706 0020 12D1     		bne	.L49
 394:ThirdParty/STM32F4xx_HAL_Driver/Src/stm32f4xx_hal_adc_ex.c ****     
 707              		.loc 1 394 5 is_stmt 1 view .LVU215
 708 0022 9168     		ldr	r1, [r2, #8]
 709 0024 21F00101 		bic	r1, r1, #1
 710 0028 9160     		str	r1, [r2, #8]
 397:ThirdParty/STM32F4xx_HAL_Driver/Src/stm32f4xx_hal_adc_ex.c ****     {
 711              		.loc 1 397 5 view .LVU216
 397:ThirdParty/STM32F4xx_HAL_Driver/Src/stm32f4xx_hal_adc_ex.c ****     {
 712              		.loc 1 397 8 is_stmt 0 view .LVU217
 713 002a 0268     		ldr	r2, [r0]
 714 002c 9268     		ldr	r2, [r2, #8]
 397:ThirdParty/STM32F4xx_HAL_Driver/Src/stm32f4xx_hal_adc_ex.c ****     {
 715              		.loc 1 397 7 view .LVU218
 716 002e 12F0010F 		tst	r2, #1
 717 0032 12D1     		bne	.L52
 400:ThirdParty/STM32F4xx_HAL_Driver/Src/stm32f4xx_hal_adc_ex.c ****                         HAL_ADC_STATE_REG_BUSY | HAL_ADC_STATE_INJ_BUSY,
 718              		.loc 1 400 7 is_stmt 1 view .LVU219
 719 0034 026C     		ldr	r2, [r0, #64]
 720 0036 22F48852 		bic	r2, r2, #4352
 721 003a 22F00102 		bic	r2, r2, #1
 722 003e 42F00102 		orr	r2, r2, #1
 723 0042 0264     		str	r2, [r0, #64]
 375:ThirdParty/STM32F4xx_HAL_Driver/Src/stm32f4xx_hal_adc_ex.c ****   
 724              		.loc 1 375 21 is_stmt 0 view .LVU220
 725 0044 0020     		movs	r0, #0
 726              	.LVL58:
 375:ThirdParty/STM32F4xx_HAL_Driver/Src/stm32f4xx_hal_adc_ex.c ****   
 727              		.loc 1 375 21 view .LVU221
 728 0046 04E0     		b	.L50
 729              	.LVL59:
 730              	.L49:
 408:ThirdParty/STM32F4xx_HAL_Driver/Src/stm32f4xx_hal_adc_ex.c ****       
 731              		.loc 1 408 5 is_stmt 1 view .LVU222
 732 0048 1A6C     		ldr	r2, [r3, #64]
 733 004a 42F02002 		orr	r2, r2, #32
 734 004e 1A64     		str	r2, [r3, #64]
 410:ThirdParty/STM32F4xx_HAL_Driver/Src/stm32f4xx_hal_adc_ex.c ****   }
 735              		.loc 1 410 5 view .LVU223
 736              	.LVL60:
 410:ThirdParty/STM32F4xx_HAL_Driver/Src/stm32f4xx_hal_adc_ex.c ****   }
 737              		.loc 1 410 20 is_stmt 0 view .LVU224
 738 0050 0120     		movs	r0, #1
 739              	.LVL61:
 740              	.L50:
 414:ThirdParty/STM32F4xx_HAL_Driver/Src/stm32f4xx_hal_adc_ex.c ****   
 741              		.loc 1 414 3 is_stmt 1 view .LVU225
 414:ThirdParty/STM32F4xx_HAL_Driver/Src/stm32f4xx_hal_adc_ex.c ****   
 742              		.loc 1 414 3 view .LVU226
 743 0052 0022     		movs	r2, #0
 744 0054 83F83C20 		strb	r2, [r3, #60]
 414:ThirdParty/STM32F4xx_HAL_Driver/Src/stm32f4xx_hal_adc_ex.c ****   
 745              		.loc 1 414 3 view .LVU227
 417:ThirdParty/STM32F4xx_HAL_Driver/Src/stm32f4xx_hal_adc_ex.c **** }
ARM GAS  /tmp/ccHJyd2u.s 			page 37


 746              		.loc 1 417 3 view .LVU228
 417:ThirdParty/STM32F4xx_HAL_Driver/Src/stm32f4xx_hal_adc_ex.c **** }
 747              		.loc 1 417 10 is_stmt 0 view .LVU229
 748 0058 7047     		bx	lr
 749              	.LVL62:
 750              	.L52:
 375:ThirdParty/STM32F4xx_HAL_Driver/Src/stm32f4xx_hal_adc_ex.c ****   
 751              		.loc 1 375 21 view .LVU230
 752 005a 0020     		movs	r0, #0
 753              	.LVL63:
 375:ThirdParty/STM32F4xx_HAL_Driver/Src/stm32f4xx_hal_adc_ex.c ****   
 754              		.loc 1 375 21 view .LVU231
 755 005c F9E7     		b	.L50
 756              	.LVL64:
 757              	.L51:
 381:ThirdParty/STM32F4xx_HAL_Driver/Src/stm32f4xx_hal_adc_ex.c ****     
 758              		.loc 1 381 3 view .LVU232
 759 005e 0220     		movs	r0, #2
 760              	.LVL65:
 418:ThirdParty/STM32F4xx_HAL_Driver/Src/stm32f4xx_hal_adc_ex.c **** 
 761              		.loc 1 418 1 view .LVU233
 762 0060 7047     		bx	lr
 763              		.cfi_endproc
 764              	.LFE135:
 766              		.section	.text.HAL_ADCEx_InjectedPollForConversion,"ax",%progbits
 767              		.align	1
 768              		.global	HAL_ADCEx_InjectedPollForConversion
 769              		.syntax unified
 770              		.thumb
 771              		.thumb_func
 773              	HAL_ADCEx_InjectedPollForConversion:
 774              	.LVL66:
 775              	.LFB136:
 428:ThirdParty/STM32F4xx_HAL_Driver/Src/stm32f4xx_hal_adc_ex.c ****   uint32_t tickstart = 0U;
 776              		.loc 1 428 1 is_stmt 1 view -0
 777              		.cfi_startproc
 778              		@ args = 0, pretend = 0, frame = 0
 779              		@ frame_needed = 0, uses_anonymous_args = 0
 428:ThirdParty/STM32F4xx_HAL_Driver/Src/stm32f4xx_hal_adc_ex.c ****   uint32_t tickstart = 0U;
 780              		.loc 1 428 1 is_stmt 0 view .LVU235
 781 0000 70B5     		push	{r4, r5, r6, lr}
 782              	.LCFI9:
 783              		.cfi_def_cfa_offset 16
 784              		.cfi_offset 4, -16
 785              		.cfi_offset 5, -12
 786              		.cfi_offset 6, -8
 787              		.cfi_offset 14, -4
 788 0002 0446     		mov	r4, r0
 789 0004 0D46     		mov	r5, r1
 429:ThirdParty/STM32F4xx_HAL_Driver/Src/stm32f4xx_hal_adc_ex.c **** 
 790              		.loc 1 429 3 is_stmt 1 view .LVU236
 791              	.LVL67:
 432:ThirdParty/STM32F4xx_HAL_Driver/Src/stm32f4xx_hal_adc_ex.c **** 
 792              		.loc 1 432 3 view .LVU237
 432:ThirdParty/STM32F4xx_HAL_Driver/Src/stm32f4xx_hal_adc_ex.c **** 
 793              		.loc 1 432 15 is_stmt 0 view .LVU238
 794 0006 FFF7FEFF 		bl	HAL_GetTick
ARM GAS  /tmp/ccHJyd2u.s 			page 38


 795              	.LVL68:
 432:ThirdParty/STM32F4xx_HAL_Driver/Src/stm32f4xx_hal_adc_ex.c **** 
 796              		.loc 1 432 15 view .LVU239
 797 000a 0646     		mov	r6, r0
 798              	.LVL69:
 435:ThirdParty/STM32F4xx_HAL_Driver/Src/stm32f4xx_hal_adc_ex.c ****   {
 799              		.loc 1 435 3 is_stmt 1 view .LVU240
 800              	.L55:
 435:ThirdParty/STM32F4xx_HAL_Driver/Src/stm32f4xx_hal_adc_ex.c ****   {
 801              		.loc 1 435 8 view .LVU241
 435:ThirdParty/STM32F4xx_HAL_Driver/Src/stm32f4xx_hal_adc_ex.c ****   {
 802              		.loc 1 435 11 is_stmt 0 view .LVU242
 803 000c 2368     		ldr	r3, [r4]
 804 000e 1A68     		ldr	r2, [r3]
 435:ThirdParty/STM32F4xx_HAL_Driver/Src/stm32f4xx_hal_adc_ex.c ****   {
 805              		.loc 1 435 8 view .LVU243
 806 0010 12F0040F 		tst	r2, #4
 807 0014 0FD1     		bne	.L67
 438:ThirdParty/STM32F4xx_HAL_Driver/Src/stm32f4xx_hal_adc_ex.c ****     {
 808              		.loc 1 438 5 is_stmt 1 view .LVU244
 438:ThirdParty/STM32F4xx_HAL_Driver/Src/stm32f4xx_hal_adc_ex.c ****     {
 809              		.loc 1 438 7 is_stmt 0 view .LVU245
 810 0016 B5F1FF3F 		cmp	r5, #-1
 811 001a F7D0     		beq	.L55
 440:ThirdParty/STM32F4xx_HAL_Driver/Src/stm32f4xx_hal_adc_ex.c ****       {
 812              		.loc 1 440 7 is_stmt 1 view .LVU246
 440:ThirdParty/STM32F4xx_HAL_Driver/Src/stm32f4xx_hal_adc_ex.c ****       {
 813              		.loc 1 440 9 is_stmt 0 view .LVU247
 814 001c 25B1     		cbz	r5, .L56
 440:ThirdParty/STM32F4xx_HAL_Driver/Src/stm32f4xx_hal_adc_ex.c ****       {
 815              		.loc 1 440 29 discriminator 1 view .LVU248
 816 001e FFF7FEFF 		bl	HAL_GetTick
 817              	.LVL70:
 440:ThirdParty/STM32F4xx_HAL_Driver/Src/stm32f4xx_hal_adc_ex.c ****       {
 818              		.loc 1 440 43 discriminator 1 view .LVU249
 819 0022 801B     		subs	r0, r0, r6
 440:ThirdParty/STM32F4xx_HAL_Driver/Src/stm32f4xx_hal_adc_ex.c ****       {
 820              		.loc 1 440 25 discriminator 1 view .LVU250
 821 0024 A842     		cmp	r0, r5
 822 0026 F1D9     		bls	.L55
 823              	.L56:
 442:ThirdParty/STM32F4xx_HAL_Driver/Src/stm32f4xx_hal_adc_ex.c ****         /* Process unlocked */
 824              		.loc 1 442 9 is_stmt 1 view .LVU251
 442:ThirdParty/STM32F4xx_HAL_Driver/Src/stm32f4xx_hal_adc_ex.c ****         /* Process unlocked */
 825              		.loc 1 442 20 is_stmt 0 view .LVU252
 826 0028 0423     		movs	r3, #4
 827 002a 2364     		str	r3, [r4, #64]
 444:ThirdParty/STM32F4xx_HAL_Driver/Src/stm32f4xx_hal_adc_ex.c ****         return HAL_TIMEOUT;
 828              		.loc 1 444 9 is_stmt 1 view .LVU253
 444:ThirdParty/STM32F4xx_HAL_Driver/Src/stm32f4xx_hal_adc_ex.c ****         return HAL_TIMEOUT;
 829              		.loc 1 444 9 view .LVU254
 830 002c 0023     		movs	r3, #0
 831 002e 84F83C30 		strb	r3, [r4, #60]
 444:ThirdParty/STM32F4xx_HAL_Driver/Src/stm32f4xx_hal_adc_ex.c ****         return HAL_TIMEOUT;
 832              		.loc 1 444 9 view .LVU255
 445:ThirdParty/STM32F4xx_HAL_Driver/Src/stm32f4xx_hal_adc_ex.c ****       }
 833              		.loc 1 445 9 view .LVU256
ARM GAS  /tmp/ccHJyd2u.s 			page 39


 445:ThirdParty/STM32F4xx_HAL_Driver/Src/stm32f4xx_hal_adc_ex.c ****       }
 834              		.loc 1 445 16 is_stmt 0 view .LVU257
 835 0032 0320     		movs	r0, #3
 836 0034 2CE0     		b	.L57
 837              	.L67:
 451:ThirdParty/STM32F4xx_HAL_Driver/Src/stm32f4xx_hal_adc_ex.c ****     
 838              		.loc 1 451 3 is_stmt 1 view .LVU258
 839 0036 6FF00C02 		mvn	r2, #12
 840 003a 1A60     		str	r2, [r3]
 454:ThirdParty/STM32F4xx_HAL_Driver/Src/stm32f4xx_hal_adc_ex.c ****   
 841              		.loc 1 454 3 view .LVU259
 842 003c 236C     		ldr	r3, [r4, #64]
 843 003e 43F40053 		orr	r3, r3, #8192
 844 0042 2364     		str	r3, [r4, #64]
 462:ThirdParty/STM32F4xx_HAL_Driver/Src/stm32f4xx_hal_adc_ex.c ****      (HAL_IS_BIT_CLR(hadc->Instance->JSQR, ADC_JSQR_JL)  ||
 845              		.loc 1 462 3 view .LVU260
 462:ThirdParty/STM32F4xx_HAL_Driver/Src/stm32f4xx_hal_adc_ex.c ****      (HAL_IS_BIT_CLR(hadc->Instance->JSQR, ADC_JSQR_JL)  ||
 846              		.loc 1 462 6 is_stmt 0 view .LVU261
 847 0044 2368     		ldr	r3, [r4]
 848 0046 9A68     		ldr	r2, [r3, #8]
 462:ThirdParty/STM32F4xx_HAL_Driver/Src/stm32f4xx_hal_adc_ex.c ****      (HAL_IS_BIT_CLR(hadc->Instance->JSQR, ADC_JSQR_JL)  ||
 849              		.loc 1 462 5 view .LVU262
 850 0048 12F4401F 		tst	r2, #3145728
 851 004c 1FD1     		bne	.L60
 463:ThirdParty/STM32F4xx_HAL_Driver/Src/stm32f4xx_hal_adc_ex.c ****       HAL_IS_BIT_CLR(hadc->Instance->CR2, ADC_CR2_EOCS)    ) &&
 852              		.loc 1 463 7 discriminator 1 view .LVU263
 853 004e 9A6B     		ldr	r2, [r3, #56]
 462:ThirdParty/STM32F4xx_HAL_Driver/Src/stm32f4xx_hal_adc_ex.c ****      (HAL_IS_BIT_CLR(hadc->Instance->JSQR, ADC_JSQR_JL)  ||
 854              		.loc 1 462 62 discriminator 1 view .LVU264
 855 0050 12F4401F 		tst	r2, #3145728
 856 0054 03D0     		beq	.L59
 464:ThirdParty/STM32F4xx_HAL_Driver/Src/stm32f4xx_hal_adc_ex.c ****      (HAL_IS_BIT_CLR(hadc->Instance->CR1, ADC_CR1_JAUTO) &&
 857              		.loc 1 464 7 view .LVU265
 858 0056 9A68     		ldr	r2, [r3, #8]
 463:ThirdParty/STM32F4xx_HAL_Driver/Src/stm32f4xx_hal_adc_ex.c ****       HAL_IS_BIT_CLR(hadc->Instance->CR2, ADC_CR2_EOCS)    ) &&
 859              		.loc 1 463 58 view .LVU266
 860 0058 12F4806F 		tst	r2, #1024
 861 005c 19D1     		bne	.L61
 862              	.L59:
 465:ThirdParty/STM32F4xx_HAL_Driver/Src/stm32f4xx_hal_adc_ex.c ****       (ADC_IS_SOFTWARE_START_REGULAR(hadc)       &&
 863              		.loc 1 465 7 view .LVU267
 864 005e 5A68     		ldr	r2, [r3, #4]
 464:ThirdParty/STM32F4xx_HAL_Driver/Src/stm32f4xx_hal_adc_ex.c ****      (HAL_IS_BIT_CLR(hadc->Instance->CR1, ADC_CR1_JAUTO) &&
 865              		.loc 1 464 62 view .LVU268
 866 0060 12F4806F 		tst	r2, #1024
 867 0064 17D1     		bne	.L62
 466:ThirdParty/STM32F4xx_HAL_Driver/Src/stm32f4xx_hal_adc_ex.c ****       (hadc->Init.ContinuousConvMode == DISABLE)   )       )   )
 868              		.loc 1 466 8 view .LVU269
 869 0066 9B68     		ldr	r3, [r3, #8]
 465:ThirdParty/STM32F4xx_HAL_Driver/Src/stm32f4xx_hal_adc_ex.c ****       (ADC_IS_SOFTWARE_START_REGULAR(hadc)       &&
 870              		.loc 1 465 58 view .LVU270
 871 0068 13F0405F 		tst	r3, #805306368
 872 006c 15D1     		bne	.L63
 467:ThirdParty/STM32F4xx_HAL_Driver/Src/stm32f4xx_hal_adc_ex.c ****   {
 873              		.loc 1 467 18 view .LVU271
 874 006e A369     		ldr	r3, [r4, #24]
 466:ThirdParty/STM32F4xx_HAL_Driver/Src/stm32f4xx_hal_adc_ex.c ****       (hadc->Init.ContinuousConvMode == DISABLE)   )       )   )
ARM GAS  /tmp/ccHJyd2u.s 			page 40


 875              		.loc 1 466 50 view .LVU272
 876 0070 ABB9     		cbnz	r3, .L64
 470:ThirdParty/STM32F4xx_HAL_Driver/Src/stm32f4xx_hal_adc_ex.c ****     
 877              		.loc 1 470 5 is_stmt 1 view .LVU273
 878 0072 236C     		ldr	r3, [r4, #64]
 879 0074 23F48053 		bic	r3, r3, #4096
 880 0078 2364     		str	r3, [r4, #64]
 472:ThirdParty/STM32F4xx_HAL_Driver/Src/stm32f4xx_hal_adc_ex.c ****     { 
 881              		.loc 1 472 5 view .LVU274
 472:ThirdParty/STM32F4xx_HAL_Driver/Src/stm32f4xx_hal_adc_ex.c ****     { 
 882              		.loc 1 472 9 is_stmt 0 view .LVU275
 883 007a 236C     		ldr	r3, [r4, #64]
 472:ThirdParty/STM32F4xx_HAL_Driver/Src/stm32f4xx_hal_adc_ex.c ****     { 
 884              		.loc 1 472 8 view .LVU276
 885 007c 13F4807F 		tst	r3, #256
 886 0080 0FD1     		bne	.L65
 474:ThirdParty/STM32F4xx_HAL_Driver/Src/stm32f4xx_hal_adc_ex.c ****     }
 887              		.loc 1 474 7 is_stmt 1 view .LVU277
 888 0082 236C     		ldr	r3, [r4, #64]
 889 0084 43F00103 		orr	r3, r3, #1
 890 0088 2364     		str	r3, [r4, #64]
 479:ThirdParty/STM32F4xx_HAL_Driver/Src/stm32f4xx_hal_adc_ex.c **** }      
 891              		.loc 1 479 10 is_stmt 0 view .LVU278
 892 008a 0020     		movs	r0, #0
 893 008c 00E0     		b	.L57
 894              	.L60:
 479:ThirdParty/STM32F4xx_HAL_Driver/Src/stm32f4xx_hal_adc_ex.c **** }      
 895              		.loc 1 479 10 view .LVU279
 896 008e 0020     		movs	r0, #0
 897              	.L57:
 480:ThirdParty/STM32F4xx_HAL_Driver/Src/stm32f4xx_hal_adc_ex.c ****   
 898              		.loc 1 480 1 view .LVU280
 899 0090 70BD     		pop	{r4, r5, r6, pc}
 900              	.LVL71:
 901              	.L61:
 479:ThirdParty/STM32F4xx_HAL_Driver/Src/stm32f4xx_hal_adc_ex.c **** }      
 902              		.loc 1 479 10 view .LVU281
 903 0092 0020     		movs	r0, #0
 904 0094 FCE7     		b	.L57
 905              	.L62:
 906 0096 0020     		movs	r0, #0
 907 0098 FAE7     		b	.L57
 908              	.L63:
 909 009a 0020     		movs	r0, #0
 910 009c F8E7     		b	.L57
 911              	.L64:
 479:ThirdParty/STM32F4xx_HAL_Driver/Src/stm32f4xx_hal_adc_ex.c **** }      
 912              		.loc 1 479 10 view .LVU282
 913 009e 0020     		movs	r0, #0
 914 00a0 F6E7     		b	.L57
 915              	.L65:
 916 00a2 0020     		movs	r0, #0
 917 00a4 F4E7     		b	.L57
 918              		.cfi_endproc
 919              	.LFE136:
 921              		.section	.text.HAL_ADCEx_InjectedStop_IT,"ax",%progbits
 922              		.align	1
ARM GAS  /tmp/ccHJyd2u.s 			page 41


 923              		.global	HAL_ADCEx_InjectedStop_IT
 924              		.syntax unified
 925              		.thumb
 926              		.thumb_func
 928              	HAL_ADCEx_InjectedStop_IT:
 929              	.LVL72:
 930              	.LFB137:
 495:ThirdParty/STM32F4xx_HAL_Driver/Src/stm32f4xx_hal_adc_ex.c ****   HAL_StatusTypeDef tmp_hal_status = HAL_OK;
 931              		.loc 1 495 1 is_stmt 1 view -0
 932              		.cfi_startproc
 933              		@ args = 0, pretend = 0, frame = 0
 934              		@ frame_needed = 0, uses_anonymous_args = 0
 935              		@ link register save eliminated.
 495:ThirdParty/STM32F4xx_HAL_Driver/Src/stm32f4xx_hal_adc_ex.c ****   HAL_StatusTypeDef tmp_hal_status = HAL_OK;
 936              		.loc 1 495 1 is_stmt 0 view .LVU284
 937 0000 0346     		mov	r3, r0
 496:ThirdParty/STM32F4xx_HAL_Driver/Src/stm32f4xx_hal_adc_ex.c ****   
 938              		.loc 1 496 3 is_stmt 1 view .LVU285
 939              	.LVL73:
 499:ThirdParty/STM32F4xx_HAL_Driver/Src/stm32f4xx_hal_adc_ex.c **** 
 940              		.loc 1 499 3 view .LVU286
 502:ThirdParty/STM32F4xx_HAL_Driver/Src/stm32f4xx_hal_adc_ex.c ****     
 941              		.loc 1 502 3 view .LVU287
 502:ThirdParty/STM32F4xx_HAL_Driver/Src/stm32f4xx_hal_adc_ex.c ****     
 942              		.loc 1 502 3 view .LVU288
 943 0002 90F83C20 		ldrb	r2, [r0, #60]	@ zero_extendqisi2
 944 0006 012A     		cmp	r2, #1
 945 0008 2DD0     		beq	.L72
 502:ThirdParty/STM32F4xx_HAL_Driver/Src/stm32f4xx_hal_adc_ex.c ****     
 946              		.loc 1 502 3 discriminator 2 view .LVU289
 947 000a 0122     		movs	r2, #1
 948 000c 80F83C20 		strb	r2, [r0, #60]
 502:ThirdParty/STM32F4xx_HAL_Driver/Src/stm32f4xx_hal_adc_ex.c ****     
 949              		.loc 1 502 3 discriminator 2 view .LVU290
 510:ThirdParty/STM32F4xx_HAL_Driver/Src/stm32f4xx_hal_adc_ex.c ****      HAL_IS_BIT_CLR(hadc->Instance->CR1, ADC_CR1_JAUTO)   )
 950              		.loc 1 510 3 discriminator 2 view .LVU291
 510:ThirdParty/STM32F4xx_HAL_Driver/Src/stm32f4xx_hal_adc_ex.c ****      HAL_IS_BIT_CLR(hadc->Instance->CR1, ADC_CR1_JAUTO)   )
 951              		.loc 1 510 12 is_stmt 0 discriminator 2 view .LVU292
 952 0010 026C     		ldr	r2, [r0, #64]
 510:ThirdParty/STM32F4xx_HAL_Driver/Src/stm32f4xx_hal_adc_ex.c ****      HAL_IS_BIT_CLR(hadc->Instance->CR1, ADC_CR1_JAUTO)   )
 953              		.loc 1 510 5 discriminator 2 view .LVU293
 954 0012 12F4807F 		tst	r2, #256
 955 0016 1BD1     		bne	.L70
 511:ThirdParty/STM32F4xx_HAL_Driver/Src/stm32f4xx_hal_adc_ex.c ****   {
 956              		.loc 1 511 6 discriminator 1 view .LVU294
 957 0018 0268     		ldr	r2, [r0]
 958 001a 5168     		ldr	r1, [r2, #4]
 510:ThirdParty/STM32F4xx_HAL_Driver/Src/stm32f4xx_hal_adc_ex.c ****      HAL_IS_BIT_CLR(hadc->Instance->CR1, ADC_CR1_JAUTO)   )
 959              		.loc 1 510 57 discriminator 1 view .LVU295
 960 001c 11F4806F 		tst	r1, #1024
 961 0020 16D1     		bne	.L70
 515:ThirdParty/STM32F4xx_HAL_Driver/Src/stm32f4xx_hal_adc_ex.c ****     
 962              		.loc 1 515 5 is_stmt 1 view .LVU296
 963 0022 9168     		ldr	r1, [r2, #8]
 964 0024 21F00101 		bic	r1, r1, #1
 965 0028 9160     		str	r1, [r2, #8]
 518:ThirdParty/STM32F4xx_HAL_Driver/Src/stm32f4xx_hal_adc_ex.c ****     {
ARM GAS  /tmp/ccHJyd2u.s 			page 42


 966              		.loc 1 518 5 view .LVU297
 518:ThirdParty/STM32F4xx_HAL_Driver/Src/stm32f4xx_hal_adc_ex.c ****     {
 967              		.loc 1 518 8 is_stmt 0 view .LVU298
 968 002a 0268     		ldr	r2, [r0]
 969 002c 9168     		ldr	r1, [r2, #8]
 518:ThirdParty/STM32F4xx_HAL_Driver/Src/stm32f4xx_hal_adc_ex.c ****     {
 970              		.loc 1 518 7 view .LVU299
 971 002e 11F0010F 		tst	r1, #1
 972 0032 16D1     		bne	.L73
 521:ThirdParty/STM32F4xx_HAL_Driver/Src/stm32f4xx_hal_adc_ex.c ****       
 973              		.loc 1 521 7 is_stmt 1 view .LVU300
 974 0034 5168     		ldr	r1, [r2, #4]
 975 0036 21F08001 		bic	r1, r1, #128
 976 003a 5160     		str	r1, [r2, #4]
 524:ThirdParty/STM32F4xx_HAL_Driver/Src/stm32f4xx_hal_adc_ex.c ****                         HAL_ADC_STATE_REG_BUSY | HAL_ADC_STATE_INJ_BUSY,
 977              		.loc 1 524 7 view .LVU301
 978 003c 026C     		ldr	r2, [r0, #64]
 979 003e 22F48852 		bic	r2, r2, #4352
 980 0042 22F00102 		bic	r2, r2, #1
 981 0046 42F00102 		orr	r2, r2, #1
 982 004a 0264     		str	r2, [r0, #64]
 496:ThirdParty/STM32F4xx_HAL_Driver/Src/stm32f4xx_hal_adc_ex.c ****   
 983              		.loc 1 496 21 is_stmt 0 view .LVU302
 984 004c 0020     		movs	r0, #0
 985              	.LVL74:
 496:ThirdParty/STM32F4xx_HAL_Driver/Src/stm32f4xx_hal_adc_ex.c ****   
 986              		.loc 1 496 21 view .LVU303
 987 004e 04E0     		b	.L71
 988              	.LVL75:
 989              	.L70:
 532:ThirdParty/STM32F4xx_HAL_Driver/Src/stm32f4xx_hal_adc_ex.c ****       
 990              		.loc 1 532 5 is_stmt 1 view .LVU304
 991 0050 1A6C     		ldr	r2, [r3, #64]
 992 0052 42F02002 		orr	r2, r2, #32
 993 0056 1A64     		str	r2, [r3, #64]
 534:ThirdParty/STM32F4xx_HAL_Driver/Src/stm32f4xx_hal_adc_ex.c ****   }
 994              		.loc 1 534 5 view .LVU305
 995              	.LVL76:
 534:ThirdParty/STM32F4xx_HAL_Driver/Src/stm32f4xx_hal_adc_ex.c ****   }
 996              		.loc 1 534 20 is_stmt 0 view .LVU306
 997 0058 0120     		movs	r0, #1
 998              	.LVL77:
 999              	.L71:
 538:ThirdParty/STM32F4xx_HAL_Driver/Src/stm32f4xx_hal_adc_ex.c ****   
 1000              		.loc 1 538 3 is_stmt 1 view .LVU307
 538:ThirdParty/STM32F4xx_HAL_Driver/Src/stm32f4xx_hal_adc_ex.c ****   
 1001              		.loc 1 538 3 view .LVU308
 1002 005a 0022     		movs	r2, #0
 1003 005c 83F83C20 		strb	r2, [r3, #60]
 538:ThirdParty/STM32F4xx_HAL_Driver/Src/stm32f4xx_hal_adc_ex.c ****   
 1004              		.loc 1 538 3 view .LVU309
 541:ThirdParty/STM32F4xx_HAL_Driver/Src/stm32f4xx_hal_adc_ex.c **** }
 1005              		.loc 1 541 3 view .LVU310
 541:ThirdParty/STM32F4xx_HAL_Driver/Src/stm32f4xx_hal_adc_ex.c **** }
 1006              		.loc 1 541 10 is_stmt 0 view .LVU311
 1007 0060 7047     		bx	lr
 1008              	.LVL78:
ARM GAS  /tmp/ccHJyd2u.s 			page 43


 1009              	.L73:
 496:ThirdParty/STM32F4xx_HAL_Driver/Src/stm32f4xx_hal_adc_ex.c ****   
 1010              		.loc 1 496 21 view .LVU312
 1011 0062 0020     		movs	r0, #0
 1012              	.LVL79:
 496:ThirdParty/STM32F4xx_HAL_Driver/Src/stm32f4xx_hal_adc_ex.c ****   
 1013              		.loc 1 496 21 view .LVU313
 1014 0064 F9E7     		b	.L71
 1015              	.LVL80:
 1016              	.L72:
 502:ThirdParty/STM32F4xx_HAL_Driver/Src/stm32f4xx_hal_adc_ex.c ****     
 1017              		.loc 1 502 3 view .LVU314
 1018 0066 0220     		movs	r0, #2
 1019              	.LVL81:
 542:ThirdParty/STM32F4xx_HAL_Driver/Src/stm32f4xx_hal_adc_ex.c **** 
 1020              		.loc 1 542 1 view .LVU315
 1021 0068 7047     		bx	lr
 1022              		.cfi_endproc
 1023              	.LFE137:
 1025              		.section	.text.HAL_ADCEx_InjectedGetValue,"ax",%progbits
 1026              		.align	1
 1027              		.global	HAL_ADCEx_InjectedGetValue
 1028              		.syntax unified
 1029              		.thumb
 1030              		.thumb_func
 1032              	HAL_ADCEx_InjectedGetValue:
 1033              	.LVL82:
 1034              	.LFB138:
 557:ThirdParty/STM32F4xx_HAL_Driver/Src/stm32f4xx_hal_adc_ex.c ****   __IO uint32_t tmp = 0U;
 1035              		.loc 1 557 1 is_stmt 1 view -0
 1036              		.cfi_startproc
 1037              		@ args = 0, pretend = 0, frame = 8
 1038              		@ frame_needed = 0, uses_anonymous_args = 0
 1039              		@ link register save eliminated.
 557:ThirdParty/STM32F4xx_HAL_Driver/Src/stm32f4xx_hal_adc_ex.c ****   __IO uint32_t tmp = 0U;
 1040              		.loc 1 557 1 is_stmt 0 view .LVU317
 1041 0000 82B0     		sub	sp, sp, #8
 1042              	.LCFI10:
 1043              		.cfi_def_cfa_offset 8
 558:ThirdParty/STM32F4xx_HAL_Driver/Src/stm32f4xx_hal_adc_ex.c ****   
 1044              		.loc 1 558 3 is_stmt 1 view .LVU318
 558:ThirdParty/STM32F4xx_HAL_Driver/Src/stm32f4xx_hal_adc_ex.c ****   
 1045              		.loc 1 558 17 is_stmt 0 view .LVU319
 1046 0002 0023     		movs	r3, #0
 1047 0004 0193     		str	r3, [sp, #4]
 561:ThirdParty/STM32F4xx_HAL_Driver/Src/stm32f4xx_hal_adc_ex.c ****   
 1048              		.loc 1 561 3 is_stmt 1 view .LVU320
 565:ThirdParty/STM32F4xx_HAL_Driver/Src/stm32f4xx_hal_adc_ex.c ****   
 1049              		.loc 1 565 3 view .LVU321
 1050 0006 0368     		ldr	r3, [r0]
 1051 0008 6FF00402 		mvn	r2, #4
 1052 000c 1A60     		str	r2, [r3]
 568:ThirdParty/STM32F4xx_HAL_Driver/Src/stm32f4xx_hal_adc_ex.c ****   {  
 1053              		.loc 1 568 3 view .LVU322
 1054 000e 0139     		subs	r1, r1, #1
 1055              	.LVL83:
 568:ThirdParty/STM32F4xx_HAL_Driver/Src/stm32f4xx_hal_adc_ex.c ****   {  
ARM GAS  /tmp/ccHJyd2u.s 			page 44


 1056              		.loc 1 568 3 is_stmt 0 view .LVU323
 1057 0010 0329     		cmp	r1, #3
 1058 0012 06D8     		bhi	.L75
 1059 0014 DFE801F0 		tbb	[pc, r1]
 1060              	.L77:
 1061 0018 10       		.byte	(.L80-.L77)/2
 1062 0019 0C       		.byte	(.L79-.L77)/2
 1063 001a 08       		.byte	(.L78-.L77)/2
 1064 001b 02       		.byte	(.L76-.L77)/2
 1065              		.p2align 1
 1066              	.L76:
 572:ThirdParty/STM32F4xx_HAL_Driver/Src/stm32f4xx_hal_adc_ex.c ****     }  
 1067              		.loc 1 572 7 is_stmt 1 view .LVU324
 572:ThirdParty/STM32F4xx_HAL_Driver/Src/stm32f4xx_hal_adc_ex.c ****     }  
 1068              		.loc 1 572 18 is_stmt 0 view .LVU325
 1069 001c 0368     		ldr	r3, [r0]
 572:ThirdParty/STM32F4xx_HAL_Driver/Src/stm32f4xx_hal_adc_ex.c ****     }  
 1070              		.loc 1 572 28 view .LVU326
 1071 001e 9B6C     		ldr	r3, [r3, #72]
 572:ThirdParty/STM32F4xx_HAL_Driver/Src/stm32f4xx_hal_adc_ex.c ****     }  
 1072              		.loc 1 572 11 view .LVU327
 1073 0020 0193     		str	r3, [sp, #4]
 574:ThirdParty/STM32F4xx_HAL_Driver/Src/stm32f4xx_hal_adc_ex.c ****     case ADC_INJECTED_RANK_3: 
 1074              		.loc 1 574 5 is_stmt 1 view .LVU328
 1075              	.L75:
 593:ThirdParty/STM32F4xx_HAL_Driver/Src/stm32f4xx_hal_adc_ex.c **** }
 1076              		.loc 1 593 3 view .LVU329
 593:ThirdParty/STM32F4xx_HAL_Driver/Src/stm32f4xx_hal_adc_ex.c **** }
 1077              		.loc 1 593 10 is_stmt 0 view .LVU330
 1078 0022 0198     		ldr	r0, [sp, #4]
 1079              	.LVL84:
 594:ThirdParty/STM32F4xx_HAL_Driver/Src/stm32f4xx_hal_adc_ex.c **** 
 1080              		.loc 1 594 1 view .LVU331
 1081 0024 02B0     		add	sp, sp, #8
 1082              	.LCFI11:
 1083              		.cfi_remember_state
 1084              		.cfi_def_cfa_offset 0
 1085              		@ sp needed
 1086 0026 7047     		bx	lr
 1087              	.LVL85:
 1088              	.L78:
 1089              	.LCFI12:
 1090              		.cfi_restore_state
 577:ThirdParty/STM32F4xx_HAL_Driver/Src/stm32f4xx_hal_adc_ex.c ****     }  
 1091              		.loc 1 577 7 is_stmt 1 view .LVU332
 577:ThirdParty/STM32F4xx_HAL_Driver/Src/stm32f4xx_hal_adc_ex.c ****     }  
 1092              		.loc 1 577 18 is_stmt 0 view .LVU333
 1093 0028 0368     		ldr	r3, [r0]
 577:ThirdParty/STM32F4xx_HAL_Driver/Src/stm32f4xx_hal_adc_ex.c ****     }  
 1094              		.loc 1 577 28 view .LVU334
 1095 002a 5B6C     		ldr	r3, [r3, #68]
 577:ThirdParty/STM32F4xx_HAL_Driver/Src/stm32f4xx_hal_adc_ex.c ****     }  
 1096              		.loc 1 577 11 view .LVU335
 1097 002c 0193     		str	r3, [sp, #4]
 579:ThirdParty/STM32F4xx_HAL_Driver/Src/stm32f4xx_hal_adc_ex.c ****     case ADC_INJECTED_RANK_2: 
 1098              		.loc 1 579 5 is_stmt 1 view .LVU336
 1099 002e F8E7     		b	.L75
ARM GAS  /tmp/ccHJyd2u.s 			page 45


 1100              	.L79:
 582:ThirdParty/STM32F4xx_HAL_Driver/Src/stm32f4xx_hal_adc_ex.c ****     }
 1101              		.loc 1 582 7 view .LVU337
 582:ThirdParty/STM32F4xx_HAL_Driver/Src/stm32f4xx_hal_adc_ex.c ****     }
 1102              		.loc 1 582 18 is_stmt 0 view .LVU338
 1103 0030 0368     		ldr	r3, [r0]
 582:ThirdParty/STM32F4xx_HAL_Driver/Src/stm32f4xx_hal_adc_ex.c ****     }
 1104              		.loc 1 582 28 view .LVU339
 1105 0032 1B6C     		ldr	r3, [r3, #64]
 582:ThirdParty/STM32F4xx_HAL_Driver/Src/stm32f4xx_hal_adc_ex.c ****     }
 1106              		.loc 1 582 11 view .LVU340
 1107 0034 0193     		str	r3, [sp, #4]
 584:ThirdParty/STM32F4xx_HAL_Driver/Src/stm32f4xx_hal_adc_ex.c ****     case ADC_INJECTED_RANK_1:
 1108              		.loc 1 584 5 is_stmt 1 view .LVU341
 1109 0036 F4E7     		b	.L75
 1110              	.L80:
 587:ThirdParty/STM32F4xx_HAL_Driver/Src/stm32f4xx_hal_adc_ex.c ****     }
 1111              		.loc 1 587 7 view .LVU342
 587:ThirdParty/STM32F4xx_HAL_Driver/Src/stm32f4xx_hal_adc_ex.c ****     }
 1112              		.loc 1 587 18 is_stmt 0 view .LVU343
 1113 0038 0368     		ldr	r3, [r0]
 587:ThirdParty/STM32F4xx_HAL_Driver/Src/stm32f4xx_hal_adc_ex.c ****     }
 1114              		.loc 1 587 28 view .LVU344
 1115 003a DB6B     		ldr	r3, [r3, #60]
 587:ThirdParty/STM32F4xx_HAL_Driver/Src/stm32f4xx_hal_adc_ex.c ****     }
 1116              		.loc 1 587 11 view .LVU345
 1117 003c 0193     		str	r3, [sp, #4]
 589:ThirdParty/STM32F4xx_HAL_Driver/Src/stm32f4xx_hal_adc_ex.c ****     default:
 1118              		.loc 1 589 5 is_stmt 1 view .LVU346
 1119 003e F0E7     		b	.L75
 1120              		.cfi_endproc
 1121              	.LFE138:
 1123              		.section	.text.HAL_ADCEx_MultiModeStart_DMA,"ax",%progbits
 1124              		.align	1
 1125              		.global	HAL_ADCEx_MultiModeStart_DMA
 1126              		.syntax unified
 1127              		.thumb
 1128              		.thumb_func
 1130              	HAL_ADCEx_MultiModeStart_DMA:
 1131              	.LVL86:
 1132              	.LFB139:
 608:ThirdParty/STM32F4xx_HAL_Driver/Src/stm32f4xx_hal_adc_ex.c ****   __IO uint32_t counter = 0U;
 1133              		.loc 1 608 1 view -0
 1134              		.cfi_startproc
 1135              		@ args = 0, pretend = 0, frame = 8
 1136              		@ frame_needed = 0, uses_anonymous_args = 0
 608:ThirdParty/STM32F4xx_HAL_Driver/Src/stm32f4xx_hal_adc_ex.c ****   __IO uint32_t counter = 0U;
 1137              		.loc 1 608 1 is_stmt 0 view .LVU348
 1138 0000 30B5     		push	{r4, r5, lr}
 1139              	.LCFI13:
 1140              		.cfi_def_cfa_offset 12
 1141              		.cfi_offset 4, -12
 1142              		.cfi_offset 5, -8
 1143              		.cfi_offset 14, -4
 1144 0002 83B0     		sub	sp, sp, #12
 1145              	.LCFI14:
 1146              		.cfi_def_cfa_offset 24
ARM GAS  /tmp/ccHJyd2u.s 			page 46


 1147 0004 1346     		mov	r3, r2
 609:ThirdParty/STM32F4xx_HAL_Driver/Src/stm32f4xx_hal_adc_ex.c ****   ADC_Common_TypeDef *tmpADC_Common;
 1148              		.loc 1 609 3 is_stmt 1 view .LVU349
 609:ThirdParty/STM32F4xx_HAL_Driver/Src/stm32f4xx_hal_adc_ex.c ****   ADC_Common_TypeDef *tmpADC_Common;
 1149              		.loc 1 609 17 is_stmt 0 view .LVU350
 1150 0006 0022     		movs	r2, #0
 1151              	.LVL87:
 609:ThirdParty/STM32F4xx_HAL_Driver/Src/stm32f4xx_hal_adc_ex.c ****   ADC_Common_TypeDef *tmpADC_Common;
 1152              		.loc 1 609 17 view .LVU351
 1153 0008 0192     		str	r2, [sp, #4]
 610:ThirdParty/STM32F4xx_HAL_Driver/Src/stm32f4xx_hal_adc_ex.c ****   
 1154              		.loc 1 610 3 is_stmt 1 view .LVU352
 613:ThirdParty/STM32F4xx_HAL_Driver/Src/stm32f4xx_hal_adc_ex.c ****   assert_param(IS_ADC_EXT_TRIG_EDGE(hadc->Init.ExternalTrigConvEdge));
 1155              		.loc 1 613 3 view .LVU353
 614:ThirdParty/STM32F4xx_HAL_Driver/Src/stm32f4xx_hal_adc_ex.c ****   assert_param(IS_FUNCTIONAL_STATE(hadc->Init.DMAContinuousRequests));
 1156              		.loc 1 614 3 view .LVU354
 615:ThirdParty/STM32F4xx_HAL_Driver/Src/stm32f4xx_hal_adc_ex.c ****   
 1157              		.loc 1 615 3 view .LVU355
 618:ThirdParty/STM32F4xx_HAL_Driver/Src/stm32f4xx_hal_adc_ex.c ****   
 1158              		.loc 1 618 3 view .LVU356
 618:ThirdParty/STM32F4xx_HAL_Driver/Src/stm32f4xx_hal_adc_ex.c ****   
 1159              		.loc 1 618 3 view .LVU357
 1160 000a 90F83C20 		ldrb	r2, [r0, #60]	@ zero_extendqisi2
 1161 000e 012A     		cmp	r2, #1
 1162 0010 70D0     		beq	.L92
 1163 0012 0546     		mov	r5, r0
 618:ThirdParty/STM32F4xx_HAL_Driver/Src/stm32f4xx_hal_adc_ex.c ****   
 1164              		.loc 1 618 3 discriminator 2 view .LVU358
 1165 0014 0122     		movs	r2, #1
 1166 0016 80F83C20 		strb	r2, [r0, #60]
 618:ThirdParty/STM32F4xx_HAL_Driver/Src/stm32f4xx_hal_adc_ex.c ****   
 1167              		.loc 1 618 3 discriminator 2 view .LVU359
 622:ThirdParty/STM32F4xx_HAL_Driver/Src/stm32f4xx_hal_adc_ex.c ****   {  
 1168              		.loc 1 622 3 discriminator 2 view .LVU360
 622:ThirdParty/STM32F4xx_HAL_Driver/Src/stm32f4xx_hal_adc_ex.c ****   {  
 1169              		.loc 1 622 11 is_stmt 0 discriminator 2 view .LVU361
 1170 001a 0268     		ldr	r2, [r0]
 622:ThirdParty/STM32F4xx_HAL_Driver/Src/stm32f4xx_hal_adc_ex.c ****   {  
 1171              		.loc 1 622 21 discriminator 2 view .LVU362
 1172 001c 9068     		ldr	r0, [r2, #8]
 1173              	.LVL88:
 622:ThirdParty/STM32F4xx_HAL_Driver/Src/stm32f4xx_hal_adc_ex.c ****   {  
 1174              		.loc 1 622 5 discriminator 2 view .LVU363
 1175 001e 10F0010F 		tst	r0, #1
 1176 0022 13D1     		bne	.L84
 625:ThirdParty/STM32F4xx_HAL_Driver/Src/stm32f4xx_hal_adc_ex.c ****     
 1177              		.loc 1 625 5 is_stmt 1 view .LVU364
 1178 0024 9068     		ldr	r0, [r2, #8]
 1179 0026 40F00100 		orr	r0, r0, #1
 1180 002a 9060     		str	r0, [r2, #8]
 629:ThirdParty/STM32F4xx_HAL_Driver/Src/stm32f4xx_hal_adc_ex.c ****     while(counter != 0U)
 1181              		.loc 1 629 5 view .LVU365
 629:ThirdParty/STM32F4xx_HAL_Driver/Src/stm32f4xx_hal_adc_ex.c ****     while(counter != 0U)
 1182              		.loc 1 629 53 is_stmt 0 view .LVU366
 1183 002c 354A     		ldr	r2, .L96
 1184 002e 1068     		ldr	r0, [r2]
 1185 0030 354A     		ldr	r2, .L96+4
ARM GAS  /tmp/ccHJyd2u.s 			page 47


 1186 0032 A2FB0020 		umull	r2, r0, r2, r0
 1187 0036 800C     		lsrs	r0, r0, #18
 629:ThirdParty/STM32F4xx_HAL_Driver/Src/stm32f4xx_hal_adc_ex.c ****     while(counter != 0U)
 1188              		.loc 1 629 34 view .LVU367
 1189 0038 00EB4000 		add	r0, r0, r0, lsl #1
 629:ThirdParty/STM32F4xx_HAL_Driver/Src/stm32f4xx_hal_adc_ex.c ****     while(counter != 0U)
 1190              		.loc 1 629 13 view .LVU368
 1191 003c 0190     		str	r0, [sp, #4]
 630:ThirdParty/STM32F4xx_HAL_Driver/Src/stm32f4xx_hal_adc_ex.c ****     {
 1192              		.loc 1 630 5 is_stmt 1 view .LVU369
 630:ThirdParty/STM32F4xx_HAL_Driver/Src/stm32f4xx_hal_adc_ex.c ****     {
 1193              		.loc 1 630 10 is_stmt 0 view .LVU370
 1194 003e 02E0     		b	.L85
 1195              	.L86:
 632:ThirdParty/STM32F4xx_HAL_Driver/Src/stm32f4xx_hal_adc_ex.c ****     }
 1196              		.loc 1 632 7 is_stmt 1 view .LVU371
 632:ThirdParty/STM32F4xx_HAL_Driver/Src/stm32f4xx_hal_adc_ex.c ****     }
 1197              		.loc 1 632 14 is_stmt 0 view .LVU372
 1198 0040 019C     		ldr	r4, [sp, #4]
 1199 0042 013C     		subs	r4, r4, #1
 1200 0044 0194     		str	r4, [sp, #4]
 1201              	.L85:
 630:ThirdParty/STM32F4xx_HAL_Driver/Src/stm32f4xx_hal_adc_ex.c ****     {
 1202              		.loc 1 630 10 is_stmt 1 view .LVU373
 630:ThirdParty/STM32F4xx_HAL_Driver/Src/stm32f4xx_hal_adc_ex.c ****     {
 1203              		.loc 1 630 19 is_stmt 0 view .LVU374
 1204 0046 0198     		ldr	r0, [sp, #4]
 630:ThirdParty/STM32F4xx_HAL_Driver/Src/stm32f4xx_hal_adc_ex.c ****     {
 1205              		.loc 1 630 10 view .LVU375
 1206 0048 0028     		cmp	r0, #0
 1207 004a F9D1     		bne	.L86
 1208              	.L84:
 637:ThirdParty/STM32F4xx_HAL_Driver/Src/stm32f4xx_hal_adc_ex.c ****   {
 1209              		.loc 1 637 3 is_stmt 1 view .LVU376
 637:ThirdParty/STM32F4xx_HAL_Driver/Src/stm32f4xx_hal_adc_ex.c ****   {
 1210              		.loc 1 637 6 is_stmt 0 view .LVU377
 1211 004c 2A68     		ldr	r2, [r5]
 1212 004e 9068     		ldr	r0, [r2, #8]
 637:ThirdParty/STM32F4xx_HAL_Driver/Src/stm32f4xx_hal_adc_ex.c ****   {
 1213              		.loc 1 637 5 view .LVU378
 1214 0050 10F0010F 		tst	r0, #1
 1215 0054 50D0     		beq	.L93
 642:ThirdParty/STM32F4xx_HAL_Driver/Src/stm32f4xx_hal_adc_ex.c ****                       HAL_ADC_STATE_READY | HAL_ADC_STATE_REG_EOC | HAL_ADC_STATE_REG_OVR,
 1216              		.loc 1 642 5 is_stmt 1 view .LVU379
 1217 0056 286C     		ldr	r0, [r5, #64]
 1218 0058 20F4E060 		bic	r0, r0, #1792
 1219 005c 20F00100 		bic	r0, r0, #1
 1220 0060 40F48070 		orr	r0, r0, #256
 1221 0064 2864     		str	r0, [r5, #64]
 648:ThirdParty/STM32F4xx_HAL_Driver/Src/stm32f4xx_hal_adc_ex.c ****     {
 1222              		.loc 1 648 5 view .LVU380
 648:ThirdParty/STM32F4xx_HAL_Driver/Src/stm32f4xx_hal_adc_ex.c ****     {
 1223              		.loc 1 648 9 is_stmt 0 view .LVU381
 1224 0066 5268     		ldr	r2, [r2, #4]
 648:ThirdParty/STM32F4xx_HAL_Driver/Src/stm32f4xx_hal_adc_ex.c ****     {
 1225              		.loc 1 648 8 view .LVU382
 1226 0068 12F4806F 		tst	r2, #1024
ARM GAS  /tmp/ccHJyd2u.s 			page 48


 1227 006c 05D0     		beq	.L87
 650:ThirdParty/STM32F4xx_HAL_Driver/Src/stm32f4xx_hal_adc_ex.c ****     }
 1228              		.loc 1 650 7 is_stmt 1 view .LVU383
 1229 006e 2A6C     		ldr	r2, [r5, #64]
 1230 0070 22F44052 		bic	r2, r2, #12288
 1231 0074 42F48052 		orr	r2, r2, #4096
 1232 0078 2A64     		str	r2, [r5, #64]
 1233              	.L87:
 654:ThirdParty/STM32F4xx_HAL_Driver/Src/stm32f4xx_hal_adc_ex.c ****     {
 1234              		.loc 1 654 5 view .LVU384
 654:ThirdParty/STM32F4xx_HAL_Driver/Src/stm32f4xx_hal_adc_ex.c ****     {
 1235              		.loc 1 654 9 is_stmt 0 view .LVU385
 1236 007a 2A6C     		ldr	r2, [r5, #64]
 654:ThirdParty/STM32F4xx_HAL_Driver/Src/stm32f4xx_hal_adc_ex.c ****     {
 1237              		.loc 1 654 8 view .LVU386
 1238 007c 12F4805F 		tst	r2, #4096
 1239 0080 2FD0     		beq	.L88
 657:ThirdParty/STM32F4xx_HAL_Driver/Src/stm32f4xx_hal_adc_ex.c ****     }
 1240              		.loc 1 657 7 is_stmt 1 view .LVU387
 1241 0082 6A6C     		ldr	r2, [r5, #68]
 1242 0084 22F00602 		bic	r2, r2, #6
 1243 0088 6A64     		str	r2, [r5, #68]
 1244              	.L89:
 668:ThirdParty/STM32F4xx_HAL_Driver/Src/stm32f4xx_hal_adc_ex.c ****     
 1245              		.loc 1 668 5 view .LVU388
 668:ThirdParty/STM32F4xx_HAL_Driver/Src/stm32f4xx_hal_adc_ex.c ****     
 1246              		.loc 1 668 5 view .LVU389
 1247 008a 0022     		movs	r2, #0
 1248 008c 85F83C20 		strb	r2, [r5, #60]
 668:ThirdParty/STM32F4xx_HAL_Driver/Src/stm32f4xx_hal_adc_ex.c ****     
 1249              		.loc 1 668 5 view .LVU390
 671:ThirdParty/STM32F4xx_HAL_Driver/Src/stm32f4xx_hal_adc_ex.c ****     
 1250              		.loc 1 671 5 view .LVU391
 671:ThirdParty/STM32F4xx_HAL_Driver/Src/stm32f4xx_hal_adc_ex.c ****     
 1251              		.loc 1 671 9 is_stmt 0 view .LVU392
 1252 0090 AA6B     		ldr	r2, [r5, #56]
 671:ThirdParty/STM32F4xx_HAL_Driver/Src/stm32f4xx_hal_adc_ex.c ****     
 1253              		.loc 1 671 40 view .LVU393
 1254 0092 1E48     		ldr	r0, .L96+8
 1255 0094 D063     		str	r0, [r2, #60]
 674:ThirdParty/STM32F4xx_HAL_Driver/Src/stm32f4xx_hal_adc_ex.c ****     
 1256              		.loc 1 674 5 is_stmt 1 view .LVU394
 674:ThirdParty/STM32F4xx_HAL_Driver/Src/stm32f4xx_hal_adc_ex.c ****     
 1257              		.loc 1 674 9 is_stmt 0 view .LVU395
 1258 0096 AA6B     		ldr	r2, [r5, #56]
 674:ThirdParty/STM32F4xx_HAL_Driver/Src/stm32f4xx_hal_adc_ex.c ****     
 1259              		.loc 1 674 44 view .LVU396
 1260 0098 1D48     		ldr	r0, .L96+12
 1261 009a 1064     		str	r0, [r2, #64]
 677:ThirdParty/STM32F4xx_HAL_Driver/Src/stm32f4xx_hal_adc_ex.c ****     
 1262              		.loc 1 677 5 is_stmt 1 view .LVU397
 677:ThirdParty/STM32F4xx_HAL_Driver/Src/stm32f4xx_hal_adc_ex.c ****     
 1263              		.loc 1 677 9 is_stmt 0 view .LVU398
 1264 009c AA6B     		ldr	r2, [r5, #56]
 677:ThirdParty/STM32F4xx_HAL_Driver/Src/stm32f4xx_hal_adc_ex.c ****     
 1265              		.loc 1 677 41 view .LVU399
 1266 009e 1D48     		ldr	r0, .L96+16
ARM GAS  /tmp/ccHJyd2u.s 			page 49


 1267 00a0 D064     		str	r0, [r2, #76]
 684:ThirdParty/STM32F4xx_HAL_Driver/Src/stm32f4xx_hal_adc_ex.c **** 
 1268              		.loc 1 684 5 is_stmt 1 view .LVU400
 1269 00a2 2A68     		ldr	r2, [r5]
 1270 00a4 6FF00200 		mvn	r0, #2
 1271 00a8 1060     		str	r0, [r2]
 687:ThirdParty/STM32F4xx_HAL_Driver/Src/stm32f4xx_hal_adc_ex.c **** 
 1272              		.loc 1 687 5 view .LVU401
 1273 00aa 2868     		ldr	r0, [r5]
 1274 00ac 4268     		ldr	r2, [r0, #4]
 1275 00ae 42F08062 		orr	r2, r2, #67108864
 1276 00b2 4260     		str	r2, [r0, #4]
 692:ThirdParty/STM32F4xx_HAL_Driver/Src/stm32f4xx_hal_adc_ex.c **** 
 1277              		.loc 1 692 5 view .LVU402
 1278              	.LVL89:
 694:ThirdParty/STM32F4xx_HAL_Driver/Src/stm32f4xx_hal_adc_ex.c ****     {
 1279              		.loc 1 694 5 view .LVU403
 694:ThirdParty/STM32F4xx_HAL_Driver/Src/stm32f4xx_hal_adc_ex.c ****     {
 1280              		.loc 1 694 19 is_stmt 0 view .LVU404
 1281 00b4 2A6B     		ldr	r2, [r5, #48]
 694:ThirdParty/STM32F4xx_HAL_Driver/Src/stm32f4xx_hal_adc_ex.c ****     {
 1282              		.loc 1 694 8 view .LVU405
 1283 00b6 BAB1     		cbz	r2, .L90
 697:ThirdParty/STM32F4xx_HAL_Driver/Src/stm32f4xx_hal_adc_ex.c ****     }
 1284              		.loc 1 697 7 is_stmt 1 view .LVU406
 697:ThirdParty/STM32F4xx_HAL_Driver/Src/stm32f4xx_hal_adc_ex.c ****     }
 1285              		.loc 1 697 26 is_stmt 0 view .LVU407
 1286 00b8 1748     		ldr	r0, .L96+20
 1287 00ba 4268     		ldr	r2, [r0, #4]
 1288 00bc 42F40052 		orr	r2, r2, #8192
 1289 00c0 4260     		str	r2, [r0, #4]
 1290              	.L91:
 706:ThirdParty/STM32F4xx_HAL_Driver/Src/stm32f4xx_hal_adc_ex.c ****     
 1291              		.loc 1 706 5 is_stmt 1 view .LVU408
 1292 00c2 0A46     		mov	r2, r1
 1293 00c4 1549     		ldr	r1, .L96+24
 1294              	.LVL90:
 706:ThirdParty/STM32F4xx_HAL_Driver/Src/stm32f4xx_hal_adc_ex.c ****     
 1295              		.loc 1 706 5 is_stmt 0 view .LVU409
 1296 00c6 A86B     		ldr	r0, [r5, #56]
 1297 00c8 FFF7FEFF 		bl	HAL_DMA_Start_IT
 1298              	.LVL91:
 709:ThirdParty/STM32F4xx_HAL_Driver/Src/stm32f4xx_hal_adc_ex.c ****     {
 1299              		.loc 1 709 5 is_stmt 1 view .LVU410
 709:ThirdParty/STM32F4xx_HAL_Driver/Src/stm32f4xx_hal_adc_ex.c ****     {
 1300              		.loc 1 709 13 is_stmt 0 view .LVU411
 1301 00cc 2B68     		ldr	r3, [r5]
 709:ThirdParty/STM32F4xx_HAL_Driver/Src/stm32f4xx_hal_adc_ex.c ****     {
 1302              		.loc 1 709 23 view .LVU412
 1303 00ce 9A68     		ldr	r2, [r3, #8]
 709:ThirdParty/STM32F4xx_HAL_Driver/Src/stm32f4xx_hal_adc_ex.c ****     {
 1304              		.loc 1 709 7 view .LVU413
 1305 00d0 12F0405F 		tst	r2, #805306368
 1306 00d4 13D1     		bne	.L94
 712:ThirdParty/STM32F4xx_HAL_Driver/Src/stm32f4xx_hal_adc_ex.c ****     }
 1307              		.loc 1 712 7 is_stmt 1 view .LVU414
 712:ThirdParty/STM32F4xx_HAL_Driver/Src/stm32f4xx_hal_adc_ex.c ****     }
ARM GAS  /tmp/ccHJyd2u.s 			page 50


 1308              		.loc 1 712 27 is_stmt 0 view .LVU415
 1309 00d6 9A68     		ldr	r2, [r3, #8]
 1310 00d8 42F08042 		orr	r2, r2, #1073741824
 1311 00dc 9A60     		str	r2, [r3, #8]
 717:ThirdParty/STM32F4xx_HAL_Driver/Src/stm32f4xx_hal_adc_ex.c **** }
 1312              		.loc 1 717 10 view .LVU416
 1313 00de 0020     		movs	r0, #0
 1314 00e0 0BE0     		b	.L83
 1315              	.LVL92:
 1316              	.L88:
 662:ThirdParty/STM32F4xx_HAL_Driver/Src/stm32f4xx_hal_adc_ex.c ****     }
 1317              		.loc 1 662 7 is_stmt 1 view .LVU417
 1318 00e2 0022     		movs	r2, #0
 1319 00e4 6A64     		str	r2, [r5, #68]
 1320 00e6 D0E7     		b	.L89
 1321              	.LVL93:
 1322              	.L90:
 702:ThirdParty/STM32F4xx_HAL_Driver/Src/stm32f4xx_hal_adc_ex.c ****     }
 1323              		.loc 1 702 7 view .LVU418
 702:ThirdParty/STM32F4xx_HAL_Driver/Src/stm32f4xx_hal_adc_ex.c ****     }
 1324              		.loc 1 702 26 is_stmt 0 view .LVU419
 1325 00e8 0B48     		ldr	r0, .L96+20
 1326 00ea 4268     		ldr	r2, [r0, #4]
 1327 00ec 22F40052 		bic	r2, r2, #8192
 1328 00f0 4260     		str	r2, [r0, #4]
 1329 00f2 E6E7     		b	.L91
 1330              	.LVL94:
 1331              	.L92:
 618:ThirdParty/STM32F4xx_HAL_Driver/Src/stm32f4xx_hal_adc_ex.c ****   
 1332              		.loc 1 618 3 view .LVU420
 1333 00f4 0220     		movs	r0, #2
 1334              	.LVL95:
 618:ThirdParty/STM32F4xx_HAL_Driver/Src/stm32f4xx_hal_adc_ex.c ****   
 1335              		.loc 1 618 3 view .LVU421
 1336 00f6 00E0     		b	.L83
 1337              	.LVL96:
 1338              	.L93:
 717:ThirdParty/STM32F4xx_HAL_Driver/Src/stm32f4xx_hal_adc_ex.c **** }
 1339              		.loc 1 717 10 view .LVU422
 1340 00f8 0020     		movs	r0, #0
 1341              	.LVL97:
 1342              	.L83:
 718:ThirdParty/STM32F4xx_HAL_Driver/Src/stm32f4xx_hal_adc_ex.c **** 
 1343              		.loc 1 718 1 view .LVU423
 1344 00fa 03B0     		add	sp, sp, #12
 1345              	.LCFI15:
 1346              		.cfi_remember_state
 1347              		.cfi_def_cfa_offset 12
 1348              		@ sp needed
 1349 00fc 30BD     		pop	{r4, r5, pc}
 1350              	.LVL98:
 1351              	.L94:
 1352              	.LCFI16:
 1353              		.cfi_restore_state
 717:ThirdParty/STM32F4xx_HAL_Driver/Src/stm32f4xx_hal_adc_ex.c **** }
 1354              		.loc 1 717 10 view .LVU424
 1355 00fe 0020     		movs	r0, #0
ARM GAS  /tmp/ccHJyd2u.s 			page 51


 1356 0100 FBE7     		b	.L83
 1357              	.L97:
 1358 0102 00BF     		.align	2
 1359              	.L96:
 1360 0104 00000000 		.word	SystemCoreClock
 1361 0108 83DE1B43 		.word	1125899907
 1362 010c 00000000 		.word	ADC_MultiModeDMAConvCplt
 1363 0110 00000000 		.word	ADC_MultiModeDMAHalfConvCplt
 1364 0114 00000000 		.word	ADC_MultiModeDMAError
 1365 0118 00230140 		.word	1073816320
 1366 011c 08230140 		.word	1073816328
 1367              		.cfi_endproc
 1368              	.LFE139:
 1370              		.section	.text.HAL_ADCEx_MultiModeStop_DMA,"ax",%progbits
 1371              		.align	1
 1372              		.global	HAL_ADCEx_MultiModeStop_DMA
 1373              		.syntax unified
 1374              		.thumb
 1375              		.thumb_func
 1377              	HAL_ADCEx_MultiModeStop_DMA:
 1378              	.LVL99:
 1379              	.LFB140:
 727:ThirdParty/STM32F4xx_HAL_Driver/Src/stm32f4xx_hal_adc_ex.c ****   HAL_StatusTypeDef tmp_hal_status = HAL_OK;
 1380              		.loc 1 727 1 is_stmt 1 view -0
 1381              		.cfi_startproc
 1382              		@ args = 0, pretend = 0, frame = 0
 1383              		@ frame_needed = 0, uses_anonymous_args = 0
 728:ThirdParty/STM32F4xx_HAL_Driver/Src/stm32f4xx_hal_adc_ex.c ****   ADC_Common_TypeDef *tmpADC_Common;
 1384              		.loc 1 728 3 view .LVU426
 729:ThirdParty/STM32F4xx_HAL_Driver/Src/stm32f4xx_hal_adc_ex.c ****   
 1385              		.loc 1 729 3 view .LVU427
 732:ThirdParty/STM32F4xx_HAL_Driver/Src/stm32f4xx_hal_adc_ex.c ****   
 1386              		.loc 1 732 3 view .LVU428
 735:ThirdParty/STM32F4xx_HAL_Driver/Src/stm32f4xx_hal_adc_ex.c ****   
 1387              		.loc 1 735 3 view .LVU429
 735:ThirdParty/STM32F4xx_HAL_Driver/Src/stm32f4xx_hal_adc_ex.c ****   
 1388              		.loc 1 735 3 view .LVU430
 1389 0000 90F83C30 		ldrb	r3, [r0, #60]	@ zero_extendqisi2
 1390 0004 012B     		cmp	r3, #1
 1391 0006 29D0     		beq	.L101
 727:ThirdParty/STM32F4xx_HAL_Driver/Src/stm32f4xx_hal_adc_ex.c ****   HAL_StatusTypeDef tmp_hal_status = HAL_OK;
 1392              		.loc 1 727 1 is_stmt 0 discriminator 2 view .LVU431
 1393 0008 10B5     		push	{r4, lr}
 1394              	.LCFI17:
 1395              		.cfi_def_cfa_offset 8
 1396              		.cfi_offset 4, -8
 1397              		.cfi_offset 14, -4
 1398 000a 0446     		mov	r4, r0
 735:ThirdParty/STM32F4xx_HAL_Driver/Src/stm32f4xx_hal_adc_ex.c ****   
 1399              		.loc 1 735 3 is_stmt 1 discriminator 2 view .LVU432
 1400 000c 0123     		movs	r3, #1
 1401 000e 80F83C30 		strb	r3, [r0, #60]
 735:ThirdParty/STM32F4xx_HAL_Driver/Src/stm32f4xx_hal_adc_ex.c ****   
 1402              		.loc 1 735 3 discriminator 2 view .LVU433
 739:ThirdParty/STM32F4xx_HAL_Driver/Src/stm32f4xx_hal_adc_ex.c **** 
 1403              		.loc 1 739 3 discriminator 2 view .LVU434
 1404 0012 0268     		ldr	r2, [r0]
ARM GAS  /tmp/ccHJyd2u.s 			page 52


 1405 0014 9368     		ldr	r3, [r2, #8]
 1406 0016 23F00103 		bic	r3, r3, #1
 1407 001a 9360     		str	r3, [r2, #8]
 744:ThirdParty/STM32F4xx_HAL_Driver/Src/stm32f4xx_hal_adc_ex.c **** 
 1408              		.loc 1 744 3 discriminator 2 view .LVU435
 1409              	.LVL100:
 747:ThirdParty/STM32F4xx_HAL_Driver/Src/stm32f4xx_hal_adc_ex.c ****   {
 1410              		.loc 1 747 3 discriminator 2 view .LVU436
 747:ThirdParty/STM32F4xx_HAL_Driver/Src/stm32f4xx_hal_adc_ex.c ****   {
 1411              		.loc 1 747 6 is_stmt 0 discriminator 2 view .LVU437
 1412 001c 0368     		ldr	r3, [r0]
 1413 001e 9B68     		ldr	r3, [r3, #8]
 747:ThirdParty/STM32F4xx_HAL_Driver/Src/stm32f4xx_hal_adc_ex.c ****   {
 1414              		.loc 1 747 5 discriminator 2 view .LVU438
 1415 0020 13F0010F 		tst	r3, #1
 1416 0024 04D0     		beq	.L107
 728:ThirdParty/STM32F4xx_HAL_Driver/Src/stm32f4xx_hal_adc_ex.c ****   ADC_Common_TypeDef *tmpADC_Common;
 1417              		.loc 1 728 21 view .LVU439
 1418 0026 0020     		movs	r0, #0
 1419              	.LVL101:
 1420              	.L100:
 766:ThirdParty/STM32F4xx_HAL_Driver/Src/stm32f4xx_hal_adc_ex.c ****   
 1421              		.loc 1 766 3 is_stmt 1 view .LVU440
 766:ThirdParty/STM32F4xx_HAL_Driver/Src/stm32f4xx_hal_adc_ex.c ****   
 1422              		.loc 1 766 3 view .LVU441
 1423 0028 0023     		movs	r3, #0
 1424 002a 84F83C30 		strb	r3, [r4, #60]
 766:ThirdParty/STM32F4xx_HAL_Driver/Src/stm32f4xx_hal_adc_ex.c ****   
 1425              		.loc 1 766 3 view .LVU442
 769:ThirdParty/STM32F4xx_HAL_Driver/Src/stm32f4xx_hal_adc_ex.c **** }
 1426              		.loc 1 769 3 view .LVU443
 770:ThirdParty/STM32F4xx_HAL_Driver/Src/stm32f4xx_hal_adc_ex.c **** 
 1427              		.loc 1 770 1 is_stmt 0 view .LVU444
 1428 002e 10BD     		pop	{r4, pc}
 1429              	.LVL102:
 1430              	.L107:
 750:ThirdParty/STM32F4xx_HAL_Driver/Src/stm32f4xx_hal_adc_ex.c ****     
 1431              		.loc 1 750 5 is_stmt 1 view .LVU445
 750:ThirdParty/STM32F4xx_HAL_Driver/Src/stm32f4xx_hal_adc_ex.c ****     
 1432              		.loc 1 750 24 is_stmt 0 view .LVU446
 1433 0030 0B4A     		ldr	r2, .L108
 1434 0032 5368     		ldr	r3, [r2, #4]
 1435 0034 23F40053 		bic	r3, r3, #8192
 1436 0038 5360     		str	r3, [r2, #4]
 754:ThirdParty/STM32F4xx_HAL_Driver/Src/stm32f4xx_hal_adc_ex.c ****     
 1437              		.loc 1 754 5 is_stmt 1 view .LVU447
 754:ThirdParty/STM32F4xx_HAL_Driver/Src/stm32f4xx_hal_adc_ex.c ****     
 1438              		.loc 1 754 22 is_stmt 0 view .LVU448
 1439 003a 806B     		ldr	r0, [r0, #56]
 1440              	.LVL103:
 754:ThirdParty/STM32F4xx_HAL_Driver/Src/stm32f4xx_hal_adc_ex.c ****     
 1441              		.loc 1 754 22 view .LVU449
 1442 003c FFF7FEFF 		bl	HAL_DMA_Abort
 1443              	.LVL104:
 757:ThirdParty/STM32F4xx_HAL_Driver/Src/stm32f4xx_hal_adc_ex.c ****     
 1444              		.loc 1 757 5 is_stmt 1 view .LVU450
 1445 0040 2268     		ldr	r2, [r4]
ARM GAS  /tmp/ccHJyd2u.s 			page 53


 1446 0042 5368     		ldr	r3, [r2, #4]
 1447 0044 23F08063 		bic	r3, r3, #67108864
 1448 0048 5360     		str	r3, [r2, #4]
 760:ThirdParty/STM32F4xx_HAL_Driver/Src/stm32f4xx_hal_adc_ex.c ****                       HAL_ADC_STATE_REG_BUSY | HAL_ADC_STATE_INJ_BUSY,
 1449              		.loc 1 760 5 view .LVU451
 1450 004a 236C     		ldr	r3, [r4, #64]
 1451 004c 23F48853 		bic	r3, r3, #4352
 1452 0050 23F00103 		bic	r3, r3, #1
 1453 0054 43F00103 		orr	r3, r3, #1
 1454 0058 2364     		str	r3, [r4, #64]
 1455 005a E5E7     		b	.L100
 1456              	.LVL105:
 1457              	.L101:
 1458              	.LCFI18:
 1459              		.cfi_def_cfa_offset 0
 1460              		.cfi_restore 4
 1461              		.cfi_restore 14
 735:ThirdParty/STM32F4xx_HAL_Driver/Src/stm32f4xx_hal_adc_ex.c ****   
 1462              		.loc 1 735 3 is_stmt 0 view .LVU452
 1463 005c 0220     		movs	r0, #2
 1464              	.LVL106:
 770:ThirdParty/STM32F4xx_HAL_Driver/Src/stm32f4xx_hal_adc_ex.c **** 
 1465              		.loc 1 770 1 view .LVU453
 1466 005e 7047     		bx	lr
 1467              	.L109:
 1468              		.align	2
 1469              	.L108:
 1470 0060 00230140 		.word	1073816320
 1471              		.cfi_endproc
 1472              	.LFE140:
 1474              		.section	.text.HAL_ADCEx_MultiModeGetValue,"ax",%progbits
 1475              		.align	1
 1476              		.global	HAL_ADCEx_MultiModeGetValue
 1477              		.syntax unified
 1478              		.thumb
 1479              		.thumb_func
 1481              	HAL_ADCEx_MultiModeGetValue:
 1482              	.LVL107:
 1483              	.LFB141:
 780:ThirdParty/STM32F4xx_HAL_Driver/Src/stm32f4xx_hal_adc_ex.c ****   ADC_Common_TypeDef *tmpADC_Common;
 1484              		.loc 1 780 1 is_stmt 1 view -0
 1485              		.cfi_startproc
 1486              		@ args = 0, pretend = 0, frame = 0
 1487              		@ frame_needed = 0, uses_anonymous_args = 0
 1488              		@ link register save eliminated.
 781:ThirdParty/STM32F4xx_HAL_Driver/Src/stm32f4xx_hal_adc_ex.c **** 
 1489              		.loc 1 781 3 view .LVU455
 786:ThirdParty/STM32F4xx_HAL_Driver/Src/stm32f4xx_hal_adc_ex.c **** 
 1490              		.loc 1 786 3 view .LVU456
 789:ThirdParty/STM32F4xx_HAL_Driver/Src/stm32f4xx_hal_adc_ex.c **** }
 1491              		.loc 1 789 3 view .LVU457
 789:ThirdParty/STM32F4xx_HAL_Driver/Src/stm32f4xx_hal_adc_ex.c **** }
 1492              		.loc 1 789 23 is_stmt 0 view .LVU458
 1493 0000 014B     		ldr	r3, .L111
 1494 0002 9868     		ldr	r0, [r3, #8]
 1495              	.LVL108:
 790:ThirdParty/STM32F4xx_HAL_Driver/Src/stm32f4xx_hal_adc_ex.c **** 
ARM GAS  /tmp/ccHJyd2u.s 			page 54


 1496              		.loc 1 790 1 view .LVU459
 1497 0004 7047     		bx	lr
 1498              	.L112:
 1499 0006 00BF     		.align	2
 1500              	.L111:
 1501 0008 00230140 		.word	1073816320
 1502              		.cfi_endproc
 1503              	.LFE141:
 1505              		.section	.text.HAL_ADCEx_InjectedConvCpltCallback,"ax",%progbits
 1506              		.align	1
 1507              		.weak	HAL_ADCEx_InjectedConvCpltCallback
 1508              		.syntax unified
 1509              		.thumb
 1510              		.thumb_func
 1512              	HAL_ADCEx_InjectedConvCpltCallback:
 1513              	.LVL109:
 1514              	.LFB142:
 799:ThirdParty/STM32F4xx_HAL_Driver/Src/stm32f4xx_hal_adc_ex.c ****   /* Prevent unused argument(s) compilation warning */
 1515              		.loc 1 799 1 is_stmt 1 view -0
 1516              		.cfi_startproc
 1517              		@ args = 0, pretend = 0, frame = 0
 1518              		@ frame_needed = 0, uses_anonymous_args = 0
 1519              		@ link register save eliminated.
 801:ThirdParty/STM32F4xx_HAL_Driver/Src/stm32f4xx_hal_adc_ex.c ****   /* NOTE : This function Should not be modified, when the callback is needed,
 1520              		.loc 1 801 3 view .LVU461
 805:ThirdParty/STM32F4xx_HAL_Driver/Src/stm32f4xx_hal_adc_ex.c **** 
 1521              		.loc 1 805 1 is_stmt 0 view .LVU462
 1522 0000 7047     		bx	lr
 1523              		.cfi_endproc
 1524              	.LFE142:
 1526              		.section	.text.HAL_ADCEx_InjectedConfigChannel,"ax",%progbits
 1527              		.align	1
 1528              		.global	HAL_ADCEx_InjectedConfigChannel
 1529              		.syntax unified
 1530              		.thumb
 1531              		.thumb_func
 1533              	HAL_ADCEx_InjectedConfigChannel:
 1534              	.LVL110:
 1535              	.LFB143:
 816:ThirdParty/STM32F4xx_HAL_Driver/Src/stm32f4xx_hal_adc_ex.c ****   
 1536              		.loc 1 816 1 is_stmt 1 view -0
 1537              		.cfi_startproc
 1538              		@ args = 0, pretend = 0, frame = 0
 1539              		@ frame_needed = 0, uses_anonymous_args = 0
 1540              		@ link register save eliminated.
 823:ThirdParty/STM32F4xx_HAL_Driver/Src/stm32f4xx_hal_adc_ex.c **** 
 1541              		.loc 1 823 3 view .LVU464
 826:ThirdParty/STM32F4xx_HAL_Driver/Src/stm32f4xx_hal_adc_ex.c ****   assert_param(IS_ADC_INJECTED_RANK(sConfigInjected->InjectedRank));
 1542              		.loc 1 826 3 view .LVU465
 827:ThirdParty/STM32F4xx_HAL_Driver/Src/stm32f4xx_hal_adc_ex.c ****   assert_param(IS_ADC_SAMPLE_TIME(sConfigInjected->InjectedSamplingTime));
 1543              		.loc 1 827 3 view .LVU466
 828:ThirdParty/STM32F4xx_HAL_Driver/Src/stm32f4xx_hal_adc_ex.c ****   assert_param(IS_ADC_EXT_INJEC_TRIG(sConfigInjected->ExternalTrigInjecConv));
 1544              		.loc 1 828 3 view .LVU467
 829:ThirdParty/STM32F4xx_HAL_Driver/Src/stm32f4xx_hal_adc_ex.c ****   assert_param(IS_ADC_INJECTED_LENGTH(sConfigInjected->InjectedNbrOfConversion));
 1545              		.loc 1 829 3 view .LVU468
 830:ThirdParty/STM32F4xx_HAL_Driver/Src/stm32f4xx_hal_adc_ex.c ****   assert_param(IS_FUNCTIONAL_STATE(sConfigInjected->AutoInjectedConv));
 1546              		.loc 1 830 3 view .LVU469
ARM GAS  /tmp/ccHJyd2u.s 			page 55


 831:ThirdParty/STM32F4xx_HAL_Driver/Src/stm32f4xx_hal_adc_ex.c ****   assert_param(IS_FUNCTIONAL_STATE(sConfigInjected->InjectedDiscontinuousConvMode));
 1547              		.loc 1 831 3 view .LVU470
 832:ThirdParty/STM32F4xx_HAL_Driver/Src/stm32f4xx_hal_adc_ex.c **** 
 1548              		.loc 1 832 3 view .LVU471
 839:ThirdParty/STM32F4xx_HAL_Driver/Src/stm32f4xx_hal_adc_ex.c ****   {
 1549              		.loc 1 839 3 view .LVU472
 841:ThirdParty/STM32F4xx_HAL_Driver/Src/stm32f4xx_hal_adc_ex.c ****   }
 1550              		.loc 1 841 5 view .LVU473
 845:ThirdParty/STM32F4xx_HAL_Driver/Src/stm32f4xx_hal_adc_ex.c ****   
 1551              		.loc 1 845 3 view .LVU474
 845:ThirdParty/STM32F4xx_HAL_Driver/Src/stm32f4xx_hal_adc_ex.c ****   
 1552              		.loc 1 845 3 view .LVU475
 1553 0000 90F83C30 		ldrb	r3, [r0, #60]	@ zero_extendqisi2
 1554 0004 012B     		cmp	r3, #1
 1555 0006 00F0FB80 		beq	.L130
 816:ThirdParty/STM32F4xx_HAL_Driver/Src/stm32f4xx_hal_adc_ex.c ****   
 1556              		.loc 1 816 1 is_stmt 0 discriminator 2 view .LVU476
 1557 000a 30B4     		push	{r4, r5}
 1558              	.LCFI19:
 1559              		.cfi_def_cfa_offset 8
 1560              		.cfi_offset 4, -8
 1561              		.cfi_offset 5, -4
 845:ThirdParty/STM32F4xx_HAL_Driver/Src/stm32f4xx_hal_adc_ex.c ****   
 1562              		.loc 1 845 3 is_stmt 1 discriminator 2 view .LVU477
 1563 000c 0123     		movs	r3, #1
 1564 000e 80F83C30 		strb	r3, [r0, #60]
 845:ThirdParty/STM32F4xx_HAL_Driver/Src/stm32f4xx_hal_adc_ex.c ****   
 1565              		.loc 1 845 3 discriminator 2 view .LVU478
 848:ThirdParty/STM32F4xx_HAL_Driver/Src/stm32f4xx_hal_adc_ex.c ****   {
 1566              		.loc 1 848 3 discriminator 2 view .LVU479
 848:ThirdParty/STM32F4xx_HAL_Driver/Src/stm32f4xx_hal_adc_ex.c ****   {
 1567              		.loc 1 848 22 is_stmt 0 discriminator 2 view .LVU480
 1568 0012 0B68     		ldr	r3, [r1]
 848:ThirdParty/STM32F4xx_HAL_Driver/Src/stm32f4xx_hal_adc_ex.c ****   {
 1569              		.loc 1 848 6 discriminator 2 view .LVU481
 1570 0014 092B     		cmp	r3, #9
 1571 0016 7FD9     		bls	.L116
 851:ThirdParty/STM32F4xx_HAL_Driver/Src/stm32f4xx_hal_adc_ex.c ****     
 1572              		.loc 1 851 5 is_stmt 1 view .LVU482
 851:ThirdParty/STM32F4xx_HAL_Driver/Src/stm32f4xx_hal_adc_ex.c ****     
 1573              		.loc 1 851 9 is_stmt 0 view .LVU483
 1574 0018 0568     		ldr	r5, [r0]
 851:ThirdParty/STM32F4xx_HAL_Driver/Src/stm32f4xx_hal_adc_ex.c ****     
 1575              		.loc 1 851 27 view .LVU484
 1576 001a EA68     		ldr	r2, [r5, #12]
 851:ThirdParty/STM32F4xx_HAL_Driver/Src/stm32f4xx_hal_adc_ex.c ****     
 1577              		.loc 1 851 31 view .LVU485
 1578 001c 9BB2     		uxth	r3, r3
 1579 001e 03EB4303 		add	r3, r3, r3, lsl #1
 1580 0022 1E3B     		subs	r3, r3, #30
 1581 0024 0724     		movs	r4, #7
 1582 0026 04FA03F3 		lsl	r3, r4, r3
 851:ThirdParty/STM32F4xx_HAL_Driver/Src/stm32f4xx_hal_adc_ex.c ****     
 1583              		.loc 1 851 27 view .LVU486
 1584 002a 22EA0303 		bic	r3, r2, r3
 1585 002e EB60     		str	r3, [r5, #12]
 854:ThirdParty/STM32F4xx_HAL_Driver/Src/stm32f4xx_hal_adc_ex.c ****   }
ARM GAS  /tmp/ccHJyd2u.s 			page 56


 1586              		.loc 1 854 5 is_stmt 1 view .LVU487
 854:ThirdParty/STM32F4xx_HAL_Driver/Src/stm32f4xx_hal_adc_ex.c ****   }
 1587              		.loc 1 854 9 is_stmt 0 view .LVU488
 1588 0030 0568     		ldr	r5, [r0]
 854:ThirdParty/STM32F4xx_HAL_Driver/Src/stm32f4xx_hal_adc_ex.c ****   }
 1589              		.loc 1 854 27 view .LVU489
 1590 0032 EA68     		ldr	r2, [r5, #12]
 854:ThirdParty/STM32F4xx_HAL_Driver/Src/stm32f4xx_hal_adc_ex.c ****   }
 1591              		.loc 1 854 30 view .LVU490
 1592 0034 8C68     		ldr	r4, [r1, #8]
 1593 0036 0B88     		ldrh	r3, [r1]
 1594 0038 03EB4303 		add	r3, r3, r3, lsl #1
 1595 003c 1E3B     		subs	r3, r3, #30
 1596 003e 04FA03F3 		lsl	r3, r4, r3
 854:ThirdParty/STM32F4xx_HAL_Driver/Src/stm32f4xx_hal_adc_ex.c ****   }
 1597              		.loc 1 854 27 view .LVU491
 1598 0042 1343     		orrs	r3, r3, r2
 1599 0044 EB60     		str	r3, [r5, #12]
 1600              	.L117:
 866:ThirdParty/STM32F4xx_HAL_Driver/Src/stm32f4xx_hal_adc_ex.c ****   hadc->Instance->JSQR |=  ADC_SQR1(sConfigInjected->InjectedNbrOfConversion);
 1601              		.loc 1 866 3 is_stmt 1 view .LVU492
 866:ThirdParty/STM32F4xx_HAL_Driver/Src/stm32f4xx_hal_adc_ex.c ****   hadc->Instance->JSQR |=  ADC_SQR1(sConfigInjected->InjectedNbrOfConversion);
 1602              		.loc 1 866 7 is_stmt 0 view .LVU493
 1603 0046 0268     		ldr	r2, [r0]
 866:ThirdParty/STM32F4xx_HAL_Driver/Src/stm32f4xx_hal_adc_ex.c ****   hadc->Instance->JSQR |=  ADC_SQR1(sConfigInjected->InjectedNbrOfConversion);
 1604              		.loc 1 866 24 view .LVU494
 1605 0048 936B     		ldr	r3, [r2, #56]
 1606 004a 23F44013 		bic	r3, r3, #3145728
 1607 004e 9363     		str	r3, [r2, #56]
 867:ThirdParty/STM32F4xx_HAL_Driver/Src/stm32f4xx_hal_adc_ex.c ****   
 1608              		.loc 1 867 3 is_stmt 1 view .LVU495
 867:ThirdParty/STM32F4xx_HAL_Driver/Src/stm32f4xx_hal_adc_ex.c ****   
 1609              		.loc 1 867 7 is_stmt 0 view .LVU496
 1610 0050 0468     		ldr	r4, [r0]
 867:ThirdParty/STM32F4xx_HAL_Driver/Src/stm32f4xx_hal_adc_ex.c ****   
 1611              		.loc 1 867 24 view .LVU497
 1612 0052 A36B     		ldr	r3, [r4, #56]
 867:ThirdParty/STM32F4xx_HAL_Driver/Src/stm32f4xx_hal_adc_ex.c ****   
 1613              		.loc 1 867 28 view .LVU498
 1614 0054 0A69     		ldr	r2, [r1, #16]
 1615 0056 013A     		subs	r2, r2, #1
 867:ThirdParty/STM32F4xx_HAL_Driver/Src/stm32f4xx_hal_adc_ex.c ****   
 1616              		.loc 1 867 24 view .LVU499
 1617 0058 43EA0253 		orr	r3, r3, r2, lsl #20
 1618 005c A363     		str	r3, [r4, #56]
 872:ThirdParty/STM32F4xx_HAL_Driver/Src/stm32f4xx_hal_adc_ex.c ****    
 1619              		.loc 1 872 3 is_stmt 1 view .LVU500
 872:ThirdParty/STM32F4xx_HAL_Driver/Src/stm32f4xx_hal_adc_ex.c ****    
 1620              		.loc 1 872 7 is_stmt 0 view .LVU501
 1621 005e 0468     		ldr	r4, [r0]
 872:ThirdParty/STM32F4xx_HAL_Driver/Src/stm32f4xx_hal_adc_ex.c ****    
 1622              		.loc 1 872 24 view .LVU502
 1623 0060 A26B     		ldr	r2, [r4, #56]
 872:ThirdParty/STM32F4xx_HAL_Driver/Src/stm32f4xx_hal_adc_ex.c ****    
 1624              		.loc 1 872 28 view .LVU503
 1625 0062 4B68     		ldr	r3, [r1, #4]
 1626 0064 0D69     		ldr	r5, [r1, #16]
ARM GAS  /tmp/ccHJyd2u.s 			page 57


 1627 0066 5B1B     		subs	r3, r3, r5
 1628 0068 DBB2     		uxtb	r3, r3
 1629 006a 0333     		adds	r3, r3, #3
 1630 006c DBB2     		uxtb	r3, r3
 1631 006e 03EB8303 		add	r3, r3, r3, lsl #2
 1632 0072 4FF01F0C 		mov	ip, #31
 1633 0076 0CFA03F3 		lsl	r3, ip, r3
 872:ThirdParty/STM32F4xx_HAL_Driver/Src/stm32f4xx_hal_adc_ex.c ****    
 1634              		.loc 1 872 24 view .LVU504
 1635 007a 22EA0303 		bic	r3, r2, r3
 1636 007e A363     		str	r3, [r4, #56]
 875:ThirdParty/STM32F4xx_HAL_Driver/Src/stm32f4xx_hal_adc_ex.c **** 
 1637              		.loc 1 875 3 is_stmt 1 view .LVU505
 875:ThirdParty/STM32F4xx_HAL_Driver/Src/stm32f4xx_hal_adc_ex.c **** 
 1638              		.loc 1 875 7 is_stmt 0 view .LVU506
 1639 0080 0468     		ldr	r4, [r0]
 875:ThirdParty/STM32F4xx_HAL_Driver/Src/stm32f4xx_hal_adc_ex.c **** 
 1640              		.loc 1 875 24 view .LVU507
 1641 0082 A26B     		ldr	r2, [r4, #56]
 875:ThirdParty/STM32F4xx_HAL_Driver/Src/stm32f4xx_hal_adc_ex.c **** 
 1642              		.loc 1 875 27 view .LVU508
 1643 0084 4B68     		ldr	r3, [r1, #4]
 1644 0086 0D69     		ldr	r5, [r1, #16]
 1645 0088 5B1B     		subs	r3, r3, r5
 1646 008a DBB2     		uxtb	r3, r3
 1647 008c 0333     		adds	r3, r3, #3
 1648 008e DBB2     		uxtb	r3, r3
 1649 0090 03EB8303 		add	r3, r3, r3, lsl #2
 1650 0094 B1F800C0 		ldrh	ip, [r1]
 1651 0098 0CFA03F3 		lsl	r3, ip, r3
 875:ThirdParty/STM32F4xx_HAL_Driver/Src/stm32f4xx_hal_adc_ex.c **** 
 1652              		.loc 1 875 24 view .LVU509
 1653 009c 1343     		orrs	r3, r3, r2
 1654 009e A363     		str	r3, [r4, #56]
 882:ThirdParty/STM32F4xx_HAL_Driver/Src/stm32f4xx_hal_adc_ex.c ****   {  
 1655              		.loc 1 882 3 is_stmt 1 view .LVU510
 882:ThirdParty/STM32F4xx_HAL_Driver/Src/stm32f4xx_hal_adc_ex.c ****   {  
 1656              		.loc 1 882 21 is_stmt 0 view .LVU511
 1657 00a0 CA69     		ldr	r2, [r1, #28]
 882:ThirdParty/STM32F4xx_HAL_Driver/Src/stm32f4xx_hal_adc_ex.c ****   {  
 1658              		.loc 1 882 5 view .LVU512
 1659 00a2 584B     		ldr	r3, .L138
 1660 00a4 9A42     		cmp	r2, r3
 1661 00a6 4DD0     		beq	.L118
 885:ThirdParty/STM32F4xx_HAL_Driver/Src/stm32f4xx_hal_adc_ex.c ****     hadc->Instance->CR2 |=  sConfigInjected->ExternalTrigInjecConv;
 1662              		.loc 1 885 5 is_stmt 1 view .LVU513
 885:ThirdParty/STM32F4xx_HAL_Driver/Src/stm32f4xx_hal_adc_ex.c ****     hadc->Instance->CR2 |=  sConfigInjected->ExternalTrigInjecConv;
 1663              		.loc 1 885 9 is_stmt 0 view .LVU514
 1664 00a8 0268     		ldr	r2, [r0]
 885:ThirdParty/STM32F4xx_HAL_Driver/Src/stm32f4xx_hal_adc_ex.c ****     hadc->Instance->CR2 |=  sConfigInjected->ExternalTrigInjecConv;
 1665              		.loc 1 885 25 view .LVU515
 1666 00aa 9368     		ldr	r3, [r2, #8]
 1667 00ac 23F47023 		bic	r3, r3, #983040
 1668 00b0 9360     		str	r3, [r2, #8]
 886:ThirdParty/STM32F4xx_HAL_Driver/Src/stm32f4xx_hal_adc_ex.c ****     
 1669              		.loc 1 886 5 is_stmt 1 view .LVU516
 886:ThirdParty/STM32F4xx_HAL_Driver/Src/stm32f4xx_hal_adc_ex.c ****     
ARM GAS  /tmp/ccHJyd2u.s 			page 58


 1670              		.loc 1 886 9 is_stmt 0 view .LVU517
 1671 00b2 0268     		ldr	r2, [r0]
 886:ThirdParty/STM32F4xx_HAL_Driver/Src/stm32f4xx_hal_adc_ex.c ****     
 1672              		.loc 1 886 25 view .LVU518
 1673 00b4 9368     		ldr	r3, [r2, #8]
 886:ThirdParty/STM32F4xx_HAL_Driver/Src/stm32f4xx_hal_adc_ex.c ****     
 1674              		.loc 1 886 44 view .LVU519
 1675 00b6 CC69     		ldr	r4, [r1, #28]
 886:ThirdParty/STM32F4xx_HAL_Driver/Src/stm32f4xx_hal_adc_ex.c ****     
 1676              		.loc 1 886 25 view .LVU520
 1677 00b8 2343     		orrs	r3, r3, r4
 1678 00ba 9360     		str	r3, [r2, #8]
 889:ThirdParty/STM32F4xx_HAL_Driver/Src/stm32f4xx_hal_adc_ex.c ****     hadc->Instance->CR2 |= sConfigInjected->ExternalTrigInjecConvEdge;
 1679              		.loc 1 889 5 is_stmt 1 view .LVU521
 889:ThirdParty/STM32F4xx_HAL_Driver/Src/stm32f4xx_hal_adc_ex.c ****     hadc->Instance->CR2 |= sConfigInjected->ExternalTrigInjecConvEdge;
 1680              		.loc 1 889 9 is_stmt 0 view .LVU522
 1681 00bc 0268     		ldr	r2, [r0]
 889:ThirdParty/STM32F4xx_HAL_Driver/Src/stm32f4xx_hal_adc_ex.c ****     hadc->Instance->CR2 |= sConfigInjected->ExternalTrigInjecConvEdge;
 1682              		.loc 1 889 25 view .LVU523
 1683 00be 9368     		ldr	r3, [r2, #8]
 1684 00c0 23F44013 		bic	r3, r3, #3145728
 1685 00c4 9360     		str	r3, [r2, #8]
 890:ThirdParty/STM32F4xx_HAL_Driver/Src/stm32f4xx_hal_adc_ex.c ****   }
 1686              		.loc 1 890 5 is_stmt 1 view .LVU524
 890:ThirdParty/STM32F4xx_HAL_Driver/Src/stm32f4xx_hal_adc_ex.c ****   }
 1687              		.loc 1 890 9 is_stmt 0 view .LVU525
 1688 00c6 0268     		ldr	r2, [r0]
 890:ThirdParty/STM32F4xx_HAL_Driver/Src/stm32f4xx_hal_adc_ex.c ****   }
 1689              		.loc 1 890 25 view .LVU526
 1690 00c8 9368     		ldr	r3, [r2, #8]
 890:ThirdParty/STM32F4xx_HAL_Driver/Src/stm32f4xx_hal_adc_ex.c ****   }
 1691              		.loc 1 890 43 view .LVU527
 1692 00ca 0C6A     		ldr	r4, [r1, #32]
 890:ThirdParty/STM32F4xx_HAL_Driver/Src/stm32f4xx_hal_adc_ex.c ****   }
 1693              		.loc 1 890 25 view .LVU528
 1694 00cc 2343     		orrs	r3, r3, r4
 1695 00ce 9360     		str	r3, [r2, #8]
 1696              	.L119:
 899:ThirdParty/STM32F4xx_HAL_Driver/Src/stm32f4xx_hal_adc_ex.c ****   {
 1697              		.loc 1 899 3 is_stmt 1 view .LVU529
 899:ThirdParty/STM32F4xx_HAL_Driver/Src/stm32f4xx_hal_adc_ex.c ****   {
 1698              		.loc 1 899 22 is_stmt 0 view .LVU530
 1699 00d0 8B69     		ldr	r3, [r1, #24]
 899:ThirdParty/STM32F4xx_HAL_Driver/Src/stm32f4xx_hal_adc_ex.c ****   {
 1700              		.loc 1 899 6 view .LVU531
 1701 00d2 002B     		cmp	r3, #0
 1702 00d4 41D0     		beq	.L120
 902:ThirdParty/STM32F4xx_HAL_Driver/Src/stm32f4xx_hal_adc_ex.c ****   }
 1703              		.loc 1 902 5 is_stmt 1 view .LVU532
 902:ThirdParty/STM32F4xx_HAL_Driver/Src/stm32f4xx_hal_adc_ex.c ****   }
 1704              		.loc 1 902 9 is_stmt 0 view .LVU533
 1705 00d6 0268     		ldr	r2, [r0]
 902:ThirdParty/STM32F4xx_HAL_Driver/Src/stm32f4xx_hal_adc_ex.c ****   }
 1706              		.loc 1 902 25 view .LVU534
 1707 00d8 5368     		ldr	r3, [r2, #4]
 1708 00da 43F48063 		orr	r3, r3, #1024
 1709 00de 5360     		str	r3, [r2, #4]
ARM GAS  /tmp/ccHJyd2u.s 			page 59


 1710              	.L121:
 910:ThirdParty/STM32F4xx_HAL_Driver/Src/stm32f4xx_hal_adc_ex.c ****   {
 1711              		.loc 1 910 3 is_stmt 1 view .LVU535
 910:ThirdParty/STM32F4xx_HAL_Driver/Src/stm32f4xx_hal_adc_ex.c ****   {
 1712              		.loc 1 910 22 is_stmt 0 view .LVU536
 1713 00e0 4B69     		ldr	r3, [r1, #20]
 910:ThirdParty/STM32F4xx_HAL_Driver/Src/stm32f4xx_hal_adc_ex.c ****   {
 1714              		.loc 1 910 6 view .LVU537
 1715 00e2 002B     		cmp	r3, #0
 1716 00e4 3FD0     		beq	.L122
 913:ThirdParty/STM32F4xx_HAL_Driver/Src/stm32f4xx_hal_adc_ex.c ****   }
 1717              		.loc 1 913 5 is_stmt 1 view .LVU538
 913:ThirdParty/STM32F4xx_HAL_Driver/Src/stm32f4xx_hal_adc_ex.c ****   }
 1718              		.loc 1 913 9 is_stmt 0 view .LVU539
 1719 00e6 0268     		ldr	r2, [r0]
 913:ThirdParty/STM32F4xx_HAL_Driver/Src/stm32f4xx_hal_adc_ex.c ****   }
 1720              		.loc 1 913 25 view .LVU540
 1721 00e8 5368     		ldr	r3, [r2, #4]
 1722 00ea 43F48053 		orr	r3, r3, #4096
 1723 00ee 5360     		str	r3, [r2, #4]
 1724              	.L123:
 921:ThirdParty/STM32F4xx_HAL_Driver/Src/stm32f4xx_hal_adc_ex.c ****   {
 1725              		.loc 1 921 3 is_stmt 1 view .LVU541
 921:ThirdParty/STM32F4xx_HAL_Driver/Src/stm32f4xx_hal_adc_ex.c ****   {
 1726              		.loc 1 921 25 is_stmt 0 view .LVU542
 1727 00f0 4B68     		ldr	r3, [r1, #4]
 921:ThirdParty/STM32F4xx_HAL_Driver/Src/stm32f4xx_hal_adc_ex.c ****   {
 1728              		.loc 1 921 3 view .LVU543
 1729 00f2 022B     		cmp	r3, #2
 1730 00f4 57D0     		beq	.L124
 1731 00f6 032B     		cmp	r3, #3
 1732 00f8 62D0     		beq	.L125
 1733 00fa 012B     		cmp	r3, #1
 1734 00fc 39D0     		beq	.L135
 940:ThirdParty/STM32F4xx_HAL_Driver/Src/stm32f4xx_hal_adc_ex.c ****       hadc->Instance->JOFR4 |= sConfigInjected->InjectedOffset;
 1735              		.loc 1 940 7 is_stmt 1 view .LVU544
 940:ThirdParty/STM32F4xx_HAL_Driver/Src/stm32f4xx_hal_adc_ex.c ****       hadc->Instance->JOFR4 |= sConfigInjected->InjectedOffset;
 1736              		.loc 1 940 11 is_stmt 0 view .LVU545
 1737 00fe 0268     		ldr	r2, [r0]
 940:ThirdParty/STM32F4xx_HAL_Driver/Src/stm32f4xx_hal_adc_ex.c ****       hadc->Instance->JOFR4 |= sConfigInjected->InjectedOffset;
 1738              		.loc 1 940 29 view .LVU546
 1739 0100 136A     		ldr	r3, [r2, #32]
 1740 0102 23F47F63 		bic	r3, r3, #4080
 1741 0106 23F00F03 		bic	r3, r3, #15
 1742 010a 1362     		str	r3, [r2, #32]
 941:ThirdParty/STM32F4xx_HAL_Driver/Src/stm32f4xx_hal_adc_ex.c ****       break;
 1743              		.loc 1 941 7 is_stmt 1 view .LVU547
 941:ThirdParty/STM32F4xx_HAL_Driver/Src/stm32f4xx_hal_adc_ex.c ****       break;
 1744              		.loc 1 941 11 is_stmt 0 view .LVU548
 1745 010c 0268     		ldr	r2, [r0]
 941:ThirdParty/STM32F4xx_HAL_Driver/Src/stm32f4xx_hal_adc_ex.c ****       break;
 1746              		.loc 1 941 29 view .LVU549
 1747 010e 136A     		ldr	r3, [r2, #32]
 941:ThirdParty/STM32F4xx_HAL_Driver/Src/stm32f4xx_hal_adc_ex.c ****       break;
 1748              		.loc 1 941 47 view .LVU550
 1749 0110 CC68     		ldr	r4, [r1, #12]
 941:ThirdParty/STM32F4xx_HAL_Driver/Src/stm32f4xx_hal_adc_ex.c ****       break;
ARM GAS  /tmp/ccHJyd2u.s 			page 60


 1750              		.loc 1 941 29 view .LVU551
 1751 0112 2343     		orrs	r3, r3, r4
 1752 0114 1362     		str	r3, [r2, #32]
 942:ThirdParty/STM32F4xx_HAL_Driver/Src/stm32f4xx_hal_adc_ex.c ****   }
 1753              		.loc 1 942 7 is_stmt 1 view .LVU552
 1754 0116 38E0     		b	.L127
 1755              	.L116:
 859:ThirdParty/STM32F4xx_HAL_Driver/Src/stm32f4xx_hal_adc_ex.c ****     
 1756              		.loc 1 859 5 view .LVU553
 859:ThirdParty/STM32F4xx_HAL_Driver/Src/stm32f4xx_hal_adc_ex.c ****     
 1757              		.loc 1 859 9 is_stmt 0 view .LVU554
 1758 0118 0568     		ldr	r5, [r0]
 859:ThirdParty/STM32F4xx_HAL_Driver/Src/stm32f4xx_hal_adc_ex.c ****     
 1759              		.loc 1 859 27 view .LVU555
 1760 011a 2A69     		ldr	r2, [r5, #16]
 859:ThirdParty/STM32F4xx_HAL_Driver/Src/stm32f4xx_hal_adc_ex.c ****     
 1761              		.loc 1 859 31 view .LVU556
 1762 011c 9BB2     		uxth	r3, r3
 1763 011e 03EB4303 		add	r3, r3, r3, lsl #1
 1764 0122 0724     		movs	r4, #7
 1765 0124 04FA03F3 		lsl	r3, r4, r3
 859:ThirdParty/STM32F4xx_HAL_Driver/Src/stm32f4xx_hal_adc_ex.c ****     
 1766              		.loc 1 859 27 view .LVU557
 1767 0128 22EA0303 		bic	r3, r2, r3
 1768 012c 2B61     		str	r3, [r5, #16]
 862:ThirdParty/STM32F4xx_HAL_Driver/Src/stm32f4xx_hal_adc_ex.c ****   }
 1769              		.loc 1 862 5 is_stmt 1 view .LVU558
 862:ThirdParty/STM32F4xx_HAL_Driver/Src/stm32f4xx_hal_adc_ex.c ****   }
 1770              		.loc 1 862 9 is_stmt 0 view .LVU559
 1771 012e 0568     		ldr	r5, [r0]
 862:ThirdParty/STM32F4xx_HAL_Driver/Src/stm32f4xx_hal_adc_ex.c ****   }
 1772              		.loc 1 862 27 view .LVU560
 1773 0130 2A69     		ldr	r2, [r5, #16]
 862:ThirdParty/STM32F4xx_HAL_Driver/Src/stm32f4xx_hal_adc_ex.c ****   }
 1774              		.loc 1 862 30 view .LVU561
 1775 0132 8C68     		ldr	r4, [r1, #8]
 1776 0134 0B88     		ldrh	r3, [r1]
 1777 0136 03EB4303 		add	r3, r3, r3, lsl #1
 1778 013a 04FA03F3 		lsl	r3, r4, r3
 862:ThirdParty/STM32F4xx_HAL_Driver/Src/stm32f4xx_hal_adc_ex.c ****   }
 1779              		.loc 1 862 27 view .LVU562
 1780 013e 1343     		orrs	r3, r3, r2
 1781 0140 2B61     		str	r3, [r5, #16]
 1782 0142 80E7     		b	.L117
 1783              	.L118:
 895:ThirdParty/STM32F4xx_HAL_Driver/Src/stm32f4xx_hal_adc_ex.c ****     hadc->Instance->CR2 &= ~(ADC_CR2_JEXTEN);  
 1784              		.loc 1 895 5 is_stmt 1 view .LVU563
 895:ThirdParty/STM32F4xx_HAL_Driver/Src/stm32f4xx_hal_adc_ex.c ****     hadc->Instance->CR2 &= ~(ADC_CR2_JEXTEN);  
 1785              		.loc 1 895 9 is_stmt 0 view .LVU564
 1786 0144 0268     		ldr	r2, [r0]
 895:ThirdParty/STM32F4xx_HAL_Driver/Src/stm32f4xx_hal_adc_ex.c ****     hadc->Instance->CR2 &= ~(ADC_CR2_JEXTEN);  
 1787              		.loc 1 895 25 view .LVU565
 1788 0146 9368     		ldr	r3, [r2, #8]
 1789 0148 23F47023 		bic	r3, r3, #983040
 1790 014c 9360     		str	r3, [r2, #8]
 896:ThirdParty/STM32F4xx_HAL_Driver/Src/stm32f4xx_hal_adc_ex.c ****   }
 1791              		.loc 1 896 5 is_stmt 1 view .LVU566
ARM GAS  /tmp/ccHJyd2u.s 			page 61


 896:ThirdParty/STM32F4xx_HAL_Driver/Src/stm32f4xx_hal_adc_ex.c ****   }
 1792              		.loc 1 896 9 is_stmt 0 view .LVU567
 1793 014e 0268     		ldr	r2, [r0]
 896:ThirdParty/STM32F4xx_HAL_Driver/Src/stm32f4xx_hal_adc_ex.c ****   }
 1794              		.loc 1 896 25 view .LVU568
 1795 0150 9368     		ldr	r3, [r2, #8]
 1796 0152 23F44013 		bic	r3, r3, #3145728
 1797 0156 9360     		str	r3, [r2, #8]
 1798 0158 BAE7     		b	.L119
 1799              	.L120:
 907:ThirdParty/STM32F4xx_HAL_Driver/Src/stm32f4xx_hal_adc_ex.c ****   }
 1800              		.loc 1 907 5 is_stmt 1 view .LVU569
 907:ThirdParty/STM32F4xx_HAL_Driver/Src/stm32f4xx_hal_adc_ex.c ****   }
 1801              		.loc 1 907 9 is_stmt 0 view .LVU570
 1802 015a 0268     		ldr	r2, [r0]
 907:ThirdParty/STM32F4xx_HAL_Driver/Src/stm32f4xx_hal_adc_ex.c ****   }
 1803              		.loc 1 907 25 view .LVU571
 1804 015c 5368     		ldr	r3, [r2, #4]
 1805 015e 23F48063 		bic	r3, r3, #1024
 1806 0162 5360     		str	r3, [r2, #4]
 1807 0164 BCE7     		b	.L121
 1808              	.L122:
 918:ThirdParty/STM32F4xx_HAL_Driver/Src/stm32f4xx_hal_adc_ex.c ****   }
 1809              		.loc 1 918 5 is_stmt 1 view .LVU572
 918:ThirdParty/STM32F4xx_HAL_Driver/Src/stm32f4xx_hal_adc_ex.c ****   }
 1810              		.loc 1 918 9 is_stmt 0 view .LVU573
 1811 0166 0268     		ldr	r2, [r0]
 918:ThirdParty/STM32F4xx_HAL_Driver/Src/stm32f4xx_hal_adc_ex.c ****   }
 1812              		.loc 1 918 25 view .LVU574
 1813 0168 5368     		ldr	r3, [r2, #4]
 1814 016a 23F48053 		bic	r3, r3, #4096
 1815 016e 5360     		str	r3, [r2, #4]
 1816 0170 BEE7     		b	.L123
 1817              	.L135:
 925:ThirdParty/STM32F4xx_HAL_Driver/Src/stm32f4xx_hal_adc_ex.c ****       hadc->Instance->JOFR1 |= sConfigInjected->InjectedOffset;
 1818              		.loc 1 925 7 is_stmt 1 view .LVU575
 925:ThirdParty/STM32F4xx_HAL_Driver/Src/stm32f4xx_hal_adc_ex.c ****       hadc->Instance->JOFR1 |= sConfigInjected->InjectedOffset;
 1819              		.loc 1 925 11 is_stmt 0 view .LVU576
 1820 0172 0268     		ldr	r2, [r0]
 925:ThirdParty/STM32F4xx_HAL_Driver/Src/stm32f4xx_hal_adc_ex.c ****       hadc->Instance->JOFR1 |= sConfigInjected->InjectedOffset;
 1821              		.loc 1 925 29 view .LVU577
 1822 0174 5369     		ldr	r3, [r2, #20]
 1823 0176 23F47F63 		bic	r3, r3, #4080
 1824 017a 23F00F03 		bic	r3, r3, #15
 1825 017e 5361     		str	r3, [r2, #20]
 926:ThirdParty/STM32F4xx_HAL_Driver/Src/stm32f4xx_hal_adc_ex.c ****       break;
 1826              		.loc 1 926 7 is_stmt 1 view .LVU578
 926:ThirdParty/STM32F4xx_HAL_Driver/Src/stm32f4xx_hal_adc_ex.c ****       break;
 1827              		.loc 1 926 11 is_stmt 0 view .LVU579
 1828 0180 0268     		ldr	r2, [r0]
 926:ThirdParty/STM32F4xx_HAL_Driver/Src/stm32f4xx_hal_adc_ex.c ****       break;
 1829              		.loc 1 926 29 view .LVU580
 1830 0182 5369     		ldr	r3, [r2, #20]
 926:ThirdParty/STM32F4xx_HAL_Driver/Src/stm32f4xx_hal_adc_ex.c ****       break;
 1831              		.loc 1 926 47 view .LVU581
 1832 0184 CC68     		ldr	r4, [r1, #12]
 926:ThirdParty/STM32F4xx_HAL_Driver/Src/stm32f4xx_hal_adc_ex.c ****       break;
ARM GAS  /tmp/ccHJyd2u.s 			page 62


 1833              		.loc 1 926 29 view .LVU582
 1834 0186 2343     		orrs	r3, r3, r4
 1835 0188 5361     		str	r3, [r2, #20]
 927:ThirdParty/STM32F4xx_HAL_Driver/Src/stm32f4xx_hal_adc_ex.c ****     case 2U:
 1836              		.loc 1 927 7 is_stmt 1 view .LVU583
 1837              	.L127:
 948:ThirdParty/STM32F4xx_HAL_Driver/Src/stm32f4xx_hal_adc_ex.c **** 
 1838              		.loc 1 948 5 view .LVU584
 1839              	.LVL111:
 951:ThirdParty/STM32F4xx_HAL_Driver/Src/stm32f4xx_hal_adc_ex.c ****   {
 1840              		.loc 1 951 3 view .LVU585
 951:ThirdParty/STM32F4xx_HAL_Driver/Src/stm32f4xx_hal_adc_ex.c ****   {
 1841              		.loc 1 951 12 is_stmt 0 view .LVU586
 1842 018a 0268     		ldr	r2, [r0]
 951:ThirdParty/STM32F4xx_HAL_Driver/Src/stm32f4xx_hal_adc_ex.c ****   {
 1843              		.loc 1 951 6 view .LVU587
 1844 018c 1E4B     		ldr	r3, .L138+4
 1845 018e 9A42     		cmp	r2, r3
 1846 0190 23D0     		beq	.L136
 1847              	.L128:
 958:ThirdParty/STM32F4xx_HAL_Driver/Src/stm32f4xx_hal_adc_ex.c ****   {
 1848              		.loc 1 958 3 is_stmt 1 view .LVU588
 958:ThirdParty/STM32F4xx_HAL_Driver/Src/stm32f4xx_hal_adc_ex.c ****   {
 1849              		.loc 1 958 12 is_stmt 0 view .LVU589
 1850 0192 0268     		ldr	r2, [r0]
 958:ThirdParty/STM32F4xx_HAL_Driver/Src/stm32f4xx_hal_adc_ex.c ****   {
 1851              		.loc 1 958 6 view .LVU590
 1852 0194 1C4B     		ldr	r3, .L138+4
 1853 0196 9A42     		cmp	r2, r3
 1854 0198 28D0     		beq	.L137
 1855              	.L129:
 965:ThirdParty/STM32F4xx_HAL_Driver/Src/stm32f4xx_hal_adc_ex.c ****   
 1856              		.loc 1 965 3 is_stmt 1 view .LVU591
 965:ThirdParty/STM32F4xx_HAL_Driver/Src/stm32f4xx_hal_adc_ex.c ****   
 1857              		.loc 1 965 3 view .LVU592
 1858 019a 0023     		movs	r3, #0
 1859 019c 80F83C30 		strb	r3, [r0, #60]
 965:ThirdParty/STM32F4xx_HAL_Driver/Src/stm32f4xx_hal_adc_ex.c ****   
 1860              		.loc 1 965 3 view .LVU593
 968:ThirdParty/STM32F4xx_HAL_Driver/Src/stm32f4xx_hal_adc_ex.c **** }
 1861              		.loc 1 968 3 view .LVU594
 968:ThirdParty/STM32F4xx_HAL_Driver/Src/stm32f4xx_hal_adc_ex.c **** }
 1862              		.loc 1 968 10 is_stmt 0 view .LVU595
 1863 01a0 1846     		mov	r0, r3
 1864              	.LVL112:
 969:ThirdParty/STM32F4xx_HAL_Driver/Src/stm32f4xx_hal_adc_ex.c **** 
 1865              		.loc 1 969 1 view .LVU596
 1866 01a2 30BC     		pop	{r4, r5}
 1867              	.LCFI20:
 1868              		.cfi_remember_state
 1869              		.cfi_restore 5
 1870              		.cfi_restore 4
 1871              		.cfi_def_cfa_offset 0
 1872 01a4 7047     		bx	lr
 1873              	.LVL113:
 1874              	.L124:
 1875              	.LCFI21:
ARM GAS  /tmp/ccHJyd2u.s 			page 63


 1876              		.cfi_restore_state
 930:ThirdParty/STM32F4xx_HAL_Driver/Src/stm32f4xx_hal_adc_ex.c ****       hadc->Instance->JOFR2 |= sConfigInjected->InjectedOffset;
 1877              		.loc 1 930 7 is_stmt 1 view .LVU597
 930:ThirdParty/STM32F4xx_HAL_Driver/Src/stm32f4xx_hal_adc_ex.c ****       hadc->Instance->JOFR2 |= sConfigInjected->InjectedOffset;
 1878              		.loc 1 930 11 is_stmt 0 view .LVU598
 1879 01a6 0268     		ldr	r2, [r0]
 930:ThirdParty/STM32F4xx_HAL_Driver/Src/stm32f4xx_hal_adc_ex.c ****       hadc->Instance->JOFR2 |= sConfigInjected->InjectedOffset;
 1880              		.loc 1 930 29 view .LVU599
 1881 01a8 9369     		ldr	r3, [r2, #24]
 1882 01aa 23F47F63 		bic	r3, r3, #4080
 1883 01ae 23F00F03 		bic	r3, r3, #15
 1884 01b2 9361     		str	r3, [r2, #24]
 931:ThirdParty/STM32F4xx_HAL_Driver/Src/stm32f4xx_hal_adc_ex.c ****       break;
 1885              		.loc 1 931 7 is_stmt 1 view .LVU600
 931:ThirdParty/STM32F4xx_HAL_Driver/Src/stm32f4xx_hal_adc_ex.c ****       break;
 1886              		.loc 1 931 11 is_stmt 0 view .LVU601
 1887 01b4 0268     		ldr	r2, [r0]
 931:ThirdParty/STM32F4xx_HAL_Driver/Src/stm32f4xx_hal_adc_ex.c ****       break;
 1888              		.loc 1 931 29 view .LVU602
 1889 01b6 9369     		ldr	r3, [r2, #24]
 931:ThirdParty/STM32F4xx_HAL_Driver/Src/stm32f4xx_hal_adc_ex.c ****       break;
 1890              		.loc 1 931 47 view .LVU603
 1891 01b8 CC68     		ldr	r4, [r1, #12]
 931:ThirdParty/STM32F4xx_HAL_Driver/Src/stm32f4xx_hal_adc_ex.c ****       break;
 1892              		.loc 1 931 29 view .LVU604
 1893 01ba 2343     		orrs	r3, r3, r4
 1894 01bc 9361     		str	r3, [r2, #24]
 932:ThirdParty/STM32F4xx_HAL_Driver/Src/stm32f4xx_hal_adc_ex.c ****     case 3U:
 1895              		.loc 1 932 7 is_stmt 1 view .LVU605
 1896 01be E4E7     		b	.L127
 1897              	.L125:
 935:ThirdParty/STM32F4xx_HAL_Driver/Src/stm32f4xx_hal_adc_ex.c ****       hadc->Instance->JOFR3 |= sConfigInjected->InjectedOffset;
 1898              		.loc 1 935 7 view .LVU606
 935:ThirdParty/STM32F4xx_HAL_Driver/Src/stm32f4xx_hal_adc_ex.c ****       hadc->Instance->JOFR3 |= sConfigInjected->InjectedOffset;
 1899              		.loc 1 935 11 is_stmt 0 view .LVU607
 1900 01c0 0268     		ldr	r2, [r0]
 935:ThirdParty/STM32F4xx_HAL_Driver/Src/stm32f4xx_hal_adc_ex.c ****       hadc->Instance->JOFR3 |= sConfigInjected->InjectedOffset;
 1901              		.loc 1 935 29 view .LVU608
 1902 01c2 D369     		ldr	r3, [r2, #28]
 1903 01c4 23F47F63 		bic	r3, r3, #4080
 1904 01c8 23F00F03 		bic	r3, r3, #15
 1905 01cc D361     		str	r3, [r2, #28]
 936:ThirdParty/STM32F4xx_HAL_Driver/Src/stm32f4xx_hal_adc_ex.c ****       break;
 1906              		.loc 1 936 7 is_stmt 1 view .LVU609
 936:ThirdParty/STM32F4xx_HAL_Driver/Src/stm32f4xx_hal_adc_ex.c ****       break;
 1907              		.loc 1 936 11 is_stmt 0 view .LVU610
 1908 01ce 0268     		ldr	r2, [r0]
 936:ThirdParty/STM32F4xx_HAL_Driver/Src/stm32f4xx_hal_adc_ex.c ****       break;
 1909              		.loc 1 936 29 view .LVU611
 1910 01d0 D369     		ldr	r3, [r2, #28]
 936:ThirdParty/STM32F4xx_HAL_Driver/Src/stm32f4xx_hal_adc_ex.c ****       break;
 1911              		.loc 1 936 47 view .LVU612
 1912 01d2 CC68     		ldr	r4, [r1, #12]
 936:ThirdParty/STM32F4xx_HAL_Driver/Src/stm32f4xx_hal_adc_ex.c ****       break;
 1913              		.loc 1 936 29 view .LVU613
 1914 01d4 2343     		orrs	r3, r3, r4
 1915 01d6 D361     		str	r3, [r2, #28]
ARM GAS  /tmp/ccHJyd2u.s 			page 64


 937:ThirdParty/STM32F4xx_HAL_Driver/Src/stm32f4xx_hal_adc_ex.c ****     default:
 1916              		.loc 1 937 7 is_stmt 1 view .LVU614
 1917 01d8 D7E7     		b	.L127
 1918              	.LVL114:
 1919              	.L136:
 951:ThirdParty/STM32F4xx_HAL_Driver/Src/stm32f4xx_hal_adc_ex.c ****   {
 1920              		.loc 1 951 51 is_stmt 0 discriminator 1 view .LVU615
 1921 01da 0B68     		ldr	r3, [r1]
 951:ThirdParty/STM32F4xx_HAL_Driver/Src/stm32f4xx_hal_adc_ex.c ****   {
 1922              		.loc 1 951 32 discriminator 1 view .LVU616
 1923 01dc 122B     		cmp	r3, #18
 1924 01de D8D1     		bne	.L128
 954:ThirdParty/STM32F4xx_HAL_Driver/Src/stm32f4xx_hal_adc_ex.c ****   }
 1925              		.loc 1 954 5 is_stmt 1 view .LVU617
 954:ThirdParty/STM32F4xx_HAL_Driver/Src/stm32f4xx_hal_adc_ex.c ****   }
 1926              		.loc 1 954 24 is_stmt 0 view .LVU618
 1927 01e0 0A4A     		ldr	r2, .L138+8
 1928 01e2 5368     		ldr	r3, [r2, #4]
 1929 01e4 43F48003 		orr	r3, r3, #4194304
 1930 01e8 5360     		str	r3, [r2, #4]
 1931 01ea D2E7     		b	.L128
 1932              	.L137:
 958:ThirdParty/STM32F4xx_HAL_Driver/Src/stm32f4xx_hal_adc_ex.c ****   {
 1933              		.loc 1 958 52 discriminator 1 view .LVU619
 1934 01ec 0B68     		ldr	r3, [r1]
 958:ThirdParty/STM32F4xx_HAL_Driver/Src/stm32f4xx_hal_adc_ex.c ****   {
 1935              		.loc 1 958 97 discriminator 1 view .LVU620
 1936 01ee 103B     		subs	r3, r3, #16
 958:ThirdParty/STM32F4xx_HAL_Driver/Src/stm32f4xx_hal_adc_ex.c ****   {
 1937              		.loc 1 958 32 discriminator 1 view .LVU621
 1938 01f0 012B     		cmp	r3, #1
 1939 01f2 D2D8     		bhi	.L129
 961:ThirdParty/STM32F4xx_HAL_Driver/Src/stm32f4xx_hal_adc_ex.c ****   }
 1940              		.loc 1 961 5 is_stmt 1 view .LVU622
 961:ThirdParty/STM32F4xx_HAL_Driver/Src/stm32f4xx_hal_adc_ex.c ****   }
 1941              		.loc 1 961 24 is_stmt 0 view .LVU623
 1942 01f4 054A     		ldr	r2, .L138+8
 1943 01f6 5368     		ldr	r3, [r2, #4]
 1944 01f8 43F40003 		orr	r3, r3, #8388608
 1945 01fc 5360     		str	r3, [r2, #4]
 1946 01fe CCE7     		b	.L129
 1947              	.LVL115:
 1948              	.L130:
 1949              	.LCFI22:
 1950              		.cfi_def_cfa_offset 0
 1951              		.cfi_restore 4
 1952              		.cfi_restore 5
 845:ThirdParty/STM32F4xx_HAL_Driver/Src/stm32f4xx_hal_adc_ex.c ****   
 1953              		.loc 1 845 3 view .LVU624
 1954 0200 0220     		movs	r0, #2
 1955              	.LVL116:
 969:ThirdParty/STM32F4xx_HAL_Driver/Src/stm32f4xx_hal_adc_ex.c **** 
 1956              		.loc 1 969 1 view .LVU625
 1957 0202 7047     		bx	lr
 1958              	.L139:
 1959              		.align	2
 1960              	.L138:
ARM GAS  /tmp/ccHJyd2u.s 			page 65


 1961 0204 01000F00 		.word	983041
 1962 0208 00200140 		.word	1073815552
 1963 020c 00230140 		.word	1073816320
 1964              		.cfi_endproc
 1965              	.LFE143:
 1967              		.section	.text.HAL_ADCEx_MultiModeConfigChannel,"ax",%progbits
 1968              		.align	1
 1969              		.global	HAL_ADCEx_MultiModeConfigChannel
 1970              		.syntax unified
 1971              		.thumb
 1972              		.thumb_func
 1974              	HAL_ADCEx_MultiModeConfigChannel:
 1975              	.LVL117:
 1976              	.LFB144:
 980:ThirdParty/STM32F4xx_HAL_Driver/Src/stm32f4xx_hal_adc_ex.c **** 
 1977              		.loc 1 980 1 is_stmt 1 view -0
 1978              		.cfi_startproc
 1979              		@ args = 0, pretend = 0, frame = 0
 1980              		@ frame_needed = 0, uses_anonymous_args = 0
 1981              		@ link register save eliminated.
 982:ThirdParty/STM32F4xx_HAL_Driver/Src/stm32f4xx_hal_adc_ex.c **** 
 1982              		.loc 1 982 3 view .LVU627
 985:ThirdParty/STM32F4xx_HAL_Driver/Src/stm32f4xx_hal_adc_ex.c ****   assert_param(IS_ADC_DMA_ACCESS_MODE(multimode->DMAAccessMode));
 1983              		.loc 1 985 3 view .LVU628
 986:ThirdParty/STM32F4xx_HAL_Driver/Src/stm32f4xx_hal_adc_ex.c ****   assert_param(IS_ADC_SAMPLING_DELAY(multimode->TwoSamplingDelay));
 1984              		.loc 1 986 3 view .LVU629
 987:ThirdParty/STM32F4xx_HAL_Driver/Src/stm32f4xx_hal_adc_ex.c ****   
 1985              		.loc 1 987 3 view .LVU630
 990:ThirdParty/STM32F4xx_HAL_Driver/Src/stm32f4xx_hal_adc_ex.c **** 
 1986              		.loc 1 990 3 view .LVU631
 990:ThirdParty/STM32F4xx_HAL_Driver/Src/stm32f4xx_hal_adc_ex.c **** 
 1987              		.loc 1 990 3 view .LVU632
 1988 0000 90F83C30 		ldrb	r3, [r0, #60]	@ zero_extendqisi2
 1989 0004 012B     		cmp	r3, #1
 1990 0006 23D0     		beq	.L142
 980:ThirdParty/STM32F4xx_HAL_Driver/Src/stm32f4xx_hal_adc_ex.c **** 
 1991              		.loc 1 980 1 is_stmt 0 discriminator 2 view .LVU633
 1992 0008 10B4     		push	{r4}
 1993              	.LCFI23:
 1994              		.cfi_def_cfa_offset 4
 1995              		.cfi_offset 4, -4
 990:ThirdParty/STM32F4xx_HAL_Driver/Src/stm32f4xx_hal_adc_ex.c **** 
 1996              		.loc 1 990 3 is_stmt 1 discriminator 2 view .LVU634
 1997 000a 0123     		movs	r3, #1
 1998 000c 80F83C30 		strb	r3, [r0, #60]
 990:ThirdParty/STM32F4xx_HAL_Driver/Src/stm32f4xx_hal_adc_ex.c **** 
 1999              		.loc 1 990 3 discriminator 2 view .LVU635
 995:ThirdParty/STM32F4xx_HAL_Driver/Src/stm32f4xx_hal_adc_ex.c **** 
 2000              		.loc 1 995 3 discriminator 2 view .LVU636
 2001              	.LVL118:
 998:ThirdParty/STM32F4xx_HAL_Driver/Src/stm32f4xx_hal_adc_ex.c ****   tmpADC_Common->CCR |= multimode->Mode;
 2002              		.loc 1 998 3 discriminator 2 view .LVU637
 998:ThirdParty/STM32F4xx_HAL_Driver/Src/stm32f4xx_hal_adc_ex.c ****   tmpADC_Common->CCR |= multimode->Mode;
 2003              		.loc 1 998 22 is_stmt 0 discriminator 2 view .LVU638
 2004 0010 104B     		ldr	r3, .L147
 2005 0012 5A68     		ldr	r2, [r3, #4]
 2006 0014 22F01F02 		bic	r2, r2, #31
ARM GAS  /tmp/ccHJyd2u.s 			page 66


 2007 0018 5A60     		str	r2, [r3, #4]
 999:ThirdParty/STM32F4xx_HAL_Driver/Src/stm32f4xx_hal_adc_ex.c ****   
 2008              		.loc 1 999 3 is_stmt 1 discriminator 2 view .LVU639
 999:ThirdParty/STM32F4xx_HAL_Driver/Src/stm32f4xx_hal_adc_ex.c ****   
 2009              		.loc 1 999 22 is_stmt 0 discriminator 2 view .LVU640
 2010 001a 5A68     		ldr	r2, [r3, #4]
 2011 001c 0C68     		ldr	r4, [r1]
 2012 001e 2243     		orrs	r2, r2, r4
 2013 0020 5A60     		str	r2, [r3, #4]
1002:ThirdParty/STM32F4xx_HAL_Driver/Src/stm32f4xx_hal_adc_ex.c ****   tmpADC_Common->CCR |= multimode->DMAAccessMode;
 2014              		.loc 1 1002 3 is_stmt 1 discriminator 2 view .LVU641
1002:ThirdParty/STM32F4xx_HAL_Driver/Src/stm32f4xx_hal_adc_ex.c ****   tmpADC_Common->CCR |= multimode->DMAAccessMode;
 2015              		.loc 1 1002 22 is_stmt 0 discriminator 2 view .LVU642
 2016 0022 5A68     		ldr	r2, [r3, #4]
 2017 0024 22F44042 		bic	r2, r2, #49152
 2018 0028 5A60     		str	r2, [r3, #4]
1003:ThirdParty/STM32F4xx_HAL_Driver/Src/stm32f4xx_hal_adc_ex.c ****   
 2019              		.loc 1 1003 3 is_stmt 1 discriminator 2 view .LVU643
1003:ThirdParty/STM32F4xx_HAL_Driver/Src/stm32f4xx_hal_adc_ex.c ****   
 2020              		.loc 1 1003 22 is_stmt 0 discriminator 2 view .LVU644
 2021 002a 5A68     		ldr	r2, [r3, #4]
 2022 002c 4C68     		ldr	r4, [r1, #4]
 2023 002e 2243     		orrs	r2, r2, r4
 2024 0030 5A60     		str	r2, [r3, #4]
1006:ThirdParty/STM32F4xx_HAL_Driver/Src/stm32f4xx_hal_adc_ex.c ****   tmpADC_Common->CCR |= multimode->TwoSamplingDelay;
 2025              		.loc 1 1006 3 is_stmt 1 discriminator 2 view .LVU645
1006:ThirdParty/STM32F4xx_HAL_Driver/Src/stm32f4xx_hal_adc_ex.c ****   tmpADC_Common->CCR |= multimode->TwoSamplingDelay;
 2026              		.loc 1 1006 22 is_stmt 0 discriminator 2 view .LVU646
 2027 0032 5A68     		ldr	r2, [r3, #4]
 2028 0034 22F47062 		bic	r2, r2, #3840
 2029 0038 5A60     		str	r2, [r3, #4]
1007:ThirdParty/STM32F4xx_HAL_Driver/Src/stm32f4xx_hal_adc_ex.c ****   
 2030              		.loc 1 1007 3 is_stmt 1 discriminator 2 view .LVU647
1007:ThirdParty/STM32F4xx_HAL_Driver/Src/stm32f4xx_hal_adc_ex.c ****   
 2031              		.loc 1 1007 22 is_stmt 0 discriminator 2 view .LVU648
 2032 003a 5A68     		ldr	r2, [r3, #4]
1007:ThirdParty/STM32F4xx_HAL_Driver/Src/stm32f4xx_hal_adc_ex.c ****   
 2033              		.loc 1 1007 34 discriminator 2 view .LVU649
 2034 003c 8968     		ldr	r1, [r1, #8]
 2035              	.LVL119:
1007:ThirdParty/STM32F4xx_HAL_Driver/Src/stm32f4xx_hal_adc_ex.c ****   
 2036              		.loc 1 1007 22 discriminator 2 view .LVU650
 2037 003e 0A43     		orrs	r2, r2, r1
 2038 0040 5A60     		str	r2, [r3, #4]
1010:ThirdParty/STM32F4xx_HAL_Driver/Src/stm32f4xx_hal_adc_ex.c ****   
 2039              		.loc 1 1010 3 is_stmt 1 discriminator 2 view .LVU651
1010:ThirdParty/STM32F4xx_HAL_Driver/Src/stm32f4xx_hal_adc_ex.c ****   
 2040              		.loc 1 1010 3 discriminator 2 view .LVU652
 2041 0042 0023     		movs	r3, #0
 2042 0044 80F83C30 		strb	r3, [r0, #60]
1010:ThirdParty/STM32F4xx_HAL_Driver/Src/stm32f4xx_hal_adc_ex.c ****   
 2043              		.loc 1 1010 3 discriminator 2 view .LVU653
1013:ThirdParty/STM32F4xx_HAL_Driver/Src/stm32f4xx_hal_adc_ex.c **** }
 2044              		.loc 1 1013 3 discriminator 2 view .LVU654
1013:ThirdParty/STM32F4xx_HAL_Driver/Src/stm32f4xx_hal_adc_ex.c **** }
 2045              		.loc 1 1013 10 is_stmt 0 discriminator 2 view .LVU655
 2046 0048 1846     		mov	r0, r3
ARM GAS  /tmp/ccHJyd2u.s 			page 67


 2047              	.LVL120:
1014:ThirdParty/STM32F4xx_HAL_Driver/Src/stm32f4xx_hal_adc_ex.c **** 
 2048              		.loc 1 1014 1 discriminator 2 view .LVU656
 2049 004a 5DF8044B 		ldr	r4, [sp], #4
 2050              	.LCFI24:
 2051              		.cfi_restore 4
 2052              		.cfi_def_cfa_offset 0
 2053 004e 7047     		bx	lr
 2054              	.LVL121:
 2055              	.L142:
 990:ThirdParty/STM32F4xx_HAL_Driver/Src/stm32f4xx_hal_adc_ex.c **** 
 2056              		.loc 1 990 3 view .LVU657
 2057 0050 0220     		movs	r0, #2
 2058              	.LVL122:
1014:ThirdParty/STM32F4xx_HAL_Driver/Src/stm32f4xx_hal_adc_ex.c **** 
 2059              		.loc 1 1014 1 view .LVU658
 2060 0052 7047     		bx	lr
 2061              	.L148:
 2062              		.align	2
 2063              	.L147:
 2064 0054 00230140 		.word	1073816320
 2065              		.cfi_endproc
 2066              	.LFE144:
 2068              		.text
 2069              	.Letext0:
 2070              		.file 2 "/opt/gcc-arm-none-eabi/arm-none-eabi/include/machine/_default_types.h"
 2071              		.file 3 "/opt/gcc-arm-none-eabi/arm-none-eabi/include/sys/_stdint.h"
 2072              		.file 4 "ThirdParty/CMSIS/Device/ST/STM32F4xx/Include/stm32f405xx.h"
 2073              		.file 5 "ThirdParty/CMSIS/Device/ST/STM32F4xx/Include/stm32f4xx.h"
 2074              		.file 6 "ThirdParty/STM32F4xx_HAL_Driver/Inc/stm32f4xx_hal_def.h"
 2075              		.file 7 "ThirdParty/STM32F4xx_HAL_Driver/Inc/stm32f4xx_hal_dma.h"
 2076              		.file 8 "ThirdParty/STM32F4xx_HAL_Driver/Inc/stm32f4xx_hal_adc.h"
 2077              		.file 9 "ThirdParty/STM32F4xx_HAL_Driver/Inc/stm32f4xx_hal_adc_ex.h"
 2078              		.file 10 "ThirdParty/CMSIS/Device/ST/STM32F4xx/Include/system_stm32f4xx.h"
 2079              		.file 11 "ThirdParty/STM32F4xx_HAL_Driver/Inc/stm32f4xx_hal.h"
ARM GAS  /tmp/ccHJyd2u.s 			page 68


DEFINED SYMBOLS
                            *ABS*:0000000000000000 stm32f4xx_hal_adc_ex.c
     /tmp/ccHJyd2u.s:20     .text.ADC_MultiModeDMAError:0000000000000000 $t
     /tmp/ccHJyd2u.s:25     .text.ADC_MultiModeDMAError:0000000000000000 ADC_MultiModeDMAError
     /tmp/ccHJyd2u.s:61     .text.ADC_MultiModeDMAHalfConvCplt:0000000000000000 $t
     /tmp/ccHJyd2u.s:66     .text.ADC_MultiModeDMAHalfConvCplt:0000000000000000 ADC_MultiModeDMAHalfConvCplt
     /tmp/ccHJyd2u.s:93     .text.ADC_MultiModeDMAConvCplt:0000000000000000 $t
     /tmp/ccHJyd2u.s:98     .text.ADC_MultiModeDMAConvCplt:0000000000000000 ADC_MultiModeDMAConvCplt
     /tmp/ccHJyd2u.s:192    .text.HAL_ADCEx_InjectedStart:0000000000000000 $t
     /tmp/ccHJyd2u.s:198    .text.HAL_ADCEx_InjectedStart:0000000000000000 HAL_ADCEx_InjectedStart
     /tmp/ccHJyd2u.s:419    .text.HAL_ADCEx_InjectedStart:00000000000000e4 $d
     /tmp/ccHJyd2u.s:427    .text.HAL_ADCEx_InjectedStart_IT:0000000000000000 $t
     /tmp/ccHJyd2u.s:433    .text.HAL_ADCEx_InjectedStart_IT:0000000000000000 HAL_ADCEx_InjectedStart_IT
     /tmp/ccHJyd2u.s:659    .text.HAL_ADCEx_InjectedStart_IT:00000000000000ec $d
     /tmp/ccHJyd2u.s:667    .text.HAL_ADCEx_InjectedStop:0000000000000000 $t
     /tmp/ccHJyd2u.s:673    .text.HAL_ADCEx_InjectedStop:0000000000000000 HAL_ADCEx_InjectedStop
     /tmp/ccHJyd2u.s:767    .text.HAL_ADCEx_InjectedPollForConversion:0000000000000000 $t
     /tmp/ccHJyd2u.s:773    .text.HAL_ADCEx_InjectedPollForConversion:0000000000000000 HAL_ADCEx_InjectedPollForConversion
     /tmp/ccHJyd2u.s:922    .text.HAL_ADCEx_InjectedStop_IT:0000000000000000 $t
     /tmp/ccHJyd2u.s:928    .text.HAL_ADCEx_InjectedStop_IT:0000000000000000 HAL_ADCEx_InjectedStop_IT
     /tmp/ccHJyd2u.s:1026   .text.HAL_ADCEx_InjectedGetValue:0000000000000000 $t
     /tmp/ccHJyd2u.s:1032   .text.HAL_ADCEx_InjectedGetValue:0000000000000000 HAL_ADCEx_InjectedGetValue
     /tmp/ccHJyd2u.s:1061   .text.HAL_ADCEx_InjectedGetValue:0000000000000018 $d
     /tmp/ccHJyd2u.s:1065   .text.HAL_ADCEx_InjectedGetValue:000000000000001c $t
     /tmp/ccHJyd2u.s:1124   .text.HAL_ADCEx_MultiModeStart_DMA:0000000000000000 $t
     /tmp/ccHJyd2u.s:1130   .text.HAL_ADCEx_MultiModeStart_DMA:0000000000000000 HAL_ADCEx_MultiModeStart_DMA
     /tmp/ccHJyd2u.s:1360   .text.HAL_ADCEx_MultiModeStart_DMA:0000000000000104 $d
     /tmp/ccHJyd2u.s:1371   .text.HAL_ADCEx_MultiModeStop_DMA:0000000000000000 $t
     /tmp/ccHJyd2u.s:1377   .text.HAL_ADCEx_MultiModeStop_DMA:0000000000000000 HAL_ADCEx_MultiModeStop_DMA
     /tmp/ccHJyd2u.s:1470   .text.HAL_ADCEx_MultiModeStop_DMA:0000000000000060 $d
     /tmp/ccHJyd2u.s:1475   .text.HAL_ADCEx_MultiModeGetValue:0000000000000000 $t
     /tmp/ccHJyd2u.s:1481   .text.HAL_ADCEx_MultiModeGetValue:0000000000000000 HAL_ADCEx_MultiModeGetValue
     /tmp/ccHJyd2u.s:1501   .text.HAL_ADCEx_MultiModeGetValue:0000000000000008 $d
     /tmp/ccHJyd2u.s:1506   .text.HAL_ADCEx_InjectedConvCpltCallback:0000000000000000 $t
     /tmp/ccHJyd2u.s:1512   .text.HAL_ADCEx_InjectedConvCpltCallback:0000000000000000 HAL_ADCEx_InjectedConvCpltCallback
     /tmp/ccHJyd2u.s:1527   .text.HAL_ADCEx_InjectedConfigChannel:0000000000000000 $t
     /tmp/ccHJyd2u.s:1533   .text.HAL_ADCEx_InjectedConfigChannel:0000000000000000 HAL_ADCEx_InjectedConfigChannel
     /tmp/ccHJyd2u.s:1961   .text.HAL_ADCEx_InjectedConfigChannel:0000000000000204 $d
     /tmp/ccHJyd2u.s:1968   .text.HAL_ADCEx_MultiModeConfigChannel:0000000000000000 $t
     /tmp/ccHJyd2u.s:1974   .text.HAL_ADCEx_MultiModeConfigChannel:0000000000000000 HAL_ADCEx_MultiModeConfigChannel
     /tmp/ccHJyd2u.s:2064   .text.HAL_ADCEx_MultiModeConfigChannel:0000000000000054 $d

UNDEFINED SYMBOLS
HAL_ADC_ErrorCallback
HAL_ADC_ConvHalfCpltCallback
HAL_ADC_ConvCpltCallback
SystemCoreClock
HAL_GetTick
HAL_DMA_Start_IT
HAL_DMA_Abort
