ARM GAS  /tmp/cc6fvD8U.s 			page 1


   1              		.cpu cortex-m4
   2              		.arch armv7e-m
   3              		.fpu fpv4-sp-d16
   4              		.eabi_attribute 27, 1
   5              		.eabi_attribute 28, 1
   6              		.eabi_attribute 20, 1
   7              		.eabi_attribute 21, 1
   8              		.eabi_attribute 23, 3
   9              		.eabi_attribute 24, 1
  10              		.eabi_attribute 25, 1
  11              		.eabi_attribute 26, 1
  12              		.eabi_attribute 30, 1
  13              		.eabi_attribute 34, 1
  14              		.eabi_attribute 18, 4
  15              		.file	"stm32f4xx_hal_can.c"
  16              		.text
  17              	.Ltext0:
  18              		.cfi_sections	.debug_frame
  19              		.section	.text.HAL_CAN_MspInit,"ax",%progbits
  20              		.align	1
  21              		.weak	HAL_CAN_MspInit
  22              		.syntax unified
  23              		.thumb
  24              		.thumb_func
  26              	HAL_CAN_MspInit:
  27              	.LVL0:
  28              	.LFB135:
  29              		.file 1 "ThirdParty/STM32F4xx_HAL_Driver/Src/stm32f4xx_hal_can.c"
   1:ThirdParty/STM32F4xx_HAL_Driver/Src/stm32f4xx_hal_can.c **** /**
   2:ThirdParty/STM32F4xx_HAL_Driver/Src/stm32f4xx_hal_can.c ****   ******************************************************************************
   3:ThirdParty/STM32F4xx_HAL_Driver/Src/stm32f4xx_hal_can.c ****   * @file    stm32f4xx_hal_can.c
   4:ThirdParty/STM32F4xx_HAL_Driver/Src/stm32f4xx_hal_can.c ****   * @author  MCD Application Team
   5:ThirdParty/STM32F4xx_HAL_Driver/Src/stm32f4xx_hal_can.c ****   * @brief   CAN HAL module driver.
   6:ThirdParty/STM32F4xx_HAL_Driver/Src/stm32f4xx_hal_can.c ****   *          This file provides firmware functions to manage the following
   7:ThirdParty/STM32F4xx_HAL_Driver/Src/stm32f4xx_hal_can.c ****   *          functionalities of the Controller Area Network (CAN) peripheral:
   8:ThirdParty/STM32F4xx_HAL_Driver/Src/stm32f4xx_hal_can.c ****   *           + Initialization and de-initialization functions
   9:ThirdParty/STM32F4xx_HAL_Driver/Src/stm32f4xx_hal_can.c ****   *           + Configuration functions
  10:ThirdParty/STM32F4xx_HAL_Driver/Src/stm32f4xx_hal_can.c ****   *           + Control functions
  11:ThirdParty/STM32F4xx_HAL_Driver/Src/stm32f4xx_hal_can.c ****   *           + Interrupts management
  12:ThirdParty/STM32F4xx_HAL_Driver/Src/stm32f4xx_hal_can.c ****   *           + Callbacks functions
  13:ThirdParty/STM32F4xx_HAL_Driver/Src/stm32f4xx_hal_can.c ****   *           + Peripheral State and Error functions
  14:ThirdParty/STM32F4xx_HAL_Driver/Src/stm32f4xx_hal_can.c ****   *
  15:ThirdParty/STM32F4xx_HAL_Driver/Src/stm32f4xx_hal_can.c ****   @verbatim
  16:ThirdParty/STM32F4xx_HAL_Driver/Src/stm32f4xx_hal_can.c ****   ==============================================================================
  17:ThirdParty/STM32F4xx_HAL_Driver/Src/stm32f4xx_hal_can.c ****                         ##### How to use this driver #####
  18:ThirdParty/STM32F4xx_HAL_Driver/Src/stm32f4xx_hal_can.c ****   ==============================================================================
  19:ThirdParty/STM32F4xx_HAL_Driver/Src/stm32f4xx_hal_can.c ****     [..]
  20:ThirdParty/STM32F4xx_HAL_Driver/Src/stm32f4xx_hal_can.c ****       (#) Initialize the CAN low level resources by implementing the
  21:ThirdParty/STM32F4xx_HAL_Driver/Src/stm32f4xx_hal_can.c ****           HAL_CAN_MspInit():
  22:ThirdParty/STM32F4xx_HAL_Driver/Src/stm32f4xx_hal_can.c ****          (++) Enable the CAN interface clock using __HAL_RCC_CANx_CLK_ENABLE()
  23:ThirdParty/STM32F4xx_HAL_Driver/Src/stm32f4xx_hal_can.c ****          (++) Configure CAN pins
  24:ThirdParty/STM32F4xx_HAL_Driver/Src/stm32f4xx_hal_can.c ****              (+++) Enable the clock for the CAN GPIOs
  25:ThirdParty/STM32F4xx_HAL_Driver/Src/stm32f4xx_hal_can.c ****              (+++) Configure CAN pins as alternate function open-drain
  26:ThirdParty/STM32F4xx_HAL_Driver/Src/stm32f4xx_hal_can.c ****          (++) In case of using interrupts (e.g. HAL_CAN_ActivateNotification())
  27:ThirdParty/STM32F4xx_HAL_Driver/Src/stm32f4xx_hal_can.c ****              (+++) Configure the CAN interrupt priority using
  28:ThirdParty/STM32F4xx_HAL_Driver/Src/stm32f4xx_hal_can.c ****                    HAL_NVIC_SetPriority()
  29:ThirdParty/STM32F4xx_HAL_Driver/Src/stm32f4xx_hal_can.c ****              (+++) Enable the CAN IRQ handler using HAL_NVIC_EnableIRQ()
ARM GAS  /tmp/cc6fvD8U.s 			page 2


  30:ThirdParty/STM32F4xx_HAL_Driver/Src/stm32f4xx_hal_can.c ****              (+++) In CAN IRQ handler, call HAL_CAN_IRQHandler()
  31:ThirdParty/STM32F4xx_HAL_Driver/Src/stm32f4xx_hal_can.c **** 
  32:ThirdParty/STM32F4xx_HAL_Driver/Src/stm32f4xx_hal_can.c ****       (#) Initialize the CAN peripheral using HAL_CAN_Init() function. This
  33:ThirdParty/STM32F4xx_HAL_Driver/Src/stm32f4xx_hal_can.c ****           function resorts to HAL_CAN_MspInit() for low-level initialization.
  34:ThirdParty/STM32F4xx_HAL_Driver/Src/stm32f4xx_hal_can.c **** 
  35:ThirdParty/STM32F4xx_HAL_Driver/Src/stm32f4xx_hal_can.c ****       (#) Configure the reception filters using the following configuration
  36:ThirdParty/STM32F4xx_HAL_Driver/Src/stm32f4xx_hal_can.c ****           functions:
  37:ThirdParty/STM32F4xx_HAL_Driver/Src/stm32f4xx_hal_can.c ****             (++) HAL_CAN_ConfigFilter()
  38:ThirdParty/STM32F4xx_HAL_Driver/Src/stm32f4xx_hal_can.c **** 
  39:ThirdParty/STM32F4xx_HAL_Driver/Src/stm32f4xx_hal_can.c ****       (#) Start the CAN module using HAL_CAN_Start() function. At this level
  40:ThirdParty/STM32F4xx_HAL_Driver/Src/stm32f4xx_hal_can.c ****           the node is active on the bus: it receive messages, and can send
  41:ThirdParty/STM32F4xx_HAL_Driver/Src/stm32f4xx_hal_can.c ****           messages.
  42:ThirdParty/STM32F4xx_HAL_Driver/Src/stm32f4xx_hal_can.c **** 
  43:ThirdParty/STM32F4xx_HAL_Driver/Src/stm32f4xx_hal_can.c ****       (#) To manage messages transmission, the following Tx control functions
  44:ThirdParty/STM32F4xx_HAL_Driver/Src/stm32f4xx_hal_can.c ****           can be used:
  45:ThirdParty/STM32F4xx_HAL_Driver/Src/stm32f4xx_hal_can.c ****             (++) HAL_CAN_AddTxMessage() to request transmission of a new
  46:ThirdParty/STM32F4xx_HAL_Driver/Src/stm32f4xx_hal_can.c ****                  message.
  47:ThirdParty/STM32F4xx_HAL_Driver/Src/stm32f4xx_hal_can.c ****             (++) HAL_CAN_AbortTxRequest() to abort transmission of a pending
  48:ThirdParty/STM32F4xx_HAL_Driver/Src/stm32f4xx_hal_can.c ****                  message.
  49:ThirdParty/STM32F4xx_HAL_Driver/Src/stm32f4xx_hal_can.c ****             (++) HAL_CAN_GetTxMailboxesFreeLevel() to get the number of free Tx
  50:ThirdParty/STM32F4xx_HAL_Driver/Src/stm32f4xx_hal_can.c ****                  mailboxes.
  51:ThirdParty/STM32F4xx_HAL_Driver/Src/stm32f4xx_hal_can.c ****             (++) HAL_CAN_IsTxMessagePending() to check if a message is pending
  52:ThirdParty/STM32F4xx_HAL_Driver/Src/stm32f4xx_hal_can.c ****                  in a Tx mailbox.
  53:ThirdParty/STM32F4xx_HAL_Driver/Src/stm32f4xx_hal_can.c ****             (++) HAL_CAN_GetTxTimestamp() to get the timestamp of Tx message
  54:ThirdParty/STM32F4xx_HAL_Driver/Src/stm32f4xx_hal_can.c ****                  sent, if time triggered communication mode is enabled.
  55:ThirdParty/STM32F4xx_HAL_Driver/Src/stm32f4xx_hal_can.c **** 
  56:ThirdParty/STM32F4xx_HAL_Driver/Src/stm32f4xx_hal_can.c ****       (#) When a message is received into the CAN Rx FIFOs, it can be retrieved
  57:ThirdParty/STM32F4xx_HAL_Driver/Src/stm32f4xx_hal_can.c ****           using the HAL_CAN_GetRxMessage() function. The function
  58:ThirdParty/STM32F4xx_HAL_Driver/Src/stm32f4xx_hal_can.c ****           HAL_CAN_GetRxFifoFillLevel() allows to know how many Rx message are
  59:ThirdParty/STM32F4xx_HAL_Driver/Src/stm32f4xx_hal_can.c ****           stored in the Rx Fifo.
  60:ThirdParty/STM32F4xx_HAL_Driver/Src/stm32f4xx_hal_can.c **** 
  61:ThirdParty/STM32F4xx_HAL_Driver/Src/stm32f4xx_hal_can.c ****       (#) Calling the HAL_CAN_Stop() function stops the CAN module.
  62:ThirdParty/STM32F4xx_HAL_Driver/Src/stm32f4xx_hal_can.c **** 
  63:ThirdParty/STM32F4xx_HAL_Driver/Src/stm32f4xx_hal_can.c ****       (#) The deinitialization is achieved with HAL_CAN_DeInit() function.
  64:ThirdParty/STM32F4xx_HAL_Driver/Src/stm32f4xx_hal_can.c **** 
  65:ThirdParty/STM32F4xx_HAL_Driver/Src/stm32f4xx_hal_can.c **** 
  66:ThirdParty/STM32F4xx_HAL_Driver/Src/stm32f4xx_hal_can.c ****       *** Polling mode operation ***
  67:ThirdParty/STM32F4xx_HAL_Driver/Src/stm32f4xx_hal_can.c ****       ==============================
  68:ThirdParty/STM32F4xx_HAL_Driver/Src/stm32f4xx_hal_can.c ****     [..]
  69:ThirdParty/STM32F4xx_HAL_Driver/Src/stm32f4xx_hal_can.c ****       (#) Reception:
  70:ThirdParty/STM32F4xx_HAL_Driver/Src/stm32f4xx_hal_can.c ****             (++) Monitor reception of message using HAL_CAN_GetRxFifoFillLevel()
  71:ThirdParty/STM32F4xx_HAL_Driver/Src/stm32f4xx_hal_can.c ****                  until at least one message is received.
  72:ThirdParty/STM32F4xx_HAL_Driver/Src/stm32f4xx_hal_can.c ****             (++) Then get the message using HAL_CAN_GetRxMessage().
  73:ThirdParty/STM32F4xx_HAL_Driver/Src/stm32f4xx_hal_can.c **** 
  74:ThirdParty/STM32F4xx_HAL_Driver/Src/stm32f4xx_hal_can.c ****       (#) Transmission:
  75:ThirdParty/STM32F4xx_HAL_Driver/Src/stm32f4xx_hal_can.c ****             (++) Monitor the Tx mailboxes availability until at least one Tx
  76:ThirdParty/STM32F4xx_HAL_Driver/Src/stm32f4xx_hal_can.c ****                  mailbox is free, using HAL_CAN_GetTxMailboxesFreeLevel().
  77:ThirdParty/STM32F4xx_HAL_Driver/Src/stm32f4xx_hal_can.c ****             (++) Then request transmission of a message using
  78:ThirdParty/STM32F4xx_HAL_Driver/Src/stm32f4xx_hal_can.c ****                  HAL_CAN_AddTxMessage().
  79:ThirdParty/STM32F4xx_HAL_Driver/Src/stm32f4xx_hal_can.c **** 
  80:ThirdParty/STM32F4xx_HAL_Driver/Src/stm32f4xx_hal_can.c **** 
  81:ThirdParty/STM32F4xx_HAL_Driver/Src/stm32f4xx_hal_can.c ****       *** Interrupt mode operation ***
  82:ThirdParty/STM32F4xx_HAL_Driver/Src/stm32f4xx_hal_can.c ****       ================================
  83:ThirdParty/STM32F4xx_HAL_Driver/Src/stm32f4xx_hal_can.c ****     [..]
  84:ThirdParty/STM32F4xx_HAL_Driver/Src/stm32f4xx_hal_can.c ****       (#) Notifications are activated using HAL_CAN_ActivateNotification()
  85:ThirdParty/STM32F4xx_HAL_Driver/Src/stm32f4xx_hal_can.c ****           function. Then, the process can be controlled through the
  86:ThirdParty/STM32F4xx_HAL_Driver/Src/stm32f4xx_hal_can.c ****           available user callbacks: HAL_CAN_xxxCallback(), using same APIs
ARM GAS  /tmp/cc6fvD8U.s 			page 3


  87:ThirdParty/STM32F4xx_HAL_Driver/Src/stm32f4xx_hal_can.c ****           HAL_CAN_GetRxMessage() and HAL_CAN_AddTxMessage().
  88:ThirdParty/STM32F4xx_HAL_Driver/Src/stm32f4xx_hal_can.c **** 
  89:ThirdParty/STM32F4xx_HAL_Driver/Src/stm32f4xx_hal_can.c ****       (#) Notifications can be deactivated using
  90:ThirdParty/STM32F4xx_HAL_Driver/Src/stm32f4xx_hal_can.c ****           HAL_CAN_DeactivateNotification() function.
  91:ThirdParty/STM32F4xx_HAL_Driver/Src/stm32f4xx_hal_can.c **** 
  92:ThirdParty/STM32F4xx_HAL_Driver/Src/stm32f4xx_hal_can.c ****       (#) Special care should be taken for CAN_IT_RX_FIFO0_MSG_PENDING and
  93:ThirdParty/STM32F4xx_HAL_Driver/Src/stm32f4xx_hal_can.c ****           CAN_IT_RX_FIFO1_MSG_PENDING notifications. These notifications trig
  94:ThirdParty/STM32F4xx_HAL_Driver/Src/stm32f4xx_hal_can.c ****           the callbacks HAL_CAN_RxFIFO0MsgPendingCallback() and
  95:ThirdParty/STM32F4xx_HAL_Driver/Src/stm32f4xx_hal_can.c ****           HAL_CAN_RxFIFO1MsgPendingCallback(). User has two possible options
  96:ThirdParty/STM32F4xx_HAL_Driver/Src/stm32f4xx_hal_can.c ****           here.
  97:ThirdParty/STM32F4xx_HAL_Driver/Src/stm32f4xx_hal_can.c ****             (++) Directly get the Rx message in the callback, using
  98:ThirdParty/STM32F4xx_HAL_Driver/Src/stm32f4xx_hal_can.c ****                  HAL_CAN_GetRxMessage().
  99:ThirdParty/STM32F4xx_HAL_Driver/Src/stm32f4xx_hal_can.c ****             (++) Or deactivate the notification in the callback without
 100:ThirdParty/STM32F4xx_HAL_Driver/Src/stm32f4xx_hal_can.c ****                  getting the Rx message. The Rx message can then be got later
 101:ThirdParty/STM32F4xx_HAL_Driver/Src/stm32f4xx_hal_can.c ****                  using HAL_CAN_GetRxMessage(). Once the Rx message have been
 102:ThirdParty/STM32F4xx_HAL_Driver/Src/stm32f4xx_hal_can.c ****                  read, the notification can be activated again.
 103:ThirdParty/STM32F4xx_HAL_Driver/Src/stm32f4xx_hal_can.c **** 
 104:ThirdParty/STM32F4xx_HAL_Driver/Src/stm32f4xx_hal_can.c **** 
 105:ThirdParty/STM32F4xx_HAL_Driver/Src/stm32f4xx_hal_can.c ****       *** Sleep mode ***
 106:ThirdParty/STM32F4xx_HAL_Driver/Src/stm32f4xx_hal_can.c ****       ==================
 107:ThirdParty/STM32F4xx_HAL_Driver/Src/stm32f4xx_hal_can.c ****     [..]
 108:ThirdParty/STM32F4xx_HAL_Driver/Src/stm32f4xx_hal_can.c ****       (#) The CAN peripheral can be put in sleep mode (low power), using
 109:ThirdParty/STM32F4xx_HAL_Driver/Src/stm32f4xx_hal_can.c ****           HAL_CAN_RequestSleep(). The sleep mode will be entered as soon as the
 110:ThirdParty/STM32F4xx_HAL_Driver/Src/stm32f4xx_hal_can.c ****           current CAN activity (transmission or reception of a CAN frame) will
 111:ThirdParty/STM32F4xx_HAL_Driver/Src/stm32f4xx_hal_can.c ****           be completed.
 112:ThirdParty/STM32F4xx_HAL_Driver/Src/stm32f4xx_hal_can.c **** 
 113:ThirdParty/STM32F4xx_HAL_Driver/Src/stm32f4xx_hal_can.c ****       (#) A notification can be activated to be informed when the sleep mode
 114:ThirdParty/STM32F4xx_HAL_Driver/Src/stm32f4xx_hal_can.c ****           will be entered.
 115:ThirdParty/STM32F4xx_HAL_Driver/Src/stm32f4xx_hal_can.c **** 
 116:ThirdParty/STM32F4xx_HAL_Driver/Src/stm32f4xx_hal_can.c ****       (#) It can be checked if the sleep mode is entered using
 117:ThirdParty/STM32F4xx_HAL_Driver/Src/stm32f4xx_hal_can.c ****           HAL_CAN_IsSleepActive().
 118:ThirdParty/STM32F4xx_HAL_Driver/Src/stm32f4xx_hal_can.c ****           Note that the CAN state (accessible from the API HAL_CAN_GetState())
 119:ThirdParty/STM32F4xx_HAL_Driver/Src/stm32f4xx_hal_can.c ****           is HAL_CAN_STATE_SLEEP_PENDING as soon as the sleep mode request is
 120:ThirdParty/STM32F4xx_HAL_Driver/Src/stm32f4xx_hal_can.c ****           submitted (the sleep mode is not yet entered), and become
 121:ThirdParty/STM32F4xx_HAL_Driver/Src/stm32f4xx_hal_can.c ****           HAL_CAN_STATE_SLEEP_ACTIVE when the sleep mode is effective.
 122:ThirdParty/STM32F4xx_HAL_Driver/Src/stm32f4xx_hal_can.c **** 
 123:ThirdParty/STM32F4xx_HAL_Driver/Src/stm32f4xx_hal_can.c ****       (#) The wake-up from sleep mode can be trigged by two ways:
 124:ThirdParty/STM32F4xx_HAL_Driver/Src/stm32f4xx_hal_can.c ****             (++) Using HAL_CAN_WakeUp(). When returning from this function,
 125:ThirdParty/STM32F4xx_HAL_Driver/Src/stm32f4xx_hal_can.c ****                  the sleep mode is exited (if return status is HAL_OK).
 126:ThirdParty/STM32F4xx_HAL_Driver/Src/stm32f4xx_hal_can.c ****             (++) When a start of Rx CAN frame is detected by the CAN peripheral,
 127:ThirdParty/STM32F4xx_HAL_Driver/Src/stm32f4xx_hal_can.c ****                  if automatic wake up mode is enabled.
 128:ThirdParty/STM32F4xx_HAL_Driver/Src/stm32f4xx_hal_can.c **** 
 129:ThirdParty/STM32F4xx_HAL_Driver/Src/stm32f4xx_hal_can.c ****   @endverbatim
 130:ThirdParty/STM32F4xx_HAL_Driver/Src/stm32f4xx_hal_can.c ****   ******************************************************************************
 131:ThirdParty/STM32F4xx_HAL_Driver/Src/stm32f4xx_hal_can.c ****   * @attention
 132:ThirdParty/STM32F4xx_HAL_Driver/Src/stm32f4xx_hal_can.c ****   *
 133:ThirdParty/STM32F4xx_HAL_Driver/Src/stm32f4xx_hal_can.c ****   * <h2><center>&copy; COPYRIGHT(c) 2016 STMicroelectronics</center></h2>
 134:ThirdParty/STM32F4xx_HAL_Driver/Src/stm32f4xx_hal_can.c ****   *
 135:ThirdParty/STM32F4xx_HAL_Driver/Src/stm32f4xx_hal_can.c ****   * Redistribution and use in source and binary forms, with or without modification,
 136:ThirdParty/STM32F4xx_HAL_Driver/Src/stm32f4xx_hal_can.c ****   * are permitted provided that the following conditions are met:
 137:ThirdParty/STM32F4xx_HAL_Driver/Src/stm32f4xx_hal_can.c ****   *   1. Redistributions of source code must retain the above copyright notice,
 138:ThirdParty/STM32F4xx_HAL_Driver/Src/stm32f4xx_hal_can.c ****   *      this list of conditions and the following disclaimer.
 139:ThirdParty/STM32F4xx_HAL_Driver/Src/stm32f4xx_hal_can.c ****   *   2. Redistributions in binary form must reproduce the above copyright notice,
 140:ThirdParty/STM32F4xx_HAL_Driver/Src/stm32f4xx_hal_can.c ****   *      this list of conditions and the following disclaimer in the documentation
 141:ThirdParty/STM32F4xx_HAL_Driver/Src/stm32f4xx_hal_can.c ****   *      and/or other materials provided with the distribution.
 142:ThirdParty/STM32F4xx_HAL_Driver/Src/stm32f4xx_hal_can.c ****   *   3. Neither the name of STMicroelectronics nor the names of its contributors
 143:ThirdParty/STM32F4xx_HAL_Driver/Src/stm32f4xx_hal_can.c ****   *      may be used to endorse or promote products derived from this software
ARM GAS  /tmp/cc6fvD8U.s 			page 4


 144:ThirdParty/STM32F4xx_HAL_Driver/Src/stm32f4xx_hal_can.c ****   *      without specific prior written permission.
 145:ThirdParty/STM32F4xx_HAL_Driver/Src/stm32f4xx_hal_can.c ****   *
 146:ThirdParty/STM32F4xx_HAL_Driver/Src/stm32f4xx_hal_can.c ****   * THIS SOFTWARE IS PROVIDED BY THE COPYRIGHT HOLDERS AND CONTRIBUTORS "AS IS"
 147:ThirdParty/STM32F4xx_HAL_Driver/Src/stm32f4xx_hal_can.c ****   * AND ANY EXPRESS OR IMPLIED WARRANTIES, INCLUDING, BUT NOT LIMITED TO, THE
 148:ThirdParty/STM32F4xx_HAL_Driver/Src/stm32f4xx_hal_can.c ****   * IMPLIED WARRANTIES OF MERCHANTABILITY AND FITNESS FOR A PARTICULAR PURPOSE ARE
 149:ThirdParty/STM32F4xx_HAL_Driver/Src/stm32f4xx_hal_can.c ****   * DISCLAIMED. IN NO EVENT SHALL THE COPYRIGHT HOLDER OR CONTRIBUTORS BE LIABLE
 150:ThirdParty/STM32F4xx_HAL_Driver/Src/stm32f4xx_hal_can.c ****   * FOR ANY DIRECT, INDIRECT, INCIDENTAL, SPECIAL, EXEMPLARY, OR CONSEQUENTIAL
 151:ThirdParty/STM32F4xx_HAL_Driver/Src/stm32f4xx_hal_can.c ****   * DAMAGES (INCLUDING, BUT NOT LIMITED TO, PROCUREMENT OF SUBSTITUTE GOODS OR
 152:ThirdParty/STM32F4xx_HAL_Driver/Src/stm32f4xx_hal_can.c ****   * SERVICES; LOSS OF USE, DATA, OR PROFITS; OR BUSINESS INTERRUPTION) HOWEVER
 153:ThirdParty/STM32F4xx_HAL_Driver/Src/stm32f4xx_hal_can.c ****   * CAUSED AND ON ANY THEORY OF LIABILITY, WHETHER IN CONTRACT, STRICT LIABILITY,
 154:ThirdParty/STM32F4xx_HAL_Driver/Src/stm32f4xx_hal_can.c ****   * OR TORT (INCLUDING NEGLIGENCE OR OTHERWISE) ARISING IN ANY WAY OUT OF THE USE
 155:ThirdParty/STM32F4xx_HAL_Driver/Src/stm32f4xx_hal_can.c ****   * OF THIS SOFTWARE, EVEN IF ADVISED OF THE POSSIBILITY OF SUCH DAMAGE.
 156:ThirdParty/STM32F4xx_HAL_Driver/Src/stm32f4xx_hal_can.c ****   *
 157:ThirdParty/STM32F4xx_HAL_Driver/Src/stm32f4xx_hal_can.c ****   ******************************************************************************
 158:ThirdParty/STM32F4xx_HAL_Driver/Src/stm32f4xx_hal_can.c ****   */
 159:ThirdParty/STM32F4xx_HAL_Driver/Src/stm32f4xx_hal_can.c **** 
 160:ThirdParty/STM32F4xx_HAL_Driver/Src/stm32f4xx_hal_can.c **** /* Includes ------------------------------------------------------------------*/
 161:ThirdParty/STM32F4xx_HAL_Driver/Src/stm32f4xx_hal_can.c **** #include "stm32f4xx_hal.h"
 162:ThirdParty/STM32F4xx_HAL_Driver/Src/stm32f4xx_hal_can.c **** 
 163:ThirdParty/STM32F4xx_HAL_Driver/Src/stm32f4xx_hal_can.c **** /** @addtogroup STM32F4xx_HAL_Driver
 164:ThirdParty/STM32F4xx_HAL_Driver/Src/stm32f4xx_hal_can.c ****   * @{
 165:ThirdParty/STM32F4xx_HAL_Driver/Src/stm32f4xx_hal_can.c ****   */
 166:ThirdParty/STM32F4xx_HAL_Driver/Src/stm32f4xx_hal_can.c **** 
 167:ThirdParty/STM32F4xx_HAL_Driver/Src/stm32f4xx_hal_can.c **** #if defined(CAN1)
 168:ThirdParty/STM32F4xx_HAL_Driver/Src/stm32f4xx_hal_can.c **** 
 169:ThirdParty/STM32F4xx_HAL_Driver/Src/stm32f4xx_hal_can.c **** /** @defgroup CAN CAN
 170:ThirdParty/STM32F4xx_HAL_Driver/Src/stm32f4xx_hal_can.c ****   * @brief CAN driver modules
 171:ThirdParty/STM32F4xx_HAL_Driver/Src/stm32f4xx_hal_can.c ****   * @{
 172:ThirdParty/STM32F4xx_HAL_Driver/Src/stm32f4xx_hal_can.c ****   */
 173:ThirdParty/STM32F4xx_HAL_Driver/Src/stm32f4xx_hal_can.c **** 
 174:ThirdParty/STM32F4xx_HAL_Driver/Src/stm32f4xx_hal_can.c **** #ifdef HAL_CAN_MODULE_ENABLED
 175:ThirdParty/STM32F4xx_HAL_Driver/Src/stm32f4xx_hal_can.c **** 
 176:ThirdParty/STM32F4xx_HAL_Driver/Src/stm32f4xx_hal_can.c **** #ifdef HAL_CAN_LEGACY_MODULE_ENABLED
 177:ThirdParty/STM32F4xx_HAL_Driver/Src/stm32f4xx_hal_can.c ****   #error "The CAN driver cannot be used with its legacy, Please enable only one CAN module at once"
 178:ThirdParty/STM32F4xx_HAL_Driver/Src/stm32f4xx_hal_can.c **** #endif
 179:ThirdParty/STM32F4xx_HAL_Driver/Src/stm32f4xx_hal_can.c **** 
 180:ThirdParty/STM32F4xx_HAL_Driver/Src/stm32f4xx_hal_can.c **** /* Private typedef -----------------------------------------------------------*/
 181:ThirdParty/STM32F4xx_HAL_Driver/Src/stm32f4xx_hal_can.c **** /* Private define ------------------------------------------------------------*/
 182:ThirdParty/STM32F4xx_HAL_Driver/Src/stm32f4xx_hal_can.c **** /** @defgroup CAN_Private_Constants CAN Private Constants
 183:ThirdParty/STM32F4xx_HAL_Driver/Src/stm32f4xx_hal_can.c ****   * @{
 184:ThirdParty/STM32F4xx_HAL_Driver/Src/stm32f4xx_hal_can.c ****   */
 185:ThirdParty/STM32F4xx_HAL_Driver/Src/stm32f4xx_hal_can.c **** #define CAN_TIMEOUT_VALUE 10U
 186:ThirdParty/STM32F4xx_HAL_Driver/Src/stm32f4xx_hal_can.c **** /**
 187:ThirdParty/STM32F4xx_HAL_Driver/Src/stm32f4xx_hal_can.c ****   * @}
 188:ThirdParty/STM32F4xx_HAL_Driver/Src/stm32f4xx_hal_can.c ****   */
 189:ThirdParty/STM32F4xx_HAL_Driver/Src/stm32f4xx_hal_can.c **** /* Private macro -------------------------------------------------------------*/
 190:ThirdParty/STM32F4xx_HAL_Driver/Src/stm32f4xx_hal_can.c **** /* Private variables ---------------------------------------------------------*/
 191:ThirdParty/STM32F4xx_HAL_Driver/Src/stm32f4xx_hal_can.c **** /* Private function prototypes -----------------------------------------------*/
 192:ThirdParty/STM32F4xx_HAL_Driver/Src/stm32f4xx_hal_can.c **** /* Exported functions --------------------------------------------------------*/
 193:ThirdParty/STM32F4xx_HAL_Driver/Src/stm32f4xx_hal_can.c **** 
 194:ThirdParty/STM32F4xx_HAL_Driver/Src/stm32f4xx_hal_can.c **** /** @defgroup CAN_Exported_Functions CAN Exported Functions
 195:ThirdParty/STM32F4xx_HAL_Driver/Src/stm32f4xx_hal_can.c ****   * @{
 196:ThirdParty/STM32F4xx_HAL_Driver/Src/stm32f4xx_hal_can.c ****   */
 197:ThirdParty/STM32F4xx_HAL_Driver/Src/stm32f4xx_hal_can.c **** 
 198:ThirdParty/STM32F4xx_HAL_Driver/Src/stm32f4xx_hal_can.c **** /** @defgroup CAN_Exported_Functions_Group1 Initialization and de-initialization functions
 199:ThirdParty/STM32F4xx_HAL_Driver/Src/stm32f4xx_hal_can.c ****  *  @brief    Initialization and Configuration functions
 200:ThirdParty/STM32F4xx_HAL_Driver/Src/stm32f4xx_hal_can.c ****  *
ARM GAS  /tmp/cc6fvD8U.s 			page 5


 201:ThirdParty/STM32F4xx_HAL_Driver/Src/stm32f4xx_hal_can.c **** @verbatim
 202:ThirdParty/STM32F4xx_HAL_Driver/Src/stm32f4xx_hal_can.c ****   ==============================================================================
 203:ThirdParty/STM32F4xx_HAL_Driver/Src/stm32f4xx_hal_can.c ****               ##### Initialization and de-initialization functions #####
 204:ThirdParty/STM32F4xx_HAL_Driver/Src/stm32f4xx_hal_can.c ****   ==============================================================================
 205:ThirdParty/STM32F4xx_HAL_Driver/Src/stm32f4xx_hal_can.c ****     [..]  This section provides functions allowing to:
 206:ThirdParty/STM32F4xx_HAL_Driver/Src/stm32f4xx_hal_can.c ****       (+) HAL_CAN_Init                       : Initialize and configure the CAN.
 207:ThirdParty/STM32F4xx_HAL_Driver/Src/stm32f4xx_hal_can.c ****       (+) HAL_CAN_DeInit                     : De-initialize the CAN.
 208:ThirdParty/STM32F4xx_HAL_Driver/Src/stm32f4xx_hal_can.c ****       (+) HAL_CAN_MspInit                    : Initialize the CAN MSP.
 209:ThirdParty/STM32F4xx_HAL_Driver/Src/stm32f4xx_hal_can.c ****       (+) HAL_CAN_MspDeInit                  : DeInitialize the CAN MSP.
 210:ThirdParty/STM32F4xx_HAL_Driver/Src/stm32f4xx_hal_can.c **** 
 211:ThirdParty/STM32F4xx_HAL_Driver/Src/stm32f4xx_hal_can.c **** @endverbatim
 212:ThirdParty/STM32F4xx_HAL_Driver/Src/stm32f4xx_hal_can.c ****   * @{
 213:ThirdParty/STM32F4xx_HAL_Driver/Src/stm32f4xx_hal_can.c ****   */
 214:ThirdParty/STM32F4xx_HAL_Driver/Src/stm32f4xx_hal_can.c **** 
 215:ThirdParty/STM32F4xx_HAL_Driver/Src/stm32f4xx_hal_can.c **** /**
 216:ThirdParty/STM32F4xx_HAL_Driver/Src/stm32f4xx_hal_can.c ****   * @brief  Initializes the CAN peripheral according to the specified
 217:ThirdParty/STM32F4xx_HAL_Driver/Src/stm32f4xx_hal_can.c ****   *         parameters in the CAN_InitStruct.
 218:ThirdParty/STM32F4xx_HAL_Driver/Src/stm32f4xx_hal_can.c ****   * @param  hcan pointer to a CAN_HandleTypeDef structure that contains
 219:ThirdParty/STM32F4xx_HAL_Driver/Src/stm32f4xx_hal_can.c ****   *         the configuration information for the specified CAN.
 220:ThirdParty/STM32F4xx_HAL_Driver/Src/stm32f4xx_hal_can.c ****   * @retval HAL status
 221:ThirdParty/STM32F4xx_HAL_Driver/Src/stm32f4xx_hal_can.c ****   */
 222:ThirdParty/STM32F4xx_HAL_Driver/Src/stm32f4xx_hal_can.c **** HAL_StatusTypeDef HAL_CAN_Init(CAN_HandleTypeDef *hcan)
 223:ThirdParty/STM32F4xx_HAL_Driver/Src/stm32f4xx_hal_can.c **** {
 224:ThirdParty/STM32F4xx_HAL_Driver/Src/stm32f4xx_hal_can.c ****   uint32_t tickstart = 0U;
 225:ThirdParty/STM32F4xx_HAL_Driver/Src/stm32f4xx_hal_can.c **** 
 226:ThirdParty/STM32F4xx_HAL_Driver/Src/stm32f4xx_hal_can.c ****   /* Check CAN handle */
 227:ThirdParty/STM32F4xx_HAL_Driver/Src/stm32f4xx_hal_can.c ****   if (hcan == NULL)
 228:ThirdParty/STM32F4xx_HAL_Driver/Src/stm32f4xx_hal_can.c ****   {
 229:ThirdParty/STM32F4xx_HAL_Driver/Src/stm32f4xx_hal_can.c ****     return HAL_ERROR;
 230:ThirdParty/STM32F4xx_HAL_Driver/Src/stm32f4xx_hal_can.c ****   }
 231:ThirdParty/STM32F4xx_HAL_Driver/Src/stm32f4xx_hal_can.c **** 
 232:ThirdParty/STM32F4xx_HAL_Driver/Src/stm32f4xx_hal_can.c ****   /* Check the parameters */
 233:ThirdParty/STM32F4xx_HAL_Driver/Src/stm32f4xx_hal_can.c ****   assert_param(IS_CAN_ALL_INSTANCE(hcan->Instance));
 234:ThirdParty/STM32F4xx_HAL_Driver/Src/stm32f4xx_hal_can.c ****   assert_param(IS_FUNCTIONAL_STATE(hcan->Init.TimeTriggeredMode));
 235:ThirdParty/STM32F4xx_HAL_Driver/Src/stm32f4xx_hal_can.c ****   assert_param(IS_FUNCTIONAL_STATE(hcan->Init.AutoBusOff));
 236:ThirdParty/STM32F4xx_HAL_Driver/Src/stm32f4xx_hal_can.c ****   assert_param(IS_FUNCTIONAL_STATE(hcan->Init.AutoWakeUp));
 237:ThirdParty/STM32F4xx_HAL_Driver/Src/stm32f4xx_hal_can.c ****   assert_param(IS_FUNCTIONAL_STATE(hcan->Init.AutoRetransmission));
 238:ThirdParty/STM32F4xx_HAL_Driver/Src/stm32f4xx_hal_can.c ****   assert_param(IS_FUNCTIONAL_STATE(hcan->Init.ReceiveFifoLocked));
 239:ThirdParty/STM32F4xx_HAL_Driver/Src/stm32f4xx_hal_can.c ****   assert_param(IS_FUNCTIONAL_STATE(hcan->Init.TransmitFifoPriority));
 240:ThirdParty/STM32F4xx_HAL_Driver/Src/stm32f4xx_hal_can.c ****   assert_param(IS_CAN_MODE(hcan->Init.Mode));
 241:ThirdParty/STM32F4xx_HAL_Driver/Src/stm32f4xx_hal_can.c ****   assert_param(IS_CAN_SJW(hcan->Init.SyncJumpWidth));
 242:ThirdParty/STM32F4xx_HAL_Driver/Src/stm32f4xx_hal_can.c ****   assert_param(IS_CAN_BS1(hcan->Init.TimeSeg1));
 243:ThirdParty/STM32F4xx_HAL_Driver/Src/stm32f4xx_hal_can.c ****   assert_param(IS_CAN_BS2(hcan->Init.TimeSeg2));
 244:ThirdParty/STM32F4xx_HAL_Driver/Src/stm32f4xx_hal_can.c ****   assert_param(IS_CAN_PRESCALER(hcan->Init.Prescaler));
 245:ThirdParty/STM32F4xx_HAL_Driver/Src/stm32f4xx_hal_can.c **** 
 246:ThirdParty/STM32F4xx_HAL_Driver/Src/stm32f4xx_hal_can.c ****   if (hcan->State == HAL_CAN_STATE_RESET)
 247:ThirdParty/STM32F4xx_HAL_Driver/Src/stm32f4xx_hal_can.c ****   {
 248:ThirdParty/STM32F4xx_HAL_Driver/Src/stm32f4xx_hal_can.c ****     /* Init the low level hardware: CLOCK, NVIC */
 249:ThirdParty/STM32F4xx_HAL_Driver/Src/stm32f4xx_hal_can.c ****     HAL_CAN_MspInit(hcan);
 250:ThirdParty/STM32F4xx_HAL_Driver/Src/stm32f4xx_hal_can.c ****   }
 251:ThirdParty/STM32F4xx_HAL_Driver/Src/stm32f4xx_hal_can.c **** 
 252:ThirdParty/STM32F4xx_HAL_Driver/Src/stm32f4xx_hal_can.c ****   /* Exit from sleep mode */
 253:ThirdParty/STM32F4xx_HAL_Driver/Src/stm32f4xx_hal_can.c ****   CLEAR_BIT(hcan->Instance->MCR, CAN_MCR_SLEEP);
 254:ThirdParty/STM32F4xx_HAL_Driver/Src/stm32f4xx_hal_can.c **** 
 255:ThirdParty/STM32F4xx_HAL_Driver/Src/stm32f4xx_hal_can.c ****   /* Get tick */
 256:ThirdParty/STM32F4xx_HAL_Driver/Src/stm32f4xx_hal_can.c ****   tickstart = HAL_GetTick();
 257:ThirdParty/STM32F4xx_HAL_Driver/Src/stm32f4xx_hal_can.c **** 
ARM GAS  /tmp/cc6fvD8U.s 			page 6


 258:ThirdParty/STM32F4xx_HAL_Driver/Src/stm32f4xx_hal_can.c ****   /* Check Sleep mode leave acknowledge */
 259:ThirdParty/STM32F4xx_HAL_Driver/Src/stm32f4xx_hal_can.c ****   while ((hcan->Instance->MSR & CAN_MSR_SLAK) != RESET)
 260:ThirdParty/STM32F4xx_HAL_Driver/Src/stm32f4xx_hal_can.c ****   {
 261:ThirdParty/STM32F4xx_HAL_Driver/Src/stm32f4xx_hal_can.c ****     if ((HAL_GetTick() - tickstart) > CAN_TIMEOUT_VALUE)
 262:ThirdParty/STM32F4xx_HAL_Driver/Src/stm32f4xx_hal_can.c ****     {
 263:ThirdParty/STM32F4xx_HAL_Driver/Src/stm32f4xx_hal_can.c ****       /* Update error code */
 264:ThirdParty/STM32F4xx_HAL_Driver/Src/stm32f4xx_hal_can.c ****       hcan->ErrorCode |= HAL_CAN_ERROR_TIMEOUT;
 265:ThirdParty/STM32F4xx_HAL_Driver/Src/stm32f4xx_hal_can.c **** 
 266:ThirdParty/STM32F4xx_HAL_Driver/Src/stm32f4xx_hal_can.c ****       /* Change CAN state */
 267:ThirdParty/STM32F4xx_HAL_Driver/Src/stm32f4xx_hal_can.c ****       hcan->State = HAL_CAN_STATE_ERROR;
 268:ThirdParty/STM32F4xx_HAL_Driver/Src/stm32f4xx_hal_can.c **** 
 269:ThirdParty/STM32F4xx_HAL_Driver/Src/stm32f4xx_hal_can.c ****       return HAL_ERROR;
 270:ThirdParty/STM32F4xx_HAL_Driver/Src/stm32f4xx_hal_can.c ****     }
 271:ThirdParty/STM32F4xx_HAL_Driver/Src/stm32f4xx_hal_can.c ****   }
 272:ThirdParty/STM32F4xx_HAL_Driver/Src/stm32f4xx_hal_can.c **** 
 273:ThirdParty/STM32F4xx_HAL_Driver/Src/stm32f4xx_hal_can.c ****   /* Request initialisation */
 274:ThirdParty/STM32F4xx_HAL_Driver/Src/stm32f4xx_hal_can.c ****   SET_BIT(hcan->Instance->MCR, CAN_MCR_INRQ);
 275:ThirdParty/STM32F4xx_HAL_Driver/Src/stm32f4xx_hal_can.c **** 
 276:ThirdParty/STM32F4xx_HAL_Driver/Src/stm32f4xx_hal_can.c ****   /* Get tick */
 277:ThirdParty/STM32F4xx_HAL_Driver/Src/stm32f4xx_hal_can.c ****   tickstart = HAL_GetTick();
 278:ThirdParty/STM32F4xx_HAL_Driver/Src/stm32f4xx_hal_can.c **** 
 279:ThirdParty/STM32F4xx_HAL_Driver/Src/stm32f4xx_hal_can.c ****   /* Wait initialisation acknowledge */
 280:ThirdParty/STM32F4xx_HAL_Driver/Src/stm32f4xx_hal_can.c ****   while ((hcan->Instance->MSR & CAN_MSR_INAK) == RESET)
 281:ThirdParty/STM32F4xx_HAL_Driver/Src/stm32f4xx_hal_can.c ****   {
 282:ThirdParty/STM32F4xx_HAL_Driver/Src/stm32f4xx_hal_can.c ****     if ((HAL_GetTick() - tickstart) > CAN_TIMEOUT_VALUE)
 283:ThirdParty/STM32F4xx_HAL_Driver/Src/stm32f4xx_hal_can.c ****     {
 284:ThirdParty/STM32F4xx_HAL_Driver/Src/stm32f4xx_hal_can.c ****       /* Update error code */
 285:ThirdParty/STM32F4xx_HAL_Driver/Src/stm32f4xx_hal_can.c ****       hcan->ErrorCode |= HAL_CAN_ERROR_TIMEOUT;
 286:ThirdParty/STM32F4xx_HAL_Driver/Src/stm32f4xx_hal_can.c **** 
 287:ThirdParty/STM32F4xx_HAL_Driver/Src/stm32f4xx_hal_can.c ****       /* Change CAN state */
 288:ThirdParty/STM32F4xx_HAL_Driver/Src/stm32f4xx_hal_can.c ****       hcan->State = HAL_CAN_STATE_ERROR;
 289:ThirdParty/STM32F4xx_HAL_Driver/Src/stm32f4xx_hal_can.c **** 
 290:ThirdParty/STM32F4xx_HAL_Driver/Src/stm32f4xx_hal_can.c ****       return HAL_ERROR;
 291:ThirdParty/STM32F4xx_HAL_Driver/Src/stm32f4xx_hal_can.c ****     }
 292:ThirdParty/STM32F4xx_HAL_Driver/Src/stm32f4xx_hal_can.c ****   }
 293:ThirdParty/STM32F4xx_HAL_Driver/Src/stm32f4xx_hal_can.c **** 
 294:ThirdParty/STM32F4xx_HAL_Driver/Src/stm32f4xx_hal_can.c ****   /* Set the time triggered communication mode */
 295:ThirdParty/STM32F4xx_HAL_Driver/Src/stm32f4xx_hal_can.c ****   if (hcan->Init.TimeTriggeredMode == ENABLE)
 296:ThirdParty/STM32F4xx_HAL_Driver/Src/stm32f4xx_hal_can.c ****   {
 297:ThirdParty/STM32F4xx_HAL_Driver/Src/stm32f4xx_hal_can.c ****     SET_BIT(hcan->Instance->MCR, CAN_MCR_TTCM);
 298:ThirdParty/STM32F4xx_HAL_Driver/Src/stm32f4xx_hal_can.c ****   }
 299:ThirdParty/STM32F4xx_HAL_Driver/Src/stm32f4xx_hal_can.c ****   else
 300:ThirdParty/STM32F4xx_HAL_Driver/Src/stm32f4xx_hal_can.c ****   {
 301:ThirdParty/STM32F4xx_HAL_Driver/Src/stm32f4xx_hal_can.c ****     CLEAR_BIT(hcan->Instance->MCR, CAN_MCR_TTCM);
 302:ThirdParty/STM32F4xx_HAL_Driver/Src/stm32f4xx_hal_can.c ****   }
 303:ThirdParty/STM32F4xx_HAL_Driver/Src/stm32f4xx_hal_can.c **** 
 304:ThirdParty/STM32F4xx_HAL_Driver/Src/stm32f4xx_hal_can.c ****   /* Set the automatic bus-off management */
 305:ThirdParty/STM32F4xx_HAL_Driver/Src/stm32f4xx_hal_can.c ****   if (hcan->Init.AutoBusOff == ENABLE)
 306:ThirdParty/STM32F4xx_HAL_Driver/Src/stm32f4xx_hal_can.c ****   {
 307:ThirdParty/STM32F4xx_HAL_Driver/Src/stm32f4xx_hal_can.c ****     SET_BIT(hcan->Instance->MCR, CAN_MCR_ABOM);
 308:ThirdParty/STM32F4xx_HAL_Driver/Src/stm32f4xx_hal_can.c ****   }
 309:ThirdParty/STM32F4xx_HAL_Driver/Src/stm32f4xx_hal_can.c ****   else
 310:ThirdParty/STM32F4xx_HAL_Driver/Src/stm32f4xx_hal_can.c ****   {
 311:ThirdParty/STM32F4xx_HAL_Driver/Src/stm32f4xx_hal_can.c ****     CLEAR_BIT(hcan->Instance->MCR, CAN_MCR_ABOM);
 312:ThirdParty/STM32F4xx_HAL_Driver/Src/stm32f4xx_hal_can.c ****   }
 313:ThirdParty/STM32F4xx_HAL_Driver/Src/stm32f4xx_hal_can.c **** 
 314:ThirdParty/STM32F4xx_HAL_Driver/Src/stm32f4xx_hal_can.c ****   /* Set the automatic wake-up mode */
ARM GAS  /tmp/cc6fvD8U.s 			page 7


 315:ThirdParty/STM32F4xx_HAL_Driver/Src/stm32f4xx_hal_can.c ****   if (hcan->Init.AutoWakeUp == ENABLE)
 316:ThirdParty/STM32F4xx_HAL_Driver/Src/stm32f4xx_hal_can.c ****   {
 317:ThirdParty/STM32F4xx_HAL_Driver/Src/stm32f4xx_hal_can.c ****     SET_BIT(hcan->Instance->MCR, CAN_MCR_AWUM);
 318:ThirdParty/STM32F4xx_HAL_Driver/Src/stm32f4xx_hal_can.c ****   }
 319:ThirdParty/STM32F4xx_HAL_Driver/Src/stm32f4xx_hal_can.c ****   else
 320:ThirdParty/STM32F4xx_HAL_Driver/Src/stm32f4xx_hal_can.c ****   {
 321:ThirdParty/STM32F4xx_HAL_Driver/Src/stm32f4xx_hal_can.c ****     CLEAR_BIT(hcan->Instance->MCR, CAN_MCR_AWUM);
 322:ThirdParty/STM32F4xx_HAL_Driver/Src/stm32f4xx_hal_can.c ****   }
 323:ThirdParty/STM32F4xx_HAL_Driver/Src/stm32f4xx_hal_can.c **** 
 324:ThirdParty/STM32F4xx_HAL_Driver/Src/stm32f4xx_hal_can.c ****   /* Set the automatic retransmission */
 325:ThirdParty/STM32F4xx_HAL_Driver/Src/stm32f4xx_hal_can.c ****   if (hcan->Init.AutoRetransmission == ENABLE)
 326:ThirdParty/STM32F4xx_HAL_Driver/Src/stm32f4xx_hal_can.c ****   {
 327:ThirdParty/STM32F4xx_HAL_Driver/Src/stm32f4xx_hal_can.c ****     CLEAR_BIT(hcan->Instance->MCR, CAN_MCR_NART);
 328:ThirdParty/STM32F4xx_HAL_Driver/Src/stm32f4xx_hal_can.c ****   }
 329:ThirdParty/STM32F4xx_HAL_Driver/Src/stm32f4xx_hal_can.c ****   else
 330:ThirdParty/STM32F4xx_HAL_Driver/Src/stm32f4xx_hal_can.c ****   {
 331:ThirdParty/STM32F4xx_HAL_Driver/Src/stm32f4xx_hal_can.c ****     SET_BIT(hcan->Instance->MCR, CAN_MCR_NART);
 332:ThirdParty/STM32F4xx_HAL_Driver/Src/stm32f4xx_hal_can.c ****   }
 333:ThirdParty/STM32F4xx_HAL_Driver/Src/stm32f4xx_hal_can.c **** 
 334:ThirdParty/STM32F4xx_HAL_Driver/Src/stm32f4xx_hal_can.c ****   /* Set the receive FIFO locked mode */
 335:ThirdParty/STM32F4xx_HAL_Driver/Src/stm32f4xx_hal_can.c ****   if (hcan->Init.ReceiveFifoLocked == ENABLE)
 336:ThirdParty/STM32F4xx_HAL_Driver/Src/stm32f4xx_hal_can.c ****   {
 337:ThirdParty/STM32F4xx_HAL_Driver/Src/stm32f4xx_hal_can.c ****     SET_BIT(hcan->Instance->MCR, CAN_MCR_RFLM);
 338:ThirdParty/STM32F4xx_HAL_Driver/Src/stm32f4xx_hal_can.c ****   }
 339:ThirdParty/STM32F4xx_HAL_Driver/Src/stm32f4xx_hal_can.c ****   else
 340:ThirdParty/STM32F4xx_HAL_Driver/Src/stm32f4xx_hal_can.c ****   {
 341:ThirdParty/STM32F4xx_HAL_Driver/Src/stm32f4xx_hal_can.c ****     CLEAR_BIT(hcan->Instance->MCR, CAN_MCR_RFLM);
 342:ThirdParty/STM32F4xx_HAL_Driver/Src/stm32f4xx_hal_can.c ****   }
 343:ThirdParty/STM32F4xx_HAL_Driver/Src/stm32f4xx_hal_can.c **** 
 344:ThirdParty/STM32F4xx_HAL_Driver/Src/stm32f4xx_hal_can.c ****   /* Set the transmit FIFO priority */
 345:ThirdParty/STM32F4xx_HAL_Driver/Src/stm32f4xx_hal_can.c ****   if (hcan->Init.TransmitFifoPriority == ENABLE)
 346:ThirdParty/STM32F4xx_HAL_Driver/Src/stm32f4xx_hal_can.c ****   {
 347:ThirdParty/STM32F4xx_HAL_Driver/Src/stm32f4xx_hal_can.c ****     SET_BIT(hcan->Instance->MCR, CAN_MCR_TXFP);
 348:ThirdParty/STM32F4xx_HAL_Driver/Src/stm32f4xx_hal_can.c ****   }
 349:ThirdParty/STM32F4xx_HAL_Driver/Src/stm32f4xx_hal_can.c ****   else
 350:ThirdParty/STM32F4xx_HAL_Driver/Src/stm32f4xx_hal_can.c ****   {
 351:ThirdParty/STM32F4xx_HAL_Driver/Src/stm32f4xx_hal_can.c ****     CLEAR_BIT(hcan->Instance->MCR, CAN_MCR_TXFP);
 352:ThirdParty/STM32F4xx_HAL_Driver/Src/stm32f4xx_hal_can.c ****   }
 353:ThirdParty/STM32F4xx_HAL_Driver/Src/stm32f4xx_hal_can.c **** 
 354:ThirdParty/STM32F4xx_HAL_Driver/Src/stm32f4xx_hal_can.c ****   /* Set the bit timing register */
 355:ThirdParty/STM32F4xx_HAL_Driver/Src/stm32f4xx_hal_can.c ****   WRITE_REG(hcan->Instance->BTR, (uint32_t)(hcan->Init.Mode           |
 356:ThirdParty/STM32F4xx_HAL_Driver/Src/stm32f4xx_hal_can.c ****                                             hcan->Init.SyncJumpWidth  |
 357:ThirdParty/STM32F4xx_HAL_Driver/Src/stm32f4xx_hal_can.c ****                                             hcan->Init.TimeSeg1       |
 358:ThirdParty/STM32F4xx_HAL_Driver/Src/stm32f4xx_hal_can.c ****                                             hcan->Init.TimeSeg2       |
 359:ThirdParty/STM32F4xx_HAL_Driver/Src/stm32f4xx_hal_can.c ****                                             (hcan->Init.Prescaler - 1U)));
 360:ThirdParty/STM32F4xx_HAL_Driver/Src/stm32f4xx_hal_can.c **** 
 361:ThirdParty/STM32F4xx_HAL_Driver/Src/stm32f4xx_hal_can.c ****   /* Initialize the error code */
 362:ThirdParty/STM32F4xx_HAL_Driver/Src/stm32f4xx_hal_can.c ****   hcan->ErrorCode = HAL_CAN_ERROR_NONE;
 363:ThirdParty/STM32F4xx_HAL_Driver/Src/stm32f4xx_hal_can.c **** 
 364:ThirdParty/STM32F4xx_HAL_Driver/Src/stm32f4xx_hal_can.c ****   /* Initialize the CAN state */
 365:ThirdParty/STM32F4xx_HAL_Driver/Src/stm32f4xx_hal_can.c ****   hcan->State = HAL_CAN_STATE_READY;
 366:ThirdParty/STM32F4xx_HAL_Driver/Src/stm32f4xx_hal_can.c **** 
 367:ThirdParty/STM32F4xx_HAL_Driver/Src/stm32f4xx_hal_can.c ****   /* Return function status */
 368:ThirdParty/STM32F4xx_HAL_Driver/Src/stm32f4xx_hal_can.c ****   return HAL_OK;
 369:ThirdParty/STM32F4xx_HAL_Driver/Src/stm32f4xx_hal_can.c **** }
 370:ThirdParty/STM32F4xx_HAL_Driver/Src/stm32f4xx_hal_can.c **** 
 371:ThirdParty/STM32F4xx_HAL_Driver/Src/stm32f4xx_hal_can.c **** /**
ARM GAS  /tmp/cc6fvD8U.s 			page 8


 372:ThirdParty/STM32F4xx_HAL_Driver/Src/stm32f4xx_hal_can.c ****   * @brief  Deinitializes the CAN peripheral registers to their default
 373:ThirdParty/STM32F4xx_HAL_Driver/Src/stm32f4xx_hal_can.c ****   *         reset values.
 374:ThirdParty/STM32F4xx_HAL_Driver/Src/stm32f4xx_hal_can.c ****   * @param  hcan pointer to a CAN_HandleTypeDef structure that contains
 375:ThirdParty/STM32F4xx_HAL_Driver/Src/stm32f4xx_hal_can.c ****   *         the configuration information for the specified CAN.
 376:ThirdParty/STM32F4xx_HAL_Driver/Src/stm32f4xx_hal_can.c ****   * @retval HAL status
 377:ThirdParty/STM32F4xx_HAL_Driver/Src/stm32f4xx_hal_can.c ****   */
 378:ThirdParty/STM32F4xx_HAL_Driver/Src/stm32f4xx_hal_can.c **** HAL_StatusTypeDef HAL_CAN_DeInit(CAN_HandleTypeDef *hcan)
 379:ThirdParty/STM32F4xx_HAL_Driver/Src/stm32f4xx_hal_can.c **** {
 380:ThirdParty/STM32F4xx_HAL_Driver/Src/stm32f4xx_hal_can.c ****   /* Check CAN handle */
 381:ThirdParty/STM32F4xx_HAL_Driver/Src/stm32f4xx_hal_can.c ****   if (hcan == NULL)
 382:ThirdParty/STM32F4xx_HAL_Driver/Src/stm32f4xx_hal_can.c ****   {
 383:ThirdParty/STM32F4xx_HAL_Driver/Src/stm32f4xx_hal_can.c ****     return HAL_ERROR;
 384:ThirdParty/STM32F4xx_HAL_Driver/Src/stm32f4xx_hal_can.c ****   }
 385:ThirdParty/STM32F4xx_HAL_Driver/Src/stm32f4xx_hal_can.c **** 
 386:ThirdParty/STM32F4xx_HAL_Driver/Src/stm32f4xx_hal_can.c ****   /* Check the parameters */
 387:ThirdParty/STM32F4xx_HAL_Driver/Src/stm32f4xx_hal_can.c ****   assert_param(IS_CAN_ALL_INSTANCE(hcan->Instance));
 388:ThirdParty/STM32F4xx_HAL_Driver/Src/stm32f4xx_hal_can.c **** 
 389:ThirdParty/STM32F4xx_HAL_Driver/Src/stm32f4xx_hal_can.c ****   /* Stop the CAN module */
 390:ThirdParty/STM32F4xx_HAL_Driver/Src/stm32f4xx_hal_can.c ****   HAL_CAN_Stop(hcan);
 391:ThirdParty/STM32F4xx_HAL_Driver/Src/stm32f4xx_hal_can.c **** 
 392:ThirdParty/STM32F4xx_HAL_Driver/Src/stm32f4xx_hal_can.c ****   /* DeInit the low level hardware: CLOCK, NVIC */
 393:ThirdParty/STM32F4xx_HAL_Driver/Src/stm32f4xx_hal_can.c ****   HAL_CAN_MspDeInit(hcan);
 394:ThirdParty/STM32F4xx_HAL_Driver/Src/stm32f4xx_hal_can.c **** 
 395:ThirdParty/STM32F4xx_HAL_Driver/Src/stm32f4xx_hal_can.c ****   /* Reset the CAN peripheral */
 396:ThirdParty/STM32F4xx_HAL_Driver/Src/stm32f4xx_hal_can.c ****   SET_BIT(hcan->Instance->MCR, CAN_MCR_RESET);
 397:ThirdParty/STM32F4xx_HAL_Driver/Src/stm32f4xx_hal_can.c **** 
 398:ThirdParty/STM32F4xx_HAL_Driver/Src/stm32f4xx_hal_can.c ****   /* Reset the CAN ErrorCode */
 399:ThirdParty/STM32F4xx_HAL_Driver/Src/stm32f4xx_hal_can.c ****   hcan->ErrorCode = HAL_CAN_ERROR_NONE;
 400:ThirdParty/STM32F4xx_HAL_Driver/Src/stm32f4xx_hal_can.c **** 
 401:ThirdParty/STM32F4xx_HAL_Driver/Src/stm32f4xx_hal_can.c ****   /* Change CAN state */
 402:ThirdParty/STM32F4xx_HAL_Driver/Src/stm32f4xx_hal_can.c ****   hcan->State = HAL_CAN_STATE_RESET;
 403:ThirdParty/STM32F4xx_HAL_Driver/Src/stm32f4xx_hal_can.c **** 
 404:ThirdParty/STM32F4xx_HAL_Driver/Src/stm32f4xx_hal_can.c ****   /* Return function status */
 405:ThirdParty/STM32F4xx_HAL_Driver/Src/stm32f4xx_hal_can.c ****   return HAL_OK;
 406:ThirdParty/STM32F4xx_HAL_Driver/Src/stm32f4xx_hal_can.c **** }
 407:ThirdParty/STM32F4xx_HAL_Driver/Src/stm32f4xx_hal_can.c **** 
 408:ThirdParty/STM32F4xx_HAL_Driver/Src/stm32f4xx_hal_can.c **** /**
 409:ThirdParty/STM32F4xx_HAL_Driver/Src/stm32f4xx_hal_can.c ****   * @brief  Initializes the CAN MSP.
 410:ThirdParty/STM32F4xx_HAL_Driver/Src/stm32f4xx_hal_can.c ****   * @param  hcan pointer to a CAN_HandleTypeDef structure that contains
 411:ThirdParty/STM32F4xx_HAL_Driver/Src/stm32f4xx_hal_can.c ****   *         the configuration information for the specified CAN.
 412:ThirdParty/STM32F4xx_HAL_Driver/Src/stm32f4xx_hal_can.c ****   * @retval None
 413:ThirdParty/STM32F4xx_HAL_Driver/Src/stm32f4xx_hal_can.c ****   */
 414:ThirdParty/STM32F4xx_HAL_Driver/Src/stm32f4xx_hal_can.c **** __weak void HAL_CAN_MspInit(CAN_HandleTypeDef *hcan)
 415:ThirdParty/STM32F4xx_HAL_Driver/Src/stm32f4xx_hal_can.c **** {
  30              		.loc 1 415 1 view -0
  31              		.cfi_startproc
  32              		@ args = 0, pretend = 0, frame = 0
  33              		@ frame_needed = 0, uses_anonymous_args = 0
  34              		@ link register save eliminated.
 416:ThirdParty/STM32F4xx_HAL_Driver/Src/stm32f4xx_hal_can.c ****   /* Prevent unused argument(s) compilation warning */
 417:ThirdParty/STM32F4xx_HAL_Driver/Src/stm32f4xx_hal_can.c ****   UNUSED(hcan);
  35              		.loc 1 417 3 view .LVU1
 418:ThirdParty/STM32F4xx_HAL_Driver/Src/stm32f4xx_hal_can.c **** 
 419:ThirdParty/STM32F4xx_HAL_Driver/Src/stm32f4xx_hal_can.c ****   /* NOTE : This function Should not be modified, when the callback is needed,
 420:ThirdParty/STM32F4xx_HAL_Driver/Src/stm32f4xx_hal_can.c ****             the HAL_CAN_MspInit could be implemented in the user file
 421:ThirdParty/STM32F4xx_HAL_Driver/Src/stm32f4xx_hal_can.c ****    */
 422:ThirdParty/STM32F4xx_HAL_Driver/Src/stm32f4xx_hal_can.c **** }
ARM GAS  /tmp/cc6fvD8U.s 			page 9


  36              		.loc 1 422 1 is_stmt 0 view .LVU2
  37 0000 7047     		bx	lr
  38              		.cfi_endproc
  39              	.LFE135:
  41              		.section	.text.HAL_CAN_Init,"ax",%progbits
  42              		.align	1
  43              		.global	HAL_CAN_Init
  44              		.syntax unified
  45              		.thumb
  46              		.thumb_func
  48              	HAL_CAN_Init:
  49              	.LVL1:
  50              	.LFB133:
 223:ThirdParty/STM32F4xx_HAL_Driver/Src/stm32f4xx_hal_can.c ****   uint32_t tickstart = 0U;
  51              		.loc 1 223 1 is_stmt 1 view -0
  52              		.cfi_startproc
  53              		@ args = 0, pretend = 0, frame = 0
  54              		@ frame_needed = 0, uses_anonymous_args = 0
 224:ThirdParty/STM32F4xx_HAL_Driver/Src/stm32f4xx_hal_can.c **** 
  55              		.loc 1 224 3 view .LVU4
 227:ThirdParty/STM32F4xx_HAL_Driver/Src/stm32f4xx_hal_can.c ****   {
  56              		.loc 1 227 3 view .LVU5
 227:ThirdParty/STM32F4xx_HAL_Driver/Src/stm32f4xx_hal_can.c ****   {
  57              		.loc 1 227 6 is_stmt 0 view .LVU6
  58 0000 0028     		cmp	r0, #0
  59 0002 00F0A180 		beq	.L21
 223:ThirdParty/STM32F4xx_HAL_Driver/Src/stm32f4xx_hal_can.c ****   uint32_t tickstart = 0U;
  60              		.loc 1 223 1 view .LVU7
  61 0006 38B5     		push	{r3, r4, r5, lr}
  62              	.LCFI0:
  63              		.cfi_def_cfa_offset 16
  64              		.cfi_offset 3, -16
  65              		.cfi_offset 4, -12
  66              		.cfi_offset 5, -8
  67              		.cfi_offset 14, -4
  68 0008 0446     		mov	r4, r0
 233:ThirdParty/STM32F4xx_HAL_Driver/Src/stm32f4xx_hal_can.c ****   assert_param(IS_FUNCTIONAL_STATE(hcan->Init.TimeTriggeredMode));
  69              		.loc 1 233 3 is_stmt 1 view .LVU8
 234:ThirdParty/STM32F4xx_HAL_Driver/Src/stm32f4xx_hal_can.c ****   assert_param(IS_FUNCTIONAL_STATE(hcan->Init.AutoBusOff));
  70              		.loc 1 234 3 view .LVU9
 235:ThirdParty/STM32F4xx_HAL_Driver/Src/stm32f4xx_hal_can.c ****   assert_param(IS_FUNCTIONAL_STATE(hcan->Init.AutoWakeUp));
  71              		.loc 1 235 3 view .LVU10
 236:ThirdParty/STM32F4xx_HAL_Driver/Src/stm32f4xx_hal_can.c ****   assert_param(IS_FUNCTIONAL_STATE(hcan->Init.AutoRetransmission));
  72              		.loc 1 236 3 view .LVU11
 237:ThirdParty/STM32F4xx_HAL_Driver/Src/stm32f4xx_hal_can.c ****   assert_param(IS_FUNCTIONAL_STATE(hcan->Init.ReceiveFifoLocked));
  73              		.loc 1 237 3 view .LVU12
 238:ThirdParty/STM32F4xx_HAL_Driver/Src/stm32f4xx_hal_can.c ****   assert_param(IS_FUNCTIONAL_STATE(hcan->Init.TransmitFifoPriority));
  74              		.loc 1 238 3 view .LVU13
 239:ThirdParty/STM32F4xx_HAL_Driver/Src/stm32f4xx_hal_can.c ****   assert_param(IS_CAN_MODE(hcan->Init.Mode));
  75              		.loc 1 239 3 view .LVU14
 240:ThirdParty/STM32F4xx_HAL_Driver/Src/stm32f4xx_hal_can.c ****   assert_param(IS_CAN_SJW(hcan->Init.SyncJumpWidth));
  76              		.loc 1 240 3 view .LVU15
 241:ThirdParty/STM32F4xx_HAL_Driver/Src/stm32f4xx_hal_can.c ****   assert_param(IS_CAN_BS1(hcan->Init.TimeSeg1));
  77              		.loc 1 241 3 view .LVU16
 242:ThirdParty/STM32F4xx_HAL_Driver/Src/stm32f4xx_hal_can.c ****   assert_param(IS_CAN_BS2(hcan->Init.TimeSeg2));
  78              		.loc 1 242 3 view .LVU17
 243:ThirdParty/STM32F4xx_HAL_Driver/Src/stm32f4xx_hal_can.c ****   assert_param(IS_CAN_PRESCALER(hcan->Init.Prescaler));
ARM GAS  /tmp/cc6fvD8U.s 			page 10


  79              		.loc 1 243 3 view .LVU18
 244:ThirdParty/STM32F4xx_HAL_Driver/Src/stm32f4xx_hal_can.c **** 
  80              		.loc 1 244 3 view .LVU19
 246:ThirdParty/STM32F4xx_HAL_Driver/Src/stm32f4xx_hal_can.c ****   {
  81              		.loc 1 246 3 view .LVU20
 246:ThirdParty/STM32F4xx_HAL_Driver/Src/stm32f4xx_hal_can.c ****   {
  82              		.loc 1 246 11 is_stmt 0 view .LVU21
  83 000a 90F82030 		ldrb	r3, [r0, #32]	@ zero_extendqisi2
 246:ThirdParty/STM32F4xx_HAL_Driver/Src/stm32f4xx_hal_can.c ****   {
  84              		.loc 1 246 6 view .LVU22
  85 000e D3B1     		cbz	r3, .L26
  86              	.LVL2:
  87              	.L4:
 253:ThirdParty/STM32F4xx_HAL_Driver/Src/stm32f4xx_hal_can.c **** 
  88              		.loc 1 253 3 is_stmt 1 view .LVU23
  89 0010 2268     		ldr	r2, [r4]
  90 0012 1368     		ldr	r3, [r2]
  91 0014 23F00203 		bic	r3, r3, #2
  92 0018 1360     		str	r3, [r2]
 256:ThirdParty/STM32F4xx_HAL_Driver/Src/stm32f4xx_hal_can.c **** 
  93              		.loc 1 256 3 view .LVU24
 256:ThirdParty/STM32F4xx_HAL_Driver/Src/stm32f4xx_hal_can.c **** 
  94              		.loc 1 256 15 is_stmt 0 view .LVU25
  95 001a FFF7FEFF 		bl	HAL_GetTick
  96              	.LVL3:
  97 001e 0546     		mov	r5, r0
  98              	.LVL4:
 259:ThirdParty/STM32F4xx_HAL_Driver/Src/stm32f4xx_hal_can.c ****   {
  99              		.loc 1 259 3 is_stmt 1 view .LVU26
 100              	.L5:
 259:ThirdParty/STM32F4xx_HAL_Driver/Src/stm32f4xx_hal_can.c ****   {
 101              		.loc 1 259 9 view .LVU27
 259:ThirdParty/STM32F4xx_HAL_Driver/Src/stm32f4xx_hal_can.c ****   {
 102              		.loc 1 259 15 is_stmt 0 view .LVU28
 103 0020 2368     		ldr	r3, [r4]
 259:ThirdParty/STM32F4xx_HAL_Driver/Src/stm32f4xx_hal_can.c ****   {
 104              		.loc 1 259 25 view .LVU29
 105 0022 5A68     		ldr	r2, [r3, #4]
 259:ThirdParty/STM32F4xx_HAL_Driver/Src/stm32f4xx_hal_can.c ****   {
 106              		.loc 1 259 9 view .LVU30
 107 0024 12F0020F 		tst	r2, #2
 108 0028 10D0     		beq	.L27
 261:ThirdParty/STM32F4xx_HAL_Driver/Src/stm32f4xx_hal_can.c ****     {
 109              		.loc 1 261 5 is_stmt 1 view .LVU31
 261:ThirdParty/STM32F4xx_HAL_Driver/Src/stm32f4xx_hal_can.c ****     {
 110              		.loc 1 261 10 is_stmt 0 view .LVU32
 111 002a FFF7FEFF 		bl	HAL_GetTick
 112              	.LVL5:
 261:ThirdParty/STM32F4xx_HAL_Driver/Src/stm32f4xx_hal_can.c ****     {
 113              		.loc 1 261 24 view .LVU33
 114 002e 401B     		subs	r0, r0, r5
 261:ThirdParty/STM32F4xx_HAL_Driver/Src/stm32f4xx_hal_can.c ****     {
 115              		.loc 1 261 8 view .LVU34
 116 0030 0A28     		cmp	r0, #10
 117 0032 F5D9     		bls	.L5
 264:ThirdParty/STM32F4xx_HAL_Driver/Src/stm32f4xx_hal_can.c **** 
 118              		.loc 1 264 7 is_stmt 1 view .LVU35
ARM GAS  /tmp/cc6fvD8U.s 			page 11


 264:ThirdParty/STM32F4xx_HAL_Driver/Src/stm32f4xx_hal_can.c **** 
 119              		.loc 1 264 23 is_stmt 0 view .LVU36
 120 0034 636A     		ldr	r3, [r4, #36]
 121 0036 43F40033 		orr	r3, r3, #131072
 122 003a 6362     		str	r3, [r4, #36]
 267:ThirdParty/STM32F4xx_HAL_Driver/Src/stm32f4xx_hal_can.c **** 
 123              		.loc 1 267 7 is_stmt 1 view .LVU37
 267:ThirdParty/STM32F4xx_HAL_Driver/Src/stm32f4xx_hal_can.c **** 
 124              		.loc 1 267 19 is_stmt 0 view .LVU38
 125 003c 0523     		movs	r3, #5
 126 003e 84F82030 		strb	r3, [r4, #32]
 269:ThirdParty/STM32F4xx_HAL_Driver/Src/stm32f4xx_hal_can.c ****     }
 127              		.loc 1 269 7 is_stmt 1 view .LVU39
 269:ThirdParty/STM32F4xx_HAL_Driver/Src/stm32f4xx_hal_can.c ****     }
 128              		.loc 1 269 14 is_stmt 0 view .LVU40
 129 0042 0120     		movs	r0, #1
 130              	.L3:
 369:ThirdParty/STM32F4xx_HAL_Driver/Src/stm32f4xx_hal_can.c **** 
 131              		.loc 1 369 1 view .LVU41
 132 0044 38BD     		pop	{r3, r4, r5, pc}
 133              	.LVL6:
 134              	.L26:
 249:ThirdParty/STM32F4xx_HAL_Driver/Src/stm32f4xx_hal_can.c ****   }
 135              		.loc 1 249 5 is_stmt 1 view .LVU42
 136 0046 FFF7FEFF 		bl	HAL_CAN_MspInit
 137              	.LVL7:
 249:ThirdParty/STM32F4xx_HAL_Driver/Src/stm32f4xx_hal_can.c ****   }
 138              		.loc 1 249 5 is_stmt 0 view .LVU43
 139 004a E1E7     		b	.L4
 140              	.LVL8:
 141              	.L27:
 274:ThirdParty/STM32F4xx_HAL_Driver/Src/stm32f4xx_hal_can.c **** 
 142              		.loc 1 274 3 is_stmt 1 view .LVU44
 143 004c 1A68     		ldr	r2, [r3]
 144 004e 42F00102 		orr	r2, r2, #1
 145 0052 1A60     		str	r2, [r3]
 277:ThirdParty/STM32F4xx_HAL_Driver/Src/stm32f4xx_hal_can.c **** 
 146              		.loc 1 277 3 view .LVU45
 277:ThirdParty/STM32F4xx_HAL_Driver/Src/stm32f4xx_hal_can.c **** 
 147              		.loc 1 277 15 is_stmt 0 view .LVU46
 148 0054 FFF7FEFF 		bl	HAL_GetTick
 149              	.LVL9:
 150 0058 0546     		mov	r5, r0
 151              	.LVL10:
 280:ThirdParty/STM32F4xx_HAL_Driver/Src/stm32f4xx_hal_can.c ****   {
 152              		.loc 1 280 3 is_stmt 1 view .LVU47
 153              	.L7:
 280:ThirdParty/STM32F4xx_HAL_Driver/Src/stm32f4xx_hal_can.c ****   {
 154              		.loc 1 280 9 view .LVU48
 280:ThirdParty/STM32F4xx_HAL_Driver/Src/stm32f4xx_hal_can.c ****   {
 155              		.loc 1 280 15 is_stmt 0 view .LVU49
 156 005a 2368     		ldr	r3, [r4]
 280:ThirdParty/STM32F4xx_HAL_Driver/Src/stm32f4xx_hal_can.c ****   {
 157              		.loc 1 280 25 view .LVU50
 158 005c 5A68     		ldr	r2, [r3, #4]
 280:ThirdParty/STM32F4xx_HAL_Driver/Src/stm32f4xx_hal_can.c ****   {
 159              		.loc 1 280 9 view .LVU51
ARM GAS  /tmp/cc6fvD8U.s 			page 12


 160 005e 12F0010F 		tst	r2, #1
 161 0062 0DD1     		bne	.L28
 282:ThirdParty/STM32F4xx_HAL_Driver/Src/stm32f4xx_hal_can.c ****     {
 162              		.loc 1 282 5 is_stmt 1 view .LVU52
 282:ThirdParty/STM32F4xx_HAL_Driver/Src/stm32f4xx_hal_can.c ****     {
 163              		.loc 1 282 10 is_stmt 0 view .LVU53
 164 0064 FFF7FEFF 		bl	HAL_GetTick
 165              	.LVL11:
 282:ThirdParty/STM32F4xx_HAL_Driver/Src/stm32f4xx_hal_can.c ****     {
 166              		.loc 1 282 24 view .LVU54
 167 0068 401B     		subs	r0, r0, r5
 282:ThirdParty/STM32F4xx_HAL_Driver/Src/stm32f4xx_hal_can.c ****     {
 168              		.loc 1 282 8 view .LVU55
 169 006a 0A28     		cmp	r0, #10
 170 006c F5D9     		bls	.L7
 285:ThirdParty/STM32F4xx_HAL_Driver/Src/stm32f4xx_hal_can.c **** 
 171              		.loc 1 285 7 is_stmt 1 view .LVU56
 285:ThirdParty/STM32F4xx_HAL_Driver/Src/stm32f4xx_hal_can.c **** 
 172              		.loc 1 285 23 is_stmt 0 view .LVU57
 173 006e 636A     		ldr	r3, [r4, #36]
 174 0070 43F40033 		orr	r3, r3, #131072
 175 0074 6362     		str	r3, [r4, #36]
 288:ThirdParty/STM32F4xx_HAL_Driver/Src/stm32f4xx_hal_can.c **** 
 176              		.loc 1 288 7 is_stmt 1 view .LVU58
 288:ThirdParty/STM32F4xx_HAL_Driver/Src/stm32f4xx_hal_can.c **** 
 177              		.loc 1 288 19 is_stmt 0 view .LVU59
 178 0076 0523     		movs	r3, #5
 179 0078 84F82030 		strb	r3, [r4, #32]
 290:ThirdParty/STM32F4xx_HAL_Driver/Src/stm32f4xx_hal_can.c ****     }
 180              		.loc 1 290 7 is_stmt 1 view .LVU60
 290:ThirdParty/STM32F4xx_HAL_Driver/Src/stm32f4xx_hal_can.c ****     }
 181              		.loc 1 290 14 is_stmt 0 view .LVU61
 182 007c 0120     		movs	r0, #1
 183 007e E1E7     		b	.L3
 184              	.L28:
 295:ThirdParty/STM32F4xx_HAL_Driver/Src/stm32f4xx_hal_can.c ****   {
 185              		.loc 1 295 3 is_stmt 1 view .LVU62
 295:ThirdParty/STM32F4xx_HAL_Driver/Src/stm32f4xx_hal_can.c ****   {
 186              		.loc 1 295 17 is_stmt 0 view .LVU63
 187 0080 227E     		ldrb	r2, [r4, #24]	@ zero_extendqisi2
 295:ThirdParty/STM32F4xx_HAL_Driver/Src/stm32f4xx_hal_can.c ****   {
 188              		.loc 1 295 6 view .LVU64
 189 0082 012A     		cmp	r2, #1
 190 0084 3DD0     		beq	.L29
 301:ThirdParty/STM32F4xx_HAL_Driver/Src/stm32f4xx_hal_can.c ****   }
 191              		.loc 1 301 5 is_stmt 1 view .LVU65
 192 0086 1A68     		ldr	r2, [r3]
 193 0088 22F08002 		bic	r2, r2, #128
 194 008c 1A60     		str	r2, [r3]
 195              	.L10:
 305:ThirdParty/STM32F4xx_HAL_Driver/Src/stm32f4xx_hal_can.c ****   {
 196              		.loc 1 305 3 view .LVU66
 305:ThirdParty/STM32F4xx_HAL_Driver/Src/stm32f4xx_hal_can.c ****   {
 197              		.loc 1 305 17 is_stmt 0 view .LVU67
 198 008e 637E     		ldrb	r3, [r4, #25]	@ zero_extendqisi2
 305:ThirdParty/STM32F4xx_HAL_Driver/Src/stm32f4xx_hal_can.c ****   {
 199              		.loc 1 305 6 view .LVU68
ARM GAS  /tmp/cc6fvD8U.s 			page 13


 200 0090 012B     		cmp	r3, #1
 201 0092 3BD0     		beq	.L30
 311:ThirdParty/STM32F4xx_HAL_Driver/Src/stm32f4xx_hal_can.c ****   }
 202              		.loc 1 311 5 is_stmt 1 view .LVU69
 203 0094 2268     		ldr	r2, [r4]
 204 0096 1368     		ldr	r3, [r2]
 205 0098 23F04003 		bic	r3, r3, #64
 206 009c 1360     		str	r3, [r2]
 207              	.L12:
 315:ThirdParty/STM32F4xx_HAL_Driver/Src/stm32f4xx_hal_can.c ****   {
 208              		.loc 1 315 3 view .LVU70
 315:ThirdParty/STM32F4xx_HAL_Driver/Src/stm32f4xx_hal_can.c ****   {
 209              		.loc 1 315 17 is_stmt 0 view .LVU71
 210 009e A37E     		ldrb	r3, [r4, #26]	@ zero_extendqisi2
 315:ThirdParty/STM32F4xx_HAL_Driver/Src/stm32f4xx_hal_can.c ****   {
 211              		.loc 1 315 6 view .LVU72
 212 00a0 012B     		cmp	r3, #1
 213 00a2 39D0     		beq	.L31
 321:ThirdParty/STM32F4xx_HAL_Driver/Src/stm32f4xx_hal_can.c ****   }
 214              		.loc 1 321 5 is_stmt 1 view .LVU73
 215 00a4 2268     		ldr	r2, [r4]
 216 00a6 1368     		ldr	r3, [r2]
 217 00a8 23F02003 		bic	r3, r3, #32
 218 00ac 1360     		str	r3, [r2]
 219              	.L14:
 325:ThirdParty/STM32F4xx_HAL_Driver/Src/stm32f4xx_hal_can.c ****   {
 220              		.loc 1 325 3 view .LVU74
 325:ThirdParty/STM32F4xx_HAL_Driver/Src/stm32f4xx_hal_can.c ****   {
 221              		.loc 1 325 17 is_stmt 0 view .LVU75
 222 00ae E37E     		ldrb	r3, [r4, #27]	@ zero_extendqisi2
 325:ThirdParty/STM32F4xx_HAL_Driver/Src/stm32f4xx_hal_can.c ****   {
 223              		.loc 1 325 6 view .LVU76
 224 00b0 012B     		cmp	r3, #1
 225 00b2 37D0     		beq	.L32
 331:ThirdParty/STM32F4xx_HAL_Driver/Src/stm32f4xx_hal_can.c ****   }
 226              		.loc 1 331 5 is_stmt 1 view .LVU77
 227 00b4 2268     		ldr	r2, [r4]
 228 00b6 1368     		ldr	r3, [r2]
 229 00b8 43F01003 		orr	r3, r3, #16
 230 00bc 1360     		str	r3, [r2]
 231              	.L16:
 335:ThirdParty/STM32F4xx_HAL_Driver/Src/stm32f4xx_hal_can.c ****   {
 232              		.loc 1 335 3 view .LVU78
 335:ThirdParty/STM32F4xx_HAL_Driver/Src/stm32f4xx_hal_can.c ****   {
 233              		.loc 1 335 17 is_stmt 0 view .LVU79
 234 00be 237F     		ldrb	r3, [r4, #28]	@ zero_extendqisi2
 335:ThirdParty/STM32F4xx_HAL_Driver/Src/stm32f4xx_hal_can.c ****   {
 235              		.loc 1 335 6 view .LVU80
 236 00c0 012B     		cmp	r3, #1
 237 00c2 35D0     		beq	.L33
 341:ThirdParty/STM32F4xx_HAL_Driver/Src/stm32f4xx_hal_can.c ****   }
 238              		.loc 1 341 5 is_stmt 1 view .LVU81
 239 00c4 2268     		ldr	r2, [r4]
 240 00c6 1368     		ldr	r3, [r2]
 241 00c8 23F00803 		bic	r3, r3, #8
 242 00cc 1360     		str	r3, [r2]
 243              	.L18:
ARM GAS  /tmp/cc6fvD8U.s 			page 14


 345:ThirdParty/STM32F4xx_HAL_Driver/Src/stm32f4xx_hal_can.c ****   {
 244              		.loc 1 345 3 view .LVU82
 345:ThirdParty/STM32F4xx_HAL_Driver/Src/stm32f4xx_hal_can.c ****   {
 245              		.loc 1 345 17 is_stmt 0 view .LVU83
 246 00ce 637F     		ldrb	r3, [r4, #29]	@ zero_extendqisi2
 345:ThirdParty/STM32F4xx_HAL_Driver/Src/stm32f4xx_hal_can.c ****   {
 247              		.loc 1 345 6 view .LVU84
 248 00d0 012B     		cmp	r3, #1
 249 00d2 33D0     		beq	.L34
 351:ThirdParty/STM32F4xx_HAL_Driver/Src/stm32f4xx_hal_can.c ****   }
 250              		.loc 1 351 5 is_stmt 1 view .LVU85
 251 00d4 2268     		ldr	r2, [r4]
 252 00d6 1368     		ldr	r3, [r2]
 253 00d8 23F00403 		bic	r3, r3, #4
 254 00dc 1360     		str	r3, [r2]
 255              	.L20:
 355:ThirdParty/STM32F4xx_HAL_Driver/Src/stm32f4xx_hal_can.c ****                                             hcan->Init.SyncJumpWidth  |
 256              		.loc 1 355 3 view .LVU86
 257 00de A368     		ldr	r3, [r4, #8]
 258 00e0 E268     		ldr	r2, [r4, #12]
 259 00e2 1343     		orrs	r3, r3, r2
 260 00e4 2269     		ldr	r2, [r4, #16]
 261 00e6 1343     		orrs	r3, r3, r2
 262 00e8 6269     		ldr	r2, [r4, #20]
 263 00ea 1343     		orrs	r3, r3, r2
 264 00ec 6268     		ldr	r2, [r4, #4]
 265 00ee 013A     		subs	r2, r2, #1
 266 00f0 2168     		ldr	r1, [r4]
 267 00f2 1343     		orrs	r3, r3, r2
 268 00f4 CB61     		str	r3, [r1, #28]
 362:ThirdParty/STM32F4xx_HAL_Driver/Src/stm32f4xx_hal_can.c **** 
 269              		.loc 1 362 3 view .LVU87
 362:ThirdParty/STM32F4xx_HAL_Driver/Src/stm32f4xx_hal_can.c **** 
 270              		.loc 1 362 19 is_stmt 0 view .LVU88
 271 00f6 0020     		movs	r0, #0
 272 00f8 6062     		str	r0, [r4, #36]
 365:ThirdParty/STM32F4xx_HAL_Driver/Src/stm32f4xx_hal_can.c **** 
 273              		.loc 1 365 3 is_stmt 1 view .LVU89
 365:ThirdParty/STM32F4xx_HAL_Driver/Src/stm32f4xx_hal_can.c **** 
 274              		.loc 1 365 15 is_stmt 0 view .LVU90
 275 00fa 0123     		movs	r3, #1
 276 00fc 84F82030 		strb	r3, [r4, #32]
 368:ThirdParty/STM32F4xx_HAL_Driver/Src/stm32f4xx_hal_can.c **** }
 277              		.loc 1 368 3 is_stmt 1 view .LVU91
 368:ThirdParty/STM32F4xx_HAL_Driver/Src/stm32f4xx_hal_can.c **** }
 278              		.loc 1 368 10 is_stmt 0 view .LVU92
 279 0100 A0E7     		b	.L3
 280              	.L29:
 297:ThirdParty/STM32F4xx_HAL_Driver/Src/stm32f4xx_hal_can.c ****   }
 281              		.loc 1 297 5 is_stmt 1 view .LVU93
 282 0102 1A68     		ldr	r2, [r3]
 283 0104 42F08002 		orr	r2, r2, #128
 284 0108 1A60     		str	r2, [r3]
 285 010a C0E7     		b	.L10
 286              	.L30:
 307:ThirdParty/STM32F4xx_HAL_Driver/Src/stm32f4xx_hal_can.c ****   }
 287              		.loc 1 307 5 view .LVU94
ARM GAS  /tmp/cc6fvD8U.s 			page 15


 288 010c 2268     		ldr	r2, [r4]
 289 010e 1368     		ldr	r3, [r2]
 290 0110 43F04003 		orr	r3, r3, #64
 291 0114 1360     		str	r3, [r2]
 292 0116 C2E7     		b	.L12
 293              	.L31:
 317:ThirdParty/STM32F4xx_HAL_Driver/Src/stm32f4xx_hal_can.c ****   }
 294              		.loc 1 317 5 view .LVU95
 295 0118 2268     		ldr	r2, [r4]
 296 011a 1368     		ldr	r3, [r2]
 297 011c 43F02003 		orr	r3, r3, #32
 298 0120 1360     		str	r3, [r2]
 299 0122 C4E7     		b	.L14
 300              	.L32:
 327:ThirdParty/STM32F4xx_HAL_Driver/Src/stm32f4xx_hal_can.c ****   }
 301              		.loc 1 327 5 view .LVU96
 302 0124 2268     		ldr	r2, [r4]
 303 0126 1368     		ldr	r3, [r2]
 304 0128 23F01003 		bic	r3, r3, #16
 305 012c 1360     		str	r3, [r2]
 306 012e C6E7     		b	.L16
 307              	.L33:
 337:ThirdParty/STM32F4xx_HAL_Driver/Src/stm32f4xx_hal_can.c ****   }
 308              		.loc 1 337 5 view .LVU97
 309 0130 2268     		ldr	r2, [r4]
 310 0132 1368     		ldr	r3, [r2]
 311 0134 43F00803 		orr	r3, r3, #8
 312 0138 1360     		str	r3, [r2]
 313 013a C8E7     		b	.L18
 314              	.L34:
 347:ThirdParty/STM32F4xx_HAL_Driver/Src/stm32f4xx_hal_can.c ****   }
 315              		.loc 1 347 5 view .LVU98
 316 013c 2268     		ldr	r2, [r4]
 317 013e 1368     		ldr	r3, [r2]
 318 0140 43F00403 		orr	r3, r3, #4
 319 0144 1360     		str	r3, [r2]
 320 0146 CAE7     		b	.L20
 321              	.LVL12:
 322              	.L21:
 323              	.LCFI1:
 324              		.cfi_def_cfa_offset 0
 325              		.cfi_restore 3
 326              		.cfi_restore 4
 327              		.cfi_restore 5
 328              		.cfi_restore 14
 229:ThirdParty/STM32F4xx_HAL_Driver/Src/stm32f4xx_hal_can.c ****   }
 329              		.loc 1 229 12 is_stmt 0 view .LVU99
 330 0148 0120     		movs	r0, #1
 331              	.LVL13:
 369:ThirdParty/STM32F4xx_HAL_Driver/Src/stm32f4xx_hal_can.c **** 
 332              		.loc 1 369 1 view .LVU100
 333 014a 7047     		bx	lr
 334              		.cfi_endproc
 335              	.LFE133:
 337              		.section	.text.HAL_CAN_MspDeInit,"ax",%progbits
 338              		.align	1
 339              		.weak	HAL_CAN_MspDeInit
ARM GAS  /tmp/cc6fvD8U.s 			page 16


 340              		.syntax unified
 341              		.thumb
 342              		.thumb_func
 344              	HAL_CAN_MspDeInit:
 345              	.LVL14:
 346              	.LFB136:
 423:ThirdParty/STM32F4xx_HAL_Driver/Src/stm32f4xx_hal_can.c **** 
 424:ThirdParty/STM32F4xx_HAL_Driver/Src/stm32f4xx_hal_can.c **** /**
 425:ThirdParty/STM32F4xx_HAL_Driver/Src/stm32f4xx_hal_can.c ****   * @brief  DeInitializes the CAN MSP.
 426:ThirdParty/STM32F4xx_HAL_Driver/Src/stm32f4xx_hal_can.c ****   * @param  hcan pointer to a CAN_HandleTypeDef structure that contains
 427:ThirdParty/STM32F4xx_HAL_Driver/Src/stm32f4xx_hal_can.c ****   *         the configuration information for the specified CAN.
 428:ThirdParty/STM32F4xx_HAL_Driver/Src/stm32f4xx_hal_can.c ****   * @retval None
 429:ThirdParty/STM32F4xx_HAL_Driver/Src/stm32f4xx_hal_can.c ****   */
 430:ThirdParty/STM32F4xx_HAL_Driver/Src/stm32f4xx_hal_can.c **** __weak void HAL_CAN_MspDeInit(CAN_HandleTypeDef *hcan)
 431:ThirdParty/STM32F4xx_HAL_Driver/Src/stm32f4xx_hal_can.c **** {
 347              		.loc 1 431 1 is_stmt 1 view -0
 348              		.cfi_startproc
 349              		@ args = 0, pretend = 0, frame = 0
 350              		@ frame_needed = 0, uses_anonymous_args = 0
 351              		@ link register save eliminated.
 432:ThirdParty/STM32F4xx_HAL_Driver/Src/stm32f4xx_hal_can.c ****   /* Prevent unused argument(s) compilation warning */
 433:ThirdParty/STM32F4xx_HAL_Driver/Src/stm32f4xx_hal_can.c ****   UNUSED(hcan);
 352              		.loc 1 433 3 view .LVU102
 434:ThirdParty/STM32F4xx_HAL_Driver/Src/stm32f4xx_hal_can.c **** 
 435:ThirdParty/STM32F4xx_HAL_Driver/Src/stm32f4xx_hal_can.c ****   /* NOTE : This function Should not be modified, when the callback is needed,
 436:ThirdParty/STM32F4xx_HAL_Driver/Src/stm32f4xx_hal_can.c ****             the HAL_CAN_MspDeInit could be implemented in the user file
 437:ThirdParty/STM32F4xx_HAL_Driver/Src/stm32f4xx_hal_can.c ****    */
 438:ThirdParty/STM32F4xx_HAL_Driver/Src/stm32f4xx_hal_can.c **** }
 353              		.loc 1 438 1 is_stmt 0 view .LVU103
 354 0000 7047     		bx	lr
 355              		.cfi_endproc
 356              	.LFE136:
 358              		.section	.text.HAL_CAN_ConfigFilter,"ax",%progbits
 359              		.align	1
 360              		.global	HAL_CAN_ConfigFilter
 361              		.syntax unified
 362              		.thumb
 363              		.thumb_func
 365              	HAL_CAN_ConfigFilter:
 366              	.LVL15:
 367              	.LFB137:
 439:ThirdParty/STM32F4xx_HAL_Driver/Src/stm32f4xx_hal_can.c **** 
 440:ThirdParty/STM32F4xx_HAL_Driver/Src/stm32f4xx_hal_can.c **** 
 441:ThirdParty/STM32F4xx_HAL_Driver/Src/stm32f4xx_hal_can.c **** /**
 442:ThirdParty/STM32F4xx_HAL_Driver/Src/stm32f4xx_hal_can.c ****   * @}
 443:ThirdParty/STM32F4xx_HAL_Driver/Src/stm32f4xx_hal_can.c ****   */
 444:ThirdParty/STM32F4xx_HAL_Driver/Src/stm32f4xx_hal_can.c **** 
 445:ThirdParty/STM32F4xx_HAL_Driver/Src/stm32f4xx_hal_can.c **** /** @defgroup CAN_Exported_Functions_Group2 Configuration functions
 446:ThirdParty/STM32F4xx_HAL_Driver/Src/stm32f4xx_hal_can.c ****  *  @brief    Configuration functions.
 447:ThirdParty/STM32F4xx_HAL_Driver/Src/stm32f4xx_hal_can.c ****  *
 448:ThirdParty/STM32F4xx_HAL_Driver/Src/stm32f4xx_hal_can.c **** @verbatim
 449:ThirdParty/STM32F4xx_HAL_Driver/Src/stm32f4xx_hal_can.c ****   ==============================================================================
 450:ThirdParty/STM32F4xx_HAL_Driver/Src/stm32f4xx_hal_can.c ****               ##### Configuration functions #####
 451:ThirdParty/STM32F4xx_HAL_Driver/Src/stm32f4xx_hal_can.c ****   ==============================================================================
 452:ThirdParty/STM32F4xx_HAL_Driver/Src/stm32f4xx_hal_can.c ****     [..]  This section provides functions allowing to:
 453:ThirdParty/STM32F4xx_HAL_Driver/Src/stm32f4xx_hal_can.c ****       (+) HAL_CAN_ConfigFilter            : Configure the CAN reception filters
 454:ThirdParty/STM32F4xx_HAL_Driver/Src/stm32f4xx_hal_can.c **** 
ARM GAS  /tmp/cc6fvD8U.s 			page 17


 455:ThirdParty/STM32F4xx_HAL_Driver/Src/stm32f4xx_hal_can.c **** @endverbatim
 456:ThirdParty/STM32F4xx_HAL_Driver/Src/stm32f4xx_hal_can.c ****   * @{
 457:ThirdParty/STM32F4xx_HAL_Driver/Src/stm32f4xx_hal_can.c ****   */
 458:ThirdParty/STM32F4xx_HAL_Driver/Src/stm32f4xx_hal_can.c **** 
 459:ThirdParty/STM32F4xx_HAL_Driver/Src/stm32f4xx_hal_can.c **** /**
 460:ThirdParty/STM32F4xx_HAL_Driver/Src/stm32f4xx_hal_can.c ****   * @brief  Configures the CAN reception filter according to the specified
 461:ThirdParty/STM32F4xx_HAL_Driver/Src/stm32f4xx_hal_can.c ****   *         parameters in the CAN_FilterInitStruct.
 462:ThirdParty/STM32F4xx_HAL_Driver/Src/stm32f4xx_hal_can.c ****   * @param  hcan pointer to a CAN_HandleTypeDef structure that contains
 463:ThirdParty/STM32F4xx_HAL_Driver/Src/stm32f4xx_hal_can.c ****   *         the configuration information for the specified CAN.
 464:ThirdParty/STM32F4xx_HAL_Driver/Src/stm32f4xx_hal_can.c ****   * @param  sFilterConfig pointer to a CAN_FilterTypeDef structure that
 465:ThirdParty/STM32F4xx_HAL_Driver/Src/stm32f4xx_hal_can.c ****   *         contains the filter configuration information.
 466:ThirdParty/STM32F4xx_HAL_Driver/Src/stm32f4xx_hal_can.c ****   * @retval None
 467:ThirdParty/STM32F4xx_HAL_Driver/Src/stm32f4xx_hal_can.c ****   */
 468:ThirdParty/STM32F4xx_HAL_Driver/Src/stm32f4xx_hal_can.c **** HAL_StatusTypeDef HAL_CAN_ConfigFilter(CAN_HandleTypeDef *hcan, CAN_FilterTypeDef *sFilterConfig)
 469:ThirdParty/STM32F4xx_HAL_Driver/Src/stm32f4xx_hal_can.c **** {
 368              		.loc 1 469 1 is_stmt 1 view -0
 369              		.cfi_startproc
 370              		@ args = 0, pretend = 0, frame = 0
 371              		@ frame_needed = 0, uses_anonymous_args = 0
 470:ThirdParty/STM32F4xx_HAL_Driver/Src/stm32f4xx_hal_can.c ****   uint32_t filternbrbitpos = 0U;
 372              		.loc 1 470 3 view .LVU105
 471:ThirdParty/STM32F4xx_HAL_Driver/Src/stm32f4xx_hal_can.c ****   CAN_TypeDef *can_ip = hcan->Instance;
 373              		.loc 1 471 3 view .LVU106
 472:ThirdParty/STM32F4xx_HAL_Driver/Src/stm32f4xx_hal_can.c **** 
 473:ThirdParty/STM32F4xx_HAL_Driver/Src/stm32f4xx_hal_can.c ****   if ((hcan->State == HAL_CAN_STATE_READY) ||
 374              		.loc 1 473 3 view .LVU107
 375              		.loc 1 473 12 is_stmt 0 view .LVU108
 376 0000 90F82030 		ldrb	r3, [r0, #32]	@ zero_extendqisi2
 377 0004 DBB2     		uxtb	r3, r3
 378              		.loc 1 473 6 view .LVU109
 379 0006 012B     		cmp	r3, #1
 380 0008 0AD0     		beq	.L37
 474:ThirdParty/STM32F4xx_HAL_Driver/Src/stm32f4xx_hal_can.c ****       (hcan->State == HAL_CAN_STATE_LISTENING))
 381              		.loc 1 474 12 discriminator 1 view .LVU110
 382 000a 90F82030 		ldrb	r3, [r0, #32]	@ zero_extendqisi2
 383 000e DBB2     		uxtb	r3, r3
 473:ThirdParty/STM32F4xx_HAL_Driver/Src/stm32f4xx_hal_can.c ****       (hcan->State == HAL_CAN_STATE_LISTENING))
 384              		.loc 1 473 44 discriminator 1 view .LVU111
 385 0010 022B     		cmp	r3, #2
 386 0012 05D0     		beq	.L37
 475:ThirdParty/STM32F4xx_HAL_Driver/Src/stm32f4xx_hal_can.c ****   {
 476:ThirdParty/STM32F4xx_HAL_Driver/Src/stm32f4xx_hal_can.c ****     /* Check the parameters */
 477:ThirdParty/STM32F4xx_HAL_Driver/Src/stm32f4xx_hal_can.c ****     assert_param(IS_CAN_FILTER_ID_HALFWORD(sFilterConfig->FilterIdHigh));
 478:ThirdParty/STM32F4xx_HAL_Driver/Src/stm32f4xx_hal_can.c ****     assert_param(IS_CAN_FILTER_ID_HALFWORD(sFilterConfig->FilterIdLow));
 479:ThirdParty/STM32F4xx_HAL_Driver/Src/stm32f4xx_hal_can.c ****     assert_param(IS_CAN_FILTER_ID_HALFWORD(sFilterConfig->FilterMaskIdHigh));
 480:ThirdParty/STM32F4xx_HAL_Driver/Src/stm32f4xx_hal_can.c ****     assert_param(IS_CAN_FILTER_ID_HALFWORD(sFilterConfig->FilterMaskIdLow));
 481:ThirdParty/STM32F4xx_HAL_Driver/Src/stm32f4xx_hal_can.c ****     assert_param(IS_CAN_FILTER_MODE(sFilterConfig->FilterMode));
 482:ThirdParty/STM32F4xx_HAL_Driver/Src/stm32f4xx_hal_can.c ****     assert_param(IS_CAN_FILTER_SCALE(sFilterConfig->FilterScale));
 483:ThirdParty/STM32F4xx_HAL_Driver/Src/stm32f4xx_hal_can.c ****     assert_param(IS_CAN_FILTER_FIFO(sFilterConfig->FilterFIFOAssignment));
 484:ThirdParty/STM32F4xx_HAL_Driver/Src/stm32f4xx_hal_can.c ****     assert_param(IS_FUNCTIONAL_STATE(sFilterConfig->FilterActivation));
 485:ThirdParty/STM32F4xx_HAL_Driver/Src/stm32f4xx_hal_can.c **** 
 486:ThirdParty/STM32F4xx_HAL_Driver/Src/stm32f4xx_hal_can.c **** #if defined(CAN3)
 487:ThirdParty/STM32F4xx_HAL_Driver/Src/stm32f4xx_hal_can.c ****     /* Check the CAN instance */
 488:ThirdParty/STM32F4xx_HAL_Driver/Src/stm32f4xx_hal_can.c ****     if (hcan->Instance == CAN3)
 489:ThirdParty/STM32F4xx_HAL_Driver/Src/stm32f4xx_hal_can.c ****     {
 490:ThirdParty/STM32F4xx_HAL_Driver/Src/stm32f4xx_hal_can.c ****       /* CAN3 is single instance with 14 dedicated filters banks */
 491:ThirdParty/STM32F4xx_HAL_Driver/Src/stm32f4xx_hal_can.c **** 
ARM GAS  /tmp/cc6fvD8U.s 			page 18


 492:ThirdParty/STM32F4xx_HAL_Driver/Src/stm32f4xx_hal_can.c ****       /* Check the parameters */
 493:ThirdParty/STM32F4xx_HAL_Driver/Src/stm32f4xx_hal_can.c ****       assert_param(IS_CAN_FILTER_BANK_SINGLE(sFilterConfig->FilterBank));
 494:ThirdParty/STM32F4xx_HAL_Driver/Src/stm32f4xx_hal_can.c ****     }
 495:ThirdParty/STM32F4xx_HAL_Driver/Src/stm32f4xx_hal_can.c ****     else
 496:ThirdParty/STM32F4xx_HAL_Driver/Src/stm32f4xx_hal_can.c ****     {
 497:ThirdParty/STM32F4xx_HAL_Driver/Src/stm32f4xx_hal_can.c ****       /* CAN1 and CAN2 are dual instances with 28 common filters banks */
 498:ThirdParty/STM32F4xx_HAL_Driver/Src/stm32f4xx_hal_can.c ****       /* Select master instance to access the filter banks */
 499:ThirdParty/STM32F4xx_HAL_Driver/Src/stm32f4xx_hal_can.c ****       can_ip = CAN1;
 500:ThirdParty/STM32F4xx_HAL_Driver/Src/stm32f4xx_hal_can.c **** 
 501:ThirdParty/STM32F4xx_HAL_Driver/Src/stm32f4xx_hal_can.c ****       /* Check the parameters */
 502:ThirdParty/STM32F4xx_HAL_Driver/Src/stm32f4xx_hal_can.c ****       assert_param(IS_CAN_FILTER_BANK_DUAL(sFilterConfig->FilterBank));
 503:ThirdParty/STM32F4xx_HAL_Driver/Src/stm32f4xx_hal_can.c ****       assert_param(IS_CAN_FILTER_BANK_DUAL(sFilterConfig->SlaveStartFilterBank));
 504:ThirdParty/STM32F4xx_HAL_Driver/Src/stm32f4xx_hal_can.c ****     }
 505:ThirdParty/STM32F4xx_HAL_Driver/Src/stm32f4xx_hal_can.c **** #elif defined(CAN2)
 506:ThirdParty/STM32F4xx_HAL_Driver/Src/stm32f4xx_hal_can.c ****     /* CAN1 and CAN2 are dual instances with 28 common filters banks */
 507:ThirdParty/STM32F4xx_HAL_Driver/Src/stm32f4xx_hal_can.c ****     /* Select master instance to access the filter banks */
 508:ThirdParty/STM32F4xx_HAL_Driver/Src/stm32f4xx_hal_can.c ****     can_ip = CAN1;
 509:ThirdParty/STM32F4xx_HAL_Driver/Src/stm32f4xx_hal_can.c **** 
 510:ThirdParty/STM32F4xx_HAL_Driver/Src/stm32f4xx_hal_can.c ****     /* Check the parameters */
 511:ThirdParty/STM32F4xx_HAL_Driver/Src/stm32f4xx_hal_can.c ****     assert_param(IS_CAN_FILTER_BANK_DUAL(sFilterConfig->FilterBank));
 512:ThirdParty/STM32F4xx_HAL_Driver/Src/stm32f4xx_hal_can.c ****     assert_param(IS_CAN_FILTER_BANK_DUAL(sFilterConfig->SlaveStartFilterBank));
 513:ThirdParty/STM32F4xx_HAL_Driver/Src/stm32f4xx_hal_can.c **** #else
 514:ThirdParty/STM32F4xx_HAL_Driver/Src/stm32f4xx_hal_can.c ****     /* CAN1 is single instance with 14 dedicated filters banks */
 515:ThirdParty/STM32F4xx_HAL_Driver/Src/stm32f4xx_hal_can.c **** 
 516:ThirdParty/STM32F4xx_HAL_Driver/Src/stm32f4xx_hal_can.c ****     /* Check the parameters */
 517:ThirdParty/STM32F4xx_HAL_Driver/Src/stm32f4xx_hal_can.c ****     assert_param(IS_CAN_FILTER_BANK_SINGLE(sFilterConfig->FilterBank));
 518:ThirdParty/STM32F4xx_HAL_Driver/Src/stm32f4xx_hal_can.c **** #endif
 519:ThirdParty/STM32F4xx_HAL_Driver/Src/stm32f4xx_hal_can.c **** 
 520:ThirdParty/STM32F4xx_HAL_Driver/Src/stm32f4xx_hal_can.c ****     /* Initialisation mode for the filter */
 521:ThirdParty/STM32F4xx_HAL_Driver/Src/stm32f4xx_hal_can.c ****     SET_BIT(can_ip->FMR, CAN_FMR_FINIT);
 522:ThirdParty/STM32F4xx_HAL_Driver/Src/stm32f4xx_hal_can.c **** 
 523:ThirdParty/STM32F4xx_HAL_Driver/Src/stm32f4xx_hal_can.c **** #if defined(CAN3)
 524:ThirdParty/STM32F4xx_HAL_Driver/Src/stm32f4xx_hal_can.c ****     /* Check the CAN instance */
 525:ThirdParty/STM32F4xx_HAL_Driver/Src/stm32f4xx_hal_can.c ****     if (can_ip == CAN1)
 526:ThirdParty/STM32F4xx_HAL_Driver/Src/stm32f4xx_hal_can.c ****     {
 527:ThirdParty/STM32F4xx_HAL_Driver/Src/stm32f4xx_hal_can.c ****       /* Select the start filter number of CAN2 slave instance */
 528:ThirdParty/STM32F4xx_HAL_Driver/Src/stm32f4xx_hal_can.c ****       CLEAR_BIT(can_ip->FMR, CAN_FMR_CAN2SB);
 529:ThirdParty/STM32F4xx_HAL_Driver/Src/stm32f4xx_hal_can.c ****       SET_BIT(can_ip->FMR, sFilterConfig->SlaveStartFilterBank << CAN_FMR_CAN2SB_Pos);
 530:ThirdParty/STM32F4xx_HAL_Driver/Src/stm32f4xx_hal_can.c ****     }
 531:ThirdParty/STM32F4xx_HAL_Driver/Src/stm32f4xx_hal_can.c **** 
 532:ThirdParty/STM32F4xx_HAL_Driver/Src/stm32f4xx_hal_can.c **** #elif defined(CAN2)
 533:ThirdParty/STM32F4xx_HAL_Driver/Src/stm32f4xx_hal_can.c ****     /* Select the start filter number of CAN2 slave instance */
 534:ThirdParty/STM32F4xx_HAL_Driver/Src/stm32f4xx_hal_can.c ****     CLEAR_BIT(can_ip->FMR, CAN_FMR_CAN2SB);
 535:ThirdParty/STM32F4xx_HAL_Driver/Src/stm32f4xx_hal_can.c ****     SET_BIT(can_ip->FMR, sFilterConfig->SlaveStartFilterBank << CAN_FMR_CAN2SB_Pos);
 536:ThirdParty/STM32F4xx_HAL_Driver/Src/stm32f4xx_hal_can.c **** 
 537:ThirdParty/STM32F4xx_HAL_Driver/Src/stm32f4xx_hal_can.c **** #endif
 538:ThirdParty/STM32F4xx_HAL_Driver/Src/stm32f4xx_hal_can.c ****     /* Convert filter number into bit position */
 539:ThirdParty/STM32F4xx_HAL_Driver/Src/stm32f4xx_hal_can.c ****     filternbrbitpos = (1U) << sFilterConfig->FilterBank;
 540:ThirdParty/STM32F4xx_HAL_Driver/Src/stm32f4xx_hal_can.c **** 
 541:ThirdParty/STM32F4xx_HAL_Driver/Src/stm32f4xx_hal_can.c ****     /* Filter Deactivation */
 542:ThirdParty/STM32F4xx_HAL_Driver/Src/stm32f4xx_hal_can.c ****     CLEAR_BIT(can_ip->FA1R, filternbrbitpos);
 543:ThirdParty/STM32F4xx_HAL_Driver/Src/stm32f4xx_hal_can.c **** 
 544:ThirdParty/STM32F4xx_HAL_Driver/Src/stm32f4xx_hal_can.c ****     /* Filter Scale */
 545:ThirdParty/STM32F4xx_HAL_Driver/Src/stm32f4xx_hal_can.c ****     if (sFilterConfig->FilterScale == CAN_FILTERSCALE_16BIT)
 546:ThirdParty/STM32F4xx_HAL_Driver/Src/stm32f4xx_hal_can.c ****     {
 547:ThirdParty/STM32F4xx_HAL_Driver/Src/stm32f4xx_hal_can.c ****       /* 16-bit scale for the filter */
 548:ThirdParty/STM32F4xx_HAL_Driver/Src/stm32f4xx_hal_can.c ****       CLEAR_BIT(can_ip->FS1R, filternbrbitpos);
ARM GAS  /tmp/cc6fvD8U.s 			page 19


 549:ThirdParty/STM32F4xx_HAL_Driver/Src/stm32f4xx_hal_can.c **** 
 550:ThirdParty/STM32F4xx_HAL_Driver/Src/stm32f4xx_hal_can.c ****       /* First 16-bit identifier and First 16-bit mask */
 551:ThirdParty/STM32F4xx_HAL_Driver/Src/stm32f4xx_hal_can.c ****       /* Or First 16-bit identifier and Second 16-bit identifier */
 552:ThirdParty/STM32F4xx_HAL_Driver/Src/stm32f4xx_hal_can.c ****       can_ip->sFilterRegister[sFilterConfig->FilterBank].FR1 =
 553:ThirdParty/STM32F4xx_HAL_Driver/Src/stm32f4xx_hal_can.c ****         ((0x0000FFFFU & (uint32_t)sFilterConfig->FilterMaskIdLow) << 16U) |
 554:ThirdParty/STM32F4xx_HAL_Driver/Src/stm32f4xx_hal_can.c ****         (0x0000FFFFU & (uint32_t)sFilterConfig->FilterIdLow);
 555:ThirdParty/STM32F4xx_HAL_Driver/Src/stm32f4xx_hal_can.c **** 
 556:ThirdParty/STM32F4xx_HAL_Driver/Src/stm32f4xx_hal_can.c ****       /* Second 16-bit identifier and Second 16-bit mask */
 557:ThirdParty/STM32F4xx_HAL_Driver/Src/stm32f4xx_hal_can.c ****       /* Or Third 16-bit identifier and Fourth 16-bit identifier */
 558:ThirdParty/STM32F4xx_HAL_Driver/Src/stm32f4xx_hal_can.c ****       can_ip->sFilterRegister[sFilterConfig->FilterBank].FR2 =
 559:ThirdParty/STM32F4xx_HAL_Driver/Src/stm32f4xx_hal_can.c ****         ((0x0000FFFFU & (uint32_t)sFilterConfig->FilterMaskIdHigh) << 16U) |
 560:ThirdParty/STM32F4xx_HAL_Driver/Src/stm32f4xx_hal_can.c ****         (0x0000FFFFU & (uint32_t)sFilterConfig->FilterIdHigh);
 561:ThirdParty/STM32F4xx_HAL_Driver/Src/stm32f4xx_hal_can.c ****     }
 562:ThirdParty/STM32F4xx_HAL_Driver/Src/stm32f4xx_hal_can.c **** 
 563:ThirdParty/STM32F4xx_HAL_Driver/Src/stm32f4xx_hal_can.c ****     if (sFilterConfig->FilterScale == CAN_FILTERSCALE_32BIT)
 564:ThirdParty/STM32F4xx_HAL_Driver/Src/stm32f4xx_hal_can.c ****     {
 565:ThirdParty/STM32F4xx_HAL_Driver/Src/stm32f4xx_hal_can.c ****       /* 32-bit scale for the filter */
 566:ThirdParty/STM32F4xx_HAL_Driver/Src/stm32f4xx_hal_can.c ****       SET_BIT(can_ip->FS1R, filternbrbitpos);
 567:ThirdParty/STM32F4xx_HAL_Driver/Src/stm32f4xx_hal_can.c **** 
 568:ThirdParty/STM32F4xx_HAL_Driver/Src/stm32f4xx_hal_can.c ****       /* 32-bit identifier or First 32-bit identifier */
 569:ThirdParty/STM32F4xx_HAL_Driver/Src/stm32f4xx_hal_can.c ****       can_ip->sFilterRegister[sFilterConfig->FilterBank].FR1 =
 570:ThirdParty/STM32F4xx_HAL_Driver/Src/stm32f4xx_hal_can.c ****         ((0x0000FFFFU & (uint32_t)sFilterConfig->FilterIdHigh) << 16U) |
 571:ThirdParty/STM32F4xx_HAL_Driver/Src/stm32f4xx_hal_can.c ****         (0x0000FFFFU & (uint32_t)sFilterConfig->FilterIdLow);
 572:ThirdParty/STM32F4xx_HAL_Driver/Src/stm32f4xx_hal_can.c **** 
 573:ThirdParty/STM32F4xx_HAL_Driver/Src/stm32f4xx_hal_can.c ****       /* 32-bit mask or Second 32-bit identifier */
 574:ThirdParty/STM32F4xx_HAL_Driver/Src/stm32f4xx_hal_can.c ****       can_ip->sFilterRegister[sFilterConfig->FilterBank].FR2 =
 575:ThirdParty/STM32F4xx_HAL_Driver/Src/stm32f4xx_hal_can.c ****         ((0x0000FFFFU & (uint32_t)sFilterConfig->FilterMaskIdHigh) << 16U) |
 576:ThirdParty/STM32F4xx_HAL_Driver/Src/stm32f4xx_hal_can.c ****         (0x0000FFFFU & (uint32_t)sFilterConfig->FilterMaskIdLow);
 577:ThirdParty/STM32F4xx_HAL_Driver/Src/stm32f4xx_hal_can.c ****     }
 578:ThirdParty/STM32F4xx_HAL_Driver/Src/stm32f4xx_hal_can.c **** 
 579:ThirdParty/STM32F4xx_HAL_Driver/Src/stm32f4xx_hal_can.c ****     /* Filter Mode */
 580:ThirdParty/STM32F4xx_HAL_Driver/Src/stm32f4xx_hal_can.c ****     if (sFilterConfig->FilterMode == CAN_FILTERMODE_IDMASK)
 581:ThirdParty/STM32F4xx_HAL_Driver/Src/stm32f4xx_hal_can.c ****     {
 582:ThirdParty/STM32F4xx_HAL_Driver/Src/stm32f4xx_hal_can.c ****       /* Id/Mask mode for the filter*/
 583:ThirdParty/STM32F4xx_HAL_Driver/Src/stm32f4xx_hal_can.c ****       CLEAR_BIT(can_ip->FM1R, filternbrbitpos);
 584:ThirdParty/STM32F4xx_HAL_Driver/Src/stm32f4xx_hal_can.c ****     }
 585:ThirdParty/STM32F4xx_HAL_Driver/Src/stm32f4xx_hal_can.c ****     else /* CAN_FilterInitStruct->CAN_FilterMode == CAN_FilterMode_IdList */
 586:ThirdParty/STM32F4xx_HAL_Driver/Src/stm32f4xx_hal_can.c ****     {
 587:ThirdParty/STM32F4xx_HAL_Driver/Src/stm32f4xx_hal_can.c ****       /* Identifier list mode for the filter*/
 588:ThirdParty/STM32F4xx_HAL_Driver/Src/stm32f4xx_hal_can.c ****       SET_BIT(can_ip->FM1R, filternbrbitpos);
 589:ThirdParty/STM32F4xx_HAL_Driver/Src/stm32f4xx_hal_can.c ****     }
 590:ThirdParty/STM32F4xx_HAL_Driver/Src/stm32f4xx_hal_can.c **** 
 591:ThirdParty/STM32F4xx_HAL_Driver/Src/stm32f4xx_hal_can.c ****     /* Filter FIFO assignment */
 592:ThirdParty/STM32F4xx_HAL_Driver/Src/stm32f4xx_hal_can.c ****     if (sFilterConfig->FilterFIFOAssignment == CAN_FILTER_FIFO0)
 593:ThirdParty/STM32F4xx_HAL_Driver/Src/stm32f4xx_hal_can.c ****     {
 594:ThirdParty/STM32F4xx_HAL_Driver/Src/stm32f4xx_hal_can.c ****       /* FIFO 0 assignation for the filter */
 595:ThirdParty/STM32F4xx_HAL_Driver/Src/stm32f4xx_hal_can.c ****       CLEAR_BIT(can_ip->FFA1R, filternbrbitpos);
 596:ThirdParty/STM32F4xx_HAL_Driver/Src/stm32f4xx_hal_can.c ****     }
 597:ThirdParty/STM32F4xx_HAL_Driver/Src/stm32f4xx_hal_can.c ****     else
 598:ThirdParty/STM32F4xx_HAL_Driver/Src/stm32f4xx_hal_can.c ****     {
 599:ThirdParty/STM32F4xx_HAL_Driver/Src/stm32f4xx_hal_can.c ****       /* FIFO 1 assignation for the filter */
 600:ThirdParty/STM32F4xx_HAL_Driver/Src/stm32f4xx_hal_can.c ****       SET_BIT(can_ip->FFA1R, filternbrbitpos);
 601:ThirdParty/STM32F4xx_HAL_Driver/Src/stm32f4xx_hal_can.c ****     }
 602:ThirdParty/STM32F4xx_HAL_Driver/Src/stm32f4xx_hal_can.c **** 
 603:ThirdParty/STM32F4xx_HAL_Driver/Src/stm32f4xx_hal_can.c ****     /* Filter activation */
 604:ThirdParty/STM32F4xx_HAL_Driver/Src/stm32f4xx_hal_can.c ****     if (sFilterConfig->FilterActivation == ENABLE)
 605:ThirdParty/STM32F4xx_HAL_Driver/Src/stm32f4xx_hal_can.c ****     {
ARM GAS  /tmp/cc6fvD8U.s 			page 20


 606:ThirdParty/STM32F4xx_HAL_Driver/Src/stm32f4xx_hal_can.c ****       SET_BIT(can_ip->FA1R, filternbrbitpos);
 607:ThirdParty/STM32F4xx_HAL_Driver/Src/stm32f4xx_hal_can.c ****     }
 608:ThirdParty/STM32F4xx_HAL_Driver/Src/stm32f4xx_hal_can.c **** 
 609:ThirdParty/STM32F4xx_HAL_Driver/Src/stm32f4xx_hal_can.c ****     /* Leave the initialisation mode for the filter */
 610:ThirdParty/STM32F4xx_HAL_Driver/Src/stm32f4xx_hal_can.c ****     CLEAR_BIT(can_ip->FMR, CAN_FMR_FINIT);
 611:ThirdParty/STM32F4xx_HAL_Driver/Src/stm32f4xx_hal_can.c **** 
 612:ThirdParty/STM32F4xx_HAL_Driver/Src/stm32f4xx_hal_can.c ****     /* Return function status */
 613:ThirdParty/STM32F4xx_HAL_Driver/Src/stm32f4xx_hal_can.c ****     return HAL_OK;
 614:ThirdParty/STM32F4xx_HAL_Driver/Src/stm32f4xx_hal_can.c ****   }
 615:ThirdParty/STM32F4xx_HAL_Driver/Src/stm32f4xx_hal_can.c ****   else
 616:ThirdParty/STM32F4xx_HAL_Driver/Src/stm32f4xx_hal_can.c ****   {
 617:ThirdParty/STM32F4xx_HAL_Driver/Src/stm32f4xx_hal_can.c ****     /* Update error code */
 618:ThirdParty/STM32F4xx_HAL_Driver/Src/stm32f4xx_hal_can.c ****     hcan->ErrorCode |= HAL_CAN_ERROR_NOT_INITIALIZED;
 387              		.loc 1 618 5 is_stmt 1 view .LVU112
 388              		.loc 1 618 21 is_stmt 0 view .LVU113
 389 0014 436A     		ldr	r3, [r0, #36]
 390 0016 43F48023 		orr	r3, r3, #262144
 391 001a 4362     		str	r3, [r0, #36]
 619:ThirdParty/STM32F4xx_HAL_Driver/Src/stm32f4xx_hal_can.c **** 
 620:ThirdParty/STM32F4xx_HAL_Driver/Src/stm32f4xx_hal_can.c ****     return HAL_ERROR;
 392              		.loc 1 620 5 is_stmt 1 view .LVU114
 393              		.loc 1 620 12 is_stmt 0 view .LVU115
 394 001c 0120     		movs	r0, #1
 395              	.LVL16:
 621:ThirdParty/STM32F4xx_HAL_Driver/Src/stm32f4xx_hal_can.c ****   }
 622:ThirdParty/STM32F4xx_HAL_Driver/Src/stm32f4xx_hal_can.c **** }
 396              		.loc 1 622 1 view .LVU116
 397 001e 7047     		bx	lr
 398              	.LVL17:
 399              	.L37:
 469:ThirdParty/STM32F4xx_HAL_Driver/Src/stm32f4xx_hal_can.c ****   uint32_t filternbrbitpos = 0U;
 400              		.loc 1 469 1 view .LVU117
 401 0020 30B5     		push	{r4, r5, lr}
 402              	.LCFI2:
 403              		.cfi_def_cfa_offset 12
 404              		.cfi_offset 4, -12
 405              		.cfi_offset 5, -8
 406              		.cfi_offset 14, -4
 477:ThirdParty/STM32F4xx_HAL_Driver/Src/stm32f4xx_hal_can.c ****     assert_param(IS_CAN_FILTER_ID_HALFWORD(sFilterConfig->FilterIdLow));
 407              		.loc 1 477 5 is_stmt 1 view .LVU118
 478:ThirdParty/STM32F4xx_HAL_Driver/Src/stm32f4xx_hal_can.c ****     assert_param(IS_CAN_FILTER_ID_HALFWORD(sFilterConfig->FilterMaskIdHigh));
 408              		.loc 1 478 5 view .LVU119
 479:ThirdParty/STM32F4xx_HAL_Driver/Src/stm32f4xx_hal_can.c ****     assert_param(IS_CAN_FILTER_ID_HALFWORD(sFilterConfig->FilterMaskIdLow));
 409              		.loc 1 479 5 view .LVU120
 480:ThirdParty/STM32F4xx_HAL_Driver/Src/stm32f4xx_hal_can.c ****     assert_param(IS_CAN_FILTER_MODE(sFilterConfig->FilterMode));
 410              		.loc 1 480 5 view .LVU121
 481:ThirdParty/STM32F4xx_HAL_Driver/Src/stm32f4xx_hal_can.c ****     assert_param(IS_CAN_FILTER_SCALE(sFilterConfig->FilterScale));
 411              		.loc 1 481 5 view .LVU122
 482:ThirdParty/STM32F4xx_HAL_Driver/Src/stm32f4xx_hal_can.c ****     assert_param(IS_CAN_FILTER_FIFO(sFilterConfig->FilterFIFOAssignment));
 412              		.loc 1 482 5 view .LVU123
 483:ThirdParty/STM32F4xx_HAL_Driver/Src/stm32f4xx_hal_can.c ****     assert_param(IS_FUNCTIONAL_STATE(sFilterConfig->FilterActivation));
 413              		.loc 1 483 5 view .LVU124
 484:ThirdParty/STM32F4xx_HAL_Driver/Src/stm32f4xx_hal_can.c **** 
 414              		.loc 1 484 5 view .LVU125
 508:ThirdParty/STM32F4xx_HAL_Driver/Src/stm32f4xx_hal_can.c **** 
 415              		.loc 1 508 5 view .LVU126
 416              	.LVL18:
ARM GAS  /tmp/cc6fvD8U.s 			page 21


 511:ThirdParty/STM32F4xx_HAL_Driver/Src/stm32f4xx_hal_can.c ****     assert_param(IS_CAN_FILTER_BANK_DUAL(sFilterConfig->SlaveStartFilterBank));
 417              		.loc 1 511 5 view .LVU127
 512:ThirdParty/STM32F4xx_HAL_Driver/Src/stm32f4xx_hal_can.c **** #else
 418              		.loc 1 512 5 view .LVU128
 521:ThirdParty/STM32F4xx_HAL_Driver/Src/stm32f4xx_hal_can.c **** 
 419              		.loc 1 521 5 view .LVU129
 420 0022 454B     		ldr	r3, .L52
 421 0024 D3F80022 		ldr	r2, [r3, #512]
 422 0028 42F00102 		orr	r2, r2, #1
 423 002c C3F80022 		str	r2, [r3, #512]
 534:ThirdParty/STM32F4xx_HAL_Driver/Src/stm32f4xx_hal_can.c ****     SET_BIT(can_ip->FMR, sFilterConfig->SlaveStartFilterBank << CAN_FMR_CAN2SB_Pos);
 424              		.loc 1 534 5 view .LVU130
 425 0030 D3F80022 		ldr	r2, [r3, #512]
 426 0034 22F47C52 		bic	r2, r2, #16128
 427 0038 C3F80022 		str	r2, [r3, #512]
 535:ThirdParty/STM32F4xx_HAL_Driver/Src/stm32f4xx_hal_can.c **** 
 428              		.loc 1 535 5 view .LVU131
 429 003c D3F80022 		ldr	r2, [r3, #512]
 430 0040 486A     		ldr	r0, [r1, #36]
 431              	.LVL19:
 535:ThirdParty/STM32F4xx_HAL_Driver/Src/stm32f4xx_hal_can.c **** 
 432              		.loc 1 535 5 is_stmt 0 view .LVU132
 433 0042 42EA0022 		orr	r2, r2, r0, lsl #8
 434 0046 C3F80022 		str	r2, [r3, #512]
 539:ThirdParty/STM32F4xx_HAL_Driver/Src/stm32f4xx_hal_can.c **** 
 435              		.loc 1 539 5 is_stmt 1 view .LVU133
 539:ThirdParty/STM32F4xx_HAL_Driver/Src/stm32f4xx_hal_can.c **** 
 436              		.loc 1 539 44 is_stmt 0 view .LVU134
 437 004a 4A69     		ldr	r2, [r1, #20]
 539:ThirdParty/STM32F4xx_HAL_Driver/Src/stm32f4xx_hal_can.c **** 
 438              		.loc 1 539 21 view .LVU135
 439 004c 0120     		movs	r0, #1
 440 004e 00FA02F2 		lsl	r2, r0, r2
 441              	.LVL20:
 542:ThirdParty/STM32F4xx_HAL_Driver/Src/stm32f4xx_hal_can.c **** 
 442              		.loc 1 542 5 is_stmt 1 view .LVU136
 443 0052 D3F81C02 		ldr	r0, [r3, #540]
 444 0056 6FEA020C 		mvn	ip, r2
 445 005a 20EA0200 		bic	r0, r0, r2
 446 005e C3F81C02 		str	r0, [r3, #540]
 545:ThirdParty/STM32F4xx_HAL_Driver/Src/stm32f4xx_hal_can.c ****     {
 447              		.loc 1 545 5 view .LVU137
 545:ThirdParty/STM32F4xx_HAL_Driver/Src/stm32f4xx_hal_can.c ****     {
 448              		.loc 1 545 22 is_stmt 0 view .LVU138
 449 0062 CB69     		ldr	r3, [r1, #28]
 545:ThirdParty/STM32F4xx_HAL_Driver/Src/stm32f4xx_hal_can.c ****     {
 450              		.loc 1 545 8 view .LVU139
 451 0064 C3B9     		cbnz	r3, .L39
 548:ThirdParty/STM32F4xx_HAL_Driver/Src/stm32f4xx_hal_can.c **** 
 452              		.loc 1 548 7 is_stmt 1 view .LVU140
 453 0066 344B     		ldr	r3, .L52
 454 0068 D3F80C02 		ldr	r0, [r3, #524]
 455 006c 0CEA0000 		and	r0, ip, r0
 456 0070 C3F80C02 		str	r0, [r3, #524]
 552:ThirdParty/STM32F4xx_HAL_Driver/Src/stm32f4xx_hal_can.c ****         ((0x0000FFFFU & (uint32_t)sFilterConfig->FilterMaskIdLow) << 16U) |
 457              		.loc 1 552 7 view .LVU141
 554:ThirdParty/STM32F4xx_HAL_Driver/Src/stm32f4xx_hal_can.c **** 
ARM GAS  /tmp/cc6fvD8U.s 			page 22


 458              		.loc 1 554 22 is_stmt 0 view .LVU142
 459 0074 8C88     		ldrh	r4, [r1, #4]
 552:ThirdParty/STM32F4xx_HAL_Driver/Src/stm32f4xx_hal_can.c ****         ((0x0000FFFFU & (uint32_t)sFilterConfig->FilterMaskIdLow) << 16U) |
 460              		.loc 1 552 44 view .LVU143
 461 0076 4869     		ldr	r0, [r1, #20]
 553:ThirdParty/STM32F4xx_HAL_Driver/Src/stm32f4xx_hal_can.c ****         (0x0000FFFFU & (uint32_t)sFilterConfig->FilterIdLow);
 462              		.loc 1 553 75 view .LVU144
 463 0078 CD68     		ldr	r5, [r1, #12]
 464 007a 44EA0544 		orr	r4, r4, r5, lsl #16
 552:ThirdParty/STM32F4xx_HAL_Driver/Src/stm32f4xx_hal_can.c ****         ((0x0000FFFFU & (uint32_t)sFilterConfig->FilterMaskIdLow) << 16U) |
 465              		.loc 1 552 62 view .LVU145
 466 007e 4830     		adds	r0, r0, #72
 467 0080 43F83040 		str	r4, [r3, r0, lsl #3]
 558:ThirdParty/STM32F4xx_HAL_Driver/Src/stm32f4xx_hal_can.c ****         ((0x0000FFFFU & (uint32_t)sFilterConfig->FilterMaskIdHigh) << 16U) |
 468              		.loc 1 558 7 is_stmt 1 view .LVU146
 559:ThirdParty/STM32F4xx_HAL_Driver/Src/stm32f4xx_hal_can.c ****         (0x0000FFFFU & (uint32_t)sFilterConfig->FilterIdHigh);
 469              		.loc 1 559 48 is_stmt 0 view .LVU147
 470 0084 8C68     		ldr	r4, [r1, #8]
 560:ThirdParty/STM32F4xx_HAL_Driver/Src/stm32f4xx_hal_can.c ****     }
 471              		.loc 1 560 22 view .LVU148
 472 0086 0888     		ldrh	r0, [r1]
 559:ThirdParty/STM32F4xx_HAL_Driver/Src/stm32f4xx_hal_can.c ****         (0x0000FFFFU & (uint32_t)sFilterConfig->FilterIdHigh);
 473              		.loc 1 559 76 view .LVU149
 474 0088 40EA0440 		orr	r0, r0, r4, lsl #16
 558:ThirdParty/STM32F4xx_HAL_Driver/Src/stm32f4xx_hal_can.c ****         ((0x0000FFFFU & (uint32_t)sFilterConfig->FilterMaskIdHigh) << 16U) |
 475              		.loc 1 558 62 view .LVU150
 476 008c 4C69     		ldr	r4, [r1, #20]
 477 008e 04F1480E 		add	lr, r4, #72
 478 0092 03EBCE03 		add	r3, r3, lr, lsl #3
 479 0096 5860     		str	r0, [r3, #4]
 480              	.L39:
 563:ThirdParty/STM32F4xx_HAL_Driver/Src/stm32f4xx_hal_can.c ****     {
 481              		.loc 1 563 5 is_stmt 1 view .LVU151
 563:ThirdParty/STM32F4xx_HAL_Driver/Src/stm32f4xx_hal_can.c ****     {
 482              		.loc 1 563 22 is_stmt 0 view .LVU152
 483 0098 CB69     		ldr	r3, [r1, #28]
 563:ThirdParty/STM32F4xx_HAL_Driver/Src/stm32f4xx_hal_can.c ****     {
 484              		.loc 1 563 8 view .LVU153
 485 009a 012B     		cmp	r3, #1
 486 009c 1ED0     		beq	.L50
 487              	.L40:
 580:ThirdParty/STM32F4xx_HAL_Driver/Src/stm32f4xx_hal_can.c ****     {
 488              		.loc 1 580 5 is_stmt 1 view .LVU154
 580:ThirdParty/STM32F4xx_HAL_Driver/Src/stm32f4xx_hal_can.c ****     {
 489              		.loc 1 580 22 is_stmt 0 view .LVU155
 490 009e 8B69     		ldr	r3, [r1, #24]
 580:ThirdParty/STM32F4xx_HAL_Driver/Src/stm32f4xx_hal_can.c ****     {
 491              		.loc 1 580 8 view .LVU156
 492 00a0 002B     		cmp	r3, #0
 493 00a2 33D1     		bne	.L41
 583:ThirdParty/STM32F4xx_HAL_Driver/Src/stm32f4xx_hal_can.c ****     }
 494              		.loc 1 583 7 is_stmt 1 view .LVU157
 495 00a4 2448     		ldr	r0, .L52
 496 00a6 D0F80432 		ldr	r3, [r0, #516]
 497 00aa 0CEA0303 		and	r3, ip, r3
 498 00ae C0F80432 		str	r3, [r0, #516]
 499              	.L42:
ARM GAS  /tmp/cc6fvD8U.s 			page 23


 592:ThirdParty/STM32F4xx_HAL_Driver/Src/stm32f4xx_hal_can.c ****     {
 500              		.loc 1 592 5 view .LVU158
 592:ThirdParty/STM32F4xx_HAL_Driver/Src/stm32f4xx_hal_can.c ****     {
 501              		.loc 1 592 22 is_stmt 0 view .LVU159
 502 00b2 0B69     		ldr	r3, [r1, #16]
 592:ThirdParty/STM32F4xx_HAL_Driver/Src/stm32f4xx_hal_can.c ****     {
 503              		.loc 1 592 8 view .LVU160
 504 00b4 8BBB     		cbnz	r3, .L43
 595:ThirdParty/STM32F4xx_HAL_Driver/Src/stm32f4xx_hal_can.c ****     }
 505              		.loc 1 595 7 is_stmt 1 view .LVU161
 506 00b6 2048     		ldr	r0, .L52
 507 00b8 D0F81432 		ldr	r3, [r0, #532]
 508 00bc 0CEA0303 		and	r3, ip, r3
 509 00c0 C0F81432 		str	r3, [r0, #532]
 510              	.L44:
 604:ThirdParty/STM32F4xx_HAL_Driver/Src/stm32f4xx_hal_can.c ****     {
 511              		.loc 1 604 5 view .LVU162
 604:ThirdParty/STM32F4xx_HAL_Driver/Src/stm32f4xx_hal_can.c ****     {
 512              		.loc 1 604 22 is_stmt 0 view .LVU163
 513 00c4 0B6A     		ldr	r3, [r1, #32]
 604:ThirdParty/STM32F4xx_HAL_Driver/Src/stm32f4xx_hal_can.c ****     {
 514              		.loc 1 604 8 view .LVU164
 515 00c6 012B     		cmp	r3, #1
 516 00c8 2ED0     		beq	.L51
 517              	.LVL21:
 518              	.L45:
 610:ThirdParty/STM32F4xx_HAL_Driver/Src/stm32f4xx_hal_can.c **** 
 519              		.loc 1 610 5 is_stmt 1 view .LVU165
 520 00ca 1B4A     		ldr	r2, .L52
 521 00cc D2F80032 		ldr	r3, [r2, #512]
 522 00d0 23F00103 		bic	r3, r3, #1
 523 00d4 C2F80032 		str	r3, [r2, #512]
 613:ThirdParty/STM32F4xx_HAL_Driver/Src/stm32f4xx_hal_can.c ****   }
 524              		.loc 1 613 5 view .LVU166
 613:ThirdParty/STM32F4xx_HAL_Driver/Src/stm32f4xx_hal_can.c ****   }
 525              		.loc 1 613 12 is_stmt 0 view .LVU167
 526 00d8 0020     		movs	r0, #0
 527              		.loc 1 622 1 view .LVU168
 528 00da 30BD     		pop	{r4, r5, pc}
 529              	.LVL22:
 530              	.L50:
 566:ThirdParty/STM32F4xx_HAL_Driver/Src/stm32f4xx_hal_can.c **** 
 531              		.loc 1 566 7 is_stmt 1 view .LVU169
 532 00dc 164B     		ldr	r3, .L52
 533 00de D3F80C02 		ldr	r0, [r3, #524]
 534 00e2 1043     		orrs	r0, r0, r2
 535 00e4 C3F80C02 		str	r0, [r3, #524]
 569:ThirdParty/STM32F4xx_HAL_Driver/Src/stm32f4xx_hal_can.c ****         ((0x0000FFFFU & (uint32_t)sFilterConfig->FilterIdHigh) << 16U) |
 536              		.loc 1 569 7 view .LVU170
 571:ThirdParty/STM32F4xx_HAL_Driver/Src/stm32f4xx_hal_can.c **** 
 537              		.loc 1 571 22 is_stmt 0 view .LVU171
 538 00e8 8C88     		ldrh	r4, [r1, #4]
 569:ThirdParty/STM32F4xx_HAL_Driver/Src/stm32f4xx_hal_can.c ****         ((0x0000FFFFU & (uint32_t)sFilterConfig->FilterIdHigh) << 16U) |
 539              		.loc 1 569 44 view .LVU172
 540 00ea 4869     		ldr	r0, [r1, #20]
 570:ThirdParty/STM32F4xx_HAL_Driver/Src/stm32f4xx_hal_can.c ****         (0x0000FFFFU & (uint32_t)sFilterConfig->FilterIdLow);
 541              		.loc 1 570 72 view .LVU173
ARM GAS  /tmp/cc6fvD8U.s 			page 24


 542 00ec 0D68     		ldr	r5, [r1]
 543 00ee 44EA0544 		orr	r4, r4, r5, lsl #16
 569:ThirdParty/STM32F4xx_HAL_Driver/Src/stm32f4xx_hal_can.c ****         ((0x0000FFFFU & (uint32_t)sFilterConfig->FilterIdHigh) << 16U) |
 544              		.loc 1 569 62 view .LVU174
 545 00f2 4830     		adds	r0, r0, #72
 546 00f4 43F83040 		str	r4, [r3, r0, lsl #3]
 574:ThirdParty/STM32F4xx_HAL_Driver/Src/stm32f4xx_hal_can.c ****         ((0x0000FFFFU & (uint32_t)sFilterConfig->FilterMaskIdHigh) << 16U) |
 547              		.loc 1 574 7 is_stmt 1 view .LVU175
 576:ThirdParty/STM32F4xx_HAL_Driver/Src/stm32f4xx_hal_can.c ****     }
 548              		.loc 1 576 22 is_stmt 0 view .LVU176
 549 00f8 8889     		ldrh	r0, [r1, #12]
 574:ThirdParty/STM32F4xx_HAL_Driver/Src/stm32f4xx_hal_can.c ****         ((0x0000FFFFU & (uint32_t)sFilterConfig->FilterMaskIdHigh) << 16U) |
 550              		.loc 1 574 44 view .LVU177
 551 00fa 4C69     		ldr	r4, [r1, #20]
 575:ThirdParty/STM32F4xx_HAL_Driver/Src/stm32f4xx_hal_can.c ****         (0x0000FFFFU & (uint32_t)sFilterConfig->FilterMaskIdLow);
 552              		.loc 1 575 76 view .LVU178
 553 00fc 8D68     		ldr	r5, [r1, #8]
 554 00fe 40EA0540 		orr	r0, r0, r5, lsl #16
 574:ThirdParty/STM32F4xx_HAL_Driver/Src/stm32f4xx_hal_can.c ****         ((0x0000FFFFU & (uint32_t)sFilterConfig->FilterMaskIdHigh) << 16U) |
 555              		.loc 1 574 62 view .LVU179
 556 0102 4834     		adds	r4, r4, #72
 557 0104 03EBC403 		add	r3, r3, r4, lsl #3
 558 0108 5860     		str	r0, [r3, #4]
 559 010a C8E7     		b	.L40
 560              	.L41:
 588:ThirdParty/STM32F4xx_HAL_Driver/Src/stm32f4xx_hal_can.c ****     }
 561              		.loc 1 588 7 is_stmt 1 view .LVU180
 562 010c 0A48     		ldr	r0, .L52
 563 010e D0F80432 		ldr	r3, [r0, #516]
 564 0112 1343     		orrs	r3, r3, r2
 565 0114 C0F80432 		str	r3, [r0, #516]
 566 0118 CBE7     		b	.L42
 567              	.L43:
 600:ThirdParty/STM32F4xx_HAL_Driver/Src/stm32f4xx_hal_can.c ****     }
 568              		.loc 1 600 7 view .LVU181
 569 011a 0748     		ldr	r0, .L52
 570 011c D0F81432 		ldr	r3, [r0, #532]
 571 0120 1343     		orrs	r3, r3, r2
 572 0122 C0F81432 		str	r3, [r0, #532]
 573 0126 CDE7     		b	.L44
 574              	.L51:
 606:ThirdParty/STM32F4xx_HAL_Driver/Src/stm32f4xx_hal_can.c ****     }
 575              		.loc 1 606 7 view .LVU182
 576 0128 0349     		ldr	r1, .L52
 577              	.LVL23:
 606:ThirdParty/STM32F4xx_HAL_Driver/Src/stm32f4xx_hal_can.c ****     }
 578              		.loc 1 606 7 is_stmt 0 view .LVU183
 579 012a D1F81C32 		ldr	r3, [r1, #540]
 580 012e 1A43     		orrs	r2, r2, r3
 581              	.LVL24:
 606:ThirdParty/STM32F4xx_HAL_Driver/Src/stm32f4xx_hal_can.c ****     }
 582              		.loc 1 606 7 view .LVU184
 583 0130 C1F81C22 		str	r2, [r1, #540]
 584 0134 C9E7     		b	.L45
 585              	.L53:
 586 0136 00BF     		.align	2
 587              	.L52:
ARM GAS  /tmp/cc6fvD8U.s 			page 25


 588 0138 00640040 		.word	1073767424
 589              		.cfi_endproc
 590              	.LFE137:
 592              		.section	.text.HAL_CAN_Start,"ax",%progbits
 593              		.align	1
 594              		.global	HAL_CAN_Start
 595              		.syntax unified
 596              		.thumb
 597              		.thumb_func
 599              	HAL_CAN_Start:
 600              	.LVL25:
 601              	.LFB138:
 623:ThirdParty/STM32F4xx_HAL_Driver/Src/stm32f4xx_hal_can.c **** 
 624:ThirdParty/STM32F4xx_HAL_Driver/Src/stm32f4xx_hal_can.c **** /**
 625:ThirdParty/STM32F4xx_HAL_Driver/Src/stm32f4xx_hal_can.c ****   * @}
 626:ThirdParty/STM32F4xx_HAL_Driver/Src/stm32f4xx_hal_can.c ****   */
 627:ThirdParty/STM32F4xx_HAL_Driver/Src/stm32f4xx_hal_can.c **** 
 628:ThirdParty/STM32F4xx_HAL_Driver/Src/stm32f4xx_hal_can.c **** /** @defgroup CAN_Exported_Functions_Group3 Control functions
 629:ThirdParty/STM32F4xx_HAL_Driver/Src/stm32f4xx_hal_can.c ****  *  @brief    Control functions
 630:ThirdParty/STM32F4xx_HAL_Driver/Src/stm32f4xx_hal_can.c ****  *
 631:ThirdParty/STM32F4xx_HAL_Driver/Src/stm32f4xx_hal_can.c **** @verbatim
 632:ThirdParty/STM32F4xx_HAL_Driver/Src/stm32f4xx_hal_can.c ****   ==============================================================================
 633:ThirdParty/STM32F4xx_HAL_Driver/Src/stm32f4xx_hal_can.c ****                       ##### Control functions #####
 634:ThirdParty/STM32F4xx_HAL_Driver/Src/stm32f4xx_hal_can.c ****   ==============================================================================
 635:ThirdParty/STM32F4xx_HAL_Driver/Src/stm32f4xx_hal_can.c ****     [..]  This section provides functions allowing to:
 636:ThirdParty/STM32F4xx_HAL_Driver/Src/stm32f4xx_hal_can.c ****       (+) HAL_CAN_Start                    : Start the CAN module
 637:ThirdParty/STM32F4xx_HAL_Driver/Src/stm32f4xx_hal_can.c ****       (+) HAL_CAN_Stop                     : Stop the CAN module
 638:ThirdParty/STM32F4xx_HAL_Driver/Src/stm32f4xx_hal_can.c ****       (+) HAL_CAN_RequestSleep             : Request sleep mode entry.
 639:ThirdParty/STM32F4xx_HAL_Driver/Src/stm32f4xx_hal_can.c ****       (+) HAL_CAN_WakeUp                   : Wake up from sleep mode.
 640:ThirdParty/STM32F4xx_HAL_Driver/Src/stm32f4xx_hal_can.c ****       (+) HAL_CAN_IsSleepActive            : Check is sleep mode is active.
 641:ThirdParty/STM32F4xx_HAL_Driver/Src/stm32f4xx_hal_can.c ****       (+) HAL_CAN_AddTxMessage             : Add a message to the Tx mailboxes
 642:ThirdParty/STM32F4xx_HAL_Driver/Src/stm32f4xx_hal_can.c ****                                              and activate the corresponding
 643:ThirdParty/STM32F4xx_HAL_Driver/Src/stm32f4xx_hal_can.c ****                                              transmission request
 644:ThirdParty/STM32F4xx_HAL_Driver/Src/stm32f4xx_hal_can.c ****       (+) HAL_CAN_AbortTxRequest           : Abort transmission request
 645:ThirdParty/STM32F4xx_HAL_Driver/Src/stm32f4xx_hal_can.c ****       (+) HAL_CAN_GetTxMailboxesFreeLevel  : Return Tx mailboxes free level
 646:ThirdParty/STM32F4xx_HAL_Driver/Src/stm32f4xx_hal_can.c ****       (+) HAL_CAN_IsTxMessagePending       : Check if a transmission request is
 647:ThirdParty/STM32F4xx_HAL_Driver/Src/stm32f4xx_hal_can.c ****                                              pending on the selected Tx mailbox
 648:ThirdParty/STM32F4xx_HAL_Driver/Src/stm32f4xx_hal_can.c ****       (+) HAL_CAN_GetRxMessage             : Get a CAN frame from the Rx FIFO
 649:ThirdParty/STM32F4xx_HAL_Driver/Src/stm32f4xx_hal_can.c ****       (+) HAL_CAN_GetRxFifoFillLevel       : Return Rx FIFO fill level
 650:ThirdParty/STM32F4xx_HAL_Driver/Src/stm32f4xx_hal_can.c **** 
 651:ThirdParty/STM32F4xx_HAL_Driver/Src/stm32f4xx_hal_can.c **** @endverbatim
 652:ThirdParty/STM32F4xx_HAL_Driver/Src/stm32f4xx_hal_can.c ****   * @{
 653:ThirdParty/STM32F4xx_HAL_Driver/Src/stm32f4xx_hal_can.c ****   */
 654:ThirdParty/STM32F4xx_HAL_Driver/Src/stm32f4xx_hal_can.c **** 
 655:ThirdParty/STM32F4xx_HAL_Driver/Src/stm32f4xx_hal_can.c **** /**
 656:ThirdParty/STM32F4xx_HAL_Driver/Src/stm32f4xx_hal_can.c ****   * @brief  Start the CAN module.
 657:ThirdParty/STM32F4xx_HAL_Driver/Src/stm32f4xx_hal_can.c ****   * @param  hcan pointer to an CAN_HandleTypeDef structure that contains
 658:ThirdParty/STM32F4xx_HAL_Driver/Src/stm32f4xx_hal_can.c ****   *         the configuration information for the specified CAN.
 659:ThirdParty/STM32F4xx_HAL_Driver/Src/stm32f4xx_hal_can.c ****   * @retval HAL status
 660:ThirdParty/STM32F4xx_HAL_Driver/Src/stm32f4xx_hal_can.c ****   */
 661:ThirdParty/STM32F4xx_HAL_Driver/Src/stm32f4xx_hal_can.c **** HAL_StatusTypeDef HAL_CAN_Start(CAN_HandleTypeDef *hcan)
 662:ThirdParty/STM32F4xx_HAL_Driver/Src/stm32f4xx_hal_can.c **** {
 602              		.loc 1 662 1 is_stmt 1 view -0
 603              		.cfi_startproc
 604              		@ args = 0, pretend = 0, frame = 0
 605              		@ frame_needed = 0, uses_anonymous_args = 0
 606              		.loc 1 662 1 is_stmt 0 view .LVU186
ARM GAS  /tmp/cc6fvD8U.s 			page 26


 607 0000 70B5     		push	{r4, r5, r6, lr}
 608              	.LCFI3:
 609              		.cfi_def_cfa_offset 16
 610              		.cfi_offset 4, -16
 611              		.cfi_offset 5, -12
 612              		.cfi_offset 6, -8
 613              		.cfi_offset 14, -4
 614 0002 0446     		mov	r4, r0
 663:ThirdParty/STM32F4xx_HAL_Driver/Src/stm32f4xx_hal_can.c ****   uint32_t tickstart = 0U;
 615              		.loc 1 663 3 is_stmt 1 view .LVU187
 616              	.LVL26:
 664:ThirdParty/STM32F4xx_HAL_Driver/Src/stm32f4xx_hal_can.c **** 
 665:ThirdParty/STM32F4xx_HAL_Driver/Src/stm32f4xx_hal_can.c ****   if (hcan->State == HAL_CAN_STATE_READY)
 617              		.loc 1 665 3 view .LVU188
 618              		.loc 1 665 11 is_stmt 0 view .LVU189
 619 0004 90F82050 		ldrb	r5, [r0, #32]	@ zero_extendqisi2
 620 0008 EDB2     		uxtb	r5, r5
 621              		.loc 1 665 6 view .LVU190
 622 000a 012D     		cmp	r5, #1
 623 000c 06D0     		beq	.L60
 666:ThirdParty/STM32F4xx_HAL_Driver/Src/stm32f4xx_hal_can.c ****   {
 667:ThirdParty/STM32F4xx_HAL_Driver/Src/stm32f4xx_hal_can.c ****     /* Change CAN peripheral state */
 668:ThirdParty/STM32F4xx_HAL_Driver/Src/stm32f4xx_hal_can.c ****     hcan->State = HAL_CAN_STATE_LISTENING;
 669:ThirdParty/STM32F4xx_HAL_Driver/Src/stm32f4xx_hal_can.c **** 
 670:ThirdParty/STM32F4xx_HAL_Driver/Src/stm32f4xx_hal_can.c ****     /* Request leave initialisation */
 671:ThirdParty/STM32F4xx_HAL_Driver/Src/stm32f4xx_hal_can.c ****     CLEAR_BIT(hcan->Instance->MCR, CAN_MCR_INRQ);
 672:ThirdParty/STM32F4xx_HAL_Driver/Src/stm32f4xx_hal_can.c **** 
 673:ThirdParty/STM32F4xx_HAL_Driver/Src/stm32f4xx_hal_can.c ****     /* Get tick */
 674:ThirdParty/STM32F4xx_HAL_Driver/Src/stm32f4xx_hal_can.c ****     tickstart = HAL_GetTick();
 675:ThirdParty/STM32F4xx_HAL_Driver/Src/stm32f4xx_hal_can.c **** 
 676:ThirdParty/STM32F4xx_HAL_Driver/Src/stm32f4xx_hal_can.c ****     /* Wait the acknowledge */
 677:ThirdParty/STM32F4xx_HAL_Driver/Src/stm32f4xx_hal_can.c ****     while ((hcan->Instance->MSR & CAN_MSR_INAK) != RESET)
 678:ThirdParty/STM32F4xx_HAL_Driver/Src/stm32f4xx_hal_can.c ****     {
 679:ThirdParty/STM32F4xx_HAL_Driver/Src/stm32f4xx_hal_can.c ****       /* Check for the Timeout */
 680:ThirdParty/STM32F4xx_HAL_Driver/Src/stm32f4xx_hal_can.c ****       if ((HAL_GetTick() - tickstart) > CAN_TIMEOUT_VALUE)
 681:ThirdParty/STM32F4xx_HAL_Driver/Src/stm32f4xx_hal_can.c ****       {
 682:ThirdParty/STM32F4xx_HAL_Driver/Src/stm32f4xx_hal_can.c ****         /* Update error code */
 683:ThirdParty/STM32F4xx_HAL_Driver/Src/stm32f4xx_hal_can.c ****         hcan->ErrorCode |= HAL_CAN_ERROR_TIMEOUT;
 684:ThirdParty/STM32F4xx_HAL_Driver/Src/stm32f4xx_hal_can.c **** 
 685:ThirdParty/STM32F4xx_HAL_Driver/Src/stm32f4xx_hal_can.c ****         /* Change CAN state */
 686:ThirdParty/STM32F4xx_HAL_Driver/Src/stm32f4xx_hal_can.c ****         hcan->State = HAL_CAN_STATE_ERROR;
 687:ThirdParty/STM32F4xx_HAL_Driver/Src/stm32f4xx_hal_can.c **** 
 688:ThirdParty/STM32F4xx_HAL_Driver/Src/stm32f4xx_hal_can.c ****         return HAL_ERROR;
 689:ThirdParty/STM32F4xx_HAL_Driver/Src/stm32f4xx_hal_can.c ****       }
 690:ThirdParty/STM32F4xx_HAL_Driver/Src/stm32f4xx_hal_can.c ****     }
 691:ThirdParty/STM32F4xx_HAL_Driver/Src/stm32f4xx_hal_can.c **** 
 692:ThirdParty/STM32F4xx_HAL_Driver/Src/stm32f4xx_hal_can.c ****     /* Reset the CAN ErrorCode */
 693:ThirdParty/STM32F4xx_HAL_Driver/Src/stm32f4xx_hal_can.c ****     hcan->ErrorCode = HAL_CAN_ERROR_NONE;
 694:ThirdParty/STM32F4xx_HAL_Driver/Src/stm32f4xx_hal_can.c **** 
 695:ThirdParty/STM32F4xx_HAL_Driver/Src/stm32f4xx_hal_can.c ****     /* Return function status */
 696:ThirdParty/STM32F4xx_HAL_Driver/Src/stm32f4xx_hal_can.c ****     return HAL_OK;
 697:ThirdParty/STM32F4xx_HAL_Driver/Src/stm32f4xx_hal_can.c ****   }
 698:ThirdParty/STM32F4xx_HAL_Driver/Src/stm32f4xx_hal_can.c ****   else
 699:ThirdParty/STM32F4xx_HAL_Driver/Src/stm32f4xx_hal_can.c ****   {
 700:ThirdParty/STM32F4xx_HAL_Driver/Src/stm32f4xx_hal_can.c ****     /* Update error code */
 701:ThirdParty/STM32F4xx_HAL_Driver/Src/stm32f4xx_hal_can.c ****     hcan->ErrorCode |= HAL_CAN_ERROR_NOT_READY;
 624              		.loc 1 701 5 is_stmt 1 view .LVU191
ARM GAS  /tmp/cc6fvD8U.s 			page 27


 625              		.loc 1 701 21 is_stmt 0 view .LVU192
 626 000e 436A     		ldr	r3, [r0, #36]
 627 0010 43F40023 		orr	r3, r3, #524288
 628 0014 4362     		str	r3, [r0, #36]
 702:ThirdParty/STM32F4xx_HAL_Driver/Src/stm32f4xx_hal_can.c **** 
 703:ThirdParty/STM32F4xx_HAL_Driver/Src/stm32f4xx_hal_can.c ****     return HAL_ERROR;
 629              		.loc 1 703 5 is_stmt 1 view .LVU193
 630              		.loc 1 703 12 is_stmt 0 view .LVU194
 631 0016 0125     		movs	r5, #1
 632              	.LVL27:
 633              	.L57:
 704:ThirdParty/STM32F4xx_HAL_Driver/Src/stm32f4xx_hal_can.c ****   }
 705:ThirdParty/STM32F4xx_HAL_Driver/Src/stm32f4xx_hal_can.c **** }
 634              		.loc 1 705 1 view .LVU195
 635 0018 2846     		mov	r0, r5
 636 001a 70BD     		pop	{r4, r5, r6, pc}
 637              	.LVL28:
 638              	.L60:
 668:ThirdParty/STM32F4xx_HAL_Driver/Src/stm32f4xx_hal_can.c **** 
 639              		.loc 1 668 5 is_stmt 1 view .LVU196
 668:ThirdParty/STM32F4xx_HAL_Driver/Src/stm32f4xx_hal_can.c **** 
 640              		.loc 1 668 17 is_stmt 0 view .LVU197
 641 001c 0223     		movs	r3, #2
 642 001e 80F82030 		strb	r3, [r0, #32]
 671:ThirdParty/STM32F4xx_HAL_Driver/Src/stm32f4xx_hal_can.c **** 
 643              		.loc 1 671 5 is_stmt 1 view .LVU198
 644 0022 0268     		ldr	r2, [r0]
 645 0024 1368     		ldr	r3, [r2]
 646 0026 23F00103 		bic	r3, r3, #1
 647 002a 1360     		str	r3, [r2]
 674:ThirdParty/STM32F4xx_HAL_Driver/Src/stm32f4xx_hal_can.c **** 
 648              		.loc 1 674 5 view .LVU199
 674:ThirdParty/STM32F4xx_HAL_Driver/Src/stm32f4xx_hal_can.c **** 
 649              		.loc 1 674 17 is_stmt 0 view .LVU200
 650 002c FFF7FEFF 		bl	HAL_GetTick
 651              	.LVL29:
 674:ThirdParty/STM32F4xx_HAL_Driver/Src/stm32f4xx_hal_can.c **** 
 652              		.loc 1 674 17 view .LVU201
 653 0030 0646     		mov	r6, r0
 654              	.LVL30:
 677:ThirdParty/STM32F4xx_HAL_Driver/Src/stm32f4xx_hal_can.c ****     {
 655              		.loc 1 677 5 is_stmt 1 view .LVU202
 656              	.L56:
 677:ThirdParty/STM32F4xx_HAL_Driver/Src/stm32f4xx_hal_can.c ****     {
 657              		.loc 1 677 11 view .LVU203
 677:ThirdParty/STM32F4xx_HAL_Driver/Src/stm32f4xx_hal_can.c ****     {
 658              		.loc 1 677 17 is_stmt 0 view .LVU204
 659 0032 2368     		ldr	r3, [r4]
 677:ThirdParty/STM32F4xx_HAL_Driver/Src/stm32f4xx_hal_can.c ****     {
 660              		.loc 1 677 27 view .LVU205
 661 0034 5B68     		ldr	r3, [r3, #4]
 677:ThirdParty/STM32F4xx_HAL_Driver/Src/stm32f4xx_hal_can.c ****     {
 662              		.loc 1 677 11 view .LVU206
 663 0036 13F0010F 		tst	r3, #1
 664 003a 0CD0     		beq	.L61
 680:ThirdParty/STM32F4xx_HAL_Driver/Src/stm32f4xx_hal_can.c ****       {
 665              		.loc 1 680 7 is_stmt 1 view .LVU207
ARM GAS  /tmp/cc6fvD8U.s 			page 28


 680:ThirdParty/STM32F4xx_HAL_Driver/Src/stm32f4xx_hal_can.c ****       {
 666              		.loc 1 680 12 is_stmt 0 view .LVU208
 667 003c FFF7FEFF 		bl	HAL_GetTick
 668              	.LVL31:
 680:ThirdParty/STM32F4xx_HAL_Driver/Src/stm32f4xx_hal_can.c ****       {
 669              		.loc 1 680 26 view .LVU209
 670 0040 831B     		subs	r3, r0, r6
 680:ThirdParty/STM32F4xx_HAL_Driver/Src/stm32f4xx_hal_can.c ****       {
 671              		.loc 1 680 10 view .LVU210
 672 0042 0A2B     		cmp	r3, #10
 673 0044 F5D9     		bls	.L56
 683:ThirdParty/STM32F4xx_HAL_Driver/Src/stm32f4xx_hal_can.c **** 
 674              		.loc 1 683 9 is_stmt 1 view .LVU211
 683:ThirdParty/STM32F4xx_HAL_Driver/Src/stm32f4xx_hal_can.c **** 
 675              		.loc 1 683 25 is_stmt 0 view .LVU212
 676 0046 636A     		ldr	r3, [r4, #36]
 677 0048 43F40033 		orr	r3, r3, #131072
 678 004c 6362     		str	r3, [r4, #36]
 686:ThirdParty/STM32F4xx_HAL_Driver/Src/stm32f4xx_hal_can.c **** 
 679              		.loc 1 686 9 is_stmt 1 view .LVU213
 686:ThirdParty/STM32F4xx_HAL_Driver/Src/stm32f4xx_hal_can.c **** 
 680              		.loc 1 686 21 is_stmt 0 view .LVU214
 681 004e 0523     		movs	r3, #5
 682 0050 84F82030 		strb	r3, [r4, #32]
 688:ThirdParty/STM32F4xx_HAL_Driver/Src/stm32f4xx_hal_can.c ****       }
 683              		.loc 1 688 9 is_stmt 1 view .LVU215
 688:ThirdParty/STM32F4xx_HAL_Driver/Src/stm32f4xx_hal_can.c ****       }
 684              		.loc 1 688 16 is_stmt 0 view .LVU216
 685 0054 E0E7     		b	.L57
 686              	.L61:
 693:ThirdParty/STM32F4xx_HAL_Driver/Src/stm32f4xx_hal_can.c **** 
 687              		.loc 1 693 5 is_stmt 1 view .LVU217
 693:ThirdParty/STM32F4xx_HAL_Driver/Src/stm32f4xx_hal_can.c **** 
 688              		.loc 1 693 21 is_stmt 0 view .LVU218
 689 0056 0025     		movs	r5, #0
 690 0058 6562     		str	r5, [r4, #36]
 696:ThirdParty/STM32F4xx_HAL_Driver/Src/stm32f4xx_hal_can.c ****   }
 691              		.loc 1 696 5 is_stmt 1 view .LVU219
 696:ThirdParty/STM32F4xx_HAL_Driver/Src/stm32f4xx_hal_can.c ****   }
 692              		.loc 1 696 12 is_stmt 0 view .LVU220
 693 005a DDE7     		b	.L57
 694              		.cfi_endproc
 695              	.LFE138:
 697              		.section	.text.HAL_CAN_Stop,"ax",%progbits
 698              		.align	1
 699              		.global	HAL_CAN_Stop
 700              		.syntax unified
 701              		.thumb
 702              		.thumb_func
 704              	HAL_CAN_Stop:
 705              	.LVL32:
 706              	.LFB139:
 706:ThirdParty/STM32F4xx_HAL_Driver/Src/stm32f4xx_hal_can.c **** 
 707:ThirdParty/STM32F4xx_HAL_Driver/Src/stm32f4xx_hal_can.c **** /**
 708:ThirdParty/STM32F4xx_HAL_Driver/Src/stm32f4xx_hal_can.c ****   * @brief  Stop the CAN module and enable access to configuration registers.
 709:ThirdParty/STM32F4xx_HAL_Driver/Src/stm32f4xx_hal_can.c ****   * @param  hcan pointer to an CAN_HandleTypeDef structure that contains
 710:ThirdParty/STM32F4xx_HAL_Driver/Src/stm32f4xx_hal_can.c ****   *         the configuration information for the specified CAN.
ARM GAS  /tmp/cc6fvD8U.s 			page 29


 711:ThirdParty/STM32F4xx_HAL_Driver/Src/stm32f4xx_hal_can.c ****   * @retval HAL status
 712:ThirdParty/STM32F4xx_HAL_Driver/Src/stm32f4xx_hal_can.c ****   */
 713:ThirdParty/STM32F4xx_HAL_Driver/Src/stm32f4xx_hal_can.c **** HAL_StatusTypeDef HAL_CAN_Stop(CAN_HandleTypeDef *hcan)
 714:ThirdParty/STM32F4xx_HAL_Driver/Src/stm32f4xx_hal_can.c **** {
 707              		.loc 1 714 1 is_stmt 1 view -0
 708              		.cfi_startproc
 709              		@ args = 0, pretend = 0, frame = 0
 710              		@ frame_needed = 0, uses_anonymous_args = 0
 711              		.loc 1 714 1 is_stmt 0 view .LVU222
 712 0000 38B5     		push	{r3, r4, r5, lr}
 713              	.LCFI4:
 714              		.cfi_def_cfa_offset 16
 715              		.cfi_offset 3, -16
 716              		.cfi_offset 4, -12
 717              		.cfi_offset 5, -8
 718              		.cfi_offset 14, -4
 719 0002 0446     		mov	r4, r0
 715:ThirdParty/STM32F4xx_HAL_Driver/Src/stm32f4xx_hal_can.c ****   uint32_t tickstart = 0U;
 720              		.loc 1 715 3 is_stmt 1 view .LVU223
 721              	.LVL33:
 716:ThirdParty/STM32F4xx_HAL_Driver/Src/stm32f4xx_hal_can.c **** 
 717:ThirdParty/STM32F4xx_HAL_Driver/Src/stm32f4xx_hal_can.c ****   if (hcan->State == HAL_CAN_STATE_LISTENING)
 722              		.loc 1 717 3 view .LVU224
 723              		.loc 1 717 11 is_stmt 0 view .LVU225
 724 0004 90F82030 		ldrb	r3, [r0, #32]	@ zero_extendqisi2
 725 0008 DBB2     		uxtb	r3, r3
 726              		.loc 1 717 6 view .LVU226
 727 000a 022B     		cmp	r3, #2
 728 000c 05D0     		beq	.L68
 718:ThirdParty/STM32F4xx_HAL_Driver/Src/stm32f4xx_hal_can.c ****   {
 719:ThirdParty/STM32F4xx_HAL_Driver/Src/stm32f4xx_hal_can.c ****     /* Request initialisation */
 720:ThirdParty/STM32F4xx_HAL_Driver/Src/stm32f4xx_hal_can.c ****     SET_BIT(hcan->Instance->MCR, CAN_MCR_INRQ);
 721:ThirdParty/STM32F4xx_HAL_Driver/Src/stm32f4xx_hal_can.c **** 
 722:ThirdParty/STM32F4xx_HAL_Driver/Src/stm32f4xx_hal_can.c ****     /* Get tick */
 723:ThirdParty/STM32F4xx_HAL_Driver/Src/stm32f4xx_hal_can.c ****     tickstart = HAL_GetTick();
 724:ThirdParty/STM32F4xx_HAL_Driver/Src/stm32f4xx_hal_can.c **** 
 725:ThirdParty/STM32F4xx_HAL_Driver/Src/stm32f4xx_hal_can.c ****     /* Wait the acknowledge */
 726:ThirdParty/STM32F4xx_HAL_Driver/Src/stm32f4xx_hal_can.c ****     while ((hcan->Instance->MSR & CAN_MSR_INAK) == RESET)
 727:ThirdParty/STM32F4xx_HAL_Driver/Src/stm32f4xx_hal_can.c ****     {
 728:ThirdParty/STM32F4xx_HAL_Driver/Src/stm32f4xx_hal_can.c ****       /* Check for the Timeout */
 729:ThirdParty/STM32F4xx_HAL_Driver/Src/stm32f4xx_hal_can.c ****       if ((HAL_GetTick() - tickstart) > CAN_TIMEOUT_VALUE)
 730:ThirdParty/STM32F4xx_HAL_Driver/Src/stm32f4xx_hal_can.c ****       {
 731:ThirdParty/STM32F4xx_HAL_Driver/Src/stm32f4xx_hal_can.c ****         /* Update error code */
 732:ThirdParty/STM32F4xx_HAL_Driver/Src/stm32f4xx_hal_can.c ****         hcan->ErrorCode |= HAL_CAN_ERROR_TIMEOUT;
 733:ThirdParty/STM32F4xx_HAL_Driver/Src/stm32f4xx_hal_can.c **** 
 734:ThirdParty/STM32F4xx_HAL_Driver/Src/stm32f4xx_hal_can.c ****         /* Change CAN state */
 735:ThirdParty/STM32F4xx_HAL_Driver/Src/stm32f4xx_hal_can.c ****         hcan->State = HAL_CAN_STATE_ERROR;
 736:ThirdParty/STM32F4xx_HAL_Driver/Src/stm32f4xx_hal_can.c **** 
 737:ThirdParty/STM32F4xx_HAL_Driver/Src/stm32f4xx_hal_can.c ****         return HAL_ERROR;
 738:ThirdParty/STM32F4xx_HAL_Driver/Src/stm32f4xx_hal_can.c ****       }
 739:ThirdParty/STM32F4xx_HAL_Driver/Src/stm32f4xx_hal_can.c ****     }
 740:ThirdParty/STM32F4xx_HAL_Driver/Src/stm32f4xx_hal_can.c **** 
 741:ThirdParty/STM32F4xx_HAL_Driver/Src/stm32f4xx_hal_can.c ****     /* Exit from sleep mode */
 742:ThirdParty/STM32F4xx_HAL_Driver/Src/stm32f4xx_hal_can.c ****     CLEAR_BIT(hcan->Instance->MCR, CAN_MCR_SLEEP);
 743:ThirdParty/STM32F4xx_HAL_Driver/Src/stm32f4xx_hal_can.c **** 
 744:ThirdParty/STM32F4xx_HAL_Driver/Src/stm32f4xx_hal_can.c ****     /* Change CAN peripheral state */
 745:ThirdParty/STM32F4xx_HAL_Driver/Src/stm32f4xx_hal_can.c ****     hcan->State = HAL_CAN_STATE_READY;
ARM GAS  /tmp/cc6fvD8U.s 			page 30


 746:ThirdParty/STM32F4xx_HAL_Driver/Src/stm32f4xx_hal_can.c **** 
 747:ThirdParty/STM32F4xx_HAL_Driver/Src/stm32f4xx_hal_can.c ****     /* Return function status */
 748:ThirdParty/STM32F4xx_HAL_Driver/Src/stm32f4xx_hal_can.c ****     return HAL_OK;
 749:ThirdParty/STM32F4xx_HAL_Driver/Src/stm32f4xx_hal_can.c ****   }
 750:ThirdParty/STM32F4xx_HAL_Driver/Src/stm32f4xx_hal_can.c ****   else
 751:ThirdParty/STM32F4xx_HAL_Driver/Src/stm32f4xx_hal_can.c ****   {
 752:ThirdParty/STM32F4xx_HAL_Driver/Src/stm32f4xx_hal_can.c ****     /* Update error code */
 753:ThirdParty/STM32F4xx_HAL_Driver/Src/stm32f4xx_hal_can.c ****     hcan->ErrorCode |= HAL_CAN_ERROR_NOT_STARTED;
 729              		.loc 1 753 5 is_stmt 1 view .LVU227
 730              		.loc 1 753 21 is_stmt 0 view .LVU228
 731 000e 436A     		ldr	r3, [r0, #36]
 732 0010 43F48013 		orr	r3, r3, #1048576
 733 0014 4362     		str	r3, [r0, #36]
 754:ThirdParty/STM32F4xx_HAL_Driver/Src/stm32f4xx_hal_can.c **** 
 755:ThirdParty/STM32F4xx_HAL_Driver/Src/stm32f4xx_hal_can.c ****     return HAL_ERROR;
 734              		.loc 1 755 5 is_stmt 1 view .LVU229
 735              		.loc 1 755 12 is_stmt 0 view .LVU230
 736 0016 0120     		movs	r0, #1
 737              	.LVL34:
 738              	.L65:
 756:ThirdParty/STM32F4xx_HAL_Driver/Src/stm32f4xx_hal_can.c ****   }
 757:ThirdParty/STM32F4xx_HAL_Driver/Src/stm32f4xx_hal_can.c **** }
 739              		.loc 1 757 1 view .LVU231
 740 0018 38BD     		pop	{r3, r4, r5, pc}
 741              	.LVL35:
 742              	.L68:
 720:ThirdParty/STM32F4xx_HAL_Driver/Src/stm32f4xx_hal_can.c **** 
 743              		.loc 1 720 5 is_stmt 1 view .LVU232
 744 001a 0268     		ldr	r2, [r0]
 745 001c 1368     		ldr	r3, [r2]
 746 001e 43F00103 		orr	r3, r3, #1
 747 0022 1360     		str	r3, [r2]
 723:ThirdParty/STM32F4xx_HAL_Driver/Src/stm32f4xx_hal_can.c **** 
 748              		.loc 1 723 5 view .LVU233
 723:ThirdParty/STM32F4xx_HAL_Driver/Src/stm32f4xx_hal_can.c **** 
 749              		.loc 1 723 17 is_stmt 0 view .LVU234
 750 0024 FFF7FEFF 		bl	HAL_GetTick
 751              	.LVL36:
 723:ThirdParty/STM32F4xx_HAL_Driver/Src/stm32f4xx_hal_can.c **** 
 752              		.loc 1 723 17 view .LVU235
 753 0028 0546     		mov	r5, r0
 754              	.LVL37:
 726:ThirdParty/STM32F4xx_HAL_Driver/Src/stm32f4xx_hal_can.c ****     {
 755              		.loc 1 726 5 is_stmt 1 view .LVU236
 756              	.L64:
 726:ThirdParty/STM32F4xx_HAL_Driver/Src/stm32f4xx_hal_can.c ****     {
 757              		.loc 1 726 11 view .LVU237
 726:ThirdParty/STM32F4xx_HAL_Driver/Src/stm32f4xx_hal_can.c ****     {
 758              		.loc 1 726 17 is_stmt 0 view .LVU238
 759 002a 2368     		ldr	r3, [r4]
 726:ThirdParty/STM32F4xx_HAL_Driver/Src/stm32f4xx_hal_can.c ****     {
 760              		.loc 1 726 27 view .LVU239
 761 002c 5A68     		ldr	r2, [r3, #4]
 726:ThirdParty/STM32F4xx_HAL_Driver/Src/stm32f4xx_hal_can.c ****     {
 762              		.loc 1 726 11 view .LVU240
 763 002e 12F0010F 		tst	r2, #1
 764 0032 0DD1     		bne	.L69
ARM GAS  /tmp/cc6fvD8U.s 			page 31


 729:ThirdParty/STM32F4xx_HAL_Driver/Src/stm32f4xx_hal_can.c ****       {
 765              		.loc 1 729 7 is_stmt 1 view .LVU241
 729:ThirdParty/STM32F4xx_HAL_Driver/Src/stm32f4xx_hal_can.c ****       {
 766              		.loc 1 729 12 is_stmt 0 view .LVU242
 767 0034 FFF7FEFF 		bl	HAL_GetTick
 768              	.LVL38:
 729:ThirdParty/STM32F4xx_HAL_Driver/Src/stm32f4xx_hal_can.c ****       {
 769              		.loc 1 729 26 view .LVU243
 770 0038 431B     		subs	r3, r0, r5
 729:ThirdParty/STM32F4xx_HAL_Driver/Src/stm32f4xx_hal_can.c ****       {
 771              		.loc 1 729 10 view .LVU244
 772 003a 0A2B     		cmp	r3, #10
 773 003c F5D9     		bls	.L64
 732:ThirdParty/STM32F4xx_HAL_Driver/Src/stm32f4xx_hal_can.c **** 
 774              		.loc 1 732 9 is_stmt 1 view .LVU245
 732:ThirdParty/STM32F4xx_HAL_Driver/Src/stm32f4xx_hal_can.c **** 
 775              		.loc 1 732 25 is_stmt 0 view .LVU246
 776 003e 636A     		ldr	r3, [r4, #36]
 777 0040 43F40033 		orr	r3, r3, #131072
 778 0044 6362     		str	r3, [r4, #36]
 735:ThirdParty/STM32F4xx_HAL_Driver/Src/stm32f4xx_hal_can.c **** 
 779              		.loc 1 735 9 is_stmt 1 view .LVU247
 735:ThirdParty/STM32F4xx_HAL_Driver/Src/stm32f4xx_hal_can.c **** 
 780              		.loc 1 735 21 is_stmt 0 view .LVU248
 781 0046 0523     		movs	r3, #5
 782 0048 84F82030 		strb	r3, [r4, #32]
 737:ThirdParty/STM32F4xx_HAL_Driver/Src/stm32f4xx_hal_can.c ****       }
 783              		.loc 1 737 9 is_stmt 1 view .LVU249
 737:ThirdParty/STM32F4xx_HAL_Driver/Src/stm32f4xx_hal_can.c ****       }
 784              		.loc 1 737 16 is_stmt 0 view .LVU250
 785 004c 0120     		movs	r0, #1
 786 004e E3E7     		b	.L65
 787              	.L69:
 742:ThirdParty/STM32F4xx_HAL_Driver/Src/stm32f4xx_hal_can.c **** 
 788              		.loc 1 742 5 is_stmt 1 view .LVU251
 789 0050 1A68     		ldr	r2, [r3]
 790 0052 22F00202 		bic	r2, r2, #2
 791 0056 1A60     		str	r2, [r3]
 745:ThirdParty/STM32F4xx_HAL_Driver/Src/stm32f4xx_hal_can.c **** 
 792              		.loc 1 745 5 view .LVU252
 745:ThirdParty/STM32F4xx_HAL_Driver/Src/stm32f4xx_hal_can.c **** 
 793              		.loc 1 745 17 is_stmt 0 view .LVU253
 794 0058 0123     		movs	r3, #1
 795 005a 84F82030 		strb	r3, [r4, #32]
 748:ThirdParty/STM32F4xx_HAL_Driver/Src/stm32f4xx_hal_can.c ****   }
 796              		.loc 1 748 5 is_stmt 1 view .LVU254
 748:ThirdParty/STM32F4xx_HAL_Driver/Src/stm32f4xx_hal_can.c ****   }
 797              		.loc 1 748 12 is_stmt 0 view .LVU255
 798 005e 0020     		movs	r0, #0
 799 0060 DAE7     		b	.L65
 800              		.cfi_endproc
 801              	.LFE139:
 803              		.section	.text.HAL_CAN_DeInit,"ax",%progbits
 804              		.align	1
 805              		.global	HAL_CAN_DeInit
 806              		.syntax unified
 807              		.thumb
ARM GAS  /tmp/cc6fvD8U.s 			page 32


 808              		.thumb_func
 810              	HAL_CAN_DeInit:
 811              	.LVL39:
 812              	.LFB134:
 379:ThirdParty/STM32F4xx_HAL_Driver/Src/stm32f4xx_hal_can.c ****   /* Check CAN handle */
 813              		.loc 1 379 1 is_stmt 1 view -0
 814              		.cfi_startproc
 815              		@ args = 0, pretend = 0, frame = 0
 816              		@ frame_needed = 0, uses_anonymous_args = 0
 381:ThirdParty/STM32F4xx_HAL_Driver/Src/stm32f4xx_hal_can.c ****   {
 817              		.loc 1 381 3 view .LVU257
 381:ThirdParty/STM32F4xx_HAL_Driver/Src/stm32f4xx_hal_can.c ****   {
 818              		.loc 1 381 6 is_stmt 0 view .LVU258
 819 0000 80B1     		cbz	r0, .L72
 379:ThirdParty/STM32F4xx_HAL_Driver/Src/stm32f4xx_hal_can.c ****   /* Check CAN handle */
 820              		.loc 1 379 1 view .LVU259
 821 0002 10B5     		push	{r4, lr}
 822              	.LCFI5:
 823              		.cfi_def_cfa_offset 8
 824              		.cfi_offset 4, -8
 825              		.cfi_offset 14, -4
 826 0004 0446     		mov	r4, r0
 387:ThirdParty/STM32F4xx_HAL_Driver/Src/stm32f4xx_hal_can.c **** 
 827              		.loc 1 387 3 is_stmt 1 view .LVU260
 390:ThirdParty/STM32F4xx_HAL_Driver/Src/stm32f4xx_hal_can.c **** 
 828              		.loc 1 390 3 view .LVU261
 829 0006 FFF7FEFF 		bl	HAL_CAN_Stop
 830              	.LVL40:
 393:ThirdParty/STM32F4xx_HAL_Driver/Src/stm32f4xx_hal_can.c **** 
 831              		.loc 1 393 3 view .LVU262
 832 000a 2046     		mov	r0, r4
 833 000c FFF7FEFF 		bl	HAL_CAN_MspDeInit
 834              	.LVL41:
 396:ThirdParty/STM32F4xx_HAL_Driver/Src/stm32f4xx_hal_can.c **** 
 835              		.loc 1 396 3 view .LVU263
 836 0010 2268     		ldr	r2, [r4]
 837 0012 1368     		ldr	r3, [r2]
 838 0014 43F40043 		orr	r3, r3, #32768
 839 0018 1360     		str	r3, [r2]
 399:ThirdParty/STM32F4xx_HAL_Driver/Src/stm32f4xx_hal_can.c **** 
 840              		.loc 1 399 3 view .LVU264
 399:ThirdParty/STM32F4xx_HAL_Driver/Src/stm32f4xx_hal_can.c **** 
 841              		.loc 1 399 19 is_stmt 0 view .LVU265
 842 001a 0020     		movs	r0, #0
 843 001c 6062     		str	r0, [r4, #36]
 402:ThirdParty/STM32F4xx_HAL_Driver/Src/stm32f4xx_hal_can.c **** 
 844              		.loc 1 402 3 is_stmt 1 view .LVU266
 402:ThirdParty/STM32F4xx_HAL_Driver/Src/stm32f4xx_hal_can.c **** 
 845              		.loc 1 402 15 is_stmt 0 view .LVU267
 846 001e 84F82000 		strb	r0, [r4, #32]
 405:ThirdParty/STM32F4xx_HAL_Driver/Src/stm32f4xx_hal_can.c **** }
 847              		.loc 1 405 3 is_stmt 1 view .LVU268
 406:ThirdParty/STM32F4xx_HAL_Driver/Src/stm32f4xx_hal_can.c **** 
 848              		.loc 1 406 1 is_stmt 0 view .LVU269
 849 0022 10BD     		pop	{r4, pc}
 850              	.LVL42:
 851              	.L72:
ARM GAS  /tmp/cc6fvD8U.s 			page 33


 852              	.LCFI6:
 853              		.cfi_def_cfa_offset 0
 854              		.cfi_restore 4
 855              		.cfi_restore 14
 383:ThirdParty/STM32F4xx_HAL_Driver/Src/stm32f4xx_hal_can.c ****   }
 856              		.loc 1 383 12 view .LVU270
 857 0024 0120     		movs	r0, #1
 858              	.LVL43:
 406:ThirdParty/STM32F4xx_HAL_Driver/Src/stm32f4xx_hal_can.c **** 
 859              		.loc 1 406 1 view .LVU271
 860 0026 7047     		bx	lr
 861              		.cfi_endproc
 862              	.LFE134:
 864              		.section	.text.HAL_CAN_RequestSleep,"ax",%progbits
 865              		.align	1
 866              		.global	HAL_CAN_RequestSleep
 867              		.syntax unified
 868              		.thumb
 869              		.thumb_func
 871              	HAL_CAN_RequestSleep:
 872              	.LVL44:
 873              	.LFB140:
 758:ThirdParty/STM32F4xx_HAL_Driver/Src/stm32f4xx_hal_can.c **** 
 759:ThirdParty/STM32F4xx_HAL_Driver/Src/stm32f4xx_hal_can.c **** /**
 760:ThirdParty/STM32F4xx_HAL_Driver/Src/stm32f4xx_hal_can.c ****   * @brief  Request the sleep mode (low power) entry.
 761:ThirdParty/STM32F4xx_HAL_Driver/Src/stm32f4xx_hal_can.c ****   *         When returning from this function, Sleep mode will be entered
 762:ThirdParty/STM32F4xx_HAL_Driver/Src/stm32f4xx_hal_can.c ****   *         as soon as the current CAN activity (transmission or reception
 763:ThirdParty/STM32F4xx_HAL_Driver/Src/stm32f4xx_hal_can.c ****   *         of a CAN frame) has been completed.
 764:ThirdParty/STM32F4xx_HAL_Driver/Src/stm32f4xx_hal_can.c ****   * @param  hcan pointer to a CAN_HandleTypeDef structure that contains
 765:ThirdParty/STM32F4xx_HAL_Driver/Src/stm32f4xx_hal_can.c ****   *         the configuration information for the specified CAN.
 766:ThirdParty/STM32F4xx_HAL_Driver/Src/stm32f4xx_hal_can.c ****   * @retval HAL status.
 767:ThirdParty/STM32F4xx_HAL_Driver/Src/stm32f4xx_hal_can.c ****   */
 768:ThirdParty/STM32F4xx_HAL_Driver/Src/stm32f4xx_hal_can.c **** HAL_StatusTypeDef HAL_CAN_RequestSleep(CAN_HandleTypeDef *hcan)
 769:ThirdParty/STM32F4xx_HAL_Driver/Src/stm32f4xx_hal_can.c **** {
 874              		.loc 1 769 1 is_stmt 1 view -0
 875              		.cfi_startproc
 876              		@ args = 0, pretend = 0, frame = 0
 877              		@ frame_needed = 0, uses_anonymous_args = 0
 878              		@ link register save eliminated.
 770:ThirdParty/STM32F4xx_HAL_Driver/Src/stm32f4xx_hal_can.c ****   if ((hcan->State == HAL_CAN_STATE_READY) ||
 879              		.loc 1 770 3 view .LVU273
 880              		.loc 1 770 12 is_stmt 0 view .LVU274
 881 0000 90F82030 		ldrb	r3, [r0, #32]	@ zero_extendqisi2
 882 0004 DBB2     		uxtb	r3, r3
 883              		.loc 1 770 6 view .LVU275
 884 0006 012B     		cmp	r3, #1
 885 0008 0AD0     		beq	.L78
 771:ThirdParty/STM32F4xx_HAL_Driver/Src/stm32f4xx_hal_can.c ****       (hcan->State == HAL_CAN_STATE_LISTENING))
 886              		.loc 1 771 12 discriminator 1 view .LVU276
 887 000a 90F82030 		ldrb	r3, [r0, #32]	@ zero_extendqisi2
 888 000e DBB2     		uxtb	r3, r3
 770:ThirdParty/STM32F4xx_HAL_Driver/Src/stm32f4xx_hal_can.c ****   if ((hcan->State == HAL_CAN_STATE_READY) ||
 889              		.loc 1 770 44 discriminator 1 view .LVU277
 890 0010 022B     		cmp	r3, #2
 891 0012 05D0     		beq	.L78
 772:ThirdParty/STM32F4xx_HAL_Driver/Src/stm32f4xx_hal_can.c ****   {
 773:ThirdParty/STM32F4xx_HAL_Driver/Src/stm32f4xx_hal_can.c ****     /* Request Sleep mode */
ARM GAS  /tmp/cc6fvD8U.s 			page 34


 774:ThirdParty/STM32F4xx_HAL_Driver/Src/stm32f4xx_hal_can.c ****     SET_BIT(hcan->Instance->MCR, CAN_MCR_SLEEP);
 775:ThirdParty/STM32F4xx_HAL_Driver/Src/stm32f4xx_hal_can.c **** 
 776:ThirdParty/STM32F4xx_HAL_Driver/Src/stm32f4xx_hal_can.c ****     /* Return function status */
 777:ThirdParty/STM32F4xx_HAL_Driver/Src/stm32f4xx_hal_can.c ****     return HAL_OK;
 778:ThirdParty/STM32F4xx_HAL_Driver/Src/stm32f4xx_hal_can.c ****   }
 779:ThirdParty/STM32F4xx_HAL_Driver/Src/stm32f4xx_hal_can.c ****   else
 780:ThirdParty/STM32F4xx_HAL_Driver/Src/stm32f4xx_hal_can.c ****   {
 781:ThirdParty/STM32F4xx_HAL_Driver/Src/stm32f4xx_hal_can.c ****     /* Update error code */
 782:ThirdParty/STM32F4xx_HAL_Driver/Src/stm32f4xx_hal_can.c ****     hcan->ErrorCode |= HAL_CAN_ERROR_NOT_INITIALIZED;
 892              		.loc 1 782 5 is_stmt 1 view .LVU278
 893              		.loc 1 782 21 is_stmt 0 view .LVU279
 894 0014 436A     		ldr	r3, [r0, #36]
 895 0016 43F48023 		orr	r3, r3, #262144
 896 001a 4362     		str	r3, [r0, #36]
 783:ThirdParty/STM32F4xx_HAL_Driver/Src/stm32f4xx_hal_can.c **** 
 784:ThirdParty/STM32F4xx_HAL_Driver/Src/stm32f4xx_hal_can.c ****     /* Return function status */
 785:ThirdParty/STM32F4xx_HAL_Driver/Src/stm32f4xx_hal_can.c ****     return HAL_ERROR;
 897              		.loc 1 785 5 is_stmt 1 view .LVU280
 898              		.loc 1 785 12 is_stmt 0 view .LVU281
 899 001c 0120     		movs	r0, #1
 900              	.LVL45:
 786:ThirdParty/STM32F4xx_HAL_Driver/Src/stm32f4xx_hal_can.c ****   }
 787:ThirdParty/STM32F4xx_HAL_Driver/Src/stm32f4xx_hal_can.c **** }
 901              		.loc 1 787 1 view .LVU282
 902 001e 7047     		bx	lr
 903              	.LVL46:
 904              	.L78:
 774:ThirdParty/STM32F4xx_HAL_Driver/Src/stm32f4xx_hal_can.c **** 
 905              		.loc 1 774 5 is_stmt 1 view .LVU283
 906 0020 0268     		ldr	r2, [r0]
 907 0022 1368     		ldr	r3, [r2]
 908 0024 43F00203 		orr	r3, r3, #2
 909 0028 1360     		str	r3, [r2]
 777:ThirdParty/STM32F4xx_HAL_Driver/Src/stm32f4xx_hal_can.c ****   }
 910              		.loc 1 777 5 view .LVU284
 777:ThirdParty/STM32F4xx_HAL_Driver/Src/stm32f4xx_hal_can.c ****   }
 911              		.loc 1 777 12 is_stmt 0 view .LVU285
 912 002a 0020     		movs	r0, #0
 913              	.LVL47:
 777:ThirdParty/STM32F4xx_HAL_Driver/Src/stm32f4xx_hal_can.c ****   }
 914              		.loc 1 777 12 view .LVU286
 915 002c 7047     		bx	lr
 916              		.cfi_endproc
 917              	.LFE140:
 919              		.section	.text.HAL_CAN_WakeUp,"ax",%progbits
 920              		.align	1
 921              		.global	HAL_CAN_WakeUp
 922              		.syntax unified
 923              		.thumb
 924              		.thumb_func
 926              	HAL_CAN_WakeUp:
 927              	.LVL48:
 928              	.LFB141:
 788:ThirdParty/STM32F4xx_HAL_Driver/Src/stm32f4xx_hal_can.c **** 
 789:ThirdParty/STM32F4xx_HAL_Driver/Src/stm32f4xx_hal_can.c **** /**
 790:ThirdParty/STM32F4xx_HAL_Driver/Src/stm32f4xx_hal_can.c ****   * @brief  Wake up from sleep mode.
 791:ThirdParty/STM32F4xx_HAL_Driver/Src/stm32f4xx_hal_can.c ****   *         When returning with HAL_OK status from this function, Sleep mode
ARM GAS  /tmp/cc6fvD8U.s 			page 35


 792:ThirdParty/STM32F4xx_HAL_Driver/Src/stm32f4xx_hal_can.c ****   *         is exited.
 793:ThirdParty/STM32F4xx_HAL_Driver/Src/stm32f4xx_hal_can.c ****   * @param  hcan pointer to a CAN_HandleTypeDef structure that contains
 794:ThirdParty/STM32F4xx_HAL_Driver/Src/stm32f4xx_hal_can.c ****   *         the configuration information for the specified CAN.
 795:ThirdParty/STM32F4xx_HAL_Driver/Src/stm32f4xx_hal_can.c ****   * @retval HAL status.
 796:ThirdParty/STM32F4xx_HAL_Driver/Src/stm32f4xx_hal_can.c ****   */
 797:ThirdParty/STM32F4xx_HAL_Driver/Src/stm32f4xx_hal_can.c **** HAL_StatusTypeDef HAL_CAN_WakeUp(CAN_HandleTypeDef *hcan)
 798:ThirdParty/STM32F4xx_HAL_Driver/Src/stm32f4xx_hal_can.c **** {
 929              		.loc 1 798 1 is_stmt 1 view -0
 930              		.cfi_startproc
 931              		@ args = 0, pretend = 0, frame = 8
 932              		@ frame_needed = 0, uses_anonymous_args = 0
 933              		@ link register save eliminated.
 934              		.loc 1 798 1 is_stmt 0 view .LVU288
 935 0000 82B0     		sub	sp, sp, #8
 936              	.LCFI7:
 937              		.cfi_def_cfa_offset 8
 799:ThirdParty/STM32F4xx_HAL_Driver/Src/stm32f4xx_hal_can.c ****   __IO uint32_t count = 0;
 938              		.loc 1 799 3 is_stmt 1 view .LVU289
 939              		.loc 1 799 17 is_stmt 0 view .LVU290
 940 0002 0023     		movs	r3, #0
 941 0004 0193     		str	r3, [sp, #4]
 800:ThirdParty/STM32F4xx_HAL_Driver/Src/stm32f4xx_hal_can.c ****   uint32_t timeout = 1000000U;
 942              		.loc 1 800 3 is_stmt 1 view .LVU291
 943              	.LVL49:
 801:ThirdParty/STM32F4xx_HAL_Driver/Src/stm32f4xx_hal_can.c **** 
 802:ThirdParty/STM32F4xx_HAL_Driver/Src/stm32f4xx_hal_can.c ****   if ((hcan->State == HAL_CAN_STATE_READY) ||
 944              		.loc 1 802 3 view .LVU292
 945              		.loc 1 802 12 is_stmt 0 view .LVU293
 946 0006 90F82030 		ldrb	r3, [r0, #32]	@ zero_extendqisi2
 947 000a DBB2     		uxtb	r3, r3
 948              		.loc 1 802 6 view .LVU294
 949 000c 012B     		cmp	r3, #1
 950 000e 04D0     		beq	.L82
 803:ThirdParty/STM32F4xx_HAL_Driver/Src/stm32f4xx_hal_can.c ****       (hcan->State == HAL_CAN_STATE_LISTENING))
 951              		.loc 1 803 12 discriminator 1 view .LVU295
 952 0010 90F82030 		ldrb	r3, [r0, #32]	@ zero_extendqisi2
 953 0014 DBB2     		uxtb	r3, r3
 802:ThirdParty/STM32F4xx_HAL_Driver/Src/stm32f4xx_hal_can.c ****       (hcan->State == HAL_CAN_STATE_LISTENING))
 954              		.loc 1 802 44 discriminator 1 view .LVU296
 955 0016 022B     		cmp	r3, #2
 956 0018 18D1     		bne	.L83
 957              	.L82:
 804:ThirdParty/STM32F4xx_HAL_Driver/Src/stm32f4xx_hal_can.c ****   {
 805:ThirdParty/STM32F4xx_HAL_Driver/Src/stm32f4xx_hal_can.c ****     /* Wake up request */
 806:ThirdParty/STM32F4xx_HAL_Driver/Src/stm32f4xx_hal_can.c ****     CLEAR_BIT(hcan->Instance->MCR, CAN_MCR_SLEEP);
 958              		.loc 1 806 5 is_stmt 1 view .LVU297
 959 001a 0268     		ldr	r2, [r0]
 960 001c 1368     		ldr	r3, [r2]
 961 001e 23F00203 		bic	r3, r3, #2
 962 0022 1360     		str	r3, [r2]
 963              	.L86:
 807:ThirdParty/STM32F4xx_HAL_Driver/Src/stm32f4xx_hal_can.c **** 
 808:ThirdParty/STM32F4xx_HAL_Driver/Src/stm32f4xx_hal_can.c ****     /* Wait sleep mode is exited */
 809:ThirdParty/STM32F4xx_HAL_Driver/Src/stm32f4xx_hal_can.c ****     do
 964              		.loc 1 809 5 view .LVU298
 810:ThirdParty/STM32F4xx_HAL_Driver/Src/stm32f4xx_hal_can.c ****     {
 811:ThirdParty/STM32F4xx_HAL_Driver/Src/stm32f4xx_hal_can.c ****       /* Check if timeout is reached */
ARM GAS  /tmp/cc6fvD8U.s 			page 36


 812:ThirdParty/STM32F4xx_HAL_Driver/Src/stm32f4xx_hal_can.c ****       if (++count > timeout)
 965              		.loc 1 812 7 view .LVU299
 966              		.loc 1 812 11 is_stmt 0 view .LVU300
 967 0024 019B     		ldr	r3, [sp, #4]
 968 0026 0133     		adds	r3, r3, #1
 969              		.loc 1 812 10 view .LVU301
 970 0028 0193     		str	r3, [sp, #4]
 971 002a 0B4A     		ldr	r2, .L89
 972 002c 9342     		cmp	r3, r2
 973 002e 06D8     		bhi	.L88
 813:ThirdParty/STM32F4xx_HAL_Driver/Src/stm32f4xx_hal_can.c ****       {
 814:ThirdParty/STM32F4xx_HAL_Driver/Src/stm32f4xx_hal_can.c ****         /* Update error code */
 815:ThirdParty/STM32F4xx_HAL_Driver/Src/stm32f4xx_hal_can.c ****         hcan->ErrorCode |= HAL_CAN_ERROR_TIMEOUT;
 816:ThirdParty/STM32F4xx_HAL_Driver/Src/stm32f4xx_hal_can.c **** 
 817:ThirdParty/STM32F4xx_HAL_Driver/Src/stm32f4xx_hal_can.c ****         return HAL_ERROR;
 818:ThirdParty/STM32F4xx_HAL_Driver/Src/stm32f4xx_hal_can.c ****       }
 819:ThirdParty/STM32F4xx_HAL_Driver/Src/stm32f4xx_hal_can.c ****     }
 820:ThirdParty/STM32F4xx_HAL_Driver/Src/stm32f4xx_hal_can.c ****     while ((hcan->Instance->MSR & CAN_MSR_SLAK) != RESET);
 974              		.loc 1 820 11 is_stmt 1 view .LVU302
 975              		.loc 1 820 17 is_stmt 0 view .LVU303
 976 0030 0368     		ldr	r3, [r0]
 977              		.loc 1 820 27 view .LVU304
 978 0032 5B68     		ldr	r3, [r3, #4]
 979              		.loc 1 820 5 view .LVU305
 980 0034 13F0020F 		tst	r3, #2
 981 0038 F4D1     		bne	.L86
 821:ThirdParty/STM32F4xx_HAL_Driver/Src/stm32f4xx_hal_can.c **** 
 822:ThirdParty/STM32F4xx_HAL_Driver/Src/stm32f4xx_hal_can.c ****     /* Return function status */
 823:ThirdParty/STM32F4xx_HAL_Driver/Src/stm32f4xx_hal_can.c ****     return HAL_OK;
 982              		.loc 1 823 12 view .LVU306
 983 003a 0020     		movs	r0, #0
 984              	.LVL50:
 985              		.loc 1 823 12 view .LVU307
 986 003c 04E0     		b	.L85
 987              	.LVL51:
 988              	.L88:
 815:ThirdParty/STM32F4xx_HAL_Driver/Src/stm32f4xx_hal_can.c **** 
 989              		.loc 1 815 9 is_stmt 1 view .LVU308
 815:ThirdParty/STM32F4xx_HAL_Driver/Src/stm32f4xx_hal_can.c **** 
 990              		.loc 1 815 25 is_stmt 0 view .LVU309
 991 003e 436A     		ldr	r3, [r0, #36]
 992 0040 43F40033 		orr	r3, r3, #131072
 993 0044 4362     		str	r3, [r0, #36]
 817:ThirdParty/STM32F4xx_HAL_Driver/Src/stm32f4xx_hal_can.c ****       }
 994              		.loc 1 817 9 is_stmt 1 view .LVU310
 817:ThirdParty/STM32F4xx_HAL_Driver/Src/stm32f4xx_hal_can.c ****       }
 995              		.loc 1 817 16 is_stmt 0 view .LVU311
 996 0046 0120     		movs	r0, #1
 997              	.LVL52:
 998              	.L85:
 824:ThirdParty/STM32F4xx_HAL_Driver/Src/stm32f4xx_hal_can.c ****   }
 825:ThirdParty/STM32F4xx_HAL_Driver/Src/stm32f4xx_hal_can.c ****   else
 826:ThirdParty/STM32F4xx_HAL_Driver/Src/stm32f4xx_hal_can.c ****   {
 827:ThirdParty/STM32F4xx_HAL_Driver/Src/stm32f4xx_hal_can.c ****     /* Update error code */
 828:ThirdParty/STM32F4xx_HAL_Driver/Src/stm32f4xx_hal_can.c ****     hcan->ErrorCode |= HAL_CAN_ERROR_NOT_INITIALIZED;
 829:ThirdParty/STM32F4xx_HAL_Driver/Src/stm32f4xx_hal_can.c **** 
 830:ThirdParty/STM32F4xx_HAL_Driver/Src/stm32f4xx_hal_can.c ****     return HAL_ERROR;
ARM GAS  /tmp/cc6fvD8U.s 			page 37


 831:ThirdParty/STM32F4xx_HAL_Driver/Src/stm32f4xx_hal_can.c ****   }
 832:ThirdParty/STM32F4xx_HAL_Driver/Src/stm32f4xx_hal_can.c **** }
 999              		.loc 1 832 1 view .LVU312
 1000 0048 02B0     		add	sp, sp, #8
 1001              	.LCFI8:
 1002              		.cfi_remember_state
 1003              		.cfi_def_cfa_offset 0
 1004              		@ sp needed
 1005 004a 7047     		bx	lr
 1006              	.LVL53:
 1007              	.L83:
 1008              	.LCFI9:
 1009              		.cfi_restore_state
 828:ThirdParty/STM32F4xx_HAL_Driver/Src/stm32f4xx_hal_can.c **** 
 1010              		.loc 1 828 5 is_stmt 1 view .LVU313
 828:ThirdParty/STM32F4xx_HAL_Driver/Src/stm32f4xx_hal_can.c **** 
 1011              		.loc 1 828 21 is_stmt 0 view .LVU314
 1012 004c 436A     		ldr	r3, [r0, #36]
 1013 004e 43F48023 		orr	r3, r3, #262144
 1014 0052 4362     		str	r3, [r0, #36]
 830:ThirdParty/STM32F4xx_HAL_Driver/Src/stm32f4xx_hal_can.c ****   }
 1015              		.loc 1 830 5 is_stmt 1 view .LVU315
 830:ThirdParty/STM32F4xx_HAL_Driver/Src/stm32f4xx_hal_can.c ****   }
 1016              		.loc 1 830 12 is_stmt 0 view .LVU316
 1017 0054 0120     		movs	r0, #1
 1018              	.LVL54:
 830:ThirdParty/STM32F4xx_HAL_Driver/Src/stm32f4xx_hal_can.c ****   }
 1019              		.loc 1 830 12 view .LVU317
 1020 0056 F7E7     		b	.L85
 1021              	.L90:
 1022              		.align	2
 1023              	.L89:
 1024 0058 40420F00 		.word	1000000
 1025              		.cfi_endproc
 1026              	.LFE141:
 1028              		.section	.text.HAL_CAN_IsSleepActive,"ax",%progbits
 1029              		.align	1
 1030              		.global	HAL_CAN_IsSleepActive
 1031              		.syntax unified
 1032              		.thumb
 1033              		.thumb_func
 1035              	HAL_CAN_IsSleepActive:
 1036              	.LVL55:
 1037              	.LFB142:
 833:ThirdParty/STM32F4xx_HAL_Driver/Src/stm32f4xx_hal_can.c **** 
 834:ThirdParty/STM32F4xx_HAL_Driver/Src/stm32f4xx_hal_can.c **** /**
 835:ThirdParty/STM32F4xx_HAL_Driver/Src/stm32f4xx_hal_can.c ****   * @brief  Check is sleep mode is active.
 836:ThirdParty/STM32F4xx_HAL_Driver/Src/stm32f4xx_hal_can.c ****   * @param  hcan pointer to a CAN_HandleTypeDef structure that contains
 837:ThirdParty/STM32F4xx_HAL_Driver/Src/stm32f4xx_hal_can.c ****   *         the configuration information for the specified CAN.
 838:ThirdParty/STM32F4xx_HAL_Driver/Src/stm32f4xx_hal_can.c ****   * @retval Status
 839:ThirdParty/STM32F4xx_HAL_Driver/Src/stm32f4xx_hal_can.c ****   *          - 0 : Sleep mode is not active.
 840:ThirdParty/STM32F4xx_HAL_Driver/Src/stm32f4xx_hal_can.c ****   *          - 1 : Sleep mode is active.
 841:ThirdParty/STM32F4xx_HAL_Driver/Src/stm32f4xx_hal_can.c ****   */
 842:ThirdParty/STM32F4xx_HAL_Driver/Src/stm32f4xx_hal_can.c **** uint32_t HAL_CAN_IsSleepActive(CAN_HandleTypeDef *hcan)
 843:ThirdParty/STM32F4xx_HAL_Driver/Src/stm32f4xx_hal_can.c **** {
 1038              		.loc 1 843 1 is_stmt 1 view -0
 1039              		.cfi_startproc
ARM GAS  /tmp/cc6fvD8U.s 			page 38


 1040              		@ args = 0, pretend = 0, frame = 0
 1041              		@ frame_needed = 0, uses_anonymous_args = 0
 1042              		@ link register save eliminated.
 844:ThirdParty/STM32F4xx_HAL_Driver/Src/stm32f4xx_hal_can.c ****   uint32_t status = 0U;
 1043              		.loc 1 844 3 view .LVU319
 845:ThirdParty/STM32F4xx_HAL_Driver/Src/stm32f4xx_hal_can.c **** 
 846:ThirdParty/STM32F4xx_HAL_Driver/Src/stm32f4xx_hal_can.c ****   if ((hcan->State == HAL_CAN_STATE_READY) ||
 1044              		.loc 1 846 3 view .LVU320
 1045              		.loc 1 846 12 is_stmt 0 view .LVU321
 1046 0000 90F82030 		ldrb	r3, [r0, #32]	@ zero_extendqisi2
 1047 0004 DBB2     		uxtb	r3, r3
 1048              		.loc 1 846 6 view .LVU322
 1049 0006 012B     		cmp	r3, #1
 1050 0008 06D0     		beq	.L92
 847:ThirdParty/STM32F4xx_HAL_Driver/Src/stm32f4xx_hal_can.c ****       (hcan->State == HAL_CAN_STATE_LISTENING))
 1051              		.loc 1 847 12 discriminator 1 view .LVU323
 1052 000a 90F82030 		ldrb	r3, [r0, #32]	@ zero_extendqisi2
 1053 000e DBB2     		uxtb	r3, r3
 846:ThirdParty/STM32F4xx_HAL_Driver/Src/stm32f4xx_hal_can.c ****       (hcan->State == HAL_CAN_STATE_LISTENING))
 1054              		.loc 1 846 44 discriminator 1 view .LVU324
 1055 0010 022B     		cmp	r3, #2
 1056 0012 01D0     		beq	.L92
 844:ThirdParty/STM32F4xx_HAL_Driver/Src/stm32f4xx_hal_can.c **** 
 1057              		.loc 1 844 12 view .LVU325
 1058 0014 0020     		movs	r0, #0
 1059              	.LVL56:
 844:ThirdParty/STM32F4xx_HAL_Driver/Src/stm32f4xx_hal_can.c **** 
 1060              		.loc 1 844 12 view .LVU326
 1061 0016 7047     		bx	lr
 1062              	.LVL57:
 1063              	.L92:
 848:ThirdParty/STM32F4xx_HAL_Driver/Src/stm32f4xx_hal_can.c ****   {
 849:ThirdParty/STM32F4xx_HAL_Driver/Src/stm32f4xx_hal_can.c ****     /* Check Sleep mode */
 850:ThirdParty/STM32F4xx_HAL_Driver/Src/stm32f4xx_hal_can.c ****     if ((hcan->Instance->MSR & CAN_MSR_SLAK) != RESET)
 1064              		.loc 1 850 5 is_stmt 1 view .LVU327
 1065              		.loc 1 850 14 is_stmt 0 view .LVU328
 1066 0018 0368     		ldr	r3, [r0]
 1067              		.loc 1 850 24 view .LVU329
 1068 001a 5868     		ldr	r0, [r3, #4]
 1069              	.LVL58:
 1070              		.loc 1 850 8 view .LVU330
 1071 001c 10F00200 		ands	r0, r0, #2
 1072 0020 00D1     		bne	.L95
 1073 0022 7047     		bx	lr
 1074              	.L95:
 851:ThirdParty/STM32F4xx_HAL_Driver/Src/stm32f4xx_hal_can.c ****     {
 852:ThirdParty/STM32F4xx_HAL_Driver/Src/stm32f4xx_hal_can.c ****       status = 1U;
 1075              		.loc 1 852 14 view .LVU331
 1076 0024 0120     		movs	r0, #1
 1077              	.LVL59:
 853:ThirdParty/STM32F4xx_HAL_Driver/Src/stm32f4xx_hal_can.c ****     }
 854:ThirdParty/STM32F4xx_HAL_Driver/Src/stm32f4xx_hal_can.c ****   }
 855:ThirdParty/STM32F4xx_HAL_Driver/Src/stm32f4xx_hal_can.c **** 
 856:ThirdParty/STM32F4xx_HAL_Driver/Src/stm32f4xx_hal_can.c ****   /* Return function status */
 857:ThirdParty/STM32F4xx_HAL_Driver/Src/stm32f4xx_hal_can.c ****   return status;
 1078              		.loc 1 857 3 is_stmt 1 view .LVU332
 858:ThirdParty/STM32F4xx_HAL_Driver/Src/stm32f4xx_hal_can.c **** }
ARM GAS  /tmp/cc6fvD8U.s 			page 39


 1079              		.loc 1 858 1 is_stmt 0 view .LVU333
 1080 0026 7047     		bx	lr
 1081              		.cfi_endproc
 1082              	.LFE142:
 1084              		.section	.text.HAL_CAN_AddTxMessage,"ax",%progbits
 1085              		.align	1
 1086              		.global	HAL_CAN_AddTxMessage
 1087              		.syntax unified
 1088              		.thumb
 1089              		.thumb_func
 1091              	HAL_CAN_AddTxMessage:
 1092              	.LVL60:
 1093              	.LFB143:
 859:ThirdParty/STM32F4xx_HAL_Driver/Src/stm32f4xx_hal_can.c **** 
 860:ThirdParty/STM32F4xx_HAL_Driver/Src/stm32f4xx_hal_can.c **** /**
 861:ThirdParty/STM32F4xx_HAL_Driver/Src/stm32f4xx_hal_can.c ****   * @brief  Add a message to the first free Tx mailbox and activate the
 862:ThirdParty/STM32F4xx_HAL_Driver/Src/stm32f4xx_hal_can.c ****   *         corresponding transmission request.
 863:ThirdParty/STM32F4xx_HAL_Driver/Src/stm32f4xx_hal_can.c ****   * @param  hcan pointer to a CAN_HandleTypeDef structure that contains
 864:ThirdParty/STM32F4xx_HAL_Driver/Src/stm32f4xx_hal_can.c ****   *         the configuration information for the specified CAN.
 865:ThirdParty/STM32F4xx_HAL_Driver/Src/stm32f4xx_hal_can.c ****   * @param  pHeader pointer to a CAN_TxHeaderTypeDef structure.
 866:ThirdParty/STM32F4xx_HAL_Driver/Src/stm32f4xx_hal_can.c ****   * @param  aData array containing the payload of the Tx frame.
 867:ThirdParty/STM32F4xx_HAL_Driver/Src/stm32f4xx_hal_can.c ****   * @param  pTxMailbox pointer to a variable where the function will return
 868:ThirdParty/STM32F4xx_HAL_Driver/Src/stm32f4xx_hal_can.c ****   *         the TxMailbox used to store the Tx message.
 869:ThirdParty/STM32F4xx_HAL_Driver/Src/stm32f4xx_hal_can.c ****   *         This parameter can be a value of @arg CAN_Tx_Mailboxes.
 870:ThirdParty/STM32F4xx_HAL_Driver/Src/stm32f4xx_hal_can.c ****   * @retval HAL status
 871:ThirdParty/STM32F4xx_HAL_Driver/Src/stm32f4xx_hal_can.c ****   */
 872:ThirdParty/STM32F4xx_HAL_Driver/Src/stm32f4xx_hal_can.c **** HAL_StatusTypeDef HAL_CAN_AddTxMessage(CAN_HandleTypeDef *hcan, CAN_TxHeaderTypeDef *pHeader, uint8
 873:ThirdParty/STM32F4xx_HAL_Driver/Src/stm32f4xx_hal_can.c **** {
 1094              		.loc 1 873 1 is_stmt 1 view -0
 1095              		.cfi_startproc
 1096              		@ args = 0, pretend = 0, frame = 0
 1097              		@ frame_needed = 0, uses_anonymous_args = 0
 1098              		@ link register save eliminated.
 874:ThirdParty/STM32F4xx_HAL_Driver/Src/stm32f4xx_hal_can.c ****   uint32_t transmitmailbox;
 1099              		.loc 1 874 3 view .LVU335
 875:ThirdParty/STM32F4xx_HAL_Driver/Src/stm32f4xx_hal_can.c **** 
 876:ThirdParty/STM32F4xx_HAL_Driver/Src/stm32f4xx_hal_can.c ****   /* Check the parameters */
 877:ThirdParty/STM32F4xx_HAL_Driver/Src/stm32f4xx_hal_can.c ****   assert_param(IS_CAN_IDTYPE(pHeader->IDE));
 1100              		.loc 1 877 3 view .LVU336
 878:ThirdParty/STM32F4xx_HAL_Driver/Src/stm32f4xx_hal_can.c ****   assert_param(IS_CAN_RTR(pHeader->RTR));
 1101              		.loc 1 878 3 view .LVU337
 879:ThirdParty/STM32F4xx_HAL_Driver/Src/stm32f4xx_hal_can.c ****   assert_param(IS_CAN_DLC(pHeader->DLC));
 1102              		.loc 1 879 3 view .LVU338
 880:ThirdParty/STM32F4xx_HAL_Driver/Src/stm32f4xx_hal_can.c ****   if (pHeader->IDE == CAN_ID_STD)
 1103              		.loc 1 880 3 view .LVU339
 881:ThirdParty/STM32F4xx_HAL_Driver/Src/stm32f4xx_hal_can.c ****   {
 882:ThirdParty/STM32F4xx_HAL_Driver/Src/stm32f4xx_hal_can.c ****     assert_param(IS_CAN_STDID(pHeader->StdId));
 883:ThirdParty/STM32F4xx_HAL_Driver/Src/stm32f4xx_hal_can.c ****   }
 884:ThirdParty/STM32F4xx_HAL_Driver/Src/stm32f4xx_hal_can.c ****   else
 885:ThirdParty/STM32F4xx_HAL_Driver/Src/stm32f4xx_hal_can.c ****   {
 886:ThirdParty/STM32F4xx_HAL_Driver/Src/stm32f4xx_hal_can.c ****     assert_param(IS_CAN_EXTID(pHeader->ExtId));
 1104              		.loc 1 886 5 view .LVU340
 887:ThirdParty/STM32F4xx_HAL_Driver/Src/stm32f4xx_hal_can.c ****   }
 888:ThirdParty/STM32F4xx_HAL_Driver/Src/stm32f4xx_hal_can.c ****   assert_param(IS_FUNCTIONAL_STATE(pHeader->TransmitGlobalTime));
 1105              		.loc 1 888 3 view .LVU341
 889:ThirdParty/STM32F4xx_HAL_Driver/Src/stm32f4xx_hal_can.c **** 
 890:ThirdParty/STM32F4xx_HAL_Driver/Src/stm32f4xx_hal_can.c ****   if ((hcan->State == HAL_CAN_STATE_READY) ||
ARM GAS  /tmp/cc6fvD8U.s 			page 40


 1106              		.loc 1 890 3 view .LVU342
 1107              		.loc 1 890 12 is_stmt 0 view .LVU343
 1108 0000 90F820C0 		ldrb	ip, [r0, #32]	@ zero_extendqisi2
 1109 0004 5FFA8CFC 		uxtb	ip, ip
 1110              		.loc 1 890 6 view .LVU344
 1111 0008 BCF1010F 		cmp	ip, #1
 1112 000c 06D0     		beq	.L97
 891:ThirdParty/STM32F4xx_HAL_Driver/Src/stm32f4xx_hal_can.c ****       (hcan->State == HAL_CAN_STATE_LISTENING))
 1113              		.loc 1 891 12 discriminator 1 view .LVU345
 1114 000e 90F820C0 		ldrb	ip, [r0, #32]	@ zero_extendqisi2
 1115 0012 5FFA8CFC 		uxtb	ip, ip
 890:ThirdParty/STM32F4xx_HAL_Driver/Src/stm32f4xx_hal_can.c ****       (hcan->State == HAL_CAN_STATE_LISTENING))
 1116              		.loc 1 890 44 discriminator 1 view .LVU346
 1117 0016 BCF1020F 		cmp	ip, #2
 1118 001a 6FD1     		bne	.L98
 1119              	.L97:
 873:ThirdParty/STM32F4xx_HAL_Driver/Src/stm32f4xx_hal_can.c ****   uint32_t transmitmailbox;
 1120              		.loc 1 873 1 view .LVU347
 1121 001c 30B4     		push	{r4, r5}
 1122              	.LCFI10:
 1123              		.cfi_def_cfa_offset 8
 1124              		.cfi_offset 4, -8
 1125              		.cfi_offset 5, -4
 892:ThirdParty/STM32F4xx_HAL_Driver/Src/stm32f4xx_hal_can.c ****   {
 893:ThirdParty/STM32F4xx_HAL_Driver/Src/stm32f4xx_hal_can.c ****     /* Check that all the Tx mailboxes are not full */
 894:ThirdParty/STM32F4xx_HAL_Driver/Src/stm32f4xx_hal_can.c ****     if (((hcan->Instance->TSR & CAN_TSR_TME0) != RESET) ||
 1126              		.loc 1 894 5 is_stmt 1 view .LVU348
 1127              		.loc 1 894 15 is_stmt 0 view .LVU349
 1128 001e 0468     		ldr	r4, [r0]
 1129              		.loc 1 894 25 view .LVU350
 1130 0020 A568     		ldr	r5, [r4, #8]
 1131              		.loc 1 894 8 view .LVU351
 1132 0022 15F0806F 		tst	r5, #67108864
 1133 0026 07D1     		bne	.L99
 895:ThirdParty/STM32F4xx_HAL_Driver/Src/stm32f4xx_hal_can.c ****         ((hcan->Instance->TSR & CAN_TSR_TME1) != RESET) ||
 1134              		.loc 1 895 25 discriminator 1 view .LVU352
 1135 0028 A568     		ldr	r5, [r4, #8]
 894:ThirdParty/STM32F4xx_HAL_Driver/Src/stm32f4xx_hal_can.c ****         ((hcan->Instance->TSR & CAN_TSR_TME1) != RESET) ||
 1136              		.loc 1 894 57 discriminator 1 view .LVU353
 1137 002a 15F0006F 		tst	r5, #134217728
 1138 002e 03D1     		bne	.L99
 896:ThirdParty/STM32F4xx_HAL_Driver/Src/stm32f4xx_hal_can.c ****         ((hcan->Instance->TSR & CAN_TSR_TME2) != RESET))
 1139              		.loc 1 896 25 view .LVU354
 1140 0030 A568     		ldr	r5, [r4, #8]
 895:ThirdParty/STM32F4xx_HAL_Driver/Src/stm32f4xx_hal_can.c ****         ((hcan->Instance->TSR & CAN_TSR_TME1) != RESET) ||
 1141              		.loc 1 895 57 view .LVU355
 1142 0032 15F0805F 		tst	r5, #268435456
 1143 0036 5BD0     		beq	.L100
 1144              	.L99:
 897:ThirdParty/STM32F4xx_HAL_Driver/Src/stm32f4xx_hal_can.c ****     {
 898:ThirdParty/STM32F4xx_HAL_Driver/Src/stm32f4xx_hal_can.c ****       /* Select an empty transmit mailbox */
 899:ThirdParty/STM32F4xx_HAL_Driver/Src/stm32f4xx_hal_can.c ****       transmitmailbox = (hcan->Instance->TSR & CAN_TSR_CODE) >> CAN_TSR_CODE_Pos;
 1145              		.loc 1 899 7 is_stmt 1 view .LVU356
 1146              		.loc 1 899 40 is_stmt 0 view .LVU357
 1147 0038 A468     		ldr	r4, [r4, #8]
 1148              		.loc 1 899 23 view .LVU358
 1149 003a C4F3016C 		ubfx	ip, r4, #24, #2
ARM GAS  /tmp/cc6fvD8U.s 			page 41


 1150              	.LVL61:
 900:ThirdParty/STM32F4xx_HAL_Driver/Src/stm32f4xx_hal_can.c **** 
 901:ThirdParty/STM32F4xx_HAL_Driver/Src/stm32f4xx_hal_can.c ****       /* Store the Tx mailbox */
 902:ThirdParty/STM32F4xx_HAL_Driver/Src/stm32f4xx_hal_can.c ****       *pTxMailbox = 1U << transmitmailbox;
 1151              		.loc 1 902 7 is_stmt 1 view .LVU359
 1152              		.loc 1 902 24 is_stmt 0 view .LVU360
 1153 003e 0124     		movs	r4, #1
 1154 0040 04FA0CF4 		lsl	r4, r4, ip
 1155              		.loc 1 902 19 view .LVU361
 1156 0044 1C60     		str	r4, [r3]
 903:ThirdParty/STM32F4xx_HAL_Driver/Src/stm32f4xx_hal_can.c **** 
 904:ThirdParty/STM32F4xx_HAL_Driver/Src/stm32f4xx_hal_can.c ****       /* Set up the Id */
 905:ThirdParty/STM32F4xx_HAL_Driver/Src/stm32f4xx_hal_can.c ****       if (pHeader->IDE == CAN_ID_STD)
 1157              		.loc 1 905 7 is_stmt 1 view .LVU362
 1158              		.loc 1 905 18 is_stmt 0 view .LVU363
 1159 0046 8B68     		ldr	r3, [r1, #8]
 1160              	.LVL62:
 1161              		.loc 1 905 10 view .LVU364
 1162 0048 002B     		cmp	r3, #0
 1163 004a 3ED1     		bne	.L101
 906:ThirdParty/STM32F4xx_HAL_Driver/Src/stm32f4xx_hal_can.c ****       {
 907:ThirdParty/STM32F4xx_HAL_Driver/Src/stm32f4xx_hal_can.c ****         hcan->Instance->sTxMailBox[transmitmailbox].TIR = ((pHeader->StdId << CAN_TI0R_STID_Pos) |
 1164              		.loc 1 907 9 is_stmt 1 view .LVU365
 1165              		.loc 1 907 68 is_stmt 0 view .LVU366
 1166 004c 0D68     		ldr	r5, [r1]
 908:ThirdParty/STM32F4xx_HAL_Driver/Src/stm32f4xx_hal_can.c ****                                                            pHeader->RTR);
 1167              		.loc 1 908 67 view .LVU367
 1168 004e CB68     		ldr	r3, [r1, #12]
 907:ThirdParty/STM32F4xx_HAL_Driver/Src/stm32f4xx_hal_can.c ****                                                            pHeader->RTR);
 1169              		.loc 1 907 13 view .LVU368
 1170 0050 0468     		ldr	r4, [r0]
 907:ThirdParty/STM32F4xx_HAL_Driver/Src/stm32f4xx_hal_can.c ****                                                            pHeader->RTR);
 1171              		.loc 1 907 98 view .LVU369
 1172 0052 43EA4555 		orr	r5, r3, r5, lsl #21
 907:ThirdParty/STM32F4xx_HAL_Driver/Src/stm32f4xx_hal_can.c ****                                                            pHeader->RTR);
 1173              		.loc 1 907 57 view .LVU370
 1174 0056 0CF11803 		add	r3, ip, #24
 1175 005a 1B01     		lsls	r3, r3, #4
 1176 005c E550     		str	r5, [r4, r3]
 1177              	.L102:
 909:ThirdParty/STM32F4xx_HAL_Driver/Src/stm32f4xx_hal_can.c ****       }
 910:ThirdParty/STM32F4xx_HAL_Driver/Src/stm32f4xx_hal_can.c ****       else
 911:ThirdParty/STM32F4xx_HAL_Driver/Src/stm32f4xx_hal_can.c ****       {
 912:ThirdParty/STM32F4xx_HAL_Driver/Src/stm32f4xx_hal_can.c ****         hcan->Instance->sTxMailBox[transmitmailbox].TIR = ((pHeader->ExtId << CAN_TI0R_EXID_Pos) |
 913:ThirdParty/STM32F4xx_HAL_Driver/Src/stm32f4xx_hal_can.c ****                                                            pHeader->IDE |
 914:ThirdParty/STM32F4xx_HAL_Driver/Src/stm32f4xx_hal_can.c ****                                                            pHeader->RTR);
 915:ThirdParty/STM32F4xx_HAL_Driver/Src/stm32f4xx_hal_can.c ****       }
 916:ThirdParty/STM32F4xx_HAL_Driver/Src/stm32f4xx_hal_can.c **** 
 917:ThirdParty/STM32F4xx_HAL_Driver/Src/stm32f4xx_hal_can.c ****       /* Set up the DLC */
 918:ThirdParty/STM32F4xx_HAL_Driver/Src/stm32f4xx_hal_can.c ****       hcan->Instance->sTxMailBox[transmitmailbox].TDTR = (pHeader->DLC);
 1178              		.loc 1 918 7 is_stmt 1 view .LVU371
 1179              		.loc 1 918 11 is_stmt 0 view .LVU372
 1180 005e 0368     		ldr	r3, [r0]
 1181              		.loc 1 918 66 view .LVU373
 1182 0060 0C69     		ldr	r4, [r1, #16]
 1183              		.loc 1 918 56 view .LVU374
 1184 0062 0CF11805 		add	r5, ip, #24
ARM GAS  /tmp/cc6fvD8U.s 			page 42


 1185 0066 03EB0513 		add	r3, r3, r5, lsl #4
 1186 006a 5C60     		str	r4, [r3, #4]
 919:ThirdParty/STM32F4xx_HAL_Driver/Src/stm32f4xx_hal_can.c **** 
 920:ThirdParty/STM32F4xx_HAL_Driver/Src/stm32f4xx_hal_can.c ****       /* Set up the Transmit Global Time mode */
 921:ThirdParty/STM32F4xx_HAL_Driver/Src/stm32f4xx_hal_can.c ****       if (pHeader->TransmitGlobalTime == ENABLE)
 1187              		.loc 1 921 7 is_stmt 1 view .LVU375
 1188              		.loc 1 921 18 is_stmt 0 view .LVU376
 1189 006c 0B7D     		ldrb	r3, [r1, #20]	@ zero_extendqisi2
 1190              		.loc 1 921 10 view .LVU377
 1191 006e 012B     		cmp	r3, #1
 1192 0070 36D0     		beq	.L108
 1193              	.LVL63:
 1194              	.L103:
 922:ThirdParty/STM32F4xx_HAL_Driver/Src/stm32f4xx_hal_can.c ****       {
 923:ThirdParty/STM32F4xx_HAL_Driver/Src/stm32f4xx_hal_can.c ****         SET_BIT(hcan->Instance->sTxMailBox[transmitmailbox].TDTR, CAN_TDT0R_TGT);
 924:ThirdParty/STM32F4xx_HAL_Driver/Src/stm32f4xx_hal_can.c ****       }
 925:ThirdParty/STM32F4xx_HAL_Driver/Src/stm32f4xx_hal_can.c **** 
 926:ThirdParty/STM32F4xx_HAL_Driver/Src/stm32f4xx_hal_can.c ****       /* Set up the data field */
 927:ThirdParty/STM32F4xx_HAL_Driver/Src/stm32f4xx_hal_can.c ****       WRITE_REG(hcan->Instance->sTxMailBox[transmitmailbox].TDHR,
 1195              		.loc 1 927 7 is_stmt 1 view .LVU378
 1196 0072 D179     		ldrb	r1, [r2, #7]	@ zero_extendqisi2
 1197 0074 9379     		ldrb	r3, [r2, #6]	@ zero_extendqisi2
 1198 0076 1B04     		lsls	r3, r3, #16
 1199 0078 43EA0163 		orr	r3, r3, r1, lsl #24
 1200 007c 5179     		ldrb	r1, [r2, #5]	@ zero_extendqisi2
 1201 007e 43EA0123 		orr	r3, r3, r1, lsl #8
 1202 0082 1479     		ldrb	r4, [r2, #4]	@ zero_extendqisi2
 1203 0084 0168     		ldr	r1, [r0]
 1204 0086 2343     		orrs	r3, r3, r4
 1205 0088 01EB0C11 		add	r1, r1, ip, lsl #4
 1206 008c C1F88C31 		str	r3, [r1, #396]
 928:ThirdParty/STM32F4xx_HAL_Driver/Src/stm32f4xx_hal_can.c ****                 ((uint32_t)aData[7] << CAN_TDH0R_DATA7_Pos) |
 929:ThirdParty/STM32F4xx_HAL_Driver/Src/stm32f4xx_hal_can.c ****                 ((uint32_t)aData[6] << CAN_TDH0R_DATA6_Pos) |
 930:ThirdParty/STM32F4xx_HAL_Driver/Src/stm32f4xx_hal_can.c ****                 ((uint32_t)aData[5] << CAN_TDH0R_DATA5_Pos) |
 931:ThirdParty/STM32F4xx_HAL_Driver/Src/stm32f4xx_hal_can.c ****                 ((uint32_t)aData[4] << CAN_TDH0R_DATA4_Pos));
 932:ThirdParty/STM32F4xx_HAL_Driver/Src/stm32f4xx_hal_can.c ****       WRITE_REG(hcan->Instance->sTxMailBox[transmitmailbox].TDLR,
 1207              		.loc 1 932 7 view .LVU379
 1208 0090 D178     		ldrb	r1, [r2, #3]	@ zero_extendqisi2
 1209 0092 9378     		ldrb	r3, [r2, #2]	@ zero_extendqisi2
 1210 0094 1B04     		lsls	r3, r3, #16
 1211 0096 43EA0163 		orr	r3, r3, r1, lsl #24
 1212 009a 5178     		ldrb	r1, [r2, #1]	@ zero_extendqisi2
 1213 009c 43EA0123 		orr	r3, r3, r1, lsl #8
 1214 00a0 1178     		ldrb	r1, [r2]	@ zero_extendqisi2
 1215 00a2 0268     		ldr	r2, [r0]
 1216              	.LVL64:
 1217              		.loc 1 932 7 is_stmt 0 view .LVU380
 1218 00a4 0B43     		orrs	r3, r3, r1
 1219 00a6 02EB0C12 		add	r2, r2, ip, lsl #4
 1220 00aa C2F88831 		str	r3, [r2, #392]
 933:ThirdParty/STM32F4xx_HAL_Driver/Src/stm32f4xx_hal_can.c ****                 ((uint32_t)aData[3] << CAN_TDL0R_DATA3_Pos) |
 934:ThirdParty/STM32F4xx_HAL_Driver/Src/stm32f4xx_hal_can.c ****                 ((uint32_t)aData[2] << CAN_TDL0R_DATA2_Pos) |
 935:ThirdParty/STM32F4xx_HAL_Driver/Src/stm32f4xx_hal_can.c ****                 ((uint32_t)aData[1] << CAN_TDL0R_DATA1_Pos) |
 936:ThirdParty/STM32F4xx_HAL_Driver/Src/stm32f4xx_hal_can.c ****                 ((uint32_t)aData[0] << CAN_TDL0R_DATA0_Pos));
 937:ThirdParty/STM32F4xx_HAL_Driver/Src/stm32f4xx_hal_can.c **** 
 938:ThirdParty/STM32F4xx_HAL_Driver/Src/stm32f4xx_hal_can.c ****       /* Request transmission */
 939:ThirdParty/STM32F4xx_HAL_Driver/Src/stm32f4xx_hal_can.c ****       SET_BIT(hcan->Instance->sTxMailBox[transmitmailbox].TIR, CAN_TI0R_TXRQ);
ARM GAS  /tmp/cc6fvD8U.s 			page 43


 1221              		.loc 1 939 7 is_stmt 1 view .LVU381
 1222 00ae 0268     		ldr	r2, [r0]
 1223 00b0 0CF1180C 		add	ip, ip, #24
 1224              	.LVL65:
 1225              		.loc 1 939 7 is_stmt 0 view .LVU382
 1226 00b4 4FEA0C1C 		lsl	ip, ip, #4
 1227 00b8 52F80C30 		ldr	r3, [r2, ip]
 1228 00bc 43F00103 		orr	r3, r3, #1
 1229 00c0 42F80C30 		str	r3, [r2, ip]
 940:ThirdParty/STM32F4xx_HAL_Driver/Src/stm32f4xx_hal_can.c **** 
 941:ThirdParty/STM32F4xx_HAL_Driver/Src/stm32f4xx_hal_can.c ****       /* Return function status */
 942:ThirdParty/STM32F4xx_HAL_Driver/Src/stm32f4xx_hal_can.c ****       return HAL_OK;
 1230              		.loc 1 942 7 is_stmt 1 view .LVU383
 1231              		.loc 1 942 14 is_stmt 0 view .LVU384
 1232 00c4 0020     		movs	r0, #0
 1233              	.LVL66:
 1234              	.L104:
 943:ThirdParty/STM32F4xx_HAL_Driver/Src/stm32f4xx_hal_can.c ****     }
 944:ThirdParty/STM32F4xx_HAL_Driver/Src/stm32f4xx_hal_can.c ****     else
 945:ThirdParty/STM32F4xx_HAL_Driver/Src/stm32f4xx_hal_can.c ****     {
 946:ThirdParty/STM32F4xx_HAL_Driver/Src/stm32f4xx_hal_can.c ****       /* Update error code */
 947:ThirdParty/STM32F4xx_HAL_Driver/Src/stm32f4xx_hal_can.c ****       hcan->ErrorCode |= HAL_CAN_ERROR_PARAM;
 948:ThirdParty/STM32F4xx_HAL_Driver/Src/stm32f4xx_hal_can.c **** 
 949:ThirdParty/STM32F4xx_HAL_Driver/Src/stm32f4xx_hal_can.c ****       return HAL_ERROR;
 950:ThirdParty/STM32F4xx_HAL_Driver/Src/stm32f4xx_hal_can.c ****     }
 951:ThirdParty/STM32F4xx_HAL_Driver/Src/stm32f4xx_hal_can.c ****   }
 952:ThirdParty/STM32F4xx_HAL_Driver/Src/stm32f4xx_hal_can.c ****   else
 953:ThirdParty/STM32F4xx_HAL_Driver/Src/stm32f4xx_hal_can.c ****   {
 954:ThirdParty/STM32F4xx_HAL_Driver/Src/stm32f4xx_hal_can.c ****     /* Update error code */
 955:ThirdParty/STM32F4xx_HAL_Driver/Src/stm32f4xx_hal_can.c ****     hcan->ErrorCode |= HAL_CAN_ERROR_NOT_INITIALIZED;
 956:ThirdParty/STM32F4xx_HAL_Driver/Src/stm32f4xx_hal_can.c **** 
 957:ThirdParty/STM32F4xx_HAL_Driver/Src/stm32f4xx_hal_can.c ****     return HAL_ERROR;
 958:ThirdParty/STM32F4xx_HAL_Driver/Src/stm32f4xx_hal_can.c ****   }
 959:ThirdParty/STM32F4xx_HAL_Driver/Src/stm32f4xx_hal_can.c **** }
 1235              		.loc 1 959 1 view .LVU385
 1236 00c6 30BC     		pop	{r4, r5}
 1237              	.LCFI11:
 1238              		.cfi_remember_state
 1239              		.cfi_restore 5
 1240              		.cfi_restore 4
 1241              		.cfi_def_cfa_offset 0
 1242 00c8 7047     		bx	lr
 1243              	.LVL67:
 1244              	.L101:
 1245              	.LCFI12:
 1246              		.cfi_restore_state
 912:ThirdParty/STM32F4xx_HAL_Driver/Src/stm32f4xx_hal_can.c ****                                                            pHeader->IDE |
 1247              		.loc 1 912 9 is_stmt 1 view .LVU386
 912:ThirdParty/STM32F4xx_HAL_Driver/Src/stm32f4xx_hal_can.c ****                                                            pHeader->IDE |
 1248              		.loc 1 912 68 is_stmt 0 view .LVU387
 1249 00ca 4C68     		ldr	r4, [r1, #4]
 912:ThirdParty/STM32F4xx_HAL_Driver/Src/stm32f4xx_hal_can.c ****                                                            pHeader->IDE |
 1250              		.loc 1 912 98 view .LVU388
 1251 00cc 43EAC403 		orr	r3, r3, r4, lsl #3
 914:ThirdParty/STM32F4xx_HAL_Driver/Src/stm32f4xx_hal_can.c ****       }
 1252              		.loc 1 914 67 view .LVU389
 1253 00d0 CC68     		ldr	r4, [r1, #12]
ARM GAS  /tmp/cc6fvD8U.s 			page 44


 912:ThirdParty/STM32F4xx_HAL_Driver/Src/stm32f4xx_hal_can.c ****                                                            pHeader->IDE |
 1254              		.loc 1 912 13 view .LVU390
 1255 00d2 0568     		ldr	r5, [r0]
 913:ThirdParty/STM32F4xx_HAL_Driver/Src/stm32f4xx_hal_can.c ****                                                            pHeader->RTR);
 1256              		.loc 1 913 73 view .LVU391
 1257 00d4 2343     		orrs	r3, r3, r4
 912:ThirdParty/STM32F4xx_HAL_Driver/Src/stm32f4xx_hal_can.c ****                                                            pHeader->IDE |
 1258              		.loc 1 912 57 view .LVU392
 1259 00d6 0CF11804 		add	r4, ip, #24
 1260 00da 2401     		lsls	r4, r4, #4
 1261 00dc 2B51     		str	r3, [r5, r4]
 1262 00de BEE7     		b	.L102
 1263              	.L108:
 923:ThirdParty/STM32F4xx_HAL_Driver/Src/stm32f4xx_hal_can.c ****       }
 1264              		.loc 1 923 9 is_stmt 1 view .LVU393
 1265 00e0 0368     		ldr	r3, [r0]
 1266 00e2 03EB0513 		add	r3, r3, r5, lsl #4
 1267 00e6 5968     		ldr	r1, [r3, #4]
 1268              	.LVL68:
 923:ThirdParty/STM32F4xx_HAL_Driver/Src/stm32f4xx_hal_can.c ****       }
 1269              		.loc 1 923 9 is_stmt 0 view .LVU394
 1270 00e8 41F48071 		orr	r1, r1, #256
 1271 00ec 5960     		str	r1, [r3, #4]
 1272 00ee C0E7     		b	.L103
 1273              	.LVL69:
 1274              	.L100:
 947:ThirdParty/STM32F4xx_HAL_Driver/Src/stm32f4xx_hal_can.c **** 
 1275              		.loc 1 947 7 is_stmt 1 view .LVU395
 947:ThirdParty/STM32F4xx_HAL_Driver/Src/stm32f4xx_hal_can.c **** 
 1276              		.loc 1 947 23 is_stmt 0 view .LVU396
 1277 00f0 436A     		ldr	r3, [r0, #36]
 1278              	.LVL70:
 947:ThirdParty/STM32F4xx_HAL_Driver/Src/stm32f4xx_hal_can.c **** 
 1279              		.loc 1 947 23 view .LVU397
 1280 00f2 43F40013 		orr	r3, r3, #2097152
 1281 00f6 4362     		str	r3, [r0, #36]
 949:ThirdParty/STM32F4xx_HAL_Driver/Src/stm32f4xx_hal_can.c ****     }
 1282              		.loc 1 949 7 is_stmt 1 view .LVU398
 949:ThirdParty/STM32F4xx_HAL_Driver/Src/stm32f4xx_hal_can.c ****     }
 1283              		.loc 1 949 14 is_stmt 0 view .LVU399
 1284 00f8 0120     		movs	r0, #1
 1285              	.LVL71:
 949:ThirdParty/STM32F4xx_HAL_Driver/Src/stm32f4xx_hal_can.c ****     }
 1286              		.loc 1 949 14 view .LVU400
 1287 00fa E4E7     		b	.L104
 1288              	.LVL72:
 1289              	.L98:
 1290              	.LCFI13:
 1291              		.cfi_def_cfa_offset 0
 1292              		.cfi_restore 4
 1293              		.cfi_restore 5
 955:ThirdParty/STM32F4xx_HAL_Driver/Src/stm32f4xx_hal_can.c **** 
 1294              		.loc 1 955 5 is_stmt 1 view .LVU401
 955:ThirdParty/STM32F4xx_HAL_Driver/Src/stm32f4xx_hal_can.c **** 
 1295              		.loc 1 955 21 is_stmt 0 view .LVU402
 1296 00fc 436A     		ldr	r3, [r0, #36]
 1297              	.LVL73:
ARM GAS  /tmp/cc6fvD8U.s 			page 45


 955:ThirdParty/STM32F4xx_HAL_Driver/Src/stm32f4xx_hal_can.c **** 
 1298              		.loc 1 955 21 view .LVU403
 1299 00fe 43F48023 		orr	r3, r3, #262144
 1300 0102 4362     		str	r3, [r0, #36]
 957:ThirdParty/STM32F4xx_HAL_Driver/Src/stm32f4xx_hal_can.c ****   }
 1301              		.loc 1 957 5 is_stmt 1 view .LVU404
 957:ThirdParty/STM32F4xx_HAL_Driver/Src/stm32f4xx_hal_can.c ****   }
 1302              		.loc 1 957 12 is_stmt 0 view .LVU405
 1303 0104 0120     		movs	r0, #1
 1304              	.LVL74:
 1305              		.loc 1 959 1 view .LVU406
 1306 0106 7047     		bx	lr
 1307              		.cfi_endproc
 1308              	.LFE143:
 1310              		.section	.text.HAL_CAN_AbortTxRequest,"ax",%progbits
 1311              		.align	1
 1312              		.global	HAL_CAN_AbortTxRequest
 1313              		.syntax unified
 1314              		.thumb
 1315              		.thumb_func
 1317              	HAL_CAN_AbortTxRequest:
 1318              	.LVL75:
 1319              	.LFB144:
 960:ThirdParty/STM32F4xx_HAL_Driver/Src/stm32f4xx_hal_can.c **** 
 961:ThirdParty/STM32F4xx_HAL_Driver/Src/stm32f4xx_hal_can.c **** /**
 962:ThirdParty/STM32F4xx_HAL_Driver/Src/stm32f4xx_hal_can.c ****   * @brief  Abort transmission requests
 963:ThirdParty/STM32F4xx_HAL_Driver/Src/stm32f4xx_hal_can.c ****   * @param  hcan pointer to an CAN_HandleTypeDef structure that contains
 964:ThirdParty/STM32F4xx_HAL_Driver/Src/stm32f4xx_hal_can.c ****   *         the configuration information for the specified CAN.
 965:ThirdParty/STM32F4xx_HAL_Driver/Src/stm32f4xx_hal_can.c ****   * @param  TxMailboxes List of the Tx Mailboxes to abort.
 966:ThirdParty/STM32F4xx_HAL_Driver/Src/stm32f4xx_hal_can.c ****   *         This parameter can be any combination of @arg CAN_Tx_Mailboxes.
 967:ThirdParty/STM32F4xx_HAL_Driver/Src/stm32f4xx_hal_can.c ****   * @retval HAL status
 968:ThirdParty/STM32F4xx_HAL_Driver/Src/stm32f4xx_hal_can.c ****   */
 969:ThirdParty/STM32F4xx_HAL_Driver/Src/stm32f4xx_hal_can.c **** HAL_StatusTypeDef HAL_CAN_AbortTxRequest(CAN_HandleTypeDef *hcan, uint32_t TxMailboxes)
 970:ThirdParty/STM32F4xx_HAL_Driver/Src/stm32f4xx_hal_can.c **** {
 1320              		.loc 1 970 1 is_stmt 1 view -0
 1321              		.cfi_startproc
 1322              		@ args = 0, pretend = 0, frame = 0
 1323              		@ frame_needed = 0, uses_anonymous_args = 0
 1324              		@ link register save eliminated.
 971:ThirdParty/STM32F4xx_HAL_Driver/Src/stm32f4xx_hal_can.c ****   /* Check function parameters */
 972:ThirdParty/STM32F4xx_HAL_Driver/Src/stm32f4xx_hal_can.c ****   assert_param(IS_CAN_TX_MAILBOX_LIST(TxMailboxes));
 1325              		.loc 1 972 3 view .LVU408
 973:ThirdParty/STM32F4xx_HAL_Driver/Src/stm32f4xx_hal_can.c **** 
 974:ThirdParty/STM32F4xx_HAL_Driver/Src/stm32f4xx_hal_can.c ****   if ((hcan->State == HAL_CAN_STATE_READY) ||
 1326              		.loc 1 974 3 view .LVU409
 1327              		.loc 1 974 12 is_stmt 0 view .LVU410
 1328 0000 90F82030 		ldrb	r3, [r0, #32]	@ zero_extendqisi2
 1329 0004 DBB2     		uxtb	r3, r3
 1330              		.loc 1 974 6 view .LVU411
 1331 0006 012B     		cmp	r3, #1
 1332 0008 0AD0     		beq	.L110
 975:ThirdParty/STM32F4xx_HAL_Driver/Src/stm32f4xx_hal_can.c ****       (hcan->State == HAL_CAN_STATE_LISTENING))
 1333              		.loc 1 975 12 discriminator 1 view .LVU412
 1334 000a 90F82030 		ldrb	r3, [r0, #32]	@ zero_extendqisi2
 1335 000e DBB2     		uxtb	r3, r3
 974:ThirdParty/STM32F4xx_HAL_Driver/Src/stm32f4xx_hal_can.c ****       (hcan->State == HAL_CAN_STATE_LISTENING))
 1336              		.loc 1 974 44 discriminator 1 view .LVU413
ARM GAS  /tmp/cc6fvD8U.s 			page 46


 1337 0010 022B     		cmp	r3, #2
 1338 0012 05D0     		beq	.L110
 976:ThirdParty/STM32F4xx_HAL_Driver/Src/stm32f4xx_hal_can.c ****   {
 977:ThirdParty/STM32F4xx_HAL_Driver/Src/stm32f4xx_hal_can.c ****     /* Check Tx Mailbox 0 */
 978:ThirdParty/STM32F4xx_HAL_Driver/Src/stm32f4xx_hal_can.c ****     if ((TxMailboxes & CAN_TX_MAILBOX0) != RESET)
 979:ThirdParty/STM32F4xx_HAL_Driver/Src/stm32f4xx_hal_can.c ****     {
 980:ThirdParty/STM32F4xx_HAL_Driver/Src/stm32f4xx_hal_can.c ****       /* Add cancellation request for Tx Mailbox 0 */
 981:ThirdParty/STM32F4xx_HAL_Driver/Src/stm32f4xx_hal_can.c ****       SET_BIT(hcan->Instance->TSR, CAN_TSR_ABRQ0);
 982:ThirdParty/STM32F4xx_HAL_Driver/Src/stm32f4xx_hal_can.c ****     }
 983:ThirdParty/STM32F4xx_HAL_Driver/Src/stm32f4xx_hal_can.c **** 
 984:ThirdParty/STM32F4xx_HAL_Driver/Src/stm32f4xx_hal_can.c ****     /* Check Tx Mailbox 1 */
 985:ThirdParty/STM32F4xx_HAL_Driver/Src/stm32f4xx_hal_can.c ****     if ((TxMailboxes & CAN_TX_MAILBOX1) != RESET)
 986:ThirdParty/STM32F4xx_HAL_Driver/Src/stm32f4xx_hal_can.c ****     {
 987:ThirdParty/STM32F4xx_HAL_Driver/Src/stm32f4xx_hal_can.c ****       /* Add cancellation request for Tx Mailbox 1 */
 988:ThirdParty/STM32F4xx_HAL_Driver/Src/stm32f4xx_hal_can.c ****       SET_BIT(hcan->Instance->TSR, CAN_TSR_ABRQ1);
 989:ThirdParty/STM32F4xx_HAL_Driver/Src/stm32f4xx_hal_can.c ****     }
 990:ThirdParty/STM32F4xx_HAL_Driver/Src/stm32f4xx_hal_can.c **** 
 991:ThirdParty/STM32F4xx_HAL_Driver/Src/stm32f4xx_hal_can.c ****     /* Check Tx Mailbox 2 */
 992:ThirdParty/STM32F4xx_HAL_Driver/Src/stm32f4xx_hal_can.c ****     if ((TxMailboxes & CAN_TX_MAILBOX2) != RESET)
 993:ThirdParty/STM32F4xx_HAL_Driver/Src/stm32f4xx_hal_can.c ****     {
 994:ThirdParty/STM32F4xx_HAL_Driver/Src/stm32f4xx_hal_can.c ****       /* Add cancellation request for Tx Mailbox 2 */
 995:ThirdParty/STM32F4xx_HAL_Driver/Src/stm32f4xx_hal_can.c ****       SET_BIT(hcan->Instance->TSR, CAN_TSR_ABRQ2);
 996:ThirdParty/STM32F4xx_HAL_Driver/Src/stm32f4xx_hal_can.c ****     }
 997:ThirdParty/STM32F4xx_HAL_Driver/Src/stm32f4xx_hal_can.c **** 
 998:ThirdParty/STM32F4xx_HAL_Driver/Src/stm32f4xx_hal_can.c ****     /* Return function status */
 999:ThirdParty/STM32F4xx_HAL_Driver/Src/stm32f4xx_hal_can.c ****     return HAL_OK;
1000:ThirdParty/STM32F4xx_HAL_Driver/Src/stm32f4xx_hal_can.c ****   }
1001:ThirdParty/STM32F4xx_HAL_Driver/Src/stm32f4xx_hal_can.c ****   else
1002:ThirdParty/STM32F4xx_HAL_Driver/Src/stm32f4xx_hal_can.c ****   {
1003:ThirdParty/STM32F4xx_HAL_Driver/Src/stm32f4xx_hal_can.c ****     /* Update error code */
1004:ThirdParty/STM32F4xx_HAL_Driver/Src/stm32f4xx_hal_can.c ****     hcan->ErrorCode |= HAL_CAN_ERROR_NOT_INITIALIZED;
 1339              		.loc 1 1004 5 is_stmt 1 view .LVU414
 1340              		.loc 1 1004 21 is_stmt 0 view .LVU415
 1341 0014 436A     		ldr	r3, [r0, #36]
 1342 0016 43F48023 		orr	r3, r3, #262144
 1343 001a 4362     		str	r3, [r0, #36]
1005:ThirdParty/STM32F4xx_HAL_Driver/Src/stm32f4xx_hal_can.c **** 
1006:ThirdParty/STM32F4xx_HAL_Driver/Src/stm32f4xx_hal_can.c ****     return HAL_ERROR;
 1344              		.loc 1 1006 5 is_stmt 1 view .LVU416
 1345              		.loc 1 1006 12 is_stmt 0 view .LVU417
 1346 001c 0120     		movs	r0, #1
 1347              	.LVL76:
1007:ThirdParty/STM32F4xx_HAL_Driver/Src/stm32f4xx_hal_can.c ****   }
1008:ThirdParty/STM32F4xx_HAL_Driver/Src/stm32f4xx_hal_can.c **** }
 1348              		.loc 1 1008 1 view .LVU418
 1349 001e 7047     		bx	lr
 1350              	.LVL77:
 1351              	.L110:
 978:ThirdParty/STM32F4xx_HAL_Driver/Src/stm32f4xx_hal_can.c ****     {
 1352              		.loc 1 978 5 is_stmt 1 view .LVU419
 978:ThirdParty/STM32F4xx_HAL_Driver/Src/stm32f4xx_hal_can.c ****     {
 1353              		.loc 1 978 8 is_stmt 0 view .LVU420
 1354 0020 11F0010F 		tst	r1, #1
 1355 0024 04D0     		beq	.L112
 981:ThirdParty/STM32F4xx_HAL_Driver/Src/stm32f4xx_hal_can.c ****     }
 1356              		.loc 1 981 7 is_stmt 1 view .LVU421
 1357 0026 0268     		ldr	r2, [r0]
ARM GAS  /tmp/cc6fvD8U.s 			page 47


 1358 0028 9368     		ldr	r3, [r2, #8]
 1359 002a 43F08003 		orr	r3, r3, #128
 1360 002e 9360     		str	r3, [r2, #8]
 1361              	.L112:
 985:ThirdParty/STM32F4xx_HAL_Driver/Src/stm32f4xx_hal_can.c ****     {
 1362              		.loc 1 985 5 view .LVU422
 985:ThirdParty/STM32F4xx_HAL_Driver/Src/stm32f4xx_hal_can.c ****     {
 1363              		.loc 1 985 8 is_stmt 0 view .LVU423
 1364 0030 11F0020F 		tst	r1, #2
 1365 0034 04D0     		beq	.L113
 988:ThirdParty/STM32F4xx_HAL_Driver/Src/stm32f4xx_hal_can.c ****     }
 1366              		.loc 1 988 7 is_stmt 1 view .LVU424
 1367 0036 0268     		ldr	r2, [r0]
 1368 0038 9368     		ldr	r3, [r2, #8]
 1369 003a 43F40043 		orr	r3, r3, #32768
 1370 003e 9360     		str	r3, [r2, #8]
 1371              	.L113:
 992:ThirdParty/STM32F4xx_HAL_Driver/Src/stm32f4xx_hal_can.c ****     {
 1372              		.loc 1 992 5 view .LVU425
 992:ThirdParty/STM32F4xx_HAL_Driver/Src/stm32f4xx_hal_can.c ****     {
 1373              		.loc 1 992 8 is_stmt 0 view .LVU426
 1374 0040 11F0040F 		tst	r1, #4
 1375 0044 04D0     		beq	.L114
 995:ThirdParty/STM32F4xx_HAL_Driver/Src/stm32f4xx_hal_can.c ****     }
 1376              		.loc 1 995 7 is_stmt 1 view .LVU427
 1377 0046 0268     		ldr	r2, [r0]
 1378 0048 9368     		ldr	r3, [r2, #8]
 1379 004a 43F40003 		orr	r3, r3, #8388608
 1380 004e 9360     		str	r3, [r2, #8]
 1381              	.L114:
 999:ThirdParty/STM32F4xx_HAL_Driver/Src/stm32f4xx_hal_can.c ****   }
 1382              		.loc 1 999 5 view .LVU428
 999:ThirdParty/STM32F4xx_HAL_Driver/Src/stm32f4xx_hal_can.c ****   }
 1383              		.loc 1 999 12 is_stmt 0 view .LVU429
 1384 0050 0020     		movs	r0, #0
 1385              	.LVL78:
 999:ThirdParty/STM32F4xx_HAL_Driver/Src/stm32f4xx_hal_can.c ****   }
 1386              		.loc 1 999 12 view .LVU430
 1387 0052 7047     		bx	lr
 1388              		.cfi_endproc
 1389              	.LFE144:
 1391              		.section	.text.HAL_CAN_GetTxMailboxesFreeLevel,"ax",%progbits
 1392              		.align	1
 1393              		.global	HAL_CAN_GetTxMailboxesFreeLevel
 1394              		.syntax unified
 1395              		.thumb
 1396              		.thumb_func
 1398              	HAL_CAN_GetTxMailboxesFreeLevel:
 1399              	.LVL79:
 1400              	.LFB145:
1009:ThirdParty/STM32F4xx_HAL_Driver/Src/stm32f4xx_hal_can.c **** 
1010:ThirdParty/STM32F4xx_HAL_Driver/Src/stm32f4xx_hal_can.c **** /**
1011:ThirdParty/STM32F4xx_HAL_Driver/Src/stm32f4xx_hal_can.c ****   * @brief  Return Tx Mailboxes free level: number of free Tx Mailboxes.
1012:ThirdParty/STM32F4xx_HAL_Driver/Src/stm32f4xx_hal_can.c ****   * @param  hcan pointer to a CAN_HandleTypeDef structure that contains
1013:ThirdParty/STM32F4xx_HAL_Driver/Src/stm32f4xx_hal_can.c ****   *         the configuration information for the specified CAN.
1014:ThirdParty/STM32F4xx_HAL_Driver/Src/stm32f4xx_hal_can.c ****   * @retval Number of free Tx Mailboxes.
1015:ThirdParty/STM32F4xx_HAL_Driver/Src/stm32f4xx_hal_can.c ****   */
ARM GAS  /tmp/cc6fvD8U.s 			page 48


1016:ThirdParty/STM32F4xx_HAL_Driver/Src/stm32f4xx_hal_can.c **** uint32_t HAL_CAN_GetTxMailboxesFreeLevel(CAN_HandleTypeDef *hcan)
1017:ThirdParty/STM32F4xx_HAL_Driver/Src/stm32f4xx_hal_can.c **** {
 1401              		.loc 1 1017 1 is_stmt 1 view -0
 1402              		.cfi_startproc
 1403              		@ args = 0, pretend = 0, frame = 0
 1404              		@ frame_needed = 0, uses_anonymous_args = 0
 1405              		@ link register save eliminated.
1018:ThirdParty/STM32F4xx_HAL_Driver/Src/stm32f4xx_hal_can.c ****   uint32_t freelevel = 0U;
 1406              		.loc 1 1018 3 view .LVU432
1019:ThirdParty/STM32F4xx_HAL_Driver/Src/stm32f4xx_hal_can.c **** 
1020:ThirdParty/STM32F4xx_HAL_Driver/Src/stm32f4xx_hal_can.c ****   if ((hcan->State == HAL_CAN_STATE_READY) ||
 1407              		.loc 1 1020 3 view .LVU433
 1408              		.loc 1 1020 12 is_stmt 0 view .LVU434
 1409 0000 90F82030 		ldrb	r3, [r0, #32]	@ zero_extendqisi2
 1410 0004 DBB2     		uxtb	r3, r3
 1411              		.loc 1 1020 6 view .LVU435
 1412 0006 012B     		cmp	r3, #1
 1413 0008 06D0     		beq	.L117
1021:ThirdParty/STM32F4xx_HAL_Driver/Src/stm32f4xx_hal_can.c ****       (hcan->State == HAL_CAN_STATE_LISTENING))
 1414              		.loc 1 1021 12 discriminator 1 view .LVU436
 1415 000a 90F82030 		ldrb	r3, [r0, #32]	@ zero_extendqisi2
 1416 000e DBB2     		uxtb	r3, r3
1020:ThirdParty/STM32F4xx_HAL_Driver/Src/stm32f4xx_hal_can.c ****       (hcan->State == HAL_CAN_STATE_LISTENING))
 1417              		.loc 1 1020 44 discriminator 1 view .LVU437
 1418 0010 022B     		cmp	r3, #2
 1419 0012 01D0     		beq	.L117
1018:ThirdParty/STM32F4xx_HAL_Driver/Src/stm32f4xx_hal_can.c **** 
 1420              		.loc 1 1018 12 view .LVU438
 1421 0014 0020     		movs	r0, #0
 1422              	.LVL80:
1022:ThirdParty/STM32F4xx_HAL_Driver/Src/stm32f4xx_hal_can.c ****   {
1023:ThirdParty/STM32F4xx_HAL_Driver/Src/stm32f4xx_hal_can.c ****     /* Check Tx Mailbox 0 status */
1024:ThirdParty/STM32F4xx_HAL_Driver/Src/stm32f4xx_hal_can.c ****     if ((hcan->Instance->TSR & CAN_TSR_TME0) != RESET)
1025:ThirdParty/STM32F4xx_HAL_Driver/Src/stm32f4xx_hal_can.c ****     {
1026:ThirdParty/STM32F4xx_HAL_Driver/Src/stm32f4xx_hal_can.c ****       freelevel++;
1027:ThirdParty/STM32F4xx_HAL_Driver/Src/stm32f4xx_hal_can.c ****     }
1028:ThirdParty/STM32F4xx_HAL_Driver/Src/stm32f4xx_hal_can.c **** 
1029:ThirdParty/STM32F4xx_HAL_Driver/Src/stm32f4xx_hal_can.c ****     /* Check Tx Mailbox 1 status */
1030:ThirdParty/STM32F4xx_HAL_Driver/Src/stm32f4xx_hal_can.c ****     if ((hcan->Instance->TSR & CAN_TSR_TME1) != RESET)
1031:ThirdParty/STM32F4xx_HAL_Driver/Src/stm32f4xx_hal_can.c ****     {
1032:ThirdParty/STM32F4xx_HAL_Driver/Src/stm32f4xx_hal_can.c ****       freelevel++;
1033:ThirdParty/STM32F4xx_HAL_Driver/Src/stm32f4xx_hal_can.c ****     }
1034:ThirdParty/STM32F4xx_HAL_Driver/Src/stm32f4xx_hal_can.c **** 
1035:ThirdParty/STM32F4xx_HAL_Driver/Src/stm32f4xx_hal_can.c ****     /* Check Tx Mailbox 2 status */
1036:ThirdParty/STM32F4xx_HAL_Driver/Src/stm32f4xx_hal_can.c ****     if ((hcan->Instance->TSR & CAN_TSR_TME2) != RESET)
1037:ThirdParty/STM32F4xx_HAL_Driver/Src/stm32f4xx_hal_can.c ****     {
1038:ThirdParty/STM32F4xx_HAL_Driver/Src/stm32f4xx_hal_can.c ****       freelevel++;
1039:ThirdParty/STM32F4xx_HAL_Driver/Src/stm32f4xx_hal_can.c ****     }
1040:ThirdParty/STM32F4xx_HAL_Driver/Src/stm32f4xx_hal_can.c ****   }
1041:ThirdParty/STM32F4xx_HAL_Driver/Src/stm32f4xx_hal_can.c **** 
1042:ThirdParty/STM32F4xx_HAL_Driver/Src/stm32f4xx_hal_can.c ****   /* Return Tx Mailboxes free level */
1043:ThirdParty/STM32F4xx_HAL_Driver/Src/stm32f4xx_hal_can.c ****   return freelevel;
 1423              		.loc 1 1043 3 is_stmt 1 view .LVU439
 1424              	.L116:
1044:ThirdParty/STM32F4xx_HAL_Driver/Src/stm32f4xx_hal_can.c **** }
 1425              		.loc 1 1044 1 is_stmt 0 view .LVU440
 1426 0016 7047     		bx	lr
ARM GAS  /tmp/cc6fvD8U.s 			page 49


 1427              	.LVL81:
 1428              	.L117:
1024:ThirdParty/STM32F4xx_HAL_Driver/Src/stm32f4xx_hal_can.c ****     {
 1429              		.loc 1 1024 5 is_stmt 1 view .LVU441
1024:ThirdParty/STM32F4xx_HAL_Driver/Src/stm32f4xx_hal_can.c ****     {
 1430              		.loc 1 1024 14 is_stmt 0 view .LVU442
 1431 0018 0368     		ldr	r3, [r0]
1024:ThirdParty/STM32F4xx_HAL_Driver/Src/stm32f4xx_hal_can.c ****     {
 1432              		.loc 1 1024 24 view .LVU443
 1433 001a 9868     		ldr	r0, [r3, #8]
 1434              	.LVL82:
1024:ThirdParty/STM32F4xx_HAL_Driver/Src/stm32f4xx_hal_can.c ****     {
 1435              		.loc 1 1024 8 view .LVU444
 1436 001c 10F08060 		ands	r0, r0, #67108864
 1437 0020 00D0     		beq	.L119
1026:ThirdParty/STM32F4xx_HAL_Driver/Src/stm32f4xx_hal_can.c ****     }
 1438              		.loc 1 1026 16 view .LVU445
 1439 0022 0120     		movs	r0, #1
 1440              	.L119:
 1441              	.LVL83:
1030:ThirdParty/STM32F4xx_HAL_Driver/Src/stm32f4xx_hal_can.c ****     {
 1442              		.loc 1 1030 5 is_stmt 1 view .LVU446
1030:ThirdParty/STM32F4xx_HAL_Driver/Src/stm32f4xx_hal_can.c ****     {
 1443              		.loc 1 1030 24 is_stmt 0 view .LVU447
 1444 0024 9A68     		ldr	r2, [r3, #8]
1030:ThirdParty/STM32F4xx_HAL_Driver/Src/stm32f4xx_hal_can.c ****     {
 1445              		.loc 1 1030 8 view .LVU448
 1446 0026 12F0006F 		tst	r2, #134217728
 1447 002a 00D0     		beq	.L120
1032:ThirdParty/STM32F4xx_HAL_Driver/Src/stm32f4xx_hal_can.c ****     }
 1448              		.loc 1 1032 7 is_stmt 1 view .LVU449
1032:ThirdParty/STM32F4xx_HAL_Driver/Src/stm32f4xx_hal_can.c ****     }
 1449              		.loc 1 1032 16 is_stmt 0 view .LVU450
 1450 002c 0130     		adds	r0, r0, #1
 1451              	.LVL84:
 1452              	.L120:
1036:ThirdParty/STM32F4xx_HAL_Driver/Src/stm32f4xx_hal_can.c ****     {
 1453              		.loc 1 1036 5 is_stmt 1 view .LVU451
1036:ThirdParty/STM32F4xx_HAL_Driver/Src/stm32f4xx_hal_can.c ****     {
 1454              		.loc 1 1036 24 is_stmt 0 view .LVU452
 1455 002e 9B68     		ldr	r3, [r3, #8]
1036:ThirdParty/STM32F4xx_HAL_Driver/Src/stm32f4xx_hal_can.c ****     {
 1456              		.loc 1 1036 8 view .LVU453
 1457 0030 13F0805F 		tst	r3, #268435456
 1458 0034 EFD0     		beq	.L116
1038:ThirdParty/STM32F4xx_HAL_Driver/Src/stm32f4xx_hal_can.c ****     }
 1459              		.loc 1 1038 7 is_stmt 1 view .LVU454
1038:ThirdParty/STM32F4xx_HAL_Driver/Src/stm32f4xx_hal_can.c ****     }
 1460              		.loc 1 1038 16 is_stmt 0 view .LVU455
 1461 0036 0130     		adds	r0, r0, #1
 1462              	.LVL85:
1038:ThirdParty/STM32F4xx_HAL_Driver/Src/stm32f4xx_hal_can.c ****     }
 1463              		.loc 1 1038 16 view .LVU456
 1464 0038 7047     		bx	lr
 1465              		.cfi_endproc
 1466              	.LFE145:
 1468              		.section	.text.HAL_CAN_IsTxMessagePending,"ax",%progbits
ARM GAS  /tmp/cc6fvD8U.s 			page 50


 1469              		.align	1
 1470              		.global	HAL_CAN_IsTxMessagePending
 1471              		.syntax unified
 1472              		.thumb
 1473              		.thumb_func
 1475              	HAL_CAN_IsTxMessagePending:
 1476              	.LVL86:
 1477              	.LFB146:
1045:ThirdParty/STM32F4xx_HAL_Driver/Src/stm32f4xx_hal_can.c **** 
1046:ThirdParty/STM32F4xx_HAL_Driver/Src/stm32f4xx_hal_can.c **** /**
1047:ThirdParty/STM32F4xx_HAL_Driver/Src/stm32f4xx_hal_can.c ****   * @brief  Check if a transmission request is pending on the selected Tx
1048:ThirdParty/STM32F4xx_HAL_Driver/Src/stm32f4xx_hal_can.c ****   *         Mailboxes.
1049:ThirdParty/STM32F4xx_HAL_Driver/Src/stm32f4xx_hal_can.c ****   * @param  hcan pointer to an CAN_HandleTypeDef structure that contains
1050:ThirdParty/STM32F4xx_HAL_Driver/Src/stm32f4xx_hal_can.c ****   *         the configuration information for the specified CAN.
1051:ThirdParty/STM32F4xx_HAL_Driver/Src/stm32f4xx_hal_can.c ****   * @param  TxMailboxes List of Tx Mailboxes to check.
1052:ThirdParty/STM32F4xx_HAL_Driver/Src/stm32f4xx_hal_can.c ****   *         This parameter can be any combination of @arg CAN_Tx_Mailboxes.
1053:ThirdParty/STM32F4xx_HAL_Driver/Src/stm32f4xx_hal_can.c ****   * @retval Status
1054:ThirdParty/STM32F4xx_HAL_Driver/Src/stm32f4xx_hal_can.c ****   *          - 0 : No pending transmission request on any selected Tx Mailboxes.
1055:ThirdParty/STM32F4xx_HAL_Driver/Src/stm32f4xx_hal_can.c ****   *          - 1 : Pending transmission request on at least one of the selected
1056:ThirdParty/STM32F4xx_HAL_Driver/Src/stm32f4xx_hal_can.c ****   *                Tx Mailbox.
1057:ThirdParty/STM32F4xx_HAL_Driver/Src/stm32f4xx_hal_can.c ****   */
1058:ThirdParty/STM32F4xx_HAL_Driver/Src/stm32f4xx_hal_can.c **** uint32_t HAL_CAN_IsTxMessagePending(CAN_HandleTypeDef *hcan, uint32_t TxMailboxes)
1059:ThirdParty/STM32F4xx_HAL_Driver/Src/stm32f4xx_hal_can.c **** {
 1478              		.loc 1 1059 1 is_stmt 1 view -0
 1479              		.cfi_startproc
 1480              		@ args = 0, pretend = 0, frame = 0
 1481              		@ frame_needed = 0, uses_anonymous_args = 0
 1482              		@ link register save eliminated.
1060:ThirdParty/STM32F4xx_HAL_Driver/Src/stm32f4xx_hal_can.c ****   uint32_t status = 0U;
 1483              		.loc 1 1060 3 view .LVU458
1061:ThirdParty/STM32F4xx_HAL_Driver/Src/stm32f4xx_hal_can.c **** 
1062:ThirdParty/STM32F4xx_HAL_Driver/Src/stm32f4xx_hal_can.c ****   /* Check function parameters */
1063:ThirdParty/STM32F4xx_HAL_Driver/Src/stm32f4xx_hal_can.c ****   assert_param(IS_CAN_TX_MAILBOX_LIST(TxMailboxes));
 1484              		.loc 1 1063 3 view .LVU459
1064:ThirdParty/STM32F4xx_HAL_Driver/Src/stm32f4xx_hal_can.c **** 
1065:ThirdParty/STM32F4xx_HAL_Driver/Src/stm32f4xx_hal_can.c ****   if ((hcan->State == HAL_CAN_STATE_READY) ||
 1485              		.loc 1 1065 3 view .LVU460
 1486              		.loc 1 1065 12 is_stmt 0 view .LVU461
 1487 0000 90F82030 		ldrb	r3, [r0, #32]	@ zero_extendqisi2
 1488 0004 DBB2     		uxtb	r3, r3
 1489              		.loc 1 1065 6 view .LVU462
 1490 0006 012B     		cmp	r3, #1
 1491 0008 06D0     		beq	.L124
1066:ThirdParty/STM32F4xx_HAL_Driver/Src/stm32f4xx_hal_can.c ****       (hcan->State == HAL_CAN_STATE_LISTENING))
 1492              		.loc 1 1066 12 discriminator 1 view .LVU463
 1493 000a 90F82030 		ldrb	r3, [r0, #32]	@ zero_extendqisi2
 1494 000e DBB2     		uxtb	r3, r3
1065:ThirdParty/STM32F4xx_HAL_Driver/Src/stm32f4xx_hal_can.c ****       (hcan->State == HAL_CAN_STATE_LISTENING))
 1495              		.loc 1 1065 44 discriminator 1 view .LVU464
 1496 0010 022B     		cmp	r3, #2
 1497 0012 01D0     		beq	.L124
1060:ThirdParty/STM32F4xx_HAL_Driver/Src/stm32f4xx_hal_can.c **** 
 1498              		.loc 1 1060 12 view .LVU465
 1499 0014 0020     		movs	r0, #0
 1500              	.LVL87:
1060:ThirdParty/STM32F4xx_HAL_Driver/Src/stm32f4xx_hal_can.c **** 
 1501              		.loc 1 1060 12 view .LVU466
ARM GAS  /tmp/cc6fvD8U.s 			page 51


 1502 0016 7047     		bx	lr
 1503              	.LVL88:
 1504              	.L124:
1067:ThirdParty/STM32F4xx_HAL_Driver/Src/stm32f4xx_hal_can.c ****   {
1068:ThirdParty/STM32F4xx_HAL_Driver/Src/stm32f4xx_hal_can.c ****     /* Check pending transmission request on the selected Tx Mailboxes */
1069:ThirdParty/STM32F4xx_HAL_Driver/Src/stm32f4xx_hal_can.c ****     if ((hcan->Instance->TSR & (TxMailboxes << CAN_TSR_TME0_Pos)) != (TxMailboxes << CAN_TSR_TME0_P
 1505              		.loc 1 1069 5 is_stmt 1 view .LVU467
 1506              		.loc 1 1069 14 is_stmt 0 view .LVU468
 1507 0018 0368     		ldr	r3, [r0]
 1508              		.loc 1 1069 24 view .LVU469
 1509 001a 9B68     		ldr	r3, [r3, #8]
 1510              		.loc 1 1069 30 view .LVU470
 1511 001c 03EA8163 		and	r3, r3, r1, lsl #26
 1512              		.loc 1 1069 8 view .LVU471
 1513 0020 B3EB816F 		cmp	r3, r1, lsl #26
 1514 0024 01D0     		beq	.L128
1070:ThirdParty/STM32F4xx_HAL_Driver/Src/stm32f4xx_hal_can.c ****     {
1071:ThirdParty/STM32F4xx_HAL_Driver/Src/stm32f4xx_hal_can.c ****       status = 1U;
 1515              		.loc 1 1071 14 view .LVU472
 1516 0026 0120     		movs	r0, #1
 1517              	.LVL89:
1072:ThirdParty/STM32F4xx_HAL_Driver/Src/stm32f4xx_hal_can.c ****     }
1073:ThirdParty/STM32F4xx_HAL_Driver/Src/stm32f4xx_hal_can.c ****   }
1074:ThirdParty/STM32F4xx_HAL_Driver/Src/stm32f4xx_hal_can.c **** 
1075:ThirdParty/STM32F4xx_HAL_Driver/Src/stm32f4xx_hal_can.c ****   /* Return status */
1076:ThirdParty/STM32F4xx_HAL_Driver/Src/stm32f4xx_hal_can.c ****   return status;
 1518              		.loc 1 1076 3 is_stmt 1 view .LVU473
1077:ThirdParty/STM32F4xx_HAL_Driver/Src/stm32f4xx_hal_can.c **** }
 1519              		.loc 1 1077 1 is_stmt 0 view .LVU474
 1520 0028 7047     		bx	lr
 1521              	.LVL90:
 1522              	.L128:
1060:ThirdParty/STM32F4xx_HAL_Driver/Src/stm32f4xx_hal_can.c **** 
 1523              		.loc 1 1060 12 view .LVU475
 1524 002a 0020     		movs	r0, #0
 1525              	.LVL91:
1060:ThirdParty/STM32F4xx_HAL_Driver/Src/stm32f4xx_hal_can.c **** 
 1526              		.loc 1 1060 12 view .LVU476
 1527 002c 7047     		bx	lr
 1528              		.cfi_endproc
 1529              	.LFE146:
 1531              		.section	.text.HAL_CAN_GetTxTimestamp,"ax",%progbits
 1532              		.align	1
 1533              		.global	HAL_CAN_GetTxTimestamp
 1534              		.syntax unified
 1535              		.thumb
 1536              		.thumb_func
 1538              	HAL_CAN_GetTxTimestamp:
 1539              	.LVL92:
 1540              	.LFB147:
1078:ThirdParty/STM32F4xx_HAL_Driver/Src/stm32f4xx_hal_can.c **** 
1079:ThirdParty/STM32F4xx_HAL_Driver/Src/stm32f4xx_hal_can.c **** /**
1080:ThirdParty/STM32F4xx_HAL_Driver/Src/stm32f4xx_hal_can.c ****   * @brief  Return timestamp of Tx message sent, if time triggered communication
1081:ThirdParty/STM32F4xx_HAL_Driver/Src/stm32f4xx_hal_can.c ****             mode is enabled.
1082:ThirdParty/STM32F4xx_HAL_Driver/Src/stm32f4xx_hal_can.c ****   * @param  hcan pointer to a CAN_HandleTypeDef structure that contains
1083:ThirdParty/STM32F4xx_HAL_Driver/Src/stm32f4xx_hal_can.c ****   *         the configuration information for the specified CAN.
1084:ThirdParty/STM32F4xx_HAL_Driver/Src/stm32f4xx_hal_can.c ****   * @param  TxMailbox Tx Mailbox where the timestamp of message sent will be
ARM GAS  /tmp/cc6fvD8U.s 			page 52


1085:ThirdParty/STM32F4xx_HAL_Driver/Src/stm32f4xx_hal_can.c ****   *         read.
1086:ThirdParty/STM32F4xx_HAL_Driver/Src/stm32f4xx_hal_can.c ****   *         This parameter can be one value of @arg CAN_Tx_Mailboxes.
1087:ThirdParty/STM32F4xx_HAL_Driver/Src/stm32f4xx_hal_can.c ****   * @retval Timestamp of message sent from Tx Mailbox.
1088:ThirdParty/STM32F4xx_HAL_Driver/Src/stm32f4xx_hal_can.c ****   */
1089:ThirdParty/STM32F4xx_HAL_Driver/Src/stm32f4xx_hal_can.c **** uint32_t HAL_CAN_GetTxTimestamp(CAN_HandleTypeDef *hcan, uint32_t TxMailbox)
1090:ThirdParty/STM32F4xx_HAL_Driver/Src/stm32f4xx_hal_can.c **** {
 1541              		.loc 1 1090 1 is_stmt 1 view -0
 1542              		.cfi_startproc
 1543              		@ args = 0, pretend = 0, frame = 0
 1544              		@ frame_needed = 0, uses_anonymous_args = 0
 1545              		@ link register save eliminated.
1091:ThirdParty/STM32F4xx_HAL_Driver/Src/stm32f4xx_hal_can.c ****   uint32_t timestamp = 0U;
 1546              		.loc 1 1091 3 view .LVU478
1092:ThirdParty/STM32F4xx_HAL_Driver/Src/stm32f4xx_hal_can.c ****   uint32_t transmitmailbox;
 1547              		.loc 1 1092 3 view .LVU479
1093:ThirdParty/STM32F4xx_HAL_Driver/Src/stm32f4xx_hal_can.c **** 
1094:ThirdParty/STM32F4xx_HAL_Driver/Src/stm32f4xx_hal_can.c ****   /* Check function parameters */
1095:ThirdParty/STM32F4xx_HAL_Driver/Src/stm32f4xx_hal_can.c ****   assert_param(IS_CAN_TX_MAILBOX(TxMailbox));
 1548              		.loc 1 1095 3 view .LVU480
1096:ThirdParty/STM32F4xx_HAL_Driver/Src/stm32f4xx_hal_can.c **** 
1097:ThirdParty/STM32F4xx_HAL_Driver/Src/stm32f4xx_hal_can.c ****   if ((hcan->State == HAL_CAN_STATE_READY) ||
 1549              		.loc 1 1097 3 view .LVU481
 1550              		.loc 1 1097 12 is_stmt 0 view .LVU482
 1551 0000 90F82030 		ldrb	r3, [r0, #32]	@ zero_extendqisi2
 1552 0004 DBB2     		uxtb	r3, r3
 1553              		.loc 1 1097 6 view .LVU483
 1554 0006 012B     		cmp	r3, #1
 1555 0008 06D0     		beq	.L130
1098:ThirdParty/STM32F4xx_HAL_Driver/Src/stm32f4xx_hal_can.c ****       (hcan->State == HAL_CAN_STATE_LISTENING))
 1556              		.loc 1 1098 12 discriminator 1 view .LVU484
 1557 000a 90F82030 		ldrb	r3, [r0, #32]	@ zero_extendqisi2
 1558 000e DBB2     		uxtb	r3, r3
1097:ThirdParty/STM32F4xx_HAL_Driver/Src/stm32f4xx_hal_can.c ****       (hcan->State == HAL_CAN_STATE_LISTENING))
 1559              		.loc 1 1097 44 discriminator 1 view .LVU485
 1560 0010 022B     		cmp	r3, #2
 1561 0012 01D0     		beq	.L130
1091:ThirdParty/STM32F4xx_HAL_Driver/Src/stm32f4xx_hal_can.c ****   uint32_t transmitmailbox;
 1562              		.loc 1 1091 12 view .LVU486
 1563 0014 0020     		movs	r0, #0
 1564              	.LVL93:
1099:ThirdParty/STM32F4xx_HAL_Driver/Src/stm32f4xx_hal_can.c ****   {
1100:ThirdParty/STM32F4xx_HAL_Driver/Src/stm32f4xx_hal_can.c ****     /* Select the Tx mailbox */
1101:ThirdParty/STM32F4xx_HAL_Driver/Src/stm32f4xx_hal_can.c ****     transmitmailbox = POSITION_VAL(TxMailbox);
1102:ThirdParty/STM32F4xx_HAL_Driver/Src/stm32f4xx_hal_can.c **** 
1103:ThirdParty/STM32F4xx_HAL_Driver/Src/stm32f4xx_hal_can.c ****     /* Get timestamp */
1104:ThirdParty/STM32F4xx_HAL_Driver/Src/stm32f4xx_hal_can.c ****     timestamp = (hcan->Instance->sTxMailBox[transmitmailbox].TDTR & CAN_TDT0R_TIME) >> CAN_TDT0R_TI
1105:ThirdParty/STM32F4xx_HAL_Driver/Src/stm32f4xx_hal_can.c ****   }
1106:ThirdParty/STM32F4xx_HAL_Driver/Src/stm32f4xx_hal_can.c **** 
1107:ThirdParty/STM32F4xx_HAL_Driver/Src/stm32f4xx_hal_can.c ****   /* Return the timestamp */
1108:ThirdParty/STM32F4xx_HAL_Driver/Src/stm32f4xx_hal_can.c ****   return timestamp;
 1565              		.loc 1 1108 3 is_stmt 1 view .LVU487
1109:ThirdParty/STM32F4xx_HAL_Driver/Src/stm32f4xx_hal_can.c **** }
 1566              		.loc 1 1109 1 is_stmt 0 view .LVU488
 1567 0016 7047     		bx	lr
 1568              	.LVL94:
 1569              	.L130:
1101:ThirdParty/STM32F4xx_HAL_Driver/Src/stm32f4xx_hal_can.c **** 
ARM GAS  /tmp/cc6fvD8U.s 			page 53


 1570              		.loc 1 1101 5 is_stmt 1 view .LVU489
 1571              	.LBB4:
 1572              	.LBI4:
 1573              		.file 2 "ThirdParty/CMSIS/Include/cmsis_gcc.h"
   1:ThirdParty/CMSIS/Include/cmsis_gcc.h **** /**************************************************************************//**
   2:ThirdParty/CMSIS/Include/cmsis_gcc.h ****  * @file     cmsis_gcc.h
   3:ThirdParty/CMSIS/Include/cmsis_gcc.h ****  * @brief    CMSIS compiler GCC header file
   4:ThirdParty/CMSIS/Include/cmsis_gcc.h ****  * @version  V5.0.4
   5:ThirdParty/CMSIS/Include/cmsis_gcc.h ****  * @date     09. April 2018
   6:ThirdParty/CMSIS/Include/cmsis_gcc.h ****  ******************************************************************************/
   7:ThirdParty/CMSIS/Include/cmsis_gcc.h **** /*
   8:ThirdParty/CMSIS/Include/cmsis_gcc.h ****  * Copyright (c) 2009-2018 Arm Limited. All rights reserved.
   9:ThirdParty/CMSIS/Include/cmsis_gcc.h ****  *
  10:ThirdParty/CMSIS/Include/cmsis_gcc.h ****  * SPDX-License-Identifier: Apache-2.0
  11:ThirdParty/CMSIS/Include/cmsis_gcc.h ****  *
  12:ThirdParty/CMSIS/Include/cmsis_gcc.h ****  * Licensed under the Apache License, Version 2.0 (the License); you may
  13:ThirdParty/CMSIS/Include/cmsis_gcc.h ****  * not use this file except in compliance with the License.
  14:ThirdParty/CMSIS/Include/cmsis_gcc.h ****  * You may obtain a copy of the License at
  15:ThirdParty/CMSIS/Include/cmsis_gcc.h ****  *
  16:ThirdParty/CMSIS/Include/cmsis_gcc.h ****  * www.apache.org/licenses/LICENSE-2.0
  17:ThirdParty/CMSIS/Include/cmsis_gcc.h ****  *
  18:ThirdParty/CMSIS/Include/cmsis_gcc.h ****  * Unless required by applicable law or agreed to in writing, software
  19:ThirdParty/CMSIS/Include/cmsis_gcc.h ****  * distributed under the License is distributed on an AS IS BASIS, WITHOUT
  20:ThirdParty/CMSIS/Include/cmsis_gcc.h ****  * WARRANTIES OR CONDITIONS OF ANY KIND, either express or implied.
  21:ThirdParty/CMSIS/Include/cmsis_gcc.h ****  * See the License for the specific language governing permissions and
  22:ThirdParty/CMSIS/Include/cmsis_gcc.h ****  * limitations under the License.
  23:ThirdParty/CMSIS/Include/cmsis_gcc.h ****  */
  24:ThirdParty/CMSIS/Include/cmsis_gcc.h **** 
  25:ThirdParty/CMSIS/Include/cmsis_gcc.h **** #ifndef __CMSIS_GCC_H
  26:ThirdParty/CMSIS/Include/cmsis_gcc.h **** #define __CMSIS_GCC_H
  27:ThirdParty/CMSIS/Include/cmsis_gcc.h **** 
  28:ThirdParty/CMSIS/Include/cmsis_gcc.h **** /* ignore some GCC warnings */
  29:ThirdParty/CMSIS/Include/cmsis_gcc.h **** #pragma GCC diagnostic push
  30:ThirdParty/CMSIS/Include/cmsis_gcc.h **** #pragma GCC diagnostic ignored "-Wsign-conversion"
  31:ThirdParty/CMSIS/Include/cmsis_gcc.h **** #pragma GCC diagnostic ignored "-Wconversion"
  32:ThirdParty/CMSIS/Include/cmsis_gcc.h **** #pragma GCC diagnostic ignored "-Wunused-parameter"
  33:ThirdParty/CMSIS/Include/cmsis_gcc.h **** 
  34:ThirdParty/CMSIS/Include/cmsis_gcc.h **** /* Fallback for __has_builtin */
  35:ThirdParty/CMSIS/Include/cmsis_gcc.h **** #ifndef __has_builtin
  36:ThirdParty/CMSIS/Include/cmsis_gcc.h ****   #define __has_builtin(x) (0)
  37:ThirdParty/CMSIS/Include/cmsis_gcc.h **** #endif
  38:ThirdParty/CMSIS/Include/cmsis_gcc.h **** 
  39:ThirdParty/CMSIS/Include/cmsis_gcc.h **** /* CMSIS compiler specific defines */
  40:ThirdParty/CMSIS/Include/cmsis_gcc.h **** #ifndef   __ASM
  41:ThirdParty/CMSIS/Include/cmsis_gcc.h ****   #define __ASM                                  __asm
  42:ThirdParty/CMSIS/Include/cmsis_gcc.h **** #endif
  43:ThirdParty/CMSIS/Include/cmsis_gcc.h **** #ifndef   __INLINE
  44:ThirdParty/CMSIS/Include/cmsis_gcc.h ****   #define __INLINE                               inline
  45:ThirdParty/CMSIS/Include/cmsis_gcc.h **** #endif
  46:ThirdParty/CMSIS/Include/cmsis_gcc.h **** #ifndef   __STATIC_INLINE
  47:ThirdParty/CMSIS/Include/cmsis_gcc.h ****   #define __STATIC_INLINE                        static inline
  48:ThirdParty/CMSIS/Include/cmsis_gcc.h **** #endif
  49:ThirdParty/CMSIS/Include/cmsis_gcc.h **** #ifndef   __STATIC_FORCEINLINE                 
  50:ThirdParty/CMSIS/Include/cmsis_gcc.h ****   #define __STATIC_FORCEINLINE                   __attribute__((always_inline)) static inline
  51:ThirdParty/CMSIS/Include/cmsis_gcc.h **** #endif                                           
  52:ThirdParty/CMSIS/Include/cmsis_gcc.h **** #ifndef   __NO_RETURN
  53:ThirdParty/CMSIS/Include/cmsis_gcc.h ****   #define __NO_RETURN                            __attribute__((__noreturn__))
ARM GAS  /tmp/cc6fvD8U.s 			page 54


  54:ThirdParty/CMSIS/Include/cmsis_gcc.h **** #endif
  55:ThirdParty/CMSIS/Include/cmsis_gcc.h **** #ifndef   __USED
  56:ThirdParty/CMSIS/Include/cmsis_gcc.h ****   #define __USED                                 __attribute__((used))
  57:ThirdParty/CMSIS/Include/cmsis_gcc.h **** #endif
  58:ThirdParty/CMSIS/Include/cmsis_gcc.h **** #ifndef   __WEAK
  59:ThirdParty/CMSIS/Include/cmsis_gcc.h ****   #define __WEAK                                 __attribute__((weak))
  60:ThirdParty/CMSIS/Include/cmsis_gcc.h **** #endif
  61:ThirdParty/CMSIS/Include/cmsis_gcc.h **** #ifndef   __PACKED
  62:ThirdParty/CMSIS/Include/cmsis_gcc.h ****   #define __PACKED                               __attribute__((packed, aligned(1)))
  63:ThirdParty/CMSIS/Include/cmsis_gcc.h **** #endif
  64:ThirdParty/CMSIS/Include/cmsis_gcc.h **** #ifndef   __PACKED_STRUCT
  65:ThirdParty/CMSIS/Include/cmsis_gcc.h ****   #define __PACKED_STRUCT                        struct __attribute__((packed, aligned(1)))
  66:ThirdParty/CMSIS/Include/cmsis_gcc.h **** #endif
  67:ThirdParty/CMSIS/Include/cmsis_gcc.h **** #ifndef   __PACKED_UNION
  68:ThirdParty/CMSIS/Include/cmsis_gcc.h ****   #define __PACKED_UNION                         union __attribute__((packed, aligned(1)))
  69:ThirdParty/CMSIS/Include/cmsis_gcc.h **** #endif
  70:ThirdParty/CMSIS/Include/cmsis_gcc.h **** #ifndef   __UNALIGNED_UINT32        /* deprecated */
  71:ThirdParty/CMSIS/Include/cmsis_gcc.h ****   #pragma GCC diagnostic push
  72:ThirdParty/CMSIS/Include/cmsis_gcc.h ****   #pragma GCC diagnostic ignored "-Wpacked"
  73:ThirdParty/CMSIS/Include/cmsis_gcc.h ****   #pragma GCC diagnostic ignored "-Wattributes"
  74:ThirdParty/CMSIS/Include/cmsis_gcc.h ****   struct __attribute__((packed)) T_UINT32 { uint32_t v; };
  75:ThirdParty/CMSIS/Include/cmsis_gcc.h ****   #pragma GCC diagnostic pop
  76:ThirdParty/CMSIS/Include/cmsis_gcc.h ****   #define __UNALIGNED_UINT32(x)                  (((struct T_UINT32 *)(x))->v)
  77:ThirdParty/CMSIS/Include/cmsis_gcc.h **** #endif
  78:ThirdParty/CMSIS/Include/cmsis_gcc.h **** #ifndef   __UNALIGNED_UINT16_WRITE
  79:ThirdParty/CMSIS/Include/cmsis_gcc.h ****   #pragma GCC diagnostic push
  80:ThirdParty/CMSIS/Include/cmsis_gcc.h ****   #pragma GCC diagnostic ignored "-Wpacked"
  81:ThirdParty/CMSIS/Include/cmsis_gcc.h ****   #pragma GCC diagnostic ignored "-Wattributes"
  82:ThirdParty/CMSIS/Include/cmsis_gcc.h ****   __PACKED_STRUCT T_UINT16_WRITE { uint16_t v; };
  83:ThirdParty/CMSIS/Include/cmsis_gcc.h ****   #pragma GCC diagnostic pop
  84:ThirdParty/CMSIS/Include/cmsis_gcc.h ****   #define __UNALIGNED_UINT16_WRITE(addr, val)    (void)((((struct T_UINT16_WRITE *)(void *)(addr))-
  85:ThirdParty/CMSIS/Include/cmsis_gcc.h **** #endif
  86:ThirdParty/CMSIS/Include/cmsis_gcc.h **** #ifndef   __UNALIGNED_UINT16_READ
  87:ThirdParty/CMSIS/Include/cmsis_gcc.h ****   #pragma GCC diagnostic push
  88:ThirdParty/CMSIS/Include/cmsis_gcc.h ****   #pragma GCC diagnostic ignored "-Wpacked"
  89:ThirdParty/CMSIS/Include/cmsis_gcc.h ****   #pragma GCC diagnostic ignored "-Wattributes"
  90:ThirdParty/CMSIS/Include/cmsis_gcc.h ****   __PACKED_STRUCT T_UINT16_READ { uint16_t v; };
  91:ThirdParty/CMSIS/Include/cmsis_gcc.h ****   #pragma GCC diagnostic pop
  92:ThirdParty/CMSIS/Include/cmsis_gcc.h ****   #define __UNALIGNED_UINT16_READ(addr)          (((const struct T_UINT16_READ *)(const void *)(add
  93:ThirdParty/CMSIS/Include/cmsis_gcc.h **** #endif
  94:ThirdParty/CMSIS/Include/cmsis_gcc.h **** #ifndef   __UNALIGNED_UINT32_WRITE
  95:ThirdParty/CMSIS/Include/cmsis_gcc.h ****   #pragma GCC diagnostic push
  96:ThirdParty/CMSIS/Include/cmsis_gcc.h ****   #pragma GCC diagnostic ignored "-Wpacked"
  97:ThirdParty/CMSIS/Include/cmsis_gcc.h ****   #pragma GCC diagnostic ignored "-Wattributes"
  98:ThirdParty/CMSIS/Include/cmsis_gcc.h ****   __PACKED_STRUCT T_UINT32_WRITE { uint32_t v; };
  99:ThirdParty/CMSIS/Include/cmsis_gcc.h ****   #pragma GCC diagnostic pop
 100:ThirdParty/CMSIS/Include/cmsis_gcc.h ****   #define __UNALIGNED_UINT32_WRITE(addr, val)    (void)((((struct T_UINT32_WRITE *)(void *)(addr))-
 101:ThirdParty/CMSIS/Include/cmsis_gcc.h **** #endif
 102:ThirdParty/CMSIS/Include/cmsis_gcc.h **** #ifndef   __UNALIGNED_UINT32_READ
 103:ThirdParty/CMSIS/Include/cmsis_gcc.h ****   #pragma GCC diagnostic push
 104:ThirdParty/CMSIS/Include/cmsis_gcc.h ****   #pragma GCC diagnostic ignored "-Wpacked"
 105:ThirdParty/CMSIS/Include/cmsis_gcc.h ****   #pragma GCC diagnostic ignored "-Wattributes"
 106:ThirdParty/CMSIS/Include/cmsis_gcc.h ****   __PACKED_STRUCT T_UINT32_READ { uint32_t v; };
 107:ThirdParty/CMSIS/Include/cmsis_gcc.h ****   #pragma GCC diagnostic pop
 108:ThirdParty/CMSIS/Include/cmsis_gcc.h ****   #define __UNALIGNED_UINT32_READ(addr)          (((const struct T_UINT32_READ *)(const void *)(add
 109:ThirdParty/CMSIS/Include/cmsis_gcc.h **** #endif
 110:ThirdParty/CMSIS/Include/cmsis_gcc.h **** #ifndef   __ALIGNED
ARM GAS  /tmp/cc6fvD8U.s 			page 55


 111:ThirdParty/CMSIS/Include/cmsis_gcc.h ****   #define __ALIGNED(x)                           __attribute__((aligned(x)))
 112:ThirdParty/CMSIS/Include/cmsis_gcc.h **** #endif
 113:ThirdParty/CMSIS/Include/cmsis_gcc.h **** #ifndef   __RESTRICT
 114:ThirdParty/CMSIS/Include/cmsis_gcc.h ****   #define __RESTRICT                             __restrict
 115:ThirdParty/CMSIS/Include/cmsis_gcc.h **** #endif
 116:ThirdParty/CMSIS/Include/cmsis_gcc.h **** 
 117:ThirdParty/CMSIS/Include/cmsis_gcc.h **** 
 118:ThirdParty/CMSIS/Include/cmsis_gcc.h **** /* ###########################  Core Function Access  ########################### */
 119:ThirdParty/CMSIS/Include/cmsis_gcc.h **** /** \ingroup  CMSIS_Core_FunctionInterface
 120:ThirdParty/CMSIS/Include/cmsis_gcc.h ****     \defgroup CMSIS_Core_RegAccFunctions CMSIS Core Register Access Functions
 121:ThirdParty/CMSIS/Include/cmsis_gcc.h ****   @{
 122:ThirdParty/CMSIS/Include/cmsis_gcc.h ****  */
 123:ThirdParty/CMSIS/Include/cmsis_gcc.h **** 
 124:ThirdParty/CMSIS/Include/cmsis_gcc.h **** /**
 125:ThirdParty/CMSIS/Include/cmsis_gcc.h ****   \brief   Enable IRQ Interrupts
 126:ThirdParty/CMSIS/Include/cmsis_gcc.h ****   \details Enables IRQ interrupts by clearing the I-bit in the CPSR.
 127:ThirdParty/CMSIS/Include/cmsis_gcc.h ****            Can only be executed in Privileged modes.
 128:ThirdParty/CMSIS/Include/cmsis_gcc.h ****  */
 129:ThirdParty/CMSIS/Include/cmsis_gcc.h **** __STATIC_FORCEINLINE void __enable_irq(void)
 130:ThirdParty/CMSIS/Include/cmsis_gcc.h **** {
 131:ThirdParty/CMSIS/Include/cmsis_gcc.h ****   __ASM volatile ("cpsie i" : : : "memory");
 132:ThirdParty/CMSIS/Include/cmsis_gcc.h **** }
 133:ThirdParty/CMSIS/Include/cmsis_gcc.h **** 
 134:ThirdParty/CMSIS/Include/cmsis_gcc.h **** 
 135:ThirdParty/CMSIS/Include/cmsis_gcc.h **** /**
 136:ThirdParty/CMSIS/Include/cmsis_gcc.h ****   \brief   Disable IRQ Interrupts
 137:ThirdParty/CMSIS/Include/cmsis_gcc.h ****   \details Disables IRQ interrupts by setting the I-bit in the CPSR.
 138:ThirdParty/CMSIS/Include/cmsis_gcc.h ****            Can only be executed in Privileged modes.
 139:ThirdParty/CMSIS/Include/cmsis_gcc.h ****  */
 140:ThirdParty/CMSIS/Include/cmsis_gcc.h **** __STATIC_FORCEINLINE void __disable_irq(void)
 141:ThirdParty/CMSIS/Include/cmsis_gcc.h **** {
 142:ThirdParty/CMSIS/Include/cmsis_gcc.h ****   __ASM volatile ("cpsid i" : : : "memory");
 143:ThirdParty/CMSIS/Include/cmsis_gcc.h **** }
 144:ThirdParty/CMSIS/Include/cmsis_gcc.h **** 
 145:ThirdParty/CMSIS/Include/cmsis_gcc.h **** 
 146:ThirdParty/CMSIS/Include/cmsis_gcc.h **** /**
 147:ThirdParty/CMSIS/Include/cmsis_gcc.h ****   \brief   Get Control Register
 148:ThirdParty/CMSIS/Include/cmsis_gcc.h ****   \details Returns the content of the Control Register.
 149:ThirdParty/CMSIS/Include/cmsis_gcc.h ****   \return               Control Register value
 150:ThirdParty/CMSIS/Include/cmsis_gcc.h ****  */
 151:ThirdParty/CMSIS/Include/cmsis_gcc.h **** __STATIC_FORCEINLINE uint32_t __get_CONTROL(void)
 152:ThirdParty/CMSIS/Include/cmsis_gcc.h **** {
 153:ThirdParty/CMSIS/Include/cmsis_gcc.h ****   uint32_t result;
 154:ThirdParty/CMSIS/Include/cmsis_gcc.h **** 
 155:ThirdParty/CMSIS/Include/cmsis_gcc.h ****   __ASM volatile ("MRS %0, control" : "=r" (result) );
 156:ThirdParty/CMSIS/Include/cmsis_gcc.h ****   return(result);
 157:ThirdParty/CMSIS/Include/cmsis_gcc.h **** }
 158:ThirdParty/CMSIS/Include/cmsis_gcc.h **** 
 159:ThirdParty/CMSIS/Include/cmsis_gcc.h **** 
 160:ThirdParty/CMSIS/Include/cmsis_gcc.h **** #if (defined (__ARM_FEATURE_CMSE ) && (__ARM_FEATURE_CMSE == 3))
 161:ThirdParty/CMSIS/Include/cmsis_gcc.h **** /**
 162:ThirdParty/CMSIS/Include/cmsis_gcc.h ****   \brief   Get Control Register (non-secure)
 163:ThirdParty/CMSIS/Include/cmsis_gcc.h ****   \details Returns the content of the non-secure Control Register when in secure mode.
 164:ThirdParty/CMSIS/Include/cmsis_gcc.h ****   \return               non-secure Control Register value
 165:ThirdParty/CMSIS/Include/cmsis_gcc.h ****  */
 166:ThirdParty/CMSIS/Include/cmsis_gcc.h **** __STATIC_FORCEINLINE uint32_t __TZ_get_CONTROL_NS(void)
 167:ThirdParty/CMSIS/Include/cmsis_gcc.h **** {
ARM GAS  /tmp/cc6fvD8U.s 			page 56


 168:ThirdParty/CMSIS/Include/cmsis_gcc.h ****   uint32_t result;
 169:ThirdParty/CMSIS/Include/cmsis_gcc.h **** 
 170:ThirdParty/CMSIS/Include/cmsis_gcc.h ****   __ASM volatile ("MRS %0, control_ns" : "=r" (result) );
 171:ThirdParty/CMSIS/Include/cmsis_gcc.h ****   return(result);
 172:ThirdParty/CMSIS/Include/cmsis_gcc.h **** }
 173:ThirdParty/CMSIS/Include/cmsis_gcc.h **** #endif
 174:ThirdParty/CMSIS/Include/cmsis_gcc.h **** 
 175:ThirdParty/CMSIS/Include/cmsis_gcc.h **** 
 176:ThirdParty/CMSIS/Include/cmsis_gcc.h **** /**
 177:ThirdParty/CMSIS/Include/cmsis_gcc.h ****   \brief   Set Control Register
 178:ThirdParty/CMSIS/Include/cmsis_gcc.h ****   \details Writes the given value to the Control Register.
 179:ThirdParty/CMSIS/Include/cmsis_gcc.h ****   \param [in]    control  Control Register value to set
 180:ThirdParty/CMSIS/Include/cmsis_gcc.h ****  */
 181:ThirdParty/CMSIS/Include/cmsis_gcc.h **** __STATIC_FORCEINLINE void __set_CONTROL(uint32_t control)
 182:ThirdParty/CMSIS/Include/cmsis_gcc.h **** {
 183:ThirdParty/CMSIS/Include/cmsis_gcc.h ****   __ASM volatile ("MSR control, %0" : : "r" (control) : "memory");
 184:ThirdParty/CMSIS/Include/cmsis_gcc.h **** }
 185:ThirdParty/CMSIS/Include/cmsis_gcc.h **** 
 186:ThirdParty/CMSIS/Include/cmsis_gcc.h **** 
 187:ThirdParty/CMSIS/Include/cmsis_gcc.h **** #if (defined (__ARM_FEATURE_CMSE ) && (__ARM_FEATURE_CMSE == 3))
 188:ThirdParty/CMSIS/Include/cmsis_gcc.h **** /**
 189:ThirdParty/CMSIS/Include/cmsis_gcc.h ****   \brief   Set Control Register (non-secure)
 190:ThirdParty/CMSIS/Include/cmsis_gcc.h ****   \details Writes the given value to the non-secure Control Register when in secure state.
 191:ThirdParty/CMSIS/Include/cmsis_gcc.h ****   \param [in]    control  Control Register value to set
 192:ThirdParty/CMSIS/Include/cmsis_gcc.h ****  */
 193:ThirdParty/CMSIS/Include/cmsis_gcc.h **** __STATIC_FORCEINLINE void __TZ_set_CONTROL_NS(uint32_t control)
 194:ThirdParty/CMSIS/Include/cmsis_gcc.h **** {
 195:ThirdParty/CMSIS/Include/cmsis_gcc.h ****   __ASM volatile ("MSR control_ns, %0" : : "r" (control) : "memory");
 196:ThirdParty/CMSIS/Include/cmsis_gcc.h **** }
 197:ThirdParty/CMSIS/Include/cmsis_gcc.h **** #endif
 198:ThirdParty/CMSIS/Include/cmsis_gcc.h **** 
 199:ThirdParty/CMSIS/Include/cmsis_gcc.h **** 
 200:ThirdParty/CMSIS/Include/cmsis_gcc.h **** /**
 201:ThirdParty/CMSIS/Include/cmsis_gcc.h ****   \brief   Get IPSR Register
 202:ThirdParty/CMSIS/Include/cmsis_gcc.h ****   \details Returns the content of the IPSR Register.
 203:ThirdParty/CMSIS/Include/cmsis_gcc.h ****   \return               IPSR Register value
 204:ThirdParty/CMSIS/Include/cmsis_gcc.h ****  */
 205:ThirdParty/CMSIS/Include/cmsis_gcc.h **** __STATIC_FORCEINLINE uint32_t __get_IPSR(void)
 206:ThirdParty/CMSIS/Include/cmsis_gcc.h **** {
 207:ThirdParty/CMSIS/Include/cmsis_gcc.h ****   uint32_t result;
 208:ThirdParty/CMSIS/Include/cmsis_gcc.h **** 
 209:ThirdParty/CMSIS/Include/cmsis_gcc.h ****   __ASM volatile ("MRS %0, ipsr" : "=r" (result) );
 210:ThirdParty/CMSIS/Include/cmsis_gcc.h ****   return(result);
 211:ThirdParty/CMSIS/Include/cmsis_gcc.h **** }
 212:ThirdParty/CMSIS/Include/cmsis_gcc.h **** 
 213:ThirdParty/CMSIS/Include/cmsis_gcc.h **** 
 214:ThirdParty/CMSIS/Include/cmsis_gcc.h **** /**
 215:ThirdParty/CMSIS/Include/cmsis_gcc.h ****   \brief   Get APSR Register
 216:ThirdParty/CMSIS/Include/cmsis_gcc.h ****   \details Returns the content of the APSR Register.
 217:ThirdParty/CMSIS/Include/cmsis_gcc.h ****   \return               APSR Register value
 218:ThirdParty/CMSIS/Include/cmsis_gcc.h ****  */
 219:ThirdParty/CMSIS/Include/cmsis_gcc.h **** __STATIC_FORCEINLINE uint32_t __get_APSR(void)
 220:ThirdParty/CMSIS/Include/cmsis_gcc.h **** {
 221:ThirdParty/CMSIS/Include/cmsis_gcc.h ****   uint32_t result;
 222:ThirdParty/CMSIS/Include/cmsis_gcc.h **** 
 223:ThirdParty/CMSIS/Include/cmsis_gcc.h ****   __ASM volatile ("MRS %0, apsr" : "=r" (result) );
 224:ThirdParty/CMSIS/Include/cmsis_gcc.h ****   return(result);
ARM GAS  /tmp/cc6fvD8U.s 			page 57


 225:ThirdParty/CMSIS/Include/cmsis_gcc.h **** }
 226:ThirdParty/CMSIS/Include/cmsis_gcc.h **** 
 227:ThirdParty/CMSIS/Include/cmsis_gcc.h **** 
 228:ThirdParty/CMSIS/Include/cmsis_gcc.h **** /**
 229:ThirdParty/CMSIS/Include/cmsis_gcc.h ****   \brief   Get xPSR Register
 230:ThirdParty/CMSIS/Include/cmsis_gcc.h ****   \details Returns the content of the xPSR Register.
 231:ThirdParty/CMSIS/Include/cmsis_gcc.h ****   \return               xPSR Register value
 232:ThirdParty/CMSIS/Include/cmsis_gcc.h ****  */
 233:ThirdParty/CMSIS/Include/cmsis_gcc.h **** __STATIC_FORCEINLINE uint32_t __get_xPSR(void)
 234:ThirdParty/CMSIS/Include/cmsis_gcc.h **** {
 235:ThirdParty/CMSIS/Include/cmsis_gcc.h ****   uint32_t result;
 236:ThirdParty/CMSIS/Include/cmsis_gcc.h **** 
 237:ThirdParty/CMSIS/Include/cmsis_gcc.h ****   __ASM volatile ("MRS %0, xpsr" : "=r" (result) );
 238:ThirdParty/CMSIS/Include/cmsis_gcc.h ****   return(result);
 239:ThirdParty/CMSIS/Include/cmsis_gcc.h **** }
 240:ThirdParty/CMSIS/Include/cmsis_gcc.h **** 
 241:ThirdParty/CMSIS/Include/cmsis_gcc.h **** 
 242:ThirdParty/CMSIS/Include/cmsis_gcc.h **** /**
 243:ThirdParty/CMSIS/Include/cmsis_gcc.h ****   \brief   Get Process Stack Pointer
 244:ThirdParty/CMSIS/Include/cmsis_gcc.h ****   \details Returns the current value of the Process Stack Pointer (PSP).
 245:ThirdParty/CMSIS/Include/cmsis_gcc.h ****   \return               PSP Register value
 246:ThirdParty/CMSIS/Include/cmsis_gcc.h ****  */
 247:ThirdParty/CMSIS/Include/cmsis_gcc.h **** __STATIC_FORCEINLINE uint32_t __get_PSP(void)
 248:ThirdParty/CMSIS/Include/cmsis_gcc.h **** {
 249:ThirdParty/CMSIS/Include/cmsis_gcc.h ****   uint32_t result;
 250:ThirdParty/CMSIS/Include/cmsis_gcc.h **** 
 251:ThirdParty/CMSIS/Include/cmsis_gcc.h ****   __ASM volatile ("MRS %0, psp"  : "=r" (result) );
 252:ThirdParty/CMSIS/Include/cmsis_gcc.h ****   return(result);
 253:ThirdParty/CMSIS/Include/cmsis_gcc.h **** }
 254:ThirdParty/CMSIS/Include/cmsis_gcc.h **** 
 255:ThirdParty/CMSIS/Include/cmsis_gcc.h **** 
 256:ThirdParty/CMSIS/Include/cmsis_gcc.h **** #if (defined (__ARM_FEATURE_CMSE ) && (__ARM_FEATURE_CMSE == 3))
 257:ThirdParty/CMSIS/Include/cmsis_gcc.h **** /**
 258:ThirdParty/CMSIS/Include/cmsis_gcc.h ****   \brief   Get Process Stack Pointer (non-secure)
 259:ThirdParty/CMSIS/Include/cmsis_gcc.h ****   \details Returns the current value of the non-secure Process Stack Pointer (PSP) when in secure s
 260:ThirdParty/CMSIS/Include/cmsis_gcc.h ****   \return               PSP Register value
 261:ThirdParty/CMSIS/Include/cmsis_gcc.h ****  */
 262:ThirdParty/CMSIS/Include/cmsis_gcc.h **** __STATIC_FORCEINLINE uint32_t __TZ_get_PSP_NS(void)
 263:ThirdParty/CMSIS/Include/cmsis_gcc.h **** {
 264:ThirdParty/CMSIS/Include/cmsis_gcc.h ****   uint32_t result;
 265:ThirdParty/CMSIS/Include/cmsis_gcc.h **** 
 266:ThirdParty/CMSIS/Include/cmsis_gcc.h ****   __ASM volatile ("MRS %0, psp_ns"  : "=r" (result) );
 267:ThirdParty/CMSIS/Include/cmsis_gcc.h ****   return(result);
 268:ThirdParty/CMSIS/Include/cmsis_gcc.h **** }
 269:ThirdParty/CMSIS/Include/cmsis_gcc.h **** #endif
 270:ThirdParty/CMSIS/Include/cmsis_gcc.h **** 
 271:ThirdParty/CMSIS/Include/cmsis_gcc.h **** 
 272:ThirdParty/CMSIS/Include/cmsis_gcc.h **** /**
 273:ThirdParty/CMSIS/Include/cmsis_gcc.h ****   \brief   Set Process Stack Pointer
 274:ThirdParty/CMSIS/Include/cmsis_gcc.h ****   \details Assigns the given value to the Process Stack Pointer (PSP).
 275:ThirdParty/CMSIS/Include/cmsis_gcc.h ****   \param [in]    topOfProcStack  Process Stack Pointer value to set
 276:ThirdParty/CMSIS/Include/cmsis_gcc.h ****  */
 277:ThirdParty/CMSIS/Include/cmsis_gcc.h **** __STATIC_FORCEINLINE void __set_PSP(uint32_t topOfProcStack)
 278:ThirdParty/CMSIS/Include/cmsis_gcc.h **** {
 279:ThirdParty/CMSIS/Include/cmsis_gcc.h ****   __ASM volatile ("MSR psp, %0" : : "r" (topOfProcStack) : );
 280:ThirdParty/CMSIS/Include/cmsis_gcc.h **** }
 281:ThirdParty/CMSIS/Include/cmsis_gcc.h **** 
ARM GAS  /tmp/cc6fvD8U.s 			page 58


 282:ThirdParty/CMSIS/Include/cmsis_gcc.h **** 
 283:ThirdParty/CMSIS/Include/cmsis_gcc.h **** #if (defined (__ARM_FEATURE_CMSE ) && (__ARM_FEATURE_CMSE == 3))
 284:ThirdParty/CMSIS/Include/cmsis_gcc.h **** /**
 285:ThirdParty/CMSIS/Include/cmsis_gcc.h ****   \brief   Set Process Stack Pointer (non-secure)
 286:ThirdParty/CMSIS/Include/cmsis_gcc.h ****   \details Assigns the given value to the non-secure Process Stack Pointer (PSP) when in secure sta
 287:ThirdParty/CMSIS/Include/cmsis_gcc.h ****   \param [in]    topOfProcStack  Process Stack Pointer value to set
 288:ThirdParty/CMSIS/Include/cmsis_gcc.h ****  */
 289:ThirdParty/CMSIS/Include/cmsis_gcc.h **** __STATIC_FORCEINLINE void __TZ_set_PSP_NS(uint32_t topOfProcStack)
 290:ThirdParty/CMSIS/Include/cmsis_gcc.h **** {
 291:ThirdParty/CMSIS/Include/cmsis_gcc.h ****   __ASM volatile ("MSR psp_ns, %0" : : "r" (topOfProcStack) : );
 292:ThirdParty/CMSIS/Include/cmsis_gcc.h **** }
 293:ThirdParty/CMSIS/Include/cmsis_gcc.h **** #endif
 294:ThirdParty/CMSIS/Include/cmsis_gcc.h **** 
 295:ThirdParty/CMSIS/Include/cmsis_gcc.h **** 
 296:ThirdParty/CMSIS/Include/cmsis_gcc.h **** /**
 297:ThirdParty/CMSIS/Include/cmsis_gcc.h ****   \brief   Get Main Stack Pointer
 298:ThirdParty/CMSIS/Include/cmsis_gcc.h ****   \details Returns the current value of the Main Stack Pointer (MSP).
 299:ThirdParty/CMSIS/Include/cmsis_gcc.h ****   \return               MSP Register value
 300:ThirdParty/CMSIS/Include/cmsis_gcc.h ****  */
 301:ThirdParty/CMSIS/Include/cmsis_gcc.h **** __STATIC_FORCEINLINE uint32_t __get_MSP(void)
 302:ThirdParty/CMSIS/Include/cmsis_gcc.h **** {
 303:ThirdParty/CMSIS/Include/cmsis_gcc.h ****   uint32_t result;
 304:ThirdParty/CMSIS/Include/cmsis_gcc.h **** 
 305:ThirdParty/CMSIS/Include/cmsis_gcc.h ****   __ASM volatile ("MRS %0, msp" : "=r" (result) );
 306:ThirdParty/CMSIS/Include/cmsis_gcc.h ****   return(result);
 307:ThirdParty/CMSIS/Include/cmsis_gcc.h **** }
 308:ThirdParty/CMSIS/Include/cmsis_gcc.h **** 
 309:ThirdParty/CMSIS/Include/cmsis_gcc.h **** 
 310:ThirdParty/CMSIS/Include/cmsis_gcc.h **** #if (defined (__ARM_FEATURE_CMSE ) && (__ARM_FEATURE_CMSE == 3))
 311:ThirdParty/CMSIS/Include/cmsis_gcc.h **** /**
 312:ThirdParty/CMSIS/Include/cmsis_gcc.h ****   \brief   Get Main Stack Pointer (non-secure)
 313:ThirdParty/CMSIS/Include/cmsis_gcc.h ****   \details Returns the current value of the non-secure Main Stack Pointer (MSP) when in secure stat
 314:ThirdParty/CMSIS/Include/cmsis_gcc.h ****   \return               MSP Register value
 315:ThirdParty/CMSIS/Include/cmsis_gcc.h ****  */
 316:ThirdParty/CMSIS/Include/cmsis_gcc.h **** __STATIC_FORCEINLINE uint32_t __TZ_get_MSP_NS(void)
 317:ThirdParty/CMSIS/Include/cmsis_gcc.h **** {
 318:ThirdParty/CMSIS/Include/cmsis_gcc.h ****   uint32_t result;
 319:ThirdParty/CMSIS/Include/cmsis_gcc.h **** 
 320:ThirdParty/CMSIS/Include/cmsis_gcc.h ****   __ASM volatile ("MRS %0, msp_ns" : "=r" (result) );
 321:ThirdParty/CMSIS/Include/cmsis_gcc.h ****   return(result);
 322:ThirdParty/CMSIS/Include/cmsis_gcc.h **** }
 323:ThirdParty/CMSIS/Include/cmsis_gcc.h **** #endif
 324:ThirdParty/CMSIS/Include/cmsis_gcc.h **** 
 325:ThirdParty/CMSIS/Include/cmsis_gcc.h **** 
 326:ThirdParty/CMSIS/Include/cmsis_gcc.h **** /**
 327:ThirdParty/CMSIS/Include/cmsis_gcc.h ****   \brief   Set Main Stack Pointer
 328:ThirdParty/CMSIS/Include/cmsis_gcc.h ****   \details Assigns the given value to the Main Stack Pointer (MSP).
 329:ThirdParty/CMSIS/Include/cmsis_gcc.h ****   \param [in]    topOfMainStack  Main Stack Pointer value to set
 330:ThirdParty/CMSIS/Include/cmsis_gcc.h ****  */
 331:ThirdParty/CMSIS/Include/cmsis_gcc.h **** __STATIC_FORCEINLINE void __set_MSP(uint32_t topOfMainStack)
 332:ThirdParty/CMSIS/Include/cmsis_gcc.h **** {
 333:ThirdParty/CMSIS/Include/cmsis_gcc.h ****   __ASM volatile ("MSR msp, %0" : : "r" (topOfMainStack) : );
 334:ThirdParty/CMSIS/Include/cmsis_gcc.h **** }
 335:ThirdParty/CMSIS/Include/cmsis_gcc.h **** 
 336:ThirdParty/CMSIS/Include/cmsis_gcc.h **** 
 337:ThirdParty/CMSIS/Include/cmsis_gcc.h **** #if (defined (__ARM_FEATURE_CMSE ) && (__ARM_FEATURE_CMSE == 3))
 338:ThirdParty/CMSIS/Include/cmsis_gcc.h **** /**
ARM GAS  /tmp/cc6fvD8U.s 			page 59


 339:ThirdParty/CMSIS/Include/cmsis_gcc.h ****   \brief   Set Main Stack Pointer (non-secure)
 340:ThirdParty/CMSIS/Include/cmsis_gcc.h ****   \details Assigns the given value to the non-secure Main Stack Pointer (MSP) when in secure state.
 341:ThirdParty/CMSIS/Include/cmsis_gcc.h ****   \param [in]    topOfMainStack  Main Stack Pointer value to set
 342:ThirdParty/CMSIS/Include/cmsis_gcc.h ****  */
 343:ThirdParty/CMSIS/Include/cmsis_gcc.h **** __STATIC_FORCEINLINE void __TZ_set_MSP_NS(uint32_t topOfMainStack)
 344:ThirdParty/CMSIS/Include/cmsis_gcc.h **** {
 345:ThirdParty/CMSIS/Include/cmsis_gcc.h ****   __ASM volatile ("MSR msp_ns, %0" : : "r" (topOfMainStack) : );
 346:ThirdParty/CMSIS/Include/cmsis_gcc.h **** }
 347:ThirdParty/CMSIS/Include/cmsis_gcc.h **** #endif
 348:ThirdParty/CMSIS/Include/cmsis_gcc.h **** 
 349:ThirdParty/CMSIS/Include/cmsis_gcc.h **** 
 350:ThirdParty/CMSIS/Include/cmsis_gcc.h **** #if (defined (__ARM_FEATURE_CMSE ) && (__ARM_FEATURE_CMSE == 3))
 351:ThirdParty/CMSIS/Include/cmsis_gcc.h **** /**
 352:ThirdParty/CMSIS/Include/cmsis_gcc.h ****   \brief   Get Stack Pointer (non-secure)
 353:ThirdParty/CMSIS/Include/cmsis_gcc.h ****   \details Returns the current value of the non-secure Stack Pointer (SP) when in secure state.
 354:ThirdParty/CMSIS/Include/cmsis_gcc.h ****   \return               SP Register value
 355:ThirdParty/CMSIS/Include/cmsis_gcc.h ****  */
 356:ThirdParty/CMSIS/Include/cmsis_gcc.h **** __STATIC_FORCEINLINE uint32_t __TZ_get_SP_NS(void)
 357:ThirdParty/CMSIS/Include/cmsis_gcc.h **** {
 358:ThirdParty/CMSIS/Include/cmsis_gcc.h ****   uint32_t result;
 359:ThirdParty/CMSIS/Include/cmsis_gcc.h **** 
 360:ThirdParty/CMSIS/Include/cmsis_gcc.h ****   __ASM volatile ("MRS %0, sp_ns" : "=r" (result) );
 361:ThirdParty/CMSIS/Include/cmsis_gcc.h ****   return(result);
 362:ThirdParty/CMSIS/Include/cmsis_gcc.h **** }
 363:ThirdParty/CMSIS/Include/cmsis_gcc.h **** 
 364:ThirdParty/CMSIS/Include/cmsis_gcc.h **** 
 365:ThirdParty/CMSIS/Include/cmsis_gcc.h **** /**
 366:ThirdParty/CMSIS/Include/cmsis_gcc.h ****   \brief   Set Stack Pointer (non-secure)
 367:ThirdParty/CMSIS/Include/cmsis_gcc.h ****   \details Assigns the given value to the non-secure Stack Pointer (SP) when in secure state.
 368:ThirdParty/CMSIS/Include/cmsis_gcc.h ****   \param [in]    topOfStack  Stack Pointer value to set
 369:ThirdParty/CMSIS/Include/cmsis_gcc.h ****  */
 370:ThirdParty/CMSIS/Include/cmsis_gcc.h **** __STATIC_FORCEINLINE void __TZ_set_SP_NS(uint32_t topOfStack)
 371:ThirdParty/CMSIS/Include/cmsis_gcc.h **** {
 372:ThirdParty/CMSIS/Include/cmsis_gcc.h ****   __ASM volatile ("MSR sp_ns, %0" : : "r" (topOfStack) : );
 373:ThirdParty/CMSIS/Include/cmsis_gcc.h **** }
 374:ThirdParty/CMSIS/Include/cmsis_gcc.h **** #endif
 375:ThirdParty/CMSIS/Include/cmsis_gcc.h **** 
 376:ThirdParty/CMSIS/Include/cmsis_gcc.h **** 
 377:ThirdParty/CMSIS/Include/cmsis_gcc.h **** /**
 378:ThirdParty/CMSIS/Include/cmsis_gcc.h ****   \brief   Get Priority Mask
 379:ThirdParty/CMSIS/Include/cmsis_gcc.h ****   \details Returns the current state of the priority mask bit from the Priority Mask Register.
 380:ThirdParty/CMSIS/Include/cmsis_gcc.h ****   \return               Priority Mask value
 381:ThirdParty/CMSIS/Include/cmsis_gcc.h ****  */
 382:ThirdParty/CMSIS/Include/cmsis_gcc.h **** __STATIC_FORCEINLINE uint32_t __get_PRIMASK(void)
 383:ThirdParty/CMSIS/Include/cmsis_gcc.h **** {
 384:ThirdParty/CMSIS/Include/cmsis_gcc.h ****   uint32_t result;
 385:ThirdParty/CMSIS/Include/cmsis_gcc.h **** 
 386:ThirdParty/CMSIS/Include/cmsis_gcc.h ****   __ASM volatile ("MRS %0, primask" : "=r" (result) :: "memory");
 387:ThirdParty/CMSIS/Include/cmsis_gcc.h ****   return(result);
 388:ThirdParty/CMSIS/Include/cmsis_gcc.h **** }
 389:ThirdParty/CMSIS/Include/cmsis_gcc.h **** 
 390:ThirdParty/CMSIS/Include/cmsis_gcc.h **** 
 391:ThirdParty/CMSIS/Include/cmsis_gcc.h **** #if (defined (__ARM_FEATURE_CMSE ) && (__ARM_FEATURE_CMSE == 3))
 392:ThirdParty/CMSIS/Include/cmsis_gcc.h **** /**
 393:ThirdParty/CMSIS/Include/cmsis_gcc.h ****   \brief   Get Priority Mask (non-secure)
 394:ThirdParty/CMSIS/Include/cmsis_gcc.h ****   \details Returns the current state of the non-secure priority mask bit from the Priority Mask Reg
 395:ThirdParty/CMSIS/Include/cmsis_gcc.h ****   \return               Priority Mask value
ARM GAS  /tmp/cc6fvD8U.s 			page 60


 396:ThirdParty/CMSIS/Include/cmsis_gcc.h ****  */
 397:ThirdParty/CMSIS/Include/cmsis_gcc.h **** __STATIC_FORCEINLINE uint32_t __TZ_get_PRIMASK_NS(void)
 398:ThirdParty/CMSIS/Include/cmsis_gcc.h **** {
 399:ThirdParty/CMSIS/Include/cmsis_gcc.h ****   uint32_t result;
 400:ThirdParty/CMSIS/Include/cmsis_gcc.h **** 
 401:ThirdParty/CMSIS/Include/cmsis_gcc.h ****   __ASM volatile ("MRS %0, primask_ns" : "=r" (result) :: "memory");
 402:ThirdParty/CMSIS/Include/cmsis_gcc.h ****   return(result);
 403:ThirdParty/CMSIS/Include/cmsis_gcc.h **** }
 404:ThirdParty/CMSIS/Include/cmsis_gcc.h **** #endif
 405:ThirdParty/CMSIS/Include/cmsis_gcc.h **** 
 406:ThirdParty/CMSIS/Include/cmsis_gcc.h **** 
 407:ThirdParty/CMSIS/Include/cmsis_gcc.h **** /**
 408:ThirdParty/CMSIS/Include/cmsis_gcc.h ****   \brief   Set Priority Mask
 409:ThirdParty/CMSIS/Include/cmsis_gcc.h ****   \details Assigns the given value to the Priority Mask Register.
 410:ThirdParty/CMSIS/Include/cmsis_gcc.h ****   \param [in]    priMask  Priority Mask
 411:ThirdParty/CMSIS/Include/cmsis_gcc.h ****  */
 412:ThirdParty/CMSIS/Include/cmsis_gcc.h **** __STATIC_FORCEINLINE void __set_PRIMASK(uint32_t priMask)
 413:ThirdParty/CMSIS/Include/cmsis_gcc.h **** {
 414:ThirdParty/CMSIS/Include/cmsis_gcc.h ****   __ASM volatile ("MSR primask, %0" : : "r" (priMask) : "memory");
 415:ThirdParty/CMSIS/Include/cmsis_gcc.h **** }
 416:ThirdParty/CMSIS/Include/cmsis_gcc.h **** 
 417:ThirdParty/CMSIS/Include/cmsis_gcc.h **** 
 418:ThirdParty/CMSIS/Include/cmsis_gcc.h **** #if (defined (__ARM_FEATURE_CMSE ) && (__ARM_FEATURE_CMSE == 3))
 419:ThirdParty/CMSIS/Include/cmsis_gcc.h **** /**
 420:ThirdParty/CMSIS/Include/cmsis_gcc.h ****   \brief   Set Priority Mask (non-secure)
 421:ThirdParty/CMSIS/Include/cmsis_gcc.h ****   \details Assigns the given value to the non-secure Priority Mask Register when in secure state.
 422:ThirdParty/CMSIS/Include/cmsis_gcc.h ****   \param [in]    priMask  Priority Mask
 423:ThirdParty/CMSIS/Include/cmsis_gcc.h ****  */
 424:ThirdParty/CMSIS/Include/cmsis_gcc.h **** __STATIC_FORCEINLINE void __TZ_set_PRIMASK_NS(uint32_t priMask)
 425:ThirdParty/CMSIS/Include/cmsis_gcc.h **** {
 426:ThirdParty/CMSIS/Include/cmsis_gcc.h ****   __ASM volatile ("MSR primask_ns, %0" : : "r" (priMask) : "memory");
 427:ThirdParty/CMSIS/Include/cmsis_gcc.h **** }
 428:ThirdParty/CMSIS/Include/cmsis_gcc.h **** #endif
 429:ThirdParty/CMSIS/Include/cmsis_gcc.h **** 
 430:ThirdParty/CMSIS/Include/cmsis_gcc.h **** 
 431:ThirdParty/CMSIS/Include/cmsis_gcc.h **** #if ((defined (__ARM_ARCH_7M__      ) && (__ARM_ARCH_7M__      == 1)) || \
 432:ThirdParty/CMSIS/Include/cmsis_gcc.h ****      (defined (__ARM_ARCH_7EM__     ) && (__ARM_ARCH_7EM__     == 1)) || \
 433:ThirdParty/CMSIS/Include/cmsis_gcc.h ****      (defined (__ARM_ARCH_8M_MAIN__ ) && (__ARM_ARCH_8M_MAIN__ == 1))    )
 434:ThirdParty/CMSIS/Include/cmsis_gcc.h **** /**
 435:ThirdParty/CMSIS/Include/cmsis_gcc.h ****   \brief   Enable FIQ
 436:ThirdParty/CMSIS/Include/cmsis_gcc.h ****   \details Enables FIQ interrupts by clearing the F-bit in the CPSR.
 437:ThirdParty/CMSIS/Include/cmsis_gcc.h ****            Can only be executed in Privileged modes.
 438:ThirdParty/CMSIS/Include/cmsis_gcc.h ****  */
 439:ThirdParty/CMSIS/Include/cmsis_gcc.h **** __STATIC_FORCEINLINE void __enable_fault_irq(void)
 440:ThirdParty/CMSIS/Include/cmsis_gcc.h **** {
 441:ThirdParty/CMSIS/Include/cmsis_gcc.h ****   __ASM volatile ("cpsie f" : : : "memory");
 442:ThirdParty/CMSIS/Include/cmsis_gcc.h **** }
 443:ThirdParty/CMSIS/Include/cmsis_gcc.h **** 
 444:ThirdParty/CMSIS/Include/cmsis_gcc.h **** 
 445:ThirdParty/CMSIS/Include/cmsis_gcc.h **** /**
 446:ThirdParty/CMSIS/Include/cmsis_gcc.h ****   \brief   Disable FIQ
 447:ThirdParty/CMSIS/Include/cmsis_gcc.h ****   \details Disables FIQ interrupts by setting the F-bit in the CPSR.
 448:ThirdParty/CMSIS/Include/cmsis_gcc.h ****            Can only be executed in Privileged modes.
 449:ThirdParty/CMSIS/Include/cmsis_gcc.h ****  */
 450:ThirdParty/CMSIS/Include/cmsis_gcc.h **** __STATIC_FORCEINLINE void __disable_fault_irq(void)
 451:ThirdParty/CMSIS/Include/cmsis_gcc.h **** {
 452:ThirdParty/CMSIS/Include/cmsis_gcc.h ****   __ASM volatile ("cpsid f" : : : "memory");
ARM GAS  /tmp/cc6fvD8U.s 			page 61


 453:ThirdParty/CMSIS/Include/cmsis_gcc.h **** }
 454:ThirdParty/CMSIS/Include/cmsis_gcc.h **** 
 455:ThirdParty/CMSIS/Include/cmsis_gcc.h **** 
 456:ThirdParty/CMSIS/Include/cmsis_gcc.h **** /**
 457:ThirdParty/CMSIS/Include/cmsis_gcc.h ****   \brief   Get Base Priority
 458:ThirdParty/CMSIS/Include/cmsis_gcc.h ****   \details Returns the current value of the Base Priority register.
 459:ThirdParty/CMSIS/Include/cmsis_gcc.h ****   \return               Base Priority register value
 460:ThirdParty/CMSIS/Include/cmsis_gcc.h ****  */
 461:ThirdParty/CMSIS/Include/cmsis_gcc.h **** __STATIC_FORCEINLINE uint32_t __get_BASEPRI(void)
 462:ThirdParty/CMSIS/Include/cmsis_gcc.h **** {
 463:ThirdParty/CMSIS/Include/cmsis_gcc.h ****   uint32_t result;
 464:ThirdParty/CMSIS/Include/cmsis_gcc.h **** 
 465:ThirdParty/CMSIS/Include/cmsis_gcc.h ****   __ASM volatile ("MRS %0, basepri" : "=r" (result) );
 466:ThirdParty/CMSIS/Include/cmsis_gcc.h ****   return(result);
 467:ThirdParty/CMSIS/Include/cmsis_gcc.h **** }
 468:ThirdParty/CMSIS/Include/cmsis_gcc.h **** 
 469:ThirdParty/CMSIS/Include/cmsis_gcc.h **** 
 470:ThirdParty/CMSIS/Include/cmsis_gcc.h **** #if (defined (__ARM_FEATURE_CMSE ) && (__ARM_FEATURE_CMSE == 3))
 471:ThirdParty/CMSIS/Include/cmsis_gcc.h **** /**
 472:ThirdParty/CMSIS/Include/cmsis_gcc.h ****   \brief   Get Base Priority (non-secure)
 473:ThirdParty/CMSIS/Include/cmsis_gcc.h ****   \details Returns the current value of the non-secure Base Priority register when in secure state.
 474:ThirdParty/CMSIS/Include/cmsis_gcc.h ****   \return               Base Priority register value
 475:ThirdParty/CMSIS/Include/cmsis_gcc.h ****  */
 476:ThirdParty/CMSIS/Include/cmsis_gcc.h **** __STATIC_FORCEINLINE uint32_t __TZ_get_BASEPRI_NS(void)
 477:ThirdParty/CMSIS/Include/cmsis_gcc.h **** {
 478:ThirdParty/CMSIS/Include/cmsis_gcc.h ****   uint32_t result;
 479:ThirdParty/CMSIS/Include/cmsis_gcc.h **** 
 480:ThirdParty/CMSIS/Include/cmsis_gcc.h ****   __ASM volatile ("MRS %0, basepri_ns" : "=r" (result) );
 481:ThirdParty/CMSIS/Include/cmsis_gcc.h ****   return(result);
 482:ThirdParty/CMSIS/Include/cmsis_gcc.h **** }
 483:ThirdParty/CMSIS/Include/cmsis_gcc.h **** #endif
 484:ThirdParty/CMSIS/Include/cmsis_gcc.h **** 
 485:ThirdParty/CMSIS/Include/cmsis_gcc.h **** 
 486:ThirdParty/CMSIS/Include/cmsis_gcc.h **** /**
 487:ThirdParty/CMSIS/Include/cmsis_gcc.h ****   \brief   Set Base Priority
 488:ThirdParty/CMSIS/Include/cmsis_gcc.h ****   \details Assigns the given value to the Base Priority register.
 489:ThirdParty/CMSIS/Include/cmsis_gcc.h ****   \param [in]    basePri  Base Priority value to set
 490:ThirdParty/CMSIS/Include/cmsis_gcc.h ****  */
 491:ThirdParty/CMSIS/Include/cmsis_gcc.h **** __STATIC_FORCEINLINE void __set_BASEPRI(uint32_t basePri)
 492:ThirdParty/CMSIS/Include/cmsis_gcc.h **** {
 493:ThirdParty/CMSIS/Include/cmsis_gcc.h ****   __ASM volatile ("MSR basepri, %0" : : "r" (basePri) : "memory");
 494:ThirdParty/CMSIS/Include/cmsis_gcc.h **** }
 495:ThirdParty/CMSIS/Include/cmsis_gcc.h **** 
 496:ThirdParty/CMSIS/Include/cmsis_gcc.h **** 
 497:ThirdParty/CMSIS/Include/cmsis_gcc.h **** #if (defined (__ARM_FEATURE_CMSE ) && (__ARM_FEATURE_CMSE == 3))
 498:ThirdParty/CMSIS/Include/cmsis_gcc.h **** /**
 499:ThirdParty/CMSIS/Include/cmsis_gcc.h ****   \brief   Set Base Priority (non-secure)
 500:ThirdParty/CMSIS/Include/cmsis_gcc.h ****   \details Assigns the given value to the non-secure Base Priority register when in secure state.
 501:ThirdParty/CMSIS/Include/cmsis_gcc.h ****   \param [in]    basePri  Base Priority value to set
 502:ThirdParty/CMSIS/Include/cmsis_gcc.h ****  */
 503:ThirdParty/CMSIS/Include/cmsis_gcc.h **** __STATIC_FORCEINLINE void __TZ_set_BASEPRI_NS(uint32_t basePri)
 504:ThirdParty/CMSIS/Include/cmsis_gcc.h **** {
 505:ThirdParty/CMSIS/Include/cmsis_gcc.h ****   __ASM volatile ("MSR basepri_ns, %0" : : "r" (basePri) : "memory");
 506:ThirdParty/CMSIS/Include/cmsis_gcc.h **** }
 507:ThirdParty/CMSIS/Include/cmsis_gcc.h **** #endif
 508:ThirdParty/CMSIS/Include/cmsis_gcc.h **** 
 509:ThirdParty/CMSIS/Include/cmsis_gcc.h **** 
ARM GAS  /tmp/cc6fvD8U.s 			page 62


 510:ThirdParty/CMSIS/Include/cmsis_gcc.h **** /**
 511:ThirdParty/CMSIS/Include/cmsis_gcc.h ****   \brief   Set Base Priority with condition
 512:ThirdParty/CMSIS/Include/cmsis_gcc.h ****   \details Assigns the given value to the Base Priority register only if BASEPRI masking is disable
 513:ThirdParty/CMSIS/Include/cmsis_gcc.h ****            or the new value increases the BASEPRI priority level.
 514:ThirdParty/CMSIS/Include/cmsis_gcc.h ****   \param [in]    basePri  Base Priority value to set
 515:ThirdParty/CMSIS/Include/cmsis_gcc.h ****  */
 516:ThirdParty/CMSIS/Include/cmsis_gcc.h **** __STATIC_FORCEINLINE void __set_BASEPRI_MAX(uint32_t basePri)
 517:ThirdParty/CMSIS/Include/cmsis_gcc.h **** {
 518:ThirdParty/CMSIS/Include/cmsis_gcc.h ****   __ASM volatile ("MSR basepri_max, %0" : : "r" (basePri) : "memory");
 519:ThirdParty/CMSIS/Include/cmsis_gcc.h **** }
 520:ThirdParty/CMSIS/Include/cmsis_gcc.h **** 
 521:ThirdParty/CMSIS/Include/cmsis_gcc.h **** 
 522:ThirdParty/CMSIS/Include/cmsis_gcc.h **** /**
 523:ThirdParty/CMSIS/Include/cmsis_gcc.h ****   \brief   Get Fault Mask
 524:ThirdParty/CMSIS/Include/cmsis_gcc.h ****   \details Returns the current value of the Fault Mask register.
 525:ThirdParty/CMSIS/Include/cmsis_gcc.h ****   \return               Fault Mask register value
 526:ThirdParty/CMSIS/Include/cmsis_gcc.h ****  */
 527:ThirdParty/CMSIS/Include/cmsis_gcc.h **** __STATIC_FORCEINLINE uint32_t __get_FAULTMASK(void)
 528:ThirdParty/CMSIS/Include/cmsis_gcc.h **** {
 529:ThirdParty/CMSIS/Include/cmsis_gcc.h ****   uint32_t result;
 530:ThirdParty/CMSIS/Include/cmsis_gcc.h **** 
 531:ThirdParty/CMSIS/Include/cmsis_gcc.h ****   __ASM volatile ("MRS %0, faultmask" : "=r" (result) );
 532:ThirdParty/CMSIS/Include/cmsis_gcc.h ****   return(result);
 533:ThirdParty/CMSIS/Include/cmsis_gcc.h **** }
 534:ThirdParty/CMSIS/Include/cmsis_gcc.h **** 
 535:ThirdParty/CMSIS/Include/cmsis_gcc.h **** 
 536:ThirdParty/CMSIS/Include/cmsis_gcc.h **** #if (defined (__ARM_FEATURE_CMSE ) && (__ARM_FEATURE_CMSE == 3))
 537:ThirdParty/CMSIS/Include/cmsis_gcc.h **** /**
 538:ThirdParty/CMSIS/Include/cmsis_gcc.h ****   \brief   Get Fault Mask (non-secure)
 539:ThirdParty/CMSIS/Include/cmsis_gcc.h ****   \details Returns the current value of the non-secure Fault Mask register when in secure state.
 540:ThirdParty/CMSIS/Include/cmsis_gcc.h ****   \return               Fault Mask register value
 541:ThirdParty/CMSIS/Include/cmsis_gcc.h ****  */
 542:ThirdParty/CMSIS/Include/cmsis_gcc.h **** __STATIC_FORCEINLINE uint32_t __TZ_get_FAULTMASK_NS(void)
 543:ThirdParty/CMSIS/Include/cmsis_gcc.h **** {
 544:ThirdParty/CMSIS/Include/cmsis_gcc.h ****   uint32_t result;
 545:ThirdParty/CMSIS/Include/cmsis_gcc.h **** 
 546:ThirdParty/CMSIS/Include/cmsis_gcc.h ****   __ASM volatile ("MRS %0, faultmask_ns" : "=r" (result) );
 547:ThirdParty/CMSIS/Include/cmsis_gcc.h ****   return(result);
 548:ThirdParty/CMSIS/Include/cmsis_gcc.h **** }
 549:ThirdParty/CMSIS/Include/cmsis_gcc.h **** #endif
 550:ThirdParty/CMSIS/Include/cmsis_gcc.h **** 
 551:ThirdParty/CMSIS/Include/cmsis_gcc.h **** 
 552:ThirdParty/CMSIS/Include/cmsis_gcc.h **** /**
 553:ThirdParty/CMSIS/Include/cmsis_gcc.h ****   \brief   Set Fault Mask
 554:ThirdParty/CMSIS/Include/cmsis_gcc.h ****   \details Assigns the given value to the Fault Mask register.
 555:ThirdParty/CMSIS/Include/cmsis_gcc.h ****   \param [in]    faultMask  Fault Mask value to set
 556:ThirdParty/CMSIS/Include/cmsis_gcc.h ****  */
 557:ThirdParty/CMSIS/Include/cmsis_gcc.h **** __STATIC_FORCEINLINE void __set_FAULTMASK(uint32_t faultMask)
 558:ThirdParty/CMSIS/Include/cmsis_gcc.h **** {
 559:ThirdParty/CMSIS/Include/cmsis_gcc.h ****   __ASM volatile ("MSR faultmask, %0" : : "r" (faultMask) : "memory");
 560:ThirdParty/CMSIS/Include/cmsis_gcc.h **** }
 561:ThirdParty/CMSIS/Include/cmsis_gcc.h **** 
 562:ThirdParty/CMSIS/Include/cmsis_gcc.h **** 
 563:ThirdParty/CMSIS/Include/cmsis_gcc.h **** #if (defined (__ARM_FEATURE_CMSE ) && (__ARM_FEATURE_CMSE == 3))
 564:ThirdParty/CMSIS/Include/cmsis_gcc.h **** /**
 565:ThirdParty/CMSIS/Include/cmsis_gcc.h ****   \brief   Set Fault Mask (non-secure)
 566:ThirdParty/CMSIS/Include/cmsis_gcc.h ****   \details Assigns the given value to the non-secure Fault Mask register when in secure state.
ARM GAS  /tmp/cc6fvD8U.s 			page 63


 567:ThirdParty/CMSIS/Include/cmsis_gcc.h ****   \param [in]    faultMask  Fault Mask value to set
 568:ThirdParty/CMSIS/Include/cmsis_gcc.h ****  */
 569:ThirdParty/CMSIS/Include/cmsis_gcc.h **** __STATIC_FORCEINLINE void __TZ_set_FAULTMASK_NS(uint32_t faultMask)
 570:ThirdParty/CMSIS/Include/cmsis_gcc.h **** {
 571:ThirdParty/CMSIS/Include/cmsis_gcc.h ****   __ASM volatile ("MSR faultmask_ns, %0" : : "r" (faultMask) : "memory");
 572:ThirdParty/CMSIS/Include/cmsis_gcc.h **** }
 573:ThirdParty/CMSIS/Include/cmsis_gcc.h **** #endif
 574:ThirdParty/CMSIS/Include/cmsis_gcc.h **** 
 575:ThirdParty/CMSIS/Include/cmsis_gcc.h **** #endif /* ((defined (__ARM_ARCH_7M__      ) && (__ARM_ARCH_7M__      == 1)) || \
 576:ThirdParty/CMSIS/Include/cmsis_gcc.h ****            (defined (__ARM_ARCH_7EM__     ) && (__ARM_ARCH_7EM__     == 1)) || \
 577:ThirdParty/CMSIS/Include/cmsis_gcc.h ****            (defined (__ARM_ARCH_8M_MAIN__ ) && (__ARM_ARCH_8M_MAIN__ == 1))    ) */
 578:ThirdParty/CMSIS/Include/cmsis_gcc.h **** 
 579:ThirdParty/CMSIS/Include/cmsis_gcc.h **** 
 580:ThirdParty/CMSIS/Include/cmsis_gcc.h **** #if ((defined (__ARM_ARCH_8M_MAIN__ ) && (__ARM_ARCH_8M_MAIN__ == 1)) || \
 581:ThirdParty/CMSIS/Include/cmsis_gcc.h ****      (defined (__ARM_ARCH_8M_BASE__ ) && (__ARM_ARCH_8M_BASE__ == 1))    )
 582:ThirdParty/CMSIS/Include/cmsis_gcc.h **** 
 583:ThirdParty/CMSIS/Include/cmsis_gcc.h **** /**
 584:ThirdParty/CMSIS/Include/cmsis_gcc.h ****   \brief   Get Process Stack Pointer Limit
 585:ThirdParty/CMSIS/Include/cmsis_gcc.h ****   Devices without ARMv8-M Main Extensions (i.e. Cortex-M23) lack the non-secure
 586:ThirdParty/CMSIS/Include/cmsis_gcc.h ****   Stack Pointer Limit register hence zero is returned always in non-secure
 587:ThirdParty/CMSIS/Include/cmsis_gcc.h ****   mode.
 588:ThirdParty/CMSIS/Include/cmsis_gcc.h ****   
 589:ThirdParty/CMSIS/Include/cmsis_gcc.h ****   \details Returns the current value of the Process Stack Pointer Limit (PSPLIM).
 590:ThirdParty/CMSIS/Include/cmsis_gcc.h ****   \return               PSPLIM Register value
 591:ThirdParty/CMSIS/Include/cmsis_gcc.h ****  */
 592:ThirdParty/CMSIS/Include/cmsis_gcc.h **** __STATIC_FORCEINLINE uint32_t __get_PSPLIM(void)
 593:ThirdParty/CMSIS/Include/cmsis_gcc.h **** {
 594:ThirdParty/CMSIS/Include/cmsis_gcc.h **** #if (!(defined (__ARM_ARCH_8M_MAIN__ ) && (__ARM_ARCH_8M_MAIN__ == 1)) && \
 595:ThirdParty/CMSIS/Include/cmsis_gcc.h ****     (!defined (__ARM_FEATURE_CMSE) || (__ARM_FEATURE_CMSE < 3)))
 596:ThirdParty/CMSIS/Include/cmsis_gcc.h ****     // without main extensions, the non-secure PSPLIM is RAZ/WI
 597:ThirdParty/CMSIS/Include/cmsis_gcc.h ****   return 0U;
 598:ThirdParty/CMSIS/Include/cmsis_gcc.h **** #else
 599:ThirdParty/CMSIS/Include/cmsis_gcc.h ****   uint32_t result;
 600:ThirdParty/CMSIS/Include/cmsis_gcc.h ****   __ASM volatile ("MRS %0, psplim"  : "=r" (result) );
 601:ThirdParty/CMSIS/Include/cmsis_gcc.h ****   return result;
 602:ThirdParty/CMSIS/Include/cmsis_gcc.h **** #endif
 603:ThirdParty/CMSIS/Include/cmsis_gcc.h **** }
 604:ThirdParty/CMSIS/Include/cmsis_gcc.h **** 
 605:ThirdParty/CMSIS/Include/cmsis_gcc.h **** #if (defined (__ARM_FEATURE_CMSE) && (__ARM_FEATURE_CMSE == 3))
 606:ThirdParty/CMSIS/Include/cmsis_gcc.h **** /**
 607:ThirdParty/CMSIS/Include/cmsis_gcc.h ****   \brief   Get Process Stack Pointer Limit (non-secure)
 608:ThirdParty/CMSIS/Include/cmsis_gcc.h ****   Devices without ARMv8-M Main Extensions (i.e. Cortex-M23) lack the non-secure
 609:ThirdParty/CMSIS/Include/cmsis_gcc.h ****   Stack Pointer Limit register hence zero is returned always.
 610:ThirdParty/CMSIS/Include/cmsis_gcc.h **** 
 611:ThirdParty/CMSIS/Include/cmsis_gcc.h ****   \details Returns the current value of the non-secure Process Stack Pointer Limit (PSPLIM) when in
 612:ThirdParty/CMSIS/Include/cmsis_gcc.h ****   \return               PSPLIM Register value
 613:ThirdParty/CMSIS/Include/cmsis_gcc.h ****  */
 614:ThirdParty/CMSIS/Include/cmsis_gcc.h **** __STATIC_FORCEINLINE uint32_t __TZ_get_PSPLIM_NS(void)
 615:ThirdParty/CMSIS/Include/cmsis_gcc.h **** {
 616:ThirdParty/CMSIS/Include/cmsis_gcc.h **** #if (!(defined (__ARM_ARCH_8M_MAIN__ ) && (__ARM_ARCH_8M_MAIN__ == 1)))
 617:ThirdParty/CMSIS/Include/cmsis_gcc.h ****   // without main extensions, the non-secure PSPLIM is RAZ/WI
 618:ThirdParty/CMSIS/Include/cmsis_gcc.h ****   return 0U;
 619:ThirdParty/CMSIS/Include/cmsis_gcc.h **** #else
 620:ThirdParty/CMSIS/Include/cmsis_gcc.h ****   uint32_t result;
 621:ThirdParty/CMSIS/Include/cmsis_gcc.h ****   __ASM volatile ("MRS %0, psplim_ns"  : "=r" (result) );
 622:ThirdParty/CMSIS/Include/cmsis_gcc.h ****   return result;
 623:ThirdParty/CMSIS/Include/cmsis_gcc.h **** #endif
ARM GAS  /tmp/cc6fvD8U.s 			page 64


 624:ThirdParty/CMSIS/Include/cmsis_gcc.h **** }
 625:ThirdParty/CMSIS/Include/cmsis_gcc.h **** #endif
 626:ThirdParty/CMSIS/Include/cmsis_gcc.h **** 
 627:ThirdParty/CMSIS/Include/cmsis_gcc.h **** 
 628:ThirdParty/CMSIS/Include/cmsis_gcc.h **** /**
 629:ThirdParty/CMSIS/Include/cmsis_gcc.h ****   \brief   Set Process Stack Pointer Limit
 630:ThirdParty/CMSIS/Include/cmsis_gcc.h ****   Devices without ARMv8-M Main Extensions (i.e. Cortex-M23) lack the non-secure
 631:ThirdParty/CMSIS/Include/cmsis_gcc.h ****   Stack Pointer Limit register hence the write is silently ignored in non-secure
 632:ThirdParty/CMSIS/Include/cmsis_gcc.h ****   mode.
 633:ThirdParty/CMSIS/Include/cmsis_gcc.h ****   
 634:ThirdParty/CMSIS/Include/cmsis_gcc.h ****   \details Assigns the given value to the Process Stack Pointer Limit (PSPLIM).
 635:ThirdParty/CMSIS/Include/cmsis_gcc.h ****   \param [in]    ProcStackPtrLimit  Process Stack Pointer Limit value to set
 636:ThirdParty/CMSIS/Include/cmsis_gcc.h ****  */
 637:ThirdParty/CMSIS/Include/cmsis_gcc.h **** __STATIC_FORCEINLINE void __set_PSPLIM(uint32_t ProcStackPtrLimit)
 638:ThirdParty/CMSIS/Include/cmsis_gcc.h **** {
 639:ThirdParty/CMSIS/Include/cmsis_gcc.h **** #if (!(defined (__ARM_ARCH_8M_MAIN__ ) && (__ARM_ARCH_8M_MAIN__ == 1)) && \
 640:ThirdParty/CMSIS/Include/cmsis_gcc.h ****     (!defined (__ARM_FEATURE_CMSE) || (__ARM_FEATURE_CMSE < 3)))
 641:ThirdParty/CMSIS/Include/cmsis_gcc.h ****   // without main extensions, the non-secure PSPLIM is RAZ/WI
 642:ThirdParty/CMSIS/Include/cmsis_gcc.h ****   (void)ProcStackPtrLimit;
 643:ThirdParty/CMSIS/Include/cmsis_gcc.h **** #else
 644:ThirdParty/CMSIS/Include/cmsis_gcc.h ****   __ASM volatile ("MSR psplim, %0" : : "r" (ProcStackPtrLimit));
 645:ThirdParty/CMSIS/Include/cmsis_gcc.h **** #endif
 646:ThirdParty/CMSIS/Include/cmsis_gcc.h **** }
 647:ThirdParty/CMSIS/Include/cmsis_gcc.h **** 
 648:ThirdParty/CMSIS/Include/cmsis_gcc.h **** 
 649:ThirdParty/CMSIS/Include/cmsis_gcc.h **** #if (defined (__ARM_FEATURE_CMSE  ) && (__ARM_FEATURE_CMSE   == 3))
 650:ThirdParty/CMSIS/Include/cmsis_gcc.h **** /**
 651:ThirdParty/CMSIS/Include/cmsis_gcc.h ****   \brief   Set Process Stack Pointer (non-secure)
 652:ThirdParty/CMSIS/Include/cmsis_gcc.h ****   Devices without ARMv8-M Main Extensions (i.e. Cortex-M23) lack the non-secure
 653:ThirdParty/CMSIS/Include/cmsis_gcc.h ****   Stack Pointer Limit register hence the write is silently ignored.
 654:ThirdParty/CMSIS/Include/cmsis_gcc.h **** 
 655:ThirdParty/CMSIS/Include/cmsis_gcc.h ****   \details Assigns the given value to the non-secure Process Stack Pointer Limit (PSPLIM) when in s
 656:ThirdParty/CMSIS/Include/cmsis_gcc.h ****   \param [in]    ProcStackPtrLimit  Process Stack Pointer Limit value to set
 657:ThirdParty/CMSIS/Include/cmsis_gcc.h ****  */
 658:ThirdParty/CMSIS/Include/cmsis_gcc.h **** __STATIC_FORCEINLINE void __TZ_set_PSPLIM_NS(uint32_t ProcStackPtrLimit)
 659:ThirdParty/CMSIS/Include/cmsis_gcc.h **** {
 660:ThirdParty/CMSIS/Include/cmsis_gcc.h **** #if (!(defined (__ARM_ARCH_8M_MAIN__ ) && (__ARM_ARCH_8M_MAIN__ == 1)))
 661:ThirdParty/CMSIS/Include/cmsis_gcc.h ****   // without main extensions, the non-secure PSPLIM is RAZ/WI
 662:ThirdParty/CMSIS/Include/cmsis_gcc.h ****   (void)ProcStackPtrLimit;
 663:ThirdParty/CMSIS/Include/cmsis_gcc.h **** #else
 664:ThirdParty/CMSIS/Include/cmsis_gcc.h ****   __ASM volatile ("MSR psplim_ns, %0\n" : : "r" (ProcStackPtrLimit));
 665:ThirdParty/CMSIS/Include/cmsis_gcc.h **** #endif
 666:ThirdParty/CMSIS/Include/cmsis_gcc.h **** }
 667:ThirdParty/CMSIS/Include/cmsis_gcc.h **** #endif
 668:ThirdParty/CMSIS/Include/cmsis_gcc.h **** 
 669:ThirdParty/CMSIS/Include/cmsis_gcc.h **** 
 670:ThirdParty/CMSIS/Include/cmsis_gcc.h **** /**
 671:ThirdParty/CMSIS/Include/cmsis_gcc.h ****   \brief   Get Main Stack Pointer Limit
 672:ThirdParty/CMSIS/Include/cmsis_gcc.h ****   Devices without ARMv8-M Main Extensions (i.e. Cortex-M23) lack the non-secure
 673:ThirdParty/CMSIS/Include/cmsis_gcc.h ****   Stack Pointer Limit register hence zero is returned always in non-secure
 674:ThirdParty/CMSIS/Include/cmsis_gcc.h ****   mode.
 675:ThirdParty/CMSIS/Include/cmsis_gcc.h **** 
 676:ThirdParty/CMSIS/Include/cmsis_gcc.h ****   \details Returns the current value of the Main Stack Pointer Limit (MSPLIM).
 677:ThirdParty/CMSIS/Include/cmsis_gcc.h ****   \return               MSPLIM Register value
 678:ThirdParty/CMSIS/Include/cmsis_gcc.h ****  */
 679:ThirdParty/CMSIS/Include/cmsis_gcc.h **** __STATIC_FORCEINLINE uint32_t __get_MSPLIM(void)
 680:ThirdParty/CMSIS/Include/cmsis_gcc.h **** {
ARM GAS  /tmp/cc6fvD8U.s 			page 65


 681:ThirdParty/CMSIS/Include/cmsis_gcc.h **** #if (!(defined (__ARM_ARCH_8M_MAIN__ ) && (__ARM_ARCH_8M_MAIN__ == 1)) && \
 682:ThirdParty/CMSIS/Include/cmsis_gcc.h ****     (!defined (__ARM_FEATURE_CMSE) || (__ARM_FEATURE_CMSE < 3)))
 683:ThirdParty/CMSIS/Include/cmsis_gcc.h ****   // without main extensions, the non-secure MSPLIM is RAZ/WI
 684:ThirdParty/CMSIS/Include/cmsis_gcc.h ****   return 0U;
 685:ThirdParty/CMSIS/Include/cmsis_gcc.h **** #else
 686:ThirdParty/CMSIS/Include/cmsis_gcc.h ****   uint32_t result;
 687:ThirdParty/CMSIS/Include/cmsis_gcc.h ****   __ASM volatile ("MRS %0, msplim" : "=r" (result) );
 688:ThirdParty/CMSIS/Include/cmsis_gcc.h ****   return result;
 689:ThirdParty/CMSIS/Include/cmsis_gcc.h **** #endif
 690:ThirdParty/CMSIS/Include/cmsis_gcc.h **** }
 691:ThirdParty/CMSIS/Include/cmsis_gcc.h **** 
 692:ThirdParty/CMSIS/Include/cmsis_gcc.h **** 
 693:ThirdParty/CMSIS/Include/cmsis_gcc.h **** #if (defined (__ARM_FEATURE_CMSE  ) && (__ARM_FEATURE_CMSE   == 3))
 694:ThirdParty/CMSIS/Include/cmsis_gcc.h **** /**
 695:ThirdParty/CMSIS/Include/cmsis_gcc.h ****   \brief   Get Main Stack Pointer Limit (non-secure)
 696:ThirdParty/CMSIS/Include/cmsis_gcc.h ****   Devices without ARMv8-M Main Extensions (i.e. Cortex-M23) lack the non-secure
 697:ThirdParty/CMSIS/Include/cmsis_gcc.h ****   Stack Pointer Limit register hence zero is returned always.
 698:ThirdParty/CMSIS/Include/cmsis_gcc.h **** 
 699:ThirdParty/CMSIS/Include/cmsis_gcc.h ****   \details Returns the current value of the non-secure Main Stack Pointer Limit(MSPLIM) when in sec
 700:ThirdParty/CMSIS/Include/cmsis_gcc.h ****   \return               MSPLIM Register value
 701:ThirdParty/CMSIS/Include/cmsis_gcc.h ****  */
 702:ThirdParty/CMSIS/Include/cmsis_gcc.h **** __STATIC_FORCEINLINE uint32_t __TZ_get_MSPLIM_NS(void)
 703:ThirdParty/CMSIS/Include/cmsis_gcc.h **** {
 704:ThirdParty/CMSIS/Include/cmsis_gcc.h **** #if (!(defined (__ARM_ARCH_8M_MAIN__ ) && (__ARM_ARCH_8M_MAIN__ == 1)))
 705:ThirdParty/CMSIS/Include/cmsis_gcc.h ****   // without main extensions, the non-secure MSPLIM is RAZ/WI
 706:ThirdParty/CMSIS/Include/cmsis_gcc.h ****   return 0U;
 707:ThirdParty/CMSIS/Include/cmsis_gcc.h **** #else
 708:ThirdParty/CMSIS/Include/cmsis_gcc.h ****   uint32_t result;
 709:ThirdParty/CMSIS/Include/cmsis_gcc.h ****   __ASM volatile ("MRS %0, msplim_ns" : "=r" (result) );
 710:ThirdParty/CMSIS/Include/cmsis_gcc.h ****   return result;
 711:ThirdParty/CMSIS/Include/cmsis_gcc.h **** #endif
 712:ThirdParty/CMSIS/Include/cmsis_gcc.h **** }
 713:ThirdParty/CMSIS/Include/cmsis_gcc.h **** #endif
 714:ThirdParty/CMSIS/Include/cmsis_gcc.h **** 
 715:ThirdParty/CMSIS/Include/cmsis_gcc.h **** 
 716:ThirdParty/CMSIS/Include/cmsis_gcc.h **** /**
 717:ThirdParty/CMSIS/Include/cmsis_gcc.h ****   \brief   Set Main Stack Pointer Limit
 718:ThirdParty/CMSIS/Include/cmsis_gcc.h ****   Devices without ARMv8-M Main Extensions (i.e. Cortex-M23) lack the non-secure
 719:ThirdParty/CMSIS/Include/cmsis_gcc.h ****   Stack Pointer Limit register hence the write is silently ignored in non-secure
 720:ThirdParty/CMSIS/Include/cmsis_gcc.h ****   mode.
 721:ThirdParty/CMSIS/Include/cmsis_gcc.h **** 
 722:ThirdParty/CMSIS/Include/cmsis_gcc.h ****   \details Assigns the given value to the Main Stack Pointer Limit (MSPLIM).
 723:ThirdParty/CMSIS/Include/cmsis_gcc.h ****   \param [in]    MainStackPtrLimit  Main Stack Pointer Limit value to set
 724:ThirdParty/CMSIS/Include/cmsis_gcc.h ****  */
 725:ThirdParty/CMSIS/Include/cmsis_gcc.h **** __STATIC_FORCEINLINE void __set_MSPLIM(uint32_t MainStackPtrLimit)
 726:ThirdParty/CMSIS/Include/cmsis_gcc.h **** {
 727:ThirdParty/CMSIS/Include/cmsis_gcc.h **** #if (!(defined (__ARM_ARCH_8M_MAIN__ ) && (__ARM_ARCH_8M_MAIN__ == 1)) && \
 728:ThirdParty/CMSIS/Include/cmsis_gcc.h ****     (!defined (__ARM_FEATURE_CMSE) || (__ARM_FEATURE_CMSE < 3)))
 729:ThirdParty/CMSIS/Include/cmsis_gcc.h ****   // without main extensions, the non-secure MSPLIM is RAZ/WI
 730:ThirdParty/CMSIS/Include/cmsis_gcc.h ****   (void)MainStackPtrLimit;
 731:ThirdParty/CMSIS/Include/cmsis_gcc.h **** #else
 732:ThirdParty/CMSIS/Include/cmsis_gcc.h ****   __ASM volatile ("MSR msplim, %0" : : "r" (MainStackPtrLimit));
 733:ThirdParty/CMSIS/Include/cmsis_gcc.h **** #endif
 734:ThirdParty/CMSIS/Include/cmsis_gcc.h **** }
 735:ThirdParty/CMSIS/Include/cmsis_gcc.h **** 
 736:ThirdParty/CMSIS/Include/cmsis_gcc.h **** 
 737:ThirdParty/CMSIS/Include/cmsis_gcc.h **** #if (defined (__ARM_FEATURE_CMSE  ) && (__ARM_FEATURE_CMSE   == 3))
ARM GAS  /tmp/cc6fvD8U.s 			page 66


 738:ThirdParty/CMSIS/Include/cmsis_gcc.h **** /**
 739:ThirdParty/CMSIS/Include/cmsis_gcc.h ****   \brief   Set Main Stack Pointer Limit (non-secure)
 740:ThirdParty/CMSIS/Include/cmsis_gcc.h ****   Devices without ARMv8-M Main Extensions (i.e. Cortex-M23) lack the non-secure
 741:ThirdParty/CMSIS/Include/cmsis_gcc.h ****   Stack Pointer Limit register hence the write is silently ignored.
 742:ThirdParty/CMSIS/Include/cmsis_gcc.h **** 
 743:ThirdParty/CMSIS/Include/cmsis_gcc.h ****   \details Assigns the given value to the non-secure Main Stack Pointer Limit (MSPLIM) when in secu
 744:ThirdParty/CMSIS/Include/cmsis_gcc.h ****   \param [in]    MainStackPtrLimit  Main Stack Pointer value to set
 745:ThirdParty/CMSIS/Include/cmsis_gcc.h ****  */
 746:ThirdParty/CMSIS/Include/cmsis_gcc.h **** __STATIC_FORCEINLINE void __TZ_set_MSPLIM_NS(uint32_t MainStackPtrLimit)
 747:ThirdParty/CMSIS/Include/cmsis_gcc.h **** {
 748:ThirdParty/CMSIS/Include/cmsis_gcc.h **** #if (!(defined (__ARM_ARCH_8M_MAIN__ ) && (__ARM_ARCH_8M_MAIN__ == 1)))
 749:ThirdParty/CMSIS/Include/cmsis_gcc.h ****   // without main extensions, the non-secure MSPLIM is RAZ/WI
 750:ThirdParty/CMSIS/Include/cmsis_gcc.h ****   (void)MainStackPtrLimit;
 751:ThirdParty/CMSIS/Include/cmsis_gcc.h **** #else
 752:ThirdParty/CMSIS/Include/cmsis_gcc.h ****   __ASM volatile ("MSR msplim_ns, %0" : : "r" (MainStackPtrLimit));
 753:ThirdParty/CMSIS/Include/cmsis_gcc.h **** #endif
 754:ThirdParty/CMSIS/Include/cmsis_gcc.h **** }
 755:ThirdParty/CMSIS/Include/cmsis_gcc.h **** #endif
 756:ThirdParty/CMSIS/Include/cmsis_gcc.h **** 
 757:ThirdParty/CMSIS/Include/cmsis_gcc.h **** #endif /* ((defined (__ARM_ARCH_8M_MAIN__ ) && (__ARM_ARCH_8M_MAIN__ == 1)) || \
 758:ThirdParty/CMSIS/Include/cmsis_gcc.h ****            (defined (__ARM_ARCH_8M_BASE__ ) && (__ARM_ARCH_8M_BASE__ == 1))    ) */
 759:ThirdParty/CMSIS/Include/cmsis_gcc.h **** 
 760:ThirdParty/CMSIS/Include/cmsis_gcc.h **** 
 761:ThirdParty/CMSIS/Include/cmsis_gcc.h **** /**
 762:ThirdParty/CMSIS/Include/cmsis_gcc.h ****   \brief   Get FPSCR
 763:ThirdParty/CMSIS/Include/cmsis_gcc.h ****   \details Returns the current value of the Floating Point Status/Control register.
 764:ThirdParty/CMSIS/Include/cmsis_gcc.h ****   \return               Floating Point Status/Control register value
 765:ThirdParty/CMSIS/Include/cmsis_gcc.h ****  */
 766:ThirdParty/CMSIS/Include/cmsis_gcc.h **** __STATIC_FORCEINLINE uint32_t __get_FPSCR(void)
 767:ThirdParty/CMSIS/Include/cmsis_gcc.h **** {
 768:ThirdParty/CMSIS/Include/cmsis_gcc.h **** #if ((defined (__FPU_PRESENT) && (__FPU_PRESENT == 1U)) && \
 769:ThirdParty/CMSIS/Include/cmsis_gcc.h ****      (defined (__FPU_USED   ) && (__FPU_USED    == 1U))     )
 770:ThirdParty/CMSIS/Include/cmsis_gcc.h **** #if __has_builtin(__builtin_arm_get_fpscr) 
 771:ThirdParty/CMSIS/Include/cmsis_gcc.h **** // Re-enable using built-in when GCC has been fixed
 772:ThirdParty/CMSIS/Include/cmsis_gcc.h **** // || (__GNUC__ > 7) || (__GNUC__ == 7 && __GNUC_MINOR__ >= 2)
 773:ThirdParty/CMSIS/Include/cmsis_gcc.h ****   /* see https://gcc.gnu.org/ml/gcc-patches/2017-04/msg00443.html */
 774:ThirdParty/CMSIS/Include/cmsis_gcc.h ****   return __builtin_arm_get_fpscr();
 775:ThirdParty/CMSIS/Include/cmsis_gcc.h **** #else
 776:ThirdParty/CMSIS/Include/cmsis_gcc.h ****   uint32_t result;
 777:ThirdParty/CMSIS/Include/cmsis_gcc.h **** 
 778:ThirdParty/CMSIS/Include/cmsis_gcc.h ****   __ASM volatile ("VMRS %0, fpscr" : "=r" (result) );
 779:ThirdParty/CMSIS/Include/cmsis_gcc.h ****   return(result);
 780:ThirdParty/CMSIS/Include/cmsis_gcc.h **** #endif
 781:ThirdParty/CMSIS/Include/cmsis_gcc.h **** #else
 782:ThirdParty/CMSIS/Include/cmsis_gcc.h ****   return(0U);
 783:ThirdParty/CMSIS/Include/cmsis_gcc.h **** #endif
 784:ThirdParty/CMSIS/Include/cmsis_gcc.h **** }
 785:ThirdParty/CMSIS/Include/cmsis_gcc.h **** 
 786:ThirdParty/CMSIS/Include/cmsis_gcc.h **** 
 787:ThirdParty/CMSIS/Include/cmsis_gcc.h **** /**
 788:ThirdParty/CMSIS/Include/cmsis_gcc.h ****   \brief   Set FPSCR
 789:ThirdParty/CMSIS/Include/cmsis_gcc.h ****   \details Assigns the given value to the Floating Point Status/Control register.
 790:ThirdParty/CMSIS/Include/cmsis_gcc.h ****   \param [in]    fpscr  Floating Point Status/Control value to set
 791:ThirdParty/CMSIS/Include/cmsis_gcc.h ****  */
 792:ThirdParty/CMSIS/Include/cmsis_gcc.h **** __STATIC_FORCEINLINE void __set_FPSCR(uint32_t fpscr)
 793:ThirdParty/CMSIS/Include/cmsis_gcc.h **** {
 794:ThirdParty/CMSIS/Include/cmsis_gcc.h **** #if ((defined (__FPU_PRESENT) && (__FPU_PRESENT == 1U)) && \
ARM GAS  /tmp/cc6fvD8U.s 			page 67


 795:ThirdParty/CMSIS/Include/cmsis_gcc.h ****      (defined (__FPU_USED   ) && (__FPU_USED    == 1U))     )
 796:ThirdParty/CMSIS/Include/cmsis_gcc.h **** #if __has_builtin(__builtin_arm_set_fpscr)
 797:ThirdParty/CMSIS/Include/cmsis_gcc.h **** // Re-enable using built-in when GCC has been fixed
 798:ThirdParty/CMSIS/Include/cmsis_gcc.h **** // || (__GNUC__ > 7) || (__GNUC__ == 7 && __GNUC_MINOR__ >= 2)
 799:ThirdParty/CMSIS/Include/cmsis_gcc.h ****   /* see https://gcc.gnu.org/ml/gcc-patches/2017-04/msg00443.html */
 800:ThirdParty/CMSIS/Include/cmsis_gcc.h ****   __builtin_arm_set_fpscr(fpscr);
 801:ThirdParty/CMSIS/Include/cmsis_gcc.h **** #else
 802:ThirdParty/CMSIS/Include/cmsis_gcc.h ****   __ASM volatile ("VMSR fpscr, %0" : : "r" (fpscr) : "vfpcc", "memory");
 803:ThirdParty/CMSIS/Include/cmsis_gcc.h **** #endif
 804:ThirdParty/CMSIS/Include/cmsis_gcc.h **** #else
 805:ThirdParty/CMSIS/Include/cmsis_gcc.h ****   (void)fpscr;
 806:ThirdParty/CMSIS/Include/cmsis_gcc.h **** #endif
 807:ThirdParty/CMSIS/Include/cmsis_gcc.h **** }
 808:ThirdParty/CMSIS/Include/cmsis_gcc.h **** 
 809:ThirdParty/CMSIS/Include/cmsis_gcc.h **** 
 810:ThirdParty/CMSIS/Include/cmsis_gcc.h **** /*@} end of CMSIS_Core_RegAccFunctions */
 811:ThirdParty/CMSIS/Include/cmsis_gcc.h **** 
 812:ThirdParty/CMSIS/Include/cmsis_gcc.h **** 
 813:ThirdParty/CMSIS/Include/cmsis_gcc.h **** /* ##########################  Core Instruction Access  ######################### */
 814:ThirdParty/CMSIS/Include/cmsis_gcc.h **** /** \defgroup CMSIS_Core_InstructionInterface CMSIS Core Instruction Interface
 815:ThirdParty/CMSIS/Include/cmsis_gcc.h ****   Access to dedicated instructions
 816:ThirdParty/CMSIS/Include/cmsis_gcc.h ****   @{
 817:ThirdParty/CMSIS/Include/cmsis_gcc.h **** */
 818:ThirdParty/CMSIS/Include/cmsis_gcc.h **** 
 819:ThirdParty/CMSIS/Include/cmsis_gcc.h **** /* Define macros for porting to both thumb1 and thumb2.
 820:ThirdParty/CMSIS/Include/cmsis_gcc.h ****  * For thumb1, use low register (r0-r7), specified by constraint "l"
 821:ThirdParty/CMSIS/Include/cmsis_gcc.h ****  * Otherwise, use general registers, specified by constraint "r" */
 822:ThirdParty/CMSIS/Include/cmsis_gcc.h **** #if defined (__thumb__) && !defined (__thumb2__)
 823:ThirdParty/CMSIS/Include/cmsis_gcc.h **** #define __CMSIS_GCC_OUT_REG(r) "=l" (r)
 824:ThirdParty/CMSIS/Include/cmsis_gcc.h **** #define __CMSIS_GCC_RW_REG(r) "+l" (r)
 825:ThirdParty/CMSIS/Include/cmsis_gcc.h **** #define __CMSIS_GCC_USE_REG(r) "l" (r)
 826:ThirdParty/CMSIS/Include/cmsis_gcc.h **** #else
 827:ThirdParty/CMSIS/Include/cmsis_gcc.h **** #define __CMSIS_GCC_OUT_REG(r) "=r" (r)
 828:ThirdParty/CMSIS/Include/cmsis_gcc.h **** #define __CMSIS_GCC_RW_REG(r) "+r" (r)
 829:ThirdParty/CMSIS/Include/cmsis_gcc.h **** #define __CMSIS_GCC_USE_REG(r) "r" (r)
 830:ThirdParty/CMSIS/Include/cmsis_gcc.h **** #endif
 831:ThirdParty/CMSIS/Include/cmsis_gcc.h **** 
 832:ThirdParty/CMSIS/Include/cmsis_gcc.h **** /**
 833:ThirdParty/CMSIS/Include/cmsis_gcc.h ****   \brief   No Operation
 834:ThirdParty/CMSIS/Include/cmsis_gcc.h ****   \details No Operation does nothing. This instruction can be used for code alignment purposes.
 835:ThirdParty/CMSIS/Include/cmsis_gcc.h ****  */
 836:ThirdParty/CMSIS/Include/cmsis_gcc.h **** #define __NOP()                             __ASM volatile ("nop")
 837:ThirdParty/CMSIS/Include/cmsis_gcc.h **** 
 838:ThirdParty/CMSIS/Include/cmsis_gcc.h **** /**
 839:ThirdParty/CMSIS/Include/cmsis_gcc.h ****   \brief   Wait For Interrupt
 840:ThirdParty/CMSIS/Include/cmsis_gcc.h ****   \details Wait For Interrupt is a hint instruction that suspends execution until one of a number o
 841:ThirdParty/CMSIS/Include/cmsis_gcc.h ****  */
 842:ThirdParty/CMSIS/Include/cmsis_gcc.h **** #define __WFI()                             __ASM volatile ("wfi")
 843:ThirdParty/CMSIS/Include/cmsis_gcc.h **** 
 844:ThirdParty/CMSIS/Include/cmsis_gcc.h **** 
 845:ThirdParty/CMSIS/Include/cmsis_gcc.h **** /**
 846:ThirdParty/CMSIS/Include/cmsis_gcc.h ****   \brief   Wait For Event
 847:ThirdParty/CMSIS/Include/cmsis_gcc.h ****   \details Wait For Event is a hint instruction that permits the processor to enter
 848:ThirdParty/CMSIS/Include/cmsis_gcc.h ****            a low-power state until one of a number of events occurs.
 849:ThirdParty/CMSIS/Include/cmsis_gcc.h ****  */
 850:ThirdParty/CMSIS/Include/cmsis_gcc.h **** #define __WFE()                             __ASM volatile ("wfe")
 851:ThirdParty/CMSIS/Include/cmsis_gcc.h **** 
ARM GAS  /tmp/cc6fvD8U.s 			page 68


 852:ThirdParty/CMSIS/Include/cmsis_gcc.h **** 
 853:ThirdParty/CMSIS/Include/cmsis_gcc.h **** /**
 854:ThirdParty/CMSIS/Include/cmsis_gcc.h ****   \brief   Send Event
 855:ThirdParty/CMSIS/Include/cmsis_gcc.h ****   \details Send Event is a hint instruction. It causes an event to be signaled to the CPU.
 856:ThirdParty/CMSIS/Include/cmsis_gcc.h ****  */
 857:ThirdParty/CMSIS/Include/cmsis_gcc.h **** #define __SEV()                             __ASM volatile ("sev")
 858:ThirdParty/CMSIS/Include/cmsis_gcc.h **** 
 859:ThirdParty/CMSIS/Include/cmsis_gcc.h **** 
 860:ThirdParty/CMSIS/Include/cmsis_gcc.h **** /**
 861:ThirdParty/CMSIS/Include/cmsis_gcc.h ****   \brief   Instruction Synchronization Barrier
 862:ThirdParty/CMSIS/Include/cmsis_gcc.h ****   \details Instruction Synchronization Barrier flushes the pipeline in the processor,
 863:ThirdParty/CMSIS/Include/cmsis_gcc.h ****            so that all instructions following the ISB are fetched from cache or memory,
 864:ThirdParty/CMSIS/Include/cmsis_gcc.h ****            after the instruction has been completed.
 865:ThirdParty/CMSIS/Include/cmsis_gcc.h ****  */
 866:ThirdParty/CMSIS/Include/cmsis_gcc.h **** __STATIC_FORCEINLINE void __ISB(void)
 867:ThirdParty/CMSIS/Include/cmsis_gcc.h **** {
 868:ThirdParty/CMSIS/Include/cmsis_gcc.h ****   __ASM volatile ("isb 0xF":::"memory");
 869:ThirdParty/CMSIS/Include/cmsis_gcc.h **** }
 870:ThirdParty/CMSIS/Include/cmsis_gcc.h **** 
 871:ThirdParty/CMSIS/Include/cmsis_gcc.h **** 
 872:ThirdParty/CMSIS/Include/cmsis_gcc.h **** /**
 873:ThirdParty/CMSIS/Include/cmsis_gcc.h ****   \brief   Data Synchronization Barrier
 874:ThirdParty/CMSIS/Include/cmsis_gcc.h ****   \details Acts as a special kind of Data Memory Barrier.
 875:ThirdParty/CMSIS/Include/cmsis_gcc.h ****            It completes when all explicit memory accesses before this instruction complete.
 876:ThirdParty/CMSIS/Include/cmsis_gcc.h ****  */
 877:ThirdParty/CMSIS/Include/cmsis_gcc.h **** __STATIC_FORCEINLINE void __DSB(void)
 878:ThirdParty/CMSIS/Include/cmsis_gcc.h **** {
 879:ThirdParty/CMSIS/Include/cmsis_gcc.h ****   __ASM volatile ("dsb 0xF":::"memory");
 880:ThirdParty/CMSIS/Include/cmsis_gcc.h **** }
 881:ThirdParty/CMSIS/Include/cmsis_gcc.h **** 
 882:ThirdParty/CMSIS/Include/cmsis_gcc.h **** 
 883:ThirdParty/CMSIS/Include/cmsis_gcc.h **** /**
 884:ThirdParty/CMSIS/Include/cmsis_gcc.h ****   \brief   Data Memory Barrier
 885:ThirdParty/CMSIS/Include/cmsis_gcc.h ****   \details Ensures the apparent order of the explicit memory operations before
 886:ThirdParty/CMSIS/Include/cmsis_gcc.h ****            and after the instruction, without ensuring their completion.
 887:ThirdParty/CMSIS/Include/cmsis_gcc.h ****  */
 888:ThirdParty/CMSIS/Include/cmsis_gcc.h **** __STATIC_FORCEINLINE void __DMB(void)
 889:ThirdParty/CMSIS/Include/cmsis_gcc.h **** {
 890:ThirdParty/CMSIS/Include/cmsis_gcc.h ****   __ASM volatile ("dmb 0xF":::"memory");
 891:ThirdParty/CMSIS/Include/cmsis_gcc.h **** }
 892:ThirdParty/CMSIS/Include/cmsis_gcc.h **** 
 893:ThirdParty/CMSIS/Include/cmsis_gcc.h **** 
 894:ThirdParty/CMSIS/Include/cmsis_gcc.h **** /**
 895:ThirdParty/CMSIS/Include/cmsis_gcc.h ****   \brief   Reverse byte order (32 bit)
 896:ThirdParty/CMSIS/Include/cmsis_gcc.h ****   \details Reverses the byte order in unsigned integer value. For example, 0x12345678 becomes 0x785
 897:ThirdParty/CMSIS/Include/cmsis_gcc.h ****   \param [in]    value  Value to reverse
 898:ThirdParty/CMSIS/Include/cmsis_gcc.h ****   \return               Reversed value
 899:ThirdParty/CMSIS/Include/cmsis_gcc.h ****  */
 900:ThirdParty/CMSIS/Include/cmsis_gcc.h **** __STATIC_FORCEINLINE uint32_t __REV(uint32_t value)
 901:ThirdParty/CMSIS/Include/cmsis_gcc.h **** {
 902:ThirdParty/CMSIS/Include/cmsis_gcc.h **** #if (__GNUC__ > 4) || (__GNUC__ == 4 && __GNUC_MINOR__ >= 5)
 903:ThirdParty/CMSIS/Include/cmsis_gcc.h ****   return __builtin_bswap32(value);
 904:ThirdParty/CMSIS/Include/cmsis_gcc.h **** #else
 905:ThirdParty/CMSIS/Include/cmsis_gcc.h ****   uint32_t result;
 906:ThirdParty/CMSIS/Include/cmsis_gcc.h **** 
 907:ThirdParty/CMSIS/Include/cmsis_gcc.h ****   __ASM volatile ("rev %0, %1" : __CMSIS_GCC_OUT_REG (result) : __CMSIS_GCC_USE_REG (value) );
 908:ThirdParty/CMSIS/Include/cmsis_gcc.h ****   return result;
ARM GAS  /tmp/cc6fvD8U.s 			page 69


 909:ThirdParty/CMSIS/Include/cmsis_gcc.h **** #endif
 910:ThirdParty/CMSIS/Include/cmsis_gcc.h **** }
 911:ThirdParty/CMSIS/Include/cmsis_gcc.h **** 
 912:ThirdParty/CMSIS/Include/cmsis_gcc.h **** 
 913:ThirdParty/CMSIS/Include/cmsis_gcc.h **** /**
 914:ThirdParty/CMSIS/Include/cmsis_gcc.h ****   \brief   Reverse byte order (16 bit)
 915:ThirdParty/CMSIS/Include/cmsis_gcc.h ****   \details Reverses the byte order within each halfword of a word. For example, 0x12345678 becomes 
 916:ThirdParty/CMSIS/Include/cmsis_gcc.h ****   \param [in]    value  Value to reverse
 917:ThirdParty/CMSIS/Include/cmsis_gcc.h ****   \return               Reversed value
 918:ThirdParty/CMSIS/Include/cmsis_gcc.h ****  */
 919:ThirdParty/CMSIS/Include/cmsis_gcc.h **** __STATIC_FORCEINLINE uint32_t __REV16(uint32_t value)
 920:ThirdParty/CMSIS/Include/cmsis_gcc.h **** {
 921:ThirdParty/CMSIS/Include/cmsis_gcc.h ****   uint32_t result;
 922:ThirdParty/CMSIS/Include/cmsis_gcc.h **** 
 923:ThirdParty/CMSIS/Include/cmsis_gcc.h ****   __ASM volatile ("rev16 %0, %1" : __CMSIS_GCC_OUT_REG (result) : __CMSIS_GCC_USE_REG (value) );
 924:ThirdParty/CMSIS/Include/cmsis_gcc.h ****   return result;
 925:ThirdParty/CMSIS/Include/cmsis_gcc.h **** }
 926:ThirdParty/CMSIS/Include/cmsis_gcc.h **** 
 927:ThirdParty/CMSIS/Include/cmsis_gcc.h **** 
 928:ThirdParty/CMSIS/Include/cmsis_gcc.h **** /**
 929:ThirdParty/CMSIS/Include/cmsis_gcc.h ****   \brief   Reverse byte order (16 bit)
 930:ThirdParty/CMSIS/Include/cmsis_gcc.h ****   \details Reverses the byte order in a 16-bit value and returns the signed 16-bit result. For exam
 931:ThirdParty/CMSIS/Include/cmsis_gcc.h ****   \param [in]    value  Value to reverse
 932:ThirdParty/CMSIS/Include/cmsis_gcc.h ****   \return               Reversed value
 933:ThirdParty/CMSIS/Include/cmsis_gcc.h ****  */
 934:ThirdParty/CMSIS/Include/cmsis_gcc.h **** __STATIC_FORCEINLINE int16_t __REVSH(int16_t value)
 935:ThirdParty/CMSIS/Include/cmsis_gcc.h **** {
 936:ThirdParty/CMSIS/Include/cmsis_gcc.h **** #if (__GNUC__ > 4) || (__GNUC__ == 4 && __GNUC_MINOR__ >= 8)
 937:ThirdParty/CMSIS/Include/cmsis_gcc.h ****   return (int16_t)__builtin_bswap16(value);
 938:ThirdParty/CMSIS/Include/cmsis_gcc.h **** #else
 939:ThirdParty/CMSIS/Include/cmsis_gcc.h ****   int16_t result;
 940:ThirdParty/CMSIS/Include/cmsis_gcc.h **** 
 941:ThirdParty/CMSIS/Include/cmsis_gcc.h ****   __ASM volatile ("revsh %0, %1" : __CMSIS_GCC_OUT_REG (result) : __CMSIS_GCC_USE_REG (value) );
 942:ThirdParty/CMSIS/Include/cmsis_gcc.h ****   return result;
 943:ThirdParty/CMSIS/Include/cmsis_gcc.h **** #endif
 944:ThirdParty/CMSIS/Include/cmsis_gcc.h **** }
 945:ThirdParty/CMSIS/Include/cmsis_gcc.h **** 
 946:ThirdParty/CMSIS/Include/cmsis_gcc.h **** 
 947:ThirdParty/CMSIS/Include/cmsis_gcc.h **** /**
 948:ThirdParty/CMSIS/Include/cmsis_gcc.h ****   \brief   Rotate Right in unsigned value (32 bit)
 949:ThirdParty/CMSIS/Include/cmsis_gcc.h ****   \details Rotate Right (immediate) provides the value of the contents of a register rotated by a v
 950:ThirdParty/CMSIS/Include/cmsis_gcc.h ****   \param [in]    op1  Value to rotate
 951:ThirdParty/CMSIS/Include/cmsis_gcc.h ****   \param [in]    op2  Number of Bits to rotate
 952:ThirdParty/CMSIS/Include/cmsis_gcc.h ****   \return               Rotated value
 953:ThirdParty/CMSIS/Include/cmsis_gcc.h ****  */
 954:ThirdParty/CMSIS/Include/cmsis_gcc.h **** __STATIC_FORCEINLINE uint32_t __ROR(uint32_t op1, uint32_t op2)
 955:ThirdParty/CMSIS/Include/cmsis_gcc.h **** {
 956:ThirdParty/CMSIS/Include/cmsis_gcc.h ****   op2 %= 32U;
 957:ThirdParty/CMSIS/Include/cmsis_gcc.h ****   if (op2 == 0U)
 958:ThirdParty/CMSIS/Include/cmsis_gcc.h ****   {
 959:ThirdParty/CMSIS/Include/cmsis_gcc.h ****     return op1;
 960:ThirdParty/CMSIS/Include/cmsis_gcc.h ****   }
 961:ThirdParty/CMSIS/Include/cmsis_gcc.h ****   return (op1 >> op2) | (op1 << (32U - op2));
 962:ThirdParty/CMSIS/Include/cmsis_gcc.h **** }
 963:ThirdParty/CMSIS/Include/cmsis_gcc.h **** 
 964:ThirdParty/CMSIS/Include/cmsis_gcc.h **** 
 965:ThirdParty/CMSIS/Include/cmsis_gcc.h **** /**
ARM GAS  /tmp/cc6fvD8U.s 			page 70


 966:ThirdParty/CMSIS/Include/cmsis_gcc.h ****   \brief   Breakpoint
 967:ThirdParty/CMSIS/Include/cmsis_gcc.h ****   \details Causes the processor to enter Debug state.
 968:ThirdParty/CMSIS/Include/cmsis_gcc.h ****            Debug tools can use this to investigate system state when the instruction at a particula
 969:ThirdParty/CMSIS/Include/cmsis_gcc.h ****   \param [in]    value  is ignored by the processor.
 970:ThirdParty/CMSIS/Include/cmsis_gcc.h ****                  If required, a debugger can use it to store additional information about the break
 971:ThirdParty/CMSIS/Include/cmsis_gcc.h ****  */
 972:ThirdParty/CMSIS/Include/cmsis_gcc.h **** #define __BKPT(value)                       __ASM volatile ("bkpt "#value)
 973:ThirdParty/CMSIS/Include/cmsis_gcc.h **** 
 974:ThirdParty/CMSIS/Include/cmsis_gcc.h **** 
 975:ThirdParty/CMSIS/Include/cmsis_gcc.h **** /**
 976:ThirdParty/CMSIS/Include/cmsis_gcc.h ****   \brief   Reverse bit order of value
 977:ThirdParty/CMSIS/Include/cmsis_gcc.h ****   \details Reverses the bit order of the given value.
 978:ThirdParty/CMSIS/Include/cmsis_gcc.h ****   \param [in]    value  Value to reverse
 979:ThirdParty/CMSIS/Include/cmsis_gcc.h ****   \return               Reversed value
 980:ThirdParty/CMSIS/Include/cmsis_gcc.h ****  */
 981:ThirdParty/CMSIS/Include/cmsis_gcc.h **** __STATIC_FORCEINLINE uint32_t __RBIT(uint32_t value)
 1574              		.loc 2 981 31 view .LVU490
 1575              	.LBB5:
 982:ThirdParty/CMSIS/Include/cmsis_gcc.h **** {
 983:ThirdParty/CMSIS/Include/cmsis_gcc.h ****   uint32_t result;
 1576              		.loc 2 983 3 view .LVU491
 984:ThirdParty/CMSIS/Include/cmsis_gcc.h **** 
 985:ThirdParty/CMSIS/Include/cmsis_gcc.h **** #if ((defined (__ARM_ARCH_7M__      ) && (__ARM_ARCH_7M__      == 1)) || \
 986:ThirdParty/CMSIS/Include/cmsis_gcc.h ****      (defined (__ARM_ARCH_7EM__     ) && (__ARM_ARCH_7EM__     == 1)) || \
 987:ThirdParty/CMSIS/Include/cmsis_gcc.h ****      (defined (__ARM_ARCH_8M_MAIN__ ) && (__ARM_ARCH_8M_MAIN__ == 1))    )
 988:ThirdParty/CMSIS/Include/cmsis_gcc.h ****    __ASM volatile ("rbit %0, %1" : "=r" (result) : "r" (value) );
 1577              		.loc 2 988 4 view .LVU492
 1578              		.syntax unified
 1579              	@ 988 "ThirdParty/CMSIS/Include/cmsis_gcc.h" 1
 1580 0018 91FAA1F1 		rbit r1, r1
 1581              	@ 0 "" 2
 1582              	.LVL95:
 989:ThirdParty/CMSIS/Include/cmsis_gcc.h **** #else
 990:ThirdParty/CMSIS/Include/cmsis_gcc.h ****   uint32_t s = (4U /*sizeof(v)*/ * 8U) - 1U; /* extra shift needed at end */
 991:ThirdParty/CMSIS/Include/cmsis_gcc.h **** 
 992:ThirdParty/CMSIS/Include/cmsis_gcc.h ****   result = value;                      /* r will be reversed bits of v; first get LSB of v */
 993:ThirdParty/CMSIS/Include/cmsis_gcc.h ****   for (value >>= 1U; value != 0U; value >>= 1U)
 994:ThirdParty/CMSIS/Include/cmsis_gcc.h ****   {
 995:ThirdParty/CMSIS/Include/cmsis_gcc.h ****     result <<= 1U;
 996:ThirdParty/CMSIS/Include/cmsis_gcc.h ****     result |= value & 1U;
 997:ThirdParty/CMSIS/Include/cmsis_gcc.h ****     s--;
 998:ThirdParty/CMSIS/Include/cmsis_gcc.h ****   }
 999:ThirdParty/CMSIS/Include/cmsis_gcc.h ****   result <<= s;                        /* shift when v's highest bits are zero */
1000:ThirdParty/CMSIS/Include/cmsis_gcc.h **** #endif
1001:ThirdParty/CMSIS/Include/cmsis_gcc.h ****   return result;
 1583              		.loc 2 1001 3 view .LVU493
 1584              		.loc 2 1001 3 is_stmt 0 view .LVU494
 1585              		.thumb
 1586              		.syntax unified
 1587              	.LBE5:
 1588              	.LBE4:
1101:ThirdParty/STM32F4xx_HAL_Driver/Src/stm32f4xx_hal_can.c **** 
 1589              		.loc 1 1101 21 view .LVU495
 1590 001c B1FA81F1 		clz	r1, r1
 1591              	.LVL96:
1104:ThirdParty/STM32F4xx_HAL_Driver/Src/stm32f4xx_hal_can.c ****   }
 1592              		.loc 1 1104 5 is_stmt 1 view .LVU496
ARM GAS  /tmp/cc6fvD8U.s 			page 71


1104:ThirdParty/STM32F4xx_HAL_Driver/Src/stm32f4xx_hal_can.c ****   }
 1593              		.loc 1 1104 22 is_stmt 0 view .LVU497
 1594 0020 0368     		ldr	r3, [r0]
1104:ThirdParty/STM32F4xx_HAL_Driver/Src/stm32f4xx_hal_can.c ****   }
 1595              		.loc 1 1104 61 view .LVU498
 1596 0022 1831     		adds	r1, r1, #24
 1597              	.LVL97:
1104:ThirdParty/STM32F4xx_HAL_Driver/Src/stm32f4xx_hal_can.c ****   }
 1598              		.loc 1 1104 61 view .LVU499
 1599 0024 03EB0111 		add	r1, r3, r1, lsl #4
 1600              	.LVL98:
1104:ThirdParty/STM32F4xx_HAL_Driver/Src/stm32f4xx_hal_can.c ****   }
 1601              		.loc 1 1104 61 view .LVU500
 1602 0028 4868     		ldr	r0, [r1, #4]
 1603              	.LVL99:
1104:ThirdParty/STM32F4xx_HAL_Driver/Src/stm32f4xx_hal_can.c ****   }
 1604              		.loc 1 1104 85 view .LVU501
 1605 002a 000C     		lsrs	r0, r0, #16
 1606              	.LVL100:
1104:ThirdParty/STM32F4xx_HAL_Driver/Src/stm32f4xx_hal_can.c ****   }
 1607              		.loc 1 1104 85 view .LVU502
 1608 002c 7047     		bx	lr
 1609              		.cfi_endproc
 1610              	.LFE147:
 1612              		.section	.text.HAL_CAN_GetRxMessage,"ax",%progbits
 1613              		.align	1
 1614              		.global	HAL_CAN_GetRxMessage
 1615              		.syntax unified
 1616              		.thumb
 1617              		.thumb_func
 1619              	HAL_CAN_GetRxMessage:
 1620              	.LVL101:
 1621              	.LFB148:
1110:ThirdParty/STM32F4xx_HAL_Driver/Src/stm32f4xx_hal_can.c **** 
1111:ThirdParty/STM32F4xx_HAL_Driver/Src/stm32f4xx_hal_can.c **** /**
1112:ThirdParty/STM32F4xx_HAL_Driver/Src/stm32f4xx_hal_can.c ****   * @brief  Get an CAN frame from the Rx FIFO zone into the message RAM.
1113:ThirdParty/STM32F4xx_HAL_Driver/Src/stm32f4xx_hal_can.c ****   * @param  hcan pointer to an CAN_HandleTypeDef structure that contains
1114:ThirdParty/STM32F4xx_HAL_Driver/Src/stm32f4xx_hal_can.c ****   *         the configuration information for the specified CAN.
1115:ThirdParty/STM32F4xx_HAL_Driver/Src/stm32f4xx_hal_can.c ****   * @param  RxFifo Fifo number of the received message to be read.
1116:ThirdParty/STM32F4xx_HAL_Driver/Src/stm32f4xx_hal_can.c ****   *         This parameter can be a value of @arg CAN_receive_FIFO_number.
1117:ThirdParty/STM32F4xx_HAL_Driver/Src/stm32f4xx_hal_can.c ****   * @param  pHeader pointer to a CAN_RxHeaderTypeDef structure where the header
1118:ThirdParty/STM32F4xx_HAL_Driver/Src/stm32f4xx_hal_can.c ****   *         of the Rx frame will be stored.
1119:ThirdParty/STM32F4xx_HAL_Driver/Src/stm32f4xx_hal_can.c ****   * @param  aData array where the payload of the Rx frame will be stored.
1120:ThirdParty/STM32F4xx_HAL_Driver/Src/stm32f4xx_hal_can.c ****   * @retval HAL status
1121:ThirdParty/STM32F4xx_HAL_Driver/Src/stm32f4xx_hal_can.c ****   */
1122:ThirdParty/STM32F4xx_HAL_Driver/Src/stm32f4xx_hal_can.c **** HAL_StatusTypeDef HAL_CAN_GetRxMessage(CAN_HandleTypeDef *hcan, uint32_t RxFifo, CAN_RxHeaderTypeDe
1123:ThirdParty/STM32F4xx_HAL_Driver/Src/stm32f4xx_hal_can.c **** {
 1622              		.loc 1 1123 1 is_stmt 1 view -0
 1623              		.cfi_startproc
 1624              		@ args = 0, pretend = 0, frame = 0
 1625              		@ frame_needed = 0, uses_anonymous_args = 0
 1626              		@ link register save eliminated.
1124:ThirdParty/STM32F4xx_HAL_Driver/Src/stm32f4xx_hal_can.c ****   assert_param(IS_CAN_RX_FIFO(RxFifo));
 1627              		.loc 1 1124 3 view .LVU504
1125:ThirdParty/STM32F4xx_HAL_Driver/Src/stm32f4xx_hal_can.c **** 
1126:ThirdParty/STM32F4xx_HAL_Driver/Src/stm32f4xx_hal_can.c ****   if ((hcan->State == HAL_CAN_STATE_READY) ||
 1628              		.loc 1 1126 3 view .LVU505
ARM GAS  /tmp/cc6fvD8U.s 			page 72


 1629              		.loc 1 1126 12 is_stmt 0 view .LVU506
 1630 0000 90F820C0 		ldrb	ip, [r0, #32]	@ zero_extendqisi2
 1631 0004 5FFA8CFC 		uxtb	ip, ip
 1632              		.loc 1 1126 6 view .LVU507
 1633 0008 BCF1010F 		cmp	ip, #1
 1634 000c 07D0     		beq	.L134
1127:ThirdParty/STM32F4xx_HAL_Driver/Src/stm32f4xx_hal_can.c ****       (hcan->State == HAL_CAN_STATE_LISTENING))
 1635              		.loc 1 1127 12 discriminator 1 view .LVU508
 1636 000e 90F820C0 		ldrb	ip, [r0, #32]	@ zero_extendqisi2
 1637 0012 5FFA8CFC 		uxtb	ip, ip
1126:ThirdParty/STM32F4xx_HAL_Driver/Src/stm32f4xx_hal_can.c ****       (hcan->State == HAL_CAN_STATE_LISTENING))
 1638              		.loc 1 1126 44 discriminator 1 view .LVU509
 1639 0016 BCF1020F 		cmp	ip, #2
 1640 001a 40F09580 		bne	.L135
 1641              	.L134:
1123:ThirdParty/STM32F4xx_HAL_Driver/Src/stm32f4xx_hal_can.c ****   assert_param(IS_CAN_RX_FIFO(RxFifo));
 1642              		.loc 1 1123 1 view .LVU510
 1643 001e 30B4     		push	{r4, r5}
 1644              	.LCFI14:
 1645              		.cfi_def_cfa_offset 8
 1646              		.cfi_offset 4, -8
 1647              		.cfi_offset 5, -4
1128:ThirdParty/STM32F4xx_HAL_Driver/Src/stm32f4xx_hal_can.c ****   {
1129:ThirdParty/STM32F4xx_HAL_Driver/Src/stm32f4xx_hal_can.c ****     /* Check the Rx FIFO */
1130:ThirdParty/STM32F4xx_HAL_Driver/Src/stm32f4xx_hal_can.c ****     if (RxFifo == CAN_RX_FIFO0) /* Rx element is assigned to Rx FIFO 0 */
 1648              		.loc 1 1130 5 is_stmt 1 view .LVU511
 1649              		.loc 1 1130 8 is_stmt 0 view .LVU512
 1650 0020 51B9     		cbnz	r1, .L136
1131:ThirdParty/STM32F4xx_HAL_Driver/Src/stm32f4xx_hal_can.c ****     {
1132:ThirdParty/STM32F4xx_HAL_Driver/Src/stm32f4xx_hal_can.c ****       /* Check that the Rx FIFO 0 is not empty */
1133:ThirdParty/STM32F4xx_HAL_Driver/Src/stm32f4xx_hal_can.c ****       if ((hcan->Instance->RF0R & CAN_RF0R_FMP0) == RESET)
 1651              		.loc 1 1133 7 is_stmt 1 view .LVU513
 1652              		.loc 1 1133 16 is_stmt 0 view .LVU514
 1653 0022 0468     		ldr	r4, [r0]
 1654              		.loc 1 1133 26 view .LVU515
 1655 0024 E468     		ldr	r4, [r4, #12]
 1656              		.loc 1 1133 10 view .LVU516
 1657 0026 14F0030F 		tst	r4, #3
 1658 002a 12D1     		bne	.L137
1134:ThirdParty/STM32F4xx_HAL_Driver/Src/stm32f4xx_hal_can.c ****       {
1135:ThirdParty/STM32F4xx_HAL_Driver/Src/stm32f4xx_hal_can.c ****         /* Update error code */
1136:ThirdParty/STM32F4xx_HAL_Driver/Src/stm32f4xx_hal_can.c ****         hcan->ErrorCode |= HAL_CAN_ERROR_PARAM;
 1659              		.loc 1 1136 9 is_stmt 1 view .LVU517
 1660              		.loc 1 1136 25 is_stmt 0 view .LVU518
 1661 002c 436A     		ldr	r3, [r0, #36]
 1662              	.LVL102:
 1663              		.loc 1 1136 25 view .LVU519
 1664 002e 43F40013 		orr	r3, r3, #2097152
 1665 0032 4362     		str	r3, [r0, #36]
1137:ThirdParty/STM32F4xx_HAL_Driver/Src/stm32f4xx_hal_can.c **** 
1138:ThirdParty/STM32F4xx_HAL_Driver/Src/stm32f4xx_hal_can.c ****         return HAL_ERROR;
 1666              		.loc 1 1138 9 is_stmt 1 view .LVU520
 1667              		.loc 1 1138 16 is_stmt 0 view .LVU521
 1668 0034 0120     		movs	r0, #1
 1669              	.LVL103:
 1670              		.loc 1 1138 16 view .LVU522
 1671 0036 75E0     		b	.L138
ARM GAS  /tmp/cc6fvD8U.s 			page 73


 1672              	.LVL104:
 1673              	.L136:
1139:ThirdParty/STM32F4xx_HAL_Driver/Src/stm32f4xx_hal_can.c ****       }
1140:ThirdParty/STM32F4xx_HAL_Driver/Src/stm32f4xx_hal_can.c ****     }
1141:ThirdParty/STM32F4xx_HAL_Driver/Src/stm32f4xx_hal_can.c ****     else if (RxFifo == CAN_RX_FIFO1) /* Rx element is assigned to Rx FIFO 1 */
 1674              		.loc 1 1141 10 is_stmt 1 view .LVU523
 1675              		.loc 1 1141 13 is_stmt 0 view .LVU524
 1676 0038 0129     		cmp	r1, #1
 1677 003a 0AD1     		bne	.L137
1142:ThirdParty/STM32F4xx_HAL_Driver/Src/stm32f4xx_hal_can.c ****     {
1143:ThirdParty/STM32F4xx_HAL_Driver/Src/stm32f4xx_hal_can.c ****       /* Check that the Rx FIFO 1 is not empty */
1144:ThirdParty/STM32F4xx_HAL_Driver/Src/stm32f4xx_hal_can.c ****       if ((hcan->Instance->RF1R & CAN_RF1R_FMP1) == RESET)
 1678              		.loc 1 1144 7 is_stmt 1 view .LVU525
 1679              		.loc 1 1144 16 is_stmt 0 view .LVU526
 1680 003c 0468     		ldr	r4, [r0]
 1681              		.loc 1 1144 26 view .LVU527
 1682 003e 2469     		ldr	r4, [r4, #16]
 1683              		.loc 1 1144 10 view .LVU528
 1684 0040 14F0030F 		tst	r4, #3
 1685 0044 05D1     		bne	.L137
1145:ThirdParty/STM32F4xx_HAL_Driver/Src/stm32f4xx_hal_can.c ****       {
1146:ThirdParty/STM32F4xx_HAL_Driver/Src/stm32f4xx_hal_can.c ****         /* Update error code */
1147:ThirdParty/STM32F4xx_HAL_Driver/Src/stm32f4xx_hal_can.c ****         hcan->ErrorCode |= HAL_CAN_ERROR_PARAM;
 1686              		.loc 1 1147 9 is_stmt 1 view .LVU529
 1687              		.loc 1 1147 25 is_stmt 0 view .LVU530
 1688 0046 436A     		ldr	r3, [r0, #36]
 1689              	.LVL105:
 1690              		.loc 1 1147 25 view .LVU531
 1691 0048 43F40013 		orr	r3, r3, #2097152
 1692 004c 4362     		str	r3, [r0, #36]
1148:ThirdParty/STM32F4xx_HAL_Driver/Src/stm32f4xx_hal_can.c **** 
1149:ThirdParty/STM32F4xx_HAL_Driver/Src/stm32f4xx_hal_can.c ****         return HAL_ERROR;
 1693              		.loc 1 1149 9 is_stmt 1 view .LVU532
 1694              		.loc 1 1149 16 is_stmt 0 view .LVU533
 1695 004e 0120     		movs	r0, #1
 1696              	.LVL106:
 1697              		.loc 1 1149 16 view .LVU534
 1698 0050 68E0     		b	.L138
 1699              	.LVL107:
 1700              	.L137:
1150:ThirdParty/STM32F4xx_HAL_Driver/Src/stm32f4xx_hal_can.c ****       }
1151:ThirdParty/STM32F4xx_HAL_Driver/Src/stm32f4xx_hal_can.c ****     }
1152:ThirdParty/STM32F4xx_HAL_Driver/Src/stm32f4xx_hal_can.c **** 
1153:ThirdParty/STM32F4xx_HAL_Driver/Src/stm32f4xx_hal_can.c ****     /* Get the header */
1154:ThirdParty/STM32F4xx_HAL_Driver/Src/stm32f4xx_hal_can.c ****     pHeader->IDE = CAN_RI0R_IDE & hcan->Instance->sFIFOMailBox[RxFifo].RIR;
 1701              		.loc 1 1154 5 is_stmt 1 view .LVU535
 1702              		.loc 1 1154 71 is_stmt 0 view .LVU536
 1703 0052 01F11B04 		add	r4, r1, #27
 1704 0056 2401     		lsls	r4, r4, #4
 1705 0058 0568     		ldr	r5, [r0]
 1706 005a 2C59     		ldr	r4, [r5, r4]
 1707              		.loc 1 1154 33 view .LVU537
 1708 005c 04F00404 		and	r4, r4, #4
 1709              		.loc 1 1154 18 view .LVU538
 1710 0060 9460     		str	r4, [r2, #8]
1155:ThirdParty/STM32F4xx_HAL_Driver/Src/stm32f4xx_hal_can.c ****     if (pHeader->IDE == CAN_ID_STD)
 1711              		.loc 1 1155 5 is_stmt 1 view .LVU539
ARM GAS  /tmp/cc6fvD8U.s 			page 74


 1712              		.loc 1 1155 8 is_stmt 0 view .LVU540
 1713 0062 002C     		cmp	r4, #0
 1714 0064 60D1     		bne	.L139
1156:ThirdParty/STM32F4xx_HAL_Driver/Src/stm32f4xx_hal_can.c ****     {
1157:ThirdParty/STM32F4xx_HAL_Driver/Src/stm32f4xx_hal_can.c ****       pHeader->StdId = (CAN_RI0R_STID & hcan->Instance->sFIFOMailBox[RxFifo].RIR) >> CAN_TI0R_STID_
 1715              		.loc 1 1157 7 is_stmt 1 view .LVU541
 1716              		.loc 1 1157 77 is_stmt 0 view .LVU542
 1717 0066 01F11B04 		add	r4, r1, #27
 1718 006a 2401     		lsls	r4, r4, #4
 1719 006c 0568     		ldr	r5, [r0]
 1720 006e 2C59     		ldr	r4, [r5, r4]
 1721              		.loc 1 1157 83 view .LVU543
 1722 0070 640D     		lsrs	r4, r4, #21
 1723              		.loc 1 1157 22 view .LVU544
 1724 0072 1460     		str	r4, [r2]
 1725              	.L140:
1158:ThirdParty/STM32F4xx_HAL_Driver/Src/stm32f4xx_hal_can.c ****     }
1159:ThirdParty/STM32F4xx_HAL_Driver/Src/stm32f4xx_hal_can.c ****     else
1160:ThirdParty/STM32F4xx_HAL_Driver/Src/stm32f4xx_hal_can.c ****     {
1161:ThirdParty/STM32F4xx_HAL_Driver/Src/stm32f4xx_hal_can.c ****       pHeader->ExtId = ((CAN_RI0R_EXID | CAN_RI0R_STID) & hcan->Instance->sFIFOMailBox[RxFifo].RIR)
1162:ThirdParty/STM32F4xx_HAL_Driver/Src/stm32f4xx_hal_can.c ****     }
1163:ThirdParty/STM32F4xx_HAL_Driver/Src/stm32f4xx_hal_can.c ****     pHeader->RTR = (CAN_RI0R_RTR & hcan->Instance->sFIFOMailBox[RxFifo].RIR) >> CAN_RI0R_RTR_Pos;
 1726              		.loc 1 1163 5 is_stmt 1 view .LVU545
 1727              		.loc 1 1163 40 is_stmt 0 view .LVU546
 1728 0074 0468     		ldr	r4, [r0]
 1729              		.loc 1 1163 72 view .LVU547
 1730 0076 01F11B0C 		add	ip, r1, #27
 1731 007a 4FEA0C1C 		lsl	ip, ip, #4
 1732 007e 54F80C40 		ldr	r4, [r4, ip]
 1733              		.loc 1 1163 78 view .LVU548
 1734 0082 C4F34004 		ubfx	r4, r4, #1, #1
 1735              		.loc 1 1163 18 view .LVU549
 1736 0086 D460     		str	r4, [r2, #12]
1164:ThirdParty/STM32F4xx_HAL_Driver/Src/stm32f4xx_hal_can.c ****     pHeader->DLC = (CAN_RDT0R_DLC & hcan->Instance->sFIFOMailBox[RxFifo].RDTR) >> CAN_RDT0R_DLC_Pos
 1737              		.loc 1 1164 5 is_stmt 1 view .LVU550
 1738              		.loc 1 1164 41 is_stmt 0 view .LVU551
 1739 0088 0468     		ldr	r4, [r0]
 1740              		.loc 1 1164 73 view .LVU552
 1741 008a 6444     		add	r4, r4, ip
 1742 008c 6468     		ldr	r4, [r4, #4]
 1743              		.loc 1 1164 80 view .LVU553
 1744 008e 04F00F04 		and	r4, r4, #15
 1745              		.loc 1 1164 18 view .LVU554
 1746 0092 1461     		str	r4, [r2, #16]
1165:ThirdParty/STM32F4xx_HAL_Driver/Src/stm32f4xx_hal_can.c ****     pHeader->FilterMatchIndex = (CAN_RDT0R_FMI & hcan->Instance->sFIFOMailBox[RxFifo].RDTR) >> CAN_
 1747              		.loc 1 1165 5 is_stmt 1 view .LVU555
 1748              		.loc 1 1165 54 is_stmt 0 view .LVU556
 1749 0094 0468     		ldr	r4, [r0]
 1750              		.loc 1 1165 86 view .LVU557
 1751 0096 6444     		add	r4, r4, ip
 1752 0098 6468     		ldr	r4, [r4, #4]
 1753              		.loc 1 1165 93 view .LVU558
 1754 009a C4F30724 		ubfx	r4, r4, #8, #8
 1755              		.loc 1 1165 31 view .LVU559
 1756 009e 9461     		str	r4, [r2, #24]
1166:ThirdParty/STM32F4xx_HAL_Driver/Src/stm32f4xx_hal_can.c ****     pHeader->Timestamp = (CAN_RDT0R_TIME & hcan->Instance->sFIFOMailBox[RxFifo].RDTR) >> CAN_RDT0R_
 1757              		.loc 1 1166 5 is_stmt 1 view .LVU560
ARM GAS  /tmp/cc6fvD8U.s 			page 75


 1758              		.loc 1 1166 48 is_stmt 0 view .LVU561
 1759 00a0 0468     		ldr	r4, [r0]
 1760              		.loc 1 1166 80 view .LVU562
 1761 00a2 6444     		add	r4, r4, ip
 1762 00a4 6468     		ldr	r4, [r4, #4]
 1763              		.loc 1 1166 87 view .LVU563
 1764 00a6 240C     		lsrs	r4, r4, #16
 1765              		.loc 1 1166 24 view .LVU564
 1766 00a8 5461     		str	r4, [r2, #20]
1167:ThirdParty/STM32F4xx_HAL_Driver/Src/stm32f4xx_hal_can.c **** 
1168:ThirdParty/STM32F4xx_HAL_Driver/Src/stm32f4xx_hal_can.c ****     /* Get the data */
1169:ThirdParty/STM32F4xx_HAL_Driver/Src/stm32f4xx_hal_can.c ****     aData[0] = (CAN_RDL0R_DATA0 & hcan->Instance->sFIFOMailBox[RxFifo].RDLR) >> CAN_RDL0R_DATA0_Pos
 1767              		.loc 1 1169 5 is_stmt 1 view .LVU565
 1768              		.loc 1 1169 39 is_stmt 0 view .LVU566
 1769 00aa 0268     		ldr	r2, [r0]
 1770              	.LVL108:
 1771              		.loc 1 1169 71 view .LVU567
 1772 00ac 02EB0112 		add	r2, r2, r1, lsl #4
 1773 00b0 D2F8B821 		ldr	r2, [r2, #440]
 1774              		.loc 1 1169 14 view .LVU568
 1775 00b4 1A70     		strb	r2, [r3]
1170:ThirdParty/STM32F4xx_HAL_Driver/Src/stm32f4xx_hal_can.c ****     aData[1] = (CAN_RDL0R_DATA1 & hcan->Instance->sFIFOMailBox[RxFifo].RDLR) >> CAN_RDL0R_DATA1_Pos
 1776              		.loc 1 1170 5 is_stmt 1 view .LVU569
 1777              		.loc 1 1170 39 is_stmt 0 view .LVU570
 1778 00b6 0268     		ldr	r2, [r0]
 1779              		.loc 1 1170 71 view .LVU571
 1780 00b8 02EB0112 		add	r2, r2, r1, lsl #4
 1781 00bc D2F8B821 		ldr	r2, [r2, #440]
 1782              		.loc 1 1170 78 view .LVU572
 1783 00c0 120A     		lsrs	r2, r2, #8
 1784              		.loc 1 1170 14 view .LVU573
 1785 00c2 5A70     		strb	r2, [r3, #1]
1171:ThirdParty/STM32F4xx_HAL_Driver/Src/stm32f4xx_hal_can.c ****     aData[2] = (CAN_RDL0R_DATA2 & hcan->Instance->sFIFOMailBox[RxFifo].RDLR) >> CAN_RDL0R_DATA2_Pos
 1786              		.loc 1 1171 5 is_stmt 1 view .LVU574
 1787              		.loc 1 1171 39 is_stmt 0 view .LVU575
 1788 00c4 0268     		ldr	r2, [r0]
 1789              		.loc 1 1171 71 view .LVU576
 1790 00c6 02EB0112 		add	r2, r2, r1, lsl #4
 1791 00ca D2F8B821 		ldr	r2, [r2, #440]
 1792              		.loc 1 1171 78 view .LVU577
 1793 00ce 120C     		lsrs	r2, r2, #16
 1794              		.loc 1 1171 14 view .LVU578
 1795 00d0 9A70     		strb	r2, [r3, #2]
1172:ThirdParty/STM32F4xx_HAL_Driver/Src/stm32f4xx_hal_can.c ****     aData[3] = (CAN_RDL0R_DATA3 & hcan->Instance->sFIFOMailBox[RxFifo].RDLR) >> CAN_RDL0R_DATA3_Pos
 1796              		.loc 1 1172 5 is_stmt 1 view .LVU579
 1797              		.loc 1 1172 39 is_stmt 0 view .LVU580
 1798 00d2 0268     		ldr	r2, [r0]
 1799              		.loc 1 1172 71 view .LVU581
 1800 00d4 02EB0112 		add	r2, r2, r1, lsl #4
 1801 00d8 D2F8B821 		ldr	r2, [r2, #440]
 1802              		.loc 1 1172 78 view .LVU582
 1803 00dc 120E     		lsrs	r2, r2, #24
 1804              		.loc 1 1172 14 view .LVU583
 1805 00de DA70     		strb	r2, [r3, #3]
1173:ThirdParty/STM32F4xx_HAL_Driver/Src/stm32f4xx_hal_can.c ****     aData[4] = (CAN_RDH0R_DATA4 & hcan->Instance->sFIFOMailBox[RxFifo].RDHR) >> CAN_RDH0R_DATA4_Pos
 1806              		.loc 1 1173 5 is_stmt 1 view .LVU584
 1807              		.loc 1 1173 39 is_stmt 0 view .LVU585
ARM GAS  /tmp/cc6fvD8U.s 			page 76


 1808 00e0 0268     		ldr	r2, [r0]
 1809              		.loc 1 1173 71 view .LVU586
 1810 00e2 02EB0112 		add	r2, r2, r1, lsl #4
 1811 00e6 D2F8BC21 		ldr	r2, [r2, #444]
 1812              		.loc 1 1173 14 view .LVU587
 1813 00ea 1A71     		strb	r2, [r3, #4]
1174:ThirdParty/STM32F4xx_HAL_Driver/Src/stm32f4xx_hal_can.c ****     aData[5] = (CAN_RDH0R_DATA5 & hcan->Instance->sFIFOMailBox[RxFifo].RDHR) >> CAN_RDH0R_DATA5_Pos
 1814              		.loc 1 1174 5 is_stmt 1 view .LVU588
 1815              		.loc 1 1174 39 is_stmt 0 view .LVU589
 1816 00ec 0268     		ldr	r2, [r0]
 1817              		.loc 1 1174 71 view .LVU590
 1818 00ee 02EB0112 		add	r2, r2, r1, lsl #4
 1819 00f2 D2F8BC21 		ldr	r2, [r2, #444]
 1820              		.loc 1 1174 78 view .LVU591
 1821 00f6 120A     		lsrs	r2, r2, #8
 1822              		.loc 1 1174 14 view .LVU592
 1823 00f8 5A71     		strb	r2, [r3, #5]
1175:ThirdParty/STM32F4xx_HAL_Driver/Src/stm32f4xx_hal_can.c ****     aData[6] = (CAN_RDH0R_DATA6 & hcan->Instance->sFIFOMailBox[RxFifo].RDHR) >> CAN_RDH0R_DATA6_Pos
 1824              		.loc 1 1175 5 is_stmt 1 view .LVU593
 1825              		.loc 1 1175 39 is_stmt 0 view .LVU594
 1826 00fa 0268     		ldr	r2, [r0]
 1827              		.loc 1 1175 71 view .LVU595
 1828 00fc 02EB0112 		add	r2, r2, r1, lsl #4
 1829 0100 D2F8BC21 		ldr	r2, [r2, #444]
 1830              		.loc 1 1175 78 view .LVU596
 1831 0104 120C     		lsrs	r2, r2, #16
 1832              		.loc 1 1175 14 view .LVU597
 1833 0106 9A71     		strb	r2, [r3, #6]
1176:ThirdParty/STM32F4xx_HAL_Driver/Src/stm32f4xx_hal_can.c ****     aData[7] = (CAN_RDH0R_DATA7 & hcan->Instance->sFIFOMailBox[RxFifo].RDHR) >> CAN_RDH0R_DATA7_Pos
 1834              		.loc 1 1176 5 is_stmt 1 view .LVU598
 1835              		.loc 1 1176 39 is_stmt 0 view .LVU599
 1836 0108 0268     		ldr	r2, [r0]
 1837              		.loc 1 1176 71 view .LVU600
 1838 010a 02EB0112 		add	r2, r2, r1, lsl #4
 1839 010e D2F8BC21 		ldr	r2, [r2, #444]
 1840              		.loc 1 1176 78 view .LVU601
 1841 0112 120E     		lsrs	r2, r2, #24
 1842              		.loc 1 1176 14 view .LVU602
 1843 0114 DA71     		strb	r2, [r3, #7]
1177:ThirdParty/STM32F4xx_HAL_Driver/Src/stm32f4xx_hal_can.c **** 
1178:ThirdParty/STM32F4xx_HAL_Driver/Src/stm32f4xx_hal_can.c ****     /* Release the FIFO */
1179:ThirdParty/STM32F4xx_HAL_Driver/Src/stm32f4xx_hal_can.c ****     if (RxFifo == CAN_RX_FIFO0) /* Rx element is assigned to Rx FIFO 0 */
 1844              		.loc 1 1179 5 is_stmt 1 view .LVU603
 1845              		.loc 1 1179 8 is_stmt 0 view .LVU604
 1846 0116 79B9     		cbnz	r1, .L141
1180:ThirdParty/STM32F4xx_HAL_Driver/Src/stm32f4xx_hal_can.c ****     {
1181:ThirdParty/STM32F4xx_HAL_Driver/Src/stm32f4xx_hal_can.c ****       /* Release RX FIFO 0 */
1182:ThirdParty/STM32F4xx_HAL_Driver/Src/stm32f4xx_hal_can.c ****       SET_BIT(hcan->Instance->RF0R, CAN_RF0R_RFOM0);
 1847              		.loc 1 1182 7 is_stmt 1 view .LVU605
 1848 0118 0268     		ldr	r2, [r0]
 1849 011a D368     		ldr	r3, [r2, #12]
 1850              	.LVL109:
 1851              		.loc 1 1182 7 is_stmt 0 view .LVU606
 1852 011c 43F02003 		orr	r3, r3, #32
 1853 0120 D360     		str	r3, [r2, #12]
 1854              	.L142:
1183:ThirdParty/STM32F4xx_HAL_Driver/Src/stm32f4xx_hal_can.c ****     }
ARM GAS  /tmp/cc6fvD8U.s 			page 77


1184:ThirdParty/STM32F4xx_HAL_Driver/Src/stm32f4xx_hal_can.c ****     else if (RxFifo == CAN_RX_FIFO1) /* Rx element is assigned to Rx FIFO 1 */
1185:ThirdParty/STM32F4xx_HAL_Driver/Src/stm32f4xx_hal_can.c ****     {
1186:ThirdParty/STM32F4xx_HAL_Driver/Src/stm32f4xx_hal_can.c ****       /* Release RX FIFO 1 */
1187:ThirdParty/STM32F4xx_HAL_Driver/Src/stm32f4xx_hal_can.c ****       SET_BIT(hcan->Instance->RF1R, CAN_RF1R_RFOM1);
1188:ThirdParty/STM32F4xx_HAL_Driver/Src/stm32f4xx_hal_can.c ****     }
1189:ThirdParty/STM32F4xx_HAL_Driver/Src/stm32f4xx_hal_can.c **** 
1190:ThirdParty/STM32F4xx_HAL_Driver/Src/stm32f4xx_hal_can.c ****     /* Return function status */
1191:ThirdParty/STM32F4xx_HAL_Driver/Src/stm32f4xx_hal_can.c ****     return HAL_OK;
 1855              		.loc 1 1191 5 is_stmt 1 view .LVU607
 1856              		.loc 1 1191 12 is_stmt 0 view .LVU608
 1857 0122 0020     		movs	r0, #0
 1858              	.LVL110:
 1859              	.L138:
1192:ThirdParty/STM32F4xx_HAL_Driver/Src/stm32f4xx_hal_can.c ****   }
1193:ThirdParty/STM32F4xx_HAL_Driver/Src/stm32f4xx_hal_can.c ****   else
1194:ThirdParty/STM32F4xx_HAL_Driver/Src/stm32f4xx_hal_can.c ****   {
1195:ThirdParty/STM32F4xx_HAL_Driver/Src/stm32f4xx_hal_can.c ****     /* Update error code */
1196:ThirdParty/STM32F4xx_HAL_Driver/Src/stm32f4xx_hal_can.c ****     hcan->ErrorCode |= HAL_CAN_ERROR_NOT_INITIALIZED;
1197:ThirdParty/STM32F4xx_HAL_Driver/Src/stm32f4xx_hal_can.c **** 
1198:ThirdParty/STM32F4xx_HAL_Driver/Src/stm32f4xx_hal_can.c ****     return HAL_ERROR;
1199:ThirdParty/STM32F4xx_HAL_Driver/Src/stm32f4xx_hal_can.c ****   }
1200:ThirdParty/STM32F4xx_HAL_Driver/Src/stm32f4xx_hal_can.c **** }
 1860              		.loc 1 1200 1 view .LVU609
 1861 0124 30BC     		pop	{r4, r5}
 1862              	.LCFI15:
 1863              		.cfi_remember_state
 1864              		.cfi_restore 5
 1865              		.cfi_restore 4
 1866              		.cfi_def_cfa_offset 0
 1867 0126 7047     		bx	lr
 1868              	.LVL111:
 1869              	.L139:
 1870              	.LCFI16:
 1871              		.cfi_restore_state
1161:ThirdParty/STM32F4xx_HAL_Driver/Src/stm32f4xx_hal_can.c ****     }
 1872              		.loc 1 1161 7 is_stmt 1 view .LVU610
1161:ThirdParty/STM32F4xx_HAL_Driver/Src/stm32f4xx_hal_can.c ****     }
 1873              		.loc 1 1161 95 is_stmt 0 view .LVU611
 1874 0128 01F11B04 		add	r4, r1, #27
 1875 012c 2401     		lsls	r4, r4, #4
 1876 012e 0568     		ldr	r5, [r0]
 1877 0130 2C59     		ldr	r4, [r5, r4]
1161:ThirdParty/STM32F4xx_HAL_Driver/Src/stm32f4xx_hal_can.c ****     }
 1878              		.loc 1 1161 101 view .LVU612
 1879 0132 E408     		lsrs	r4, r4, #3
1161:ThirdParty/STM32F4xx_HAL_Driver/Src/stm32f4xx_hal_can.c ****     }
 1880              		.loc 1 1161 22 view .LVU613
 1881 0134 5460     		str	r4, [r2, #4]
 1882 0136 9DE7     		b	.L140
 1883              	.LVL112:
 1884              	.L141:
1184:ThirdParty/STM32F4xx_HAL_Driver/Src/stm32f4xx_hal_can.c ****     {
 1885              		.loc 1 1184 10 is_stmt 1 view .LVU614
1184:ThirdParty/STM32F4xx_HAL_Driver/Src/stm32f4xx_hal_can.c ****     {
 1886              		.loc 1 1184 13 is_stmt 0 view .LVU615
 1887 0138 0129     		cmp	r1, #1
 1888 013a F2D1     		bne	.L142
ARM GAS  /tmp/cc6fvD8U.s 			page 78


1187:ThirdParty/STM32F4xx_HAL_Driver/Src/stm32f4xx_hal_can.c ****     }
 1889              		.loc 1 1187 7 is_stmt 1 view .LVU616
 1890 013c 0268     		ldr	r2, [r0]
 1891 013e 1369     		ldr	r3, [r2, #16]
 1892              	.LVL113:
1187:ThirdParty/STM32F4xx_HAL_Driver/Src/stm32f4xx_hal_can.c ****     }
 1893              		.loc 1 1187 7 is_stmt 0 view .LVU617
 1894 0140 43F02003 		orr	r3, r3, #32
 1895 0144 1361     		str	r3, [r2, #16]
 1896 0146 ECE7     		b	.L142
 1897              	.LVL114:
 1898              	.L135:
 1899              	.LCFI17:
 1900              		.cfi_def_cfa_offset 0
 1901              		.cfi_restore 4
 1902              		.cfi_restore 5
1196:ThirdParty/STM32F4xx_HAL_Driver/Src/stm32f4xx_hal_can.c **** 
 1903              		.loc 1 1196 5 is_stmt 1 view .LVU618
1196:ThirdParty/STM32F4xx_HAL_Driver/Src/stm32f4xx_hal_can.c **** 
 1904              		.loc 1 1196 21 is_stmt 0 view .LVU619
 1905 0148 436A     		ldr	r3, [r0, #36]
 1906              	.LVL115:
1196:ThirdParty/STM32F4xx_HAL_Driver/Src/stm32f4xx_hal_can.c **** 
 1907              		.loc 1 1196 21 view .LVU620
 1908 014a 43F48023 		orr	r3, r3, #262144
 1909 014e 4362     		str	r3, [r0, #36]
1198:ThirdParty/STM32F4xx_HAL_Driver/Src/stm32f4xx_hal_can.c ****   }
 1910              		.loc 1 1198 5 is_stmt 1 view .LVU621
1198:ThirdParty/STM32F4xx_HAL_Driver/Src/stm32f4xx_hal_can.c ****   }
 1911              		.loc 1 1198 12 is_stmt 0 view .LVU622
 1912 0150 0120     		movs	r0, #1
 1913              	.LVL116:
 1914              		.loc 1 1200 1 view .LVU623
 1915 0152 7047     		bx	lr
 1916              		.cfi_endproc
 1917              	.LFE148:
 1919              		.section	.text.HAL_CAN_GetRxFifoFillLevel,"ax",%progbits
 1920              		.align	1
 1921              		.global	HAL_CAN_GetRxFifoFillLevel
 1922              		.syntax unified
 1923              		.thumb
 1924              		.thumb_func
 1926              	HAL_CAN_GetRxFifoFillLevel:
 1927              	.LVL117:
 1928              	.LFB149:
1201:ThirdParty/STM32F4xx_HAL_Driver/Src/stm32f4xx_hal_can.c **** 
1202:ThirdParty/STM32F4xx_HAL_Driver/Src/stm32f4xx_hal_can.c **** /**
1203:ThirdParty/STM32F4xx_HAL_Driver/Src/stm32f4xx_hal_can.c ****   * @brief  Return Rx FIFO fill level.
1204:ThirdParty/STM32F4xx_HAL_Driver/Src/stm32f4xx_hal_can.c ****   * @param  hcan pointer to an CAN_HandleTypeDef structure that contains
1205:ThirdParty/STM32F4xx_HAL_Driver/Src/stm32f4xx_hal_can.c ****   *         the configuration information for the specified CAN.
1206:ThirdParty/STM32F4xx_HAL_Driver/Src/stm32f4xx_hal_can.c ****   * @param  RxFifo Rx FIFO.
1207:ThirdParty/STM32F4xx_HAL_Driver/Src/stm32f4xx_hal_can.c ****   *         This parameter can be a value of @arg CAN_receive_FIFO_number.
1208:ThirdParty/STM32F4xx_HAL_Driver/Src/stm32f4xx_hal_can.c ****   * @retval Number of messages available in Rx FIFO.
1209:ThirdParty/STM32F4xx_HAL_Driver/Src/stm32f4xx_hal_can.c ****   */
1210:ThirdParty/STM32F4xx_HAL_Driver/Src/stm32f4xx_hal_can.c **** uint32_t HAL_CAN_GetRxFifoFillLevel(CAN_HandleTypeDef *hcan, uint32_t RxFifo)
1211:ThirdParty/STM32F4xx_HAL_Driver/Src/stm32f4xx_hal_can.c **** {
 1929              		.loc 1 1211 1 is_stmt 1 view -0
ARM GAS  /tmp/cc6fvD8U.s 			page 79


 1930              		.cfi_startproc
 1931              		@ args = 0, pretend = 0, frame = 0
 1932              		@ frame_needed = 0, uses_anonymous_args = 0
 1933              		@ link register save eliminated.
1212:ThirdParty/STM32F4xx_HAL_Driver/Src/stm32f4xx_hal_can.c ****   uint32_t filllevel = 0U;
 1934              		.loc 1 1212 3 view .LVU625
1213:ThirdParty/STM32F4xx_HAL_Driver/Src/stm32f4xx_hal_can.c **** 
1214:ThirdParty/STM32F4xx_HAL_Driver/Src/stm32f4xx_hal_can.c ****   /* Check function parameters */
1215:ThirdParty/STM32F4xx_HAL_Driver/Src/stm32f4xx_hal_can.c ****   assert_param(IS_CAN_RX_FIFO(RxFifo));
 1935              		.loc 1 1215 3 view .LVU626
1216:ThirdParty/STM32F4xx_HAL_Driver/Src/stm32f4xx_hal_can.c **** 
1217:ThirdParty/STM32F4xx_HAL_Driver/Src/stm32f4xx_hal_can.c ****   if ((hcan->State == HAL_CAN_STATE_READY) ||
 1936              		.loc 1 1217 3 view .LVU627
 1937              		.loc 1 1217 12 is_stmt 0 view .LVU628
 1938 0000 90F82030 		ldrb	r3, [r0, #32]	@ zero_extendqisi2
 1939 0004 DBB2     		uxtb	r3, r3
 1940              		.loc 1 1217 6 view .LVU629
 1941 0006 012B     		cmp	r3, #1
 1942 0008 06D0     		beq	.L147
1218:ThirdParty/STM32F4xx_HAL_Driver/Src/stm32f4xx_hal_can.c ****       (hcan->State == HAL_CAN_STATE_LISTENING))
 1943              		.loc 1 1218 12 discriminator 1 view .LVU630
 1944 000a 90F82030 		ldrb	r3, [r0, #32]	@ zero_extendqisi2
 1945 000e DBB2     		uxtb	r3, r3
1217:ThirdParty/STM32F4xx_HAL_Driver/Src/stm32f4xx_hal_can.c ****       (hcan->State == HAL_CAN_STATE_LISTENING))
 1946              		.loc 1 1217 44 discriminator 1 view .LVU631
 1947 0010 022B     		cmp	r3, #2
 1948 0012 01D0     		beq	.L147
1212:ThirdParty/STM32F4xx_HAL_Driver/Src/stm32f4xx_hal_can.c **** 
 1949              		.loc 1 1212 12 view .LVU632
 1950 0014 0020     		movs	r0, #0
 1951              	.LVL118:
1219:ThirdParty/STM32F4xx_HAL_Driver/Src/stm32f4xx_hal_can.c ****   {
1220:ThirdParty/STM32F4xx_HAL_Driver/Src/stm32f4xx_hal_can.c ****     if (RxFifo == CAN_RX_FIFO0)
1221:ThirdParty/STM32F4xx_HAL_Driver/Src/stm32f4xx_hal_can.c ****     {
1222:ThirdParty/STM32F4xx_HAL_Driver/Src/stm32f4xx_hal_can.c ****       filllevel = hcan->Instance->RF0R & CAN_RF0R_FMP0;
1223:ThirdParty/STM32F4xx_HAL_Driver/Src/stm32f4xx_hal_can.c ****     }
1224:ThirdParty/STM32F4xx_HAL_Driver/Src/stm32f4xx_hal_can.c ****     else /* RxFifo == CAN_RX_FIFO1 */
1225:ThirdParty/STM32F4xx_HAL_Driver/Src/stm32f4xx_hal_can.c ****     {
1226:ThirdParty/STM32F4xx_HAL_Driver/Src/stm32f4xx_hal_can.c ****       filllevel = hcan->Instance->RF1R & CAN_RF1R_FMP1;
1227:ThirdParty/STM32F4xx_HAL_Driver/Src/stm32f4xx_hal_can.c ****     }
1228:ThirdParty/STM32F4xx_HAL_Driver/Src/stm32f4xx_hal_can.c ****   }
1229:ThirdParty/STM32F4xx_HAL_Driver/Src/stm32f4xx_hal_can.c **** 
1230:ThirdParty/STM32F4xx_HAL_Driver/Src/stm32f4xx_hal_can.c ****   /* Return Rx FIFO fill level */
1231:ThirdParty/STM32F4xx_HAL_Driver/Src/stm32f4xx_hal_can.c ****   return filllevel;
 1952              		.loc 1 1231 3 is_stmt 1 view .LVU633
1232:ThirdParty/STM32F4xx_HAL_Driver/Src/stm32f4xx_hal_can.c **** }
 1953              		.loc 1 1232 1 is_stmt 0 view .LVU634
 1954 0016 7047     		bx	lr
 1955              	.LVL119:
 1956              	.L147:
1220:ThirdParty/STM32F4xx_HAL_Driver/Src/stm32f4xx_hal_can.c ****     {
 1957              		.loc 1 1220 5 is_stmt 1 view .LVU635
1220:ThirdParty/STM32F4xx_HAL_Driver/Src/stm32f4xx_hal_can.c ****     {
 1958              		.loc 1 1220 8 is_stmt 0 view .LVU636
 1959 0018 21B9     		cbnz	r1, .L149
1222:ThirdParty/STM32F4xx_HAL_Driver/Src/stm32f4xx_hal_can.c ****     }
 1960              		.loc 1 1222 7 is_stmt 1 view .LVU637
ARM GAS  /tmp/cc6fvD8U.s 			page 80


1222:ThirdParty/STM32F4xx_HAL_Driver/Src/stm32f4xx_hal_can.c ****     }
 1961              		.loc 1 1222 23 is_stmt 0 view .LVU638
 1962 001a 0368     		ldr	r3, [r0]
1222:ThirdParty/STM32F4xx_HAL_Driver/Src/stm32f4xx_hal_can.c ****     }
 1963              		.loc 1 1222 33 view .LVU639
 1964 001c D868     		ldr	r0, [r3, #12]
 1965              	.LVL120:
1222:ThirdParty/STM32F4xx_HAL_Driver/Src/stm32f4xx_hal_can.c ****     }
 1966              		.loc 1 1222 17 view .LVU640
 1967 001e 00F00300 		and	r0, r0, #3
 1968              	.LVL121:
1222:ThirdParty/STM32F4xx_HAL_Driver/Src/stm32f4xx_hal_can.c ****     }
 1969              		.loc 1 1222 17 view .LVU641
 1970 0022 7047     		bx	lr
 1971              	.LVL122:
 1972              	.L149:
1226:ThirdParty/STM32F4xx_HAL_Driver/Src/stm32f4xx_hal_can.c ****     }
 1973              		.loc 1 1226 7 is_stmt 1 view .LVU642
1226:ThirdParty/STM32F4xx_HAL_Driver/Src/stm32f4xx_hal_can.c ****     }
 1974              		.loc 1 1226 23 is_stmt 0 view .LVU643
 1975 0024 0368     		ldr	r3, [r0]
1226:ThirdParty/STM32F4xx_HAL_Driver/Src/stm32f4xx_hal_can.c ****     }
 1976              		.loc 1 1226 33 view .LVU644
 1977 0026 1869     		ldr	r0, [r3, #16]
 1978              	.LVL123:
1226:ThirdParty/STM32F4xx_HAL_Driver/Src/stm32f4xx_hal_can.c ****     }
 1979              		.loc 1 1226 17 view .LVU645
 1980 0028 00F00300 		and	r0, r0, #3
 1981              	.LVL124:
1226:ThirdParty/STM32F4xx_HAL_Driver/Src/stm32f4xx_hal_can.c ****     }
 1982              		.loc 1 1226 17 view .LVU646
 1983 002c 7047     		bx	lr
 1984              		.cfi_endproc
 1985              	.LFE149:
 1987              		.section	.text.HAL_CAN_ActivateNotification,"ax",%progbits
 1988              		.align	1
 1989              		.global	HAL_CAN_ActivateNotification
 1990              		.syntax unified
 1991              		.thumb
 1992              		.thumb_func
 1994              	HAL_CAN_ActivateNotification:
 1995              	.LVL125:
 1996              	.LFB150:
1233:ThirdParty/STM32F4xx_HAL_Driver/Src/stm32f4xx_hal_can.c **** 
1234:ThirdParty/STM32F4xx_HAL_Driver/Src/stm32f4xx_hal_can.c **** /**
1235:ThirdParty/STM32F4xx_HAL_Driver/Src/stm32f4xx_hal_can.c ****   * @}
1236:ThirdParty/STM32F4xx_HAL_Driver/Src/stm32f4xx_hal_can.c ****   */
1237:ThirdParty/STM32F4xx_HAL_Driver/Src/stm32f4xx_hal_can.c **** 
1238:ThirdParty/STM32F4xx_HAL_Driver/Src/stm32f4xx_hal_can.c **** /** @defgroup CAN_Exported_Functions_Group4 Interrupts management
1239:ThirdParty/STM32F4xx_HAL_Driver/Src/stm32f4xx_hal_can.c ****  *  @brief    Interrupts management
1240:ThirdParty/STM32F4xx_HAL_Driver/Src/stm32f4xx_hal_can.c ****  *
1241:ThirdParty/STM32F4xx_HAL_Driver/Src/stm32f4xx_hal_can.c **** @verbatim
1242:ThirdParty/STM32F4xx_HAL_Driver/Src/stm32f4xx_hal_can.c ****   ==============================================================================
1243:ThirdParty/STM32F4xx_HAL_Driver/Src/stm32f4xx_hal_can.c ****                        ##### Interrupts management #####
1244:ThirdParty/STM32F4xx_HAL_Driver/Src/stm32f4xx_hal_can.c ****   ==============================================================================
1245:ThirdParty/STM32F4xx_HAL_Driver/Src/stm32f4xx_hal_can.c ****     [..]  This section provides functions allowing to:
1246:ThirdParty/STM32F4xx_HAL_Driver/Src/stm32f4xx_hal_can.c ****       (+) HAL_CAN_ActivateNotification      : Enable interrupts
ARM GAS  /tmp/cc6fvD8U.s 			page 81


1247:ThirdParty/STM32F4xx_HAL_Driver/Src/stm32f4xx_hal_can.c ****       (+) HAL_CAN_DeactivateNotification    : Disable interrupts
1248:ThirdParty/STM32F4xx_HAL_Driver/Src/stm32f4xx_hal_can.c ****       (+) HAL_CAN_IRQHandler                : Handles CAN interrupt request
1249:ThirdParty/STM32F4xx_HAL_Driver/Src/stm32f4xx_hal_can.c **** 
1250:ThirdParty/STM32F4xx_HAL_Driver/Src/stm32f4xx_hal_can.c **** @endverbatim
1251:ThirdParty/STM32F4xx_HAL_Driver/Src/stm32f4xx_hal_can.c ****   * @{
1252:ThirdParty/STM32F4xx_HAL_Driver/Src/stm32f4xx_hal_can.c ****   */
1253:ThirdParty/STM32F4xx_HAL_Driver/Src/stm32f4xx_hal_can.c **** 
1254:ThirdParty/STM32F4xx_HAL_Driver/Src/stm32f4xx_hal_can.c **** /**
1255:ThirdParty/STM32F4xx_HAL_Driver/Src/stm32f4xx_hal_can.c ****   * @brief  Enable interrupts.
1256:ThirdParty/STM32F4xx_HAL_Driver/Src/stm32f4xx_hal_can.c ****   * @param  hcan pointer to an CAN_HandleTypeDef structure that contains
1257:ThirdParty/STM32F4xx_HAL_Driver/Src/stm32f4xx_hal_can.c ****   *         the configuration information for the specified CAN.
1258:ThirdParty/STM32F4xx_HAL_Driver/Src/stm32f4xx_hal_can.c ****   * @param  ActiveITs indicates which interrupts will be enabled.
1259:ThirdParty/STM32F4xx_HAL_Driver/Src/stm32f4xx_hal_can.c ****   *         This parameter can be any combination of @arg CAN_Interrupts.
1260:ThirdParty/STM32F4xx_HAL_Driver/Src/stm32f4xx_hal_can.c ****   * @retval HAL status
1261:ThirdParty/STM32F4xx_HAL_Driver/Src/stm32f4xx_hal_can.c ****   */
1262:ThirdParty/STM32F4xx_HAL_Driver/Src/stm32f4xx_hal_can.c **** HAL_StatusTypeDef HAL_CAN_ActivateNotification(CAN_HandleTypeDef *hcan, uint32_t ActiveITs)
1263:ThirdParty/STM32F4xx_HAL_Driver/Src/stm32f4xx_hal_can.c **** {
 1997              		.loc 1 1263 1 is_stmt 1 view -0
 1998              		.cfi_startproc
 1999              		@ args = 0, pretend = 0, frame = 0
 2000              		@ frame_needed = 0, uses_anonymous_args = 0
 2001              		@ link register save eliminated.
1264:ThirdParty/STM32F4xx_HAL_Driver/Src/stm32f4xx_hal_can.c ****   /* Check function parameters */
1265:ThirdParty/STM32F4xx_HAL_Driver/Src/stm32f4xx_hal_can.c ****   assert_param(IS_CAN_IT(ActiveITs));
 2002              		.loc 1 1265 3 view .LVU648
1266:ThirdParty/STM32F4xx_HAL_Driver/Src/stm32f4xx_hal_can.c **** 
1267:ThirdParty/STM32F4xx_HAL_Driver/Src/stm32f4xx_hal_can.c ****   if ((hcan->State == HAL_CAN_STATE_READY) ||
 2003              		.loc 1 1267 3 view .LVU649
 2004              		.loc 1 1267 12 is_stmt 0 view .LVU650
 2005 0000 90F82030 		ldrb	r3, [r0, #32]	@ zero_extendqisi2
 2006 0004 DBB2     		uxtb	r3, r3
 2007              		.loc 1 1267 6 view .LVU651
 2008 0006 012B     		cmp	r3, #1
 2009 0008 0AD0     		beq	.L152
1268:ThirdParty/STM32F4xx_HAL_Driver/Src/stm32f4xx_hal_can.c ****       (hcan->State == HAL_CAN_STATE_LISTENING))
 2010              		.loc 1 1268 12 discriminator 1 view .LVU652
 2011 000a 90F82030 		ldrb	r3, [r0, #32]	@ zero_extendqisi2
 2012 000e DBB2     		uxtb	r3, r3
1267:ThirdParty/STM32F4xx_HAL_Driver/Src/stm32f4xx_hal_can.c ****       (hcan->State == HAL_CAN_STATE_LISTENING))
 2013              		.loc 1 1267 44 discriminator 1 view .LVU653
 2014 0010 022B     		cmp	r3, #2
 2015 0012 05D0     		beq	.L152
1269:ThirdParty/STM32F4xx_HAL_Driver/Src/stm32f4xx_hal_can.c ****   {
1270:ThirdParty/STM32F4xx_HAL_Driver/Src/stm32f4xx_hal_can.c ****     /* Enable the selected interrupts */
1271:ThirdParty/STM32F4xx_HAL_Driver/Src/stm32f4xx_hal_can.c ****     __HAL_CAN_ENABLE_IT(hcan, ActiveITs);
1272:ThirdParty/STM32F4xx_HAL_Driver/Src/stm32f4xx_hal_can.c **** 
1273:ThirdParty/STM32F4xx_HAL_Driver/Src/stm32f4xx_hal_can.c ****     /* Return function status */
1274:ThirdParty/STM32F4xx_HAL_Driver/Src/stm32f4xx_hal_can.c ****     return HAL_OK;
1275:ThirdParty/STM32F4xx_HAL_Driver/Src/stm32f4xx_hal_can.c ****   }
1276:ThirdParty/STM32F4xx_HAL_Driver/Src/stm32f4xx_hal_can.c ****   else
1277:ThirdParty/STM32F4xx_HAL_Driver/Src/stm32f4xx_hal_can.c ****   {
1278:ThirdParty/STM32F4xx_HAL_Driver/Src/stm32f4xx_hal_can.c ****     /* Update error code */
1279:ThirdParty/STM32F4xx_HAL_Driver/Src/stm32f4xx_hal_can.c ****     hcan->ErrorCode |= HAL_CAN_ERROR_NOT_INITIALIZED;
 2016              		.loc 1 1279 5 is_stmt 1 view .LVU654
 2017              		.loc 1 1279 21 is_stmt 0 view .LVU655
 2018 0014 436A     		ldr	r3, [r0, #36]
 2019 0016 43F48023 		orr	r3, r3, #262144
ARM GAS  /tmp/cc6fvD8U.s 			page 82


 2020 001a 4362     		str	r3, [r0, #36]
1280:ThirdParty/STM32F4xx_HAL_Driver/Src/stm32f4xx_hal_can.c **** 
1281:ThirdParty/STM32F4xx_HAL_Driver/Src/stm32f4xx_hal_can.c ****     return HAL_ERROR;
 2021              		.loc 1 1281 5 is_stmt 1 view .LVU656
 2022              		.loc 1 1281 12 is_stmt 0 view .LVU657
 2023 001c 0120     		movs	r0, #1
 2024              	.LVL126:
1282:ThirdParty/STM32F4xx_HAL_Driver/Src/stm32f4xx_hal_can.c ****   }
1283:ThirdParty/STM32F4xx_HAL_Driver/Src/stm32f4xx_hal_can.c **** }
 2025              		.loc 1 1283 1 view .LVU658
 2026 001e 7047     		bx	lr
 2027              	.LVL127:
 2028              	.L152:
1271:ThirdParty/STM32F4xx_HAL_Driver/Src/stm32f4xx_hal_can.c **** 
 2029              		.loc 1 1271 5 is_stmt 1 view .LVU659
 2030 0020 0268     		ldr	r2, [r0]
 2031 0022 5369     		ldr	r3, [r2, #20]
 2032 0024 1943     		orrs	r1, r1, r3
 2033              	.LVL128:
1271:ThirdParty/STM32F4xx_HAL_Driver/Src/stm32f4xx_hal_can.c **** 
 2034              		.loc 1 1271 5 is_stmt 0 view .LVU660
 2035 0026 5161     		str	r1, [r2, #20]
1274:ThirdParty/STM32F4xx_HAL_Driver/Src/stm32f4xx_hal_can.c ****   }
 2036              		.loc 1 1274 5 is_stmt 1 view .LVU661
1274:ThirdParty/STM32F4xx_HAL_Driver/Src/stm32f4xx_hal_can.c ****   }
 2037              		.loc 1 1274 12 is_stmt 0 view .LVU662
 2038 0028 0020     		movs	r0, #0
 2039              	.LVL129:
1274:ThirdParty/STM32F4xx_HAL_Driver/Src/stm32f4xx_hal_can.c ****   }
 2040              		.loc 1 1274 12 view .LVU663
 2041 002a 7047     		bx	lr
 2042              		.cfi_endproc
 2043              	.LFE150:
 2045              		.section	.text.HAL_CAN_DeactivateNotification,"ax",%progbits
 2046              		.align	1
 2047              		.global	HAL_CAN_DeactivateNotification
 2048              		.syntax unified
 2049              		.thumb
 2050              		.thumb_func
 2052              	HAL_CAN_DeactivateNotification:
 2053              	.LVL130:
 2054              	.LFB151:
1284:ThirdParty/STM32F4xx_HAL_Driver/Src/stm32f4xx_hal_can.c **** 
1285:ThirdParty/STM32F4xx_HAL_Driver/Src/stm32f4xx_hal_can.c **** /**
1286:ThirdParty/STM32F4xx_HAL_Driver/Src/stm32f4xx_hal_can.c ****   * @brief  Disable interrupts.
1287:ThirdParty/STM32F4xx_HAL_Driver/Src/stm32f4xx_hal_can.c ****   * @param  hcan pointer to an CAN_HandleTypeDef structure that contains
1288:ThirdParty/STM32F4xx_HAL_Driver/Src/stm32f4xx_hal_can.c ****   *         the configuration information for the specified CAN.
1289:ThirdParty/STM32F4xx_HAL_Driver/Src/stm32f4xx_hal_can.c ****   * @param  InactiveITs indicates which interrupts will be disabled.
1290:ThirdParty/STM32F4xx_HAL_Driver/Src/stm32f4xx_hal_can.c ****   *         This parameter can be any combination of @arg CAN_Interrupts.
1291:ThirdParty/STM32F4xx_HAL_Driver/Src/stm32f4xx_hal_can.c ****   * @retval HAL status
1292:ThirdParty/STM32F4xx_HAL_Driver/Src/stm32f4xx_hal_can.c ****   */
1293:ThirdParty/STM32F4xx_HAL_Driver/Src/stm32f4xx_hal_can.c **** HAL_StatusTypeDef HAL_CAN_DeactivateNotification(CAN_HandleTypeDef *hcan, uint32_t InactiveITs)
1294:ThirdParty/STM32F4xx_HAL_Driver/Src/stm32f4xx_hal_can.c **** {
 2055              		.loc 1 1294 1 is_stmt 1 view -0
 2056              		.cfi_startproc
 2057              		@ args = 0, pretend = 0, frame = 0
 2058              		@ frame_needed = 0, uses_anonymous_args = 0
ARM GAS  /tmp/cc6fvD8U.s 			page 83


 2059              		@ link register save eliminated.
1295:ThirdParty/STM32F4xx_HAL_Driver/Src/stm32f4xx_hal_can.c ****   /* Check function parameters */
1296:ThirdParty/STM32F4xx_HAL_Driver/Src/stm32f4xx_hal_can.c ****   assert_param(IS_CAN_IT(InactiveITs));
 2060              		.loc 1 1296 3 view .LVU665
1297:ThirdParty/STM32F4xx_HAL_Driver/Src/stm32f4xx_hal_can.c **** 
1298:ThirdParty/STM32F4xx_HAL_Driver/Src/stm32f4xx_hal_can.c ****   if ((hcan->State == HAL_CAN_STATE_READY) ||
 2061              		.loc 1 1298 3 view .LVU666
 2062              		.loc 1 1298 12 is_stmt 0 view .LVU667
 2063 0000 90F82030 		ldrb	r3, [r0, #32]	@ zero_extendqisi2
 2064 0004 DBB2     		uxtb	r3, r3
 2065              		.loc 1 1298 6 view .LVU668
 2066 0006 012B     		cmp	r3, #1
 2067 0008 0AD0     		beq	.L156
1299:ThirdParty/STM32F4xx_HAL_Driver/Src/stm32f4xx_hal_can.c ****       (hcan->State == HAL_CAN_STATE_LISTENING))
 2068              		.loc 1 1299 12 discriminator 1 view .LVU669
 2069 000a 90F82030 		ldrb	r3, [r0, #32]	@ zero_extendqisi2
 2070 000e DBB2     		uxtb	r3, r3
1298:ThirdParty/STM32F4xx_HAL_Driver/Src/stm32f4xx_hal_can.c ****       (hcan->State == HAL_CAN_STATE_LISTENING))
 2071              		.loc 1 1298 44 discriminator 1 view .LVU670
 2072 0010 022B     		cmp	r3, #2
 2073 0012 05D0     		beq	.L156
1300:ThirdParty/STM32F4xx_HAL_Driver/Src/stm32f4xx_hal_can.c ****   {
1301:ThirdParty/STM32F4xx_HAL_Driver/Src/stm32f4xx_hal_can.c ****     /* Disable the selected interrupts */
1302:ThirdParty/STM32F4xx_HAL_Driver/Src/stm32f4xx_hal_can.c ****     __HAL_CAN_DISABLE_IT(hcan, InactiveITs);
1303:ThirdParty/STM32F4xx_HAL_Driver/Src/stm32f4xx_hal_can.c **** 
1304:ThirdParty/STM32F4xx_HAL_Driver/Src/stm32f4xx_hal_can.c ****     /* Return function status */
1305:ThirdParty/STM32F4xx_HAL_Driver/Src/stm32f4xx_hal_can.c ****     return HAL_OK;
1306:ThirdParty/STM32F4xx_HAL_Driver/Src/stm32f4xx_hal_can.c ****   }
1307:ThirdParty/STM32F4xx_HAL_Driver/Src/stm32f4xx_hal_can.c ****   else
1308:ThirdParty/STM32F4xx_HAL_Driver/Src/stm32f4xx_hal_can.c ****   {
1309:ThirdParty/STM32F4xx_HAL_Driver/Src/stm32f4xx_hal_can.c ****     /* Update error code */
1310:ThirdParty/STM32F4xx_HAL_Driver/Src/stm32f4xx_hal_can.c ****     hcan->ErrorCode |= HAL_CAN_ERROR_NOT_INITIALIZED;
 2074              		.loc 1 1310 5 is_stmt 1 view .LVU671
 2075              		.loc 1 1310 21 is_stmt 0 view .LVU672
 2076 0014 436A     		ldr	r3, [r0, #36]
 2077 0016 43F48023 		orr	r3, r3, #262144
 2078 001a 4362     		str	r3, [r0, #36]
1311:ThirdParty/STM32F4xx_HAL_Driver/Src/stm32f4xx_hal_can.c **** 
1312:ThirdParty/STM32F4xx_HAL_Driver/Src/stm32f4xx_hal_can.c ****     return HAL_ERROR;
 2079              		.loc 1 1312 5 is_stmt 1 view .LVU673
 2080              		.loc 1 1312 12 is_stmt 0 view .LVU674
 2081 001c 0120     		movs	r0, #1
 2082              	.LVL131:
1313:ThirdParty/STM32F4xx_HAL_Driver/Src/stm32f4xx_hal_can.c ****   }
1314:ThirdParty/STM32F4xx_HAL_Driver/Src/stm32f4xx_hal_can.c **** }
 2083              		.loc 1 1314 1 view .LVU675
 2084 001e 7047     		bx	lr
 2085              	.LVL132:
 2086              	.L156:
1302:ThirdParty/STM32F4xx_HAL_Driver/Src/stm32f4xx_hal_can.c **** 
 2087              		.loc 1 1302 5 is_stmt 1 view .LVU676
 2088 0020 0268     		ldr	r2, [r0]
 2089 0022 5369     		ldr	r3, [r2, #20]
 2090 0024 23EA0101 		bic	r1, r3, r1
 2091              	.LVL133:
1302:ThirdParty/STM32F4xx_HAL_Driver/Src/stm32f4xx_hal_can.c **** 
 2092              		.loc 1 1302 5 is_stmt 0 view .LVU677
ARM GAS  /tmp/cc6fvD8U.s 			page 84


 2093 0028 5161     		str	r1, [r2, #20]
1305:ThirdParty/STM32F4xx_HAL_Driver/Src/stm32f4xx_hal_can.c ****   }
 2094              		.loc 1 1305 5 is_stmt 1 view .LVU678
1305:ThirdParty/STM32F4xx_HAL_Driver/Src/stm32f4xx_hal_can.c ****   }
 2095              		.loc 1 1305 12 is_stmt 0 view .LVU679
 2096 002a 0020     		movs	r0, #0
 2097              	.LVL134:
1305:ThirdParty/STM32F4xx_HAL_Driver/Src/stm32f4xx_hal_can.c ****   }
 2098              		.loc 1 1305 12 view .LVU680
 2099 002c 7047     		bx	lr
 2100              		.cfi_endproc
 2101              	.LFE151:
 2103              		.section	.text.HAL_CAN_TxMailbox0CompleteCallback,"ax",%progbits
 2104              		.align	1
 2105              		.weak	HAL_CAN_TxMailbox0CompleteCallback
 2106              		.syntax unified
 2107              		.thumb
 2108              		.thumb_func
 2110              	HAL_CAN_TxMailbox0CompleteCallback:
 2111              	.LVL135:
 2112              	.LFB153:
1315:ThirdParty/STM32F4xx_HAL_Driver/Src/stm32f4xx_hal_can.c **** 
1316:ThirdParty/STM32F4xx_HAL_Driver/Src/stm32f4xx_hal_can.c **** /**
1317:ThirdParty/STM32F4xx_HAL_Driver/Src/stm32f4xx_hal_can.c ****   * @brief  Handles CAN interrupt request
1318:ThirdParty/STM32F4xx_HAL_Driver/Src/stm32f4xx_hal_can.c ****   * @param  hcan pointer to a CAN_HandleTypeDef structure that contains
1319:ThirdParty/STM32F4xx_HAL_Driver/Src/stm32f4xx_hal_can.c ****   *         the configuration information for the specified CAN.
1320:ThirdParty/STM32F4xx_HAL_Driver/Src/stm32f4xx_hal_can.c ****   * @retval None
1321:ThirdParty/STM32F4xx_HAL_Driver/Src/stm32f4xx_hal_can.c ****   */
1322:ThirdParty/STM32F4xx_HAL_Driver/Src/stm32f4xx_hal_can.c **** void HAL_CAN_IRQHandler(CAN_HandleTypeDef *hcan)
1323:ThirdParty/STM32F4xx_HAL_Driver/Src/stm32f4xx_hal_can.c **** {
1324:ThirdParty/STM32F4xx_HAL_Driver/Src/stm32f4xx_hal_can.c ****   uint32_t errorcode = HAL_CAN_ERROR_NONE;
1325:ThirdParty/STM32F4xx_HAL_Driver/Src/stm32f4xx_hal_can.c ****   uint32_t interrupts = READ_REG(hcan->Instance->IER);
1326:ThirdParty/STM32F4xx_HAL_Driver/Src/stm32f4xx_hal_can.c ****   uint32_t msrflags = READ_REG(hcan->Instance->MSR);
1327:ThirdParty/STM32F4xx_HAL_Driver/Src/stm32f4xx_hal_can.c ****   uint32_t tsrflags = READ_REG(hcan->Instance->TSR);
1328:ThirdParty/STM32F4xx_HAL_Driver/Src/stm32f4xx_hal_can.c ****   uint32_t rf0rflags = READ_REG(hcan->Instance->RF0R);
1329:ThirdParty/STM32F4xx_HAL_Driver/Src/stm32f4xx_hal_can.c ****   uint32_t rf1rflags = READ_REG(hcan->Instance->RF1R);
1330:ThirdParty/STM32F4xx_HAL_Driver/Src/stm32f4xx_hal_can.c ****   uint32_t esrflags = READ_REG(hcan->Instance->ESR);
1331:ThirdParty/STM32F4xx_HAL_Driver/Src/stm32f4xx_hal_can.c **** 
1332:ThirdParty/STM32F4xx_HAL_Driver/Src/stm32f4xx_hal_can.c ****   /* Transmit Mailbox empty interrupt management *****************************/
1333:ThirdParty/STM32F4xx_HAL_Driver/Src/stm32f4xx_hal_can.c ****   if ((interrupts & CAN_IT_TX_MAILBOX_EMPTY) != RESET)
1334:ThirdParty/STM32F4xx_HAL_Driver/Src/stm32f4xx_hal_can.c ****   {
1335:ThirdParty/STM32F4xx_HAL_Driver/Src/stm32f4xx_hal_can.c ****     /* Transmit Mailbox 0 management *****************************************/
1336:ThirdParty/STM32F4xx_HAL_Driver/Src/stm32f4xx_hal_can.c ****     if ((tsrflags & CAN_TSR_RQCP0) != RESET)
1337:ThirdParty/STM32F4xx_HAL_Driver/Src/stm32f4xx_hal_can.c ****     {
1338:ThirdParty/STM32F4xx_HAL_Driver/Src/stm32f4xx_hal_can.c ****       /* Clear the Transmission Complete flag (and TXOK0,ALST0,TERR0 bits) */
1339:ThirdParty/STM32F4xx_HAL_Driver/Src/stm32f4xx_hal_can.c ****       __HAL_CAN_CLEAR_FLAG(hcan, CAN_FLAG_RQCP0);
1340:ThirdParty/STM32F4xx_HAL_Driver/Src/stm32f4xx_hal_can.c **** 
1341:ThirdParty/STM32F4xx_HAL_Driver/Src/stm32f4xx_hal_can.c ****       if ((tsrflags & CAN_TSR_TXOK0) != RESET)
1342:ThirdParty/STM32F4xx_HAL_Driver/Src/stm32f4xx_hal_can.c ****       {
1343:ThirdParty/STM32F4xx_HAL_Driver/Src/stm32f4xx_hal_can.c ****         /* Transmission Mailbox 0 complete callback */
1344:ThirdParty/STM32F4xx_HAL_Driver/Src/stm32f4xx_hal_can.c ****         /* Call weak (surcharged) callback */
1345:ThirdParty/STM32F4xx_HAL_Driver/Src/stm32f4xx_hal_can.c ****         HAL_CAN_TxMailbox0CompleteCallback(hcan);
1346:ThirdParty/STM32F4xx_HAL_Driver/Src/stm32f4xx_hal_can.c ****       }
1347:ThirdParty/STM32F4xx_HAL_Driver/Src/stm32f4xx_hal_can.c ****       else
1348:ThirdParty/STM32F4xx_HAL_Driver/Src/stm32f4xx_hal_can.c ****       {
1349:ThirdParty/STM32F4xx_HAL_Driver/Src/stm32f4xx_hal_can.c ****         if ((tsrflags & CAN_TSR_ALST0) != RESET)
1350:ThirdParty/STM32F4xx_HAL_Driver/Src/stm32f4xx_hal_can.c ****         {
ARM GAS  /tmp/cc6fvD8U.s 			page 85


1351:ThirdParty/STM32F4xx_HAL_Driver/Src/stm32f4xx_hal_can.c ****           /* Update error code */
1352:ThirdParty/STM32F4xx_HAL_Driver/Src/stm32f4xx_hal_can.c ****           errorcode |= HAL_CAN_ERROR_TX_ALST0;
1353:ThirdParty/STM32F4xx_HAL_Driver/Src/stm32f4xx_hal_can.c ****         }
1354:ThirdParty/STM32F4xx_HAL_Driver/Src/stm32f4xx_hal_can.c ****         else if ((tsrflags & CAN_TSR_TERR0) != RESET)
1355:ThirdParty/STM32F4xx_HAL_Driver/Src/stm32f4xx_hal_can.c ****         {
1356:ThirdParty/STM32F4xx_HAL_Driver/Src/stm32f4xx_hal_can.c ****           /* Update error code */
1357:ThirdParty/STM32F4xx_HAL_Driver/Src/stm32f4xx_hal_can.c ****           errorcode |= HAL_CAN_ERROR_TX_TERR0;
1358:ThirdParty/STM32F4xx_HAL_Driver/Src/stm32f4xx_hal_can.c ****         }
1359:ThirdParty/STM32F4xx_HAL_Driver/Src/stm32f4xx_hal_can.c ****         else
1360:ThirdParty/STM32F4xx_HAL_Driver/Src/stm32f4xx_hal_can.c ****         {
1361:ThirdParty/STM32F4xx_HAL_Driver/Src/stm32f4xx_hal_can.c ****           /* Transmission Mailbox 0 abort callback */
1362:ThirdParty/STM32F4xx_HAL_Driver/Src/stm32f4xx_hal_can.c ****           /* Call weak (surcharged) callback */
1363:ThirdParty/STM32F4xx_HAL_Driver/Src/stm32f4xx_hal_can.c ****           HAL_CAN_TxMailbox0AbortCallback(hcan);
1364:ThirdParty/STM32F4xx_HAL_Driver/Src/stm32f4xx_hal_can.c ****         }
1365:ThirdParty/STM32F4xx_HAL_Driver/Src/stm32f4xx_hal_can.c ****       }
1366:ThirdParty/STM32F4xx_HAL_Driver/Src/stm32f4xx_hal_can.c ****     }
1367:ThirdParty/STM32F4xx_HAL_Driver/Src/stm32f4xx_hal_can.c **** 
1368:ThirdParty/STM32F4xx_HAL_Driver/Src/stm32f4xx_hal_can.c ****     /* Transmit Mailbox 1 management *****************************************/
1369:ThirdParty/STM32F4xx_HAL_Driver/Src/stm32f4xx_hal_can.c ****     if ((tsrflags & CAN_TSR_RQCP1) != RESET)
1370:ThirdParty/STM32F4xx_HAL_Driver/Src/stm32f4xx_hal_can.c ****     {
1371:ThirdParty/STM32F4xx_HAL_Driver/Src/stm32f4xx_hal_can.c ****       /* Clear the Transmission Complete flag (and TXOK1,ALST1,TERR1 bits) */
1372:ThirdParty/STM32F4xx_HAL_Driver/Src/stm32f4xx_hal_can.c ****       __HAL_CAN_CLEAR_FLAG(hcan, CAN_FLAG_RQCP1);
1373:ThirdParty/STM32F4xx_HAL_Driver/Src/stm32f4xx_hal_can.c **** 
1374:ThirdParty/STM32F4xx_HAL_Driver/Src/stm32f4xx_hal_can.c ****       if ((tsrflags & CAN_TSR_TXOK1) != RESET)
1375:ThirdParty/STM32F4xx_HAL_Driver/Src/stm32f4xx_hal_can.c ****       {
1376:ThirdParty/STM32F4xx_HAL_Driver/Src/stm32f4xx_hal_can.c ****         /* Transmission Mailbox 1 complete callback */
1377:ThirdParty/STM32F4xx_HAL_Driver/Src/stm32f4xx_hal_can.c ****         /* Call weak (surcharged) callback */
1378:ThirdParty/STM32F4xx_HAL_Driver/Src/stm32f4xx_hal_can.c ****         HAL_CAN_TxMailbox1CompleteCallback(hcan);
1379:ThirdParty/STM32F4xx_HAL_Driver/Src/stm32f4xx_hal_can.c ****       }
1380:ThirdParty/STM32F4xx_HAL_Driver/Src/stm32f4xx_hal_can.c ****       else
1381:ThirdParty/STM32F4xx_HAL_Driver/Src/stm32f4xx_hal_can.c ****       {
1382:ThirdParty/STM32F4xx_HAL_Driver/Src/stm32f4xx_hal_can.c ****         if ((tsrflags & CAN_TSR_ALST1) != RESET)
1383:ThirdParty/STM32F4xx_HAL_Driver/Src/stm32f4xx_hal_can.c ****         {
1384:ThirdParty/STM32F4xx_HAL_Driver/Src/stm32f4xx_hal_can.c ****           /* Update error code */
1385:ThirdParty/STM32F4xx_HAL_Driver/Src/stm32f4xx_hal_can.c ****           errorcode |= HAL_CAN_ERROR_TX_ALST1;
1386:ThirdParty/STM32F4xx_HAL_Driver/Src/stm32f4xx_hal_can.c ****         }
1387:ThirdParty/STM32F4xx_HAL_Driver/Src/stm32f4xx_hal_can.c ****         else if ((tsrflags & CAN_TSR_TERR1) != RESET)
1388:ThirdParty/STM32F4xx_HAL_Driver/Src/stm32f4xx_hal_can.c ****         {
1389:ThirdParty/STM32F4xx_HAL_Driver/Src/stm32f4xx_hal_can.c ****           /* Update error code */
1390:ThirdParty/STM32F4xx_HAL_Driver/Src/stm32f4xx_hal_can.c ****           errorcode |= HAL_CAN_ERROR_TX_TERR1;
1391:ThirdParty/STM32F4xx_HAL_Driver/Src/stm32f4xx_hal_can.c ****         }
1392:ThirdParty/STM32F4xx_HAL_Driver/Src/stm32f4xx_hal_can.c ****         else
1393:ThirdParty/STM32F4xx_HAL_Driver/Src/stm32f4xx_hal_can.c ****         {
1394:ThirdParty/STM32F4xx_HAL_Driver/Src/stm32f4xx_hal_can.c ****           /* Transmission Mailbox 1 abort callback */
1395:ThirdParty/STM32F4xx_HAL_Driver/Src/stm32f4xx_hal_can.c ****           /* Call weak (surcharged) callback */
1396:ThirdParty/STM32F4xx_HAL_Driver/Src/stm32f4xx_hal_can.c ****           HAL_CAN_TxMailbox1AbortCallback(hcan);
1397:ThirdParty/STM32F4xx_HAL_Driver/Src/stm32f4xx_hal_can.c ****         }
1398:ThirdParty/STM32F4xx_HAL_Driver/Src/stm32f4xx_hal_can.c ****       }
1399:ThirdParty/STM32F4xx_HAL_Driver/Src/stm32f4xx_hal_can.c ****     }
1400:ThirdParty/STM32F4xx_HAL_Driver/Src/stm32f4xx_hal_can.c **** 
1401:ThirdParty/STM32F4xx_HAL_Driver/Src/stm32f4xx_hal_can.c ****     /* Transmit Mailbox 2 management *****************************************/
1402:ThirdParty/STM32F4xx_HAL_Driver/Src/stm32f4xx_hal_can.c ****     if ((tsrflags & CAN_TSR_RQCP2) != RESET)
1403:ThirdParty/STM32F4xx_HAL_Driver/Src/stm32f4xx_hal_can.c ****     {
1404:ThirdParty/STM32F4xx_HAL_Driver/Src/stm32f4xx_hal_can.c ****       /* Clear the Transmission Complete flag (and TXOK2,ALST2,TERR2 bits) */
1405:ThirdParty/STM32F4xx_HAL_Driver/Src/stm32f4xx_hal_can.c ****       __HAL_CAN_CLEAR_FLAG(hcan, CAN_FLAG_RQCP2);
1406:ThirdParty/STM32F4xx_HAL_Driver/Src/stm32f4xx_hal_can.c **** 
1407:ThirdParty/STM32F4xx_HAL_Driver/Src/stm32f4xx_hal_can.c ****       if ((tsrflags & CAN_TSR_TXOK2) != RESET)
ARM GAS  /tmp/cc6fvD8U.s 			page 86


1408:ThirdParty/STM32F4xx_HAL_Driver/Src/stm32f4xx_hal_can.c ****       {
1409:ThirdParty/STM32F4xx_HAL_Driver/Src/stm32f4xx_hal_can.c ****         /* Transmission Mailbox 2 complete callback */
1410:ThirdParty/STM32F4xx_HAL_Driver/Src/stm32f4xx_hal_can.c ****         /* Call weak (surcharged) callback */
1411:ThirdParty/STM32F4xx_HAL_Driver/Src/stm32f4xx_hal_can.c ****         HAL_CAN_TxMailbox2CompleteCallback(hcan);
1412:ThirdParty/STM32F4xx_HAL_Driver/Src/stm32f4xx_hal_can.c ****       }
1413:ThirdParty/STM32F4xx_HAL_Driver/Src/stm32f4xx_hal_can.c ****       else
1414:ThirdParty/STM32F4xx_HAL_Driver/Src/stm32f4xx_hal_can.c ****       {
1415:ThirdParty/STM32F4xx_HAL_Driver/Src/stm32f4xx_hal_can.c ****         if ((tsrflags & CAN_TSR_ALST2) != RESET)
1416:ThirdParty/STM32F4xx_HAL_Driver/Src/stm32f4xx_hal_can.c ****         {
1417:ThirdParty/STM32F4xx_HAL_Driver/Src/stm32f4xx_hal_can.c ****           /* Update error code */
1418:ThirdParty/STM32F4xx_HAL_Driver/Src/stm32f4xx_hal_can.c ****           errorcode |= HAL_CAN_ERROR_TX_ALST2;
1419:ThirdParty/STM32F4xx_HAL_Driver/Src/stm32f4xx_hal_can.c ****         }
1420:ThirdParty/STM32F4xx_HAL_Driver/Src/stm32f4xx_hal_can.c ****         else if ((tsrflags & CAN_TSR_TERR2) != RESET)
1421:ThirdParty/STM32F4xx_HAL_Driver/Src/stm32f4xx_hal_can.c ****         {
1422:ThirdParty/STM32F4xx_HAL_Driver/Src/stm32f4xx_hal_can.c ****           /* Update error code */
1423:ThirdParty/STM32F4xx_HAL_Driver/Src/stm32f4xx_hal_can.c ****           errorcode |= HAL_CAN_ERROR_TX_TERR2;
1424:ThirdParty/STM32F4xx_HAL_Driver/Src/stm32f4xx_hal_can.c ****         }
1425:ThirdParty/STM32F4xx_HAL_Driver/Src/stm32f4xx_hal_can.c ****         else
1426:ThirdParty/STM32F4xx_HAL_Driver/Src/stm32f4xx_hal_can.c ****         {
1427:ThirdParty/STM32F4xx_HAL_Driver/Src/stm32f4xx_hal_can.c ****           /* Transmission Mailbox 2 abort callback */
1428:ThirdParty/STM32F4xx_HAL_Driver/Src/stm32f4xx_hal_can.c ****           /* Call weak (surcharged) callback */
1429:ThirdParty/STM32F4xx_HAL_Driver/Src/stm32f4xx_hal_can.c ****           HAL_CAN_TxMailbox2AbortCallback(hcan);
1430:ThirdParty/STM32F4xx_HAL_Driver/Src/stm32f4xx_hal_can.c ****         }
1431:ThirdParty/STM32F4xx_HAL_Driver/Src/stm32f4xx_hal_can.c ****       }
1432:ThirdParty/STM32F4xx_HAL_Driver/Src/stm32f4xx_hal_can.c ****     }
1433:ThirdParty/STM32F4xx_HAL_Driver/Src/stm32f4xx_hal_can.c ****   }
1434:ThirdParty/STM32F4xx_HAL_Driver/Src/stm32f4xx_hal_can.c **** 
1435:ThirdParty/STM32F4xx_HAL_Driver/Src/stm32f4xx_hal_can.c ****   /* Receive FIFO 0 overrun interrupt management *****************************/
1436:ThirdParty/STM32F4xx_HAL_Driver/Src/stm32f4xx_hal_can.c ****   if ((interrupts & CAN_IT_RX_FIFO0_OVERRUN) != RESET)
1437:ThirdParty/STM32F4xx_HAL_Driver/Src/stm32f4xx_hal_can.c ****   {
1438:ThirdParty/STM32F4xx_HAL_Driver/Src/stm32f4xx_hal_can.c ****     if ((rf0rflags & CAN_RF0R_FOVR0) != RESET)
1439:ThirdParty/STM32F4xx_HAL_Driver/Src/stm32f4xx_hal_can.c ****     {
1440:ThirdParty/STM32F4xx_HAL_Driver/Src/stm32f4xx_hal_can.c ****       /* Set CAN error code to Rx Fifo 0 overrun error */
1441:ThirdParty/STM32F4xx_HAL_Driver/Src/stm32f4xx_hal_can.c ****       errorcode |= HAL_CAN_ERROR_RX_FOV0;
1442:ThirdParty/STM32F4xx_HAL_Driver/Src/stm32f4xx_hal_can.c **** 
1443:ThirdParty/STM32F4xx_HAL_Driver/Src/stm32f4xx_hal_can.c ****       /* Clear FIFO0 Overrun Flag */
1444:ThirdParty/STM32F4xx_HAL_Driver/Src/stm32f4xx_hal_can.c ****       __HAL_CAN_CLEAR_FLAG(hcan, CAN_FLAG_FOV0);
1445:ThirdParty/STM32F4xx_HAL_Driver/Src/stm32f4xx_hal_can.c ****     }
1446:ThirdParty/STM32F4xx_HAL_Driver/Src/stm32f4xx_hal_can.c ****   }
1447:ThirdParty/STM32F4xx_HAL_Driver/Src/stm32f4xx_hal_can.c **** 
1448:ThirdParty/STM32F4xx_HAL_Driver/Src/stm32f4xx_hal_can.c ****   /* Receive FIFO 0 full interrupt management ********************************/
1449:ThirdParty/STM32F4xx_HAL_Driver/Src/stm32f4xx_hal_can.c ****   if ((interrupts & CAN_IT_RX_FIFO0_FULL) != RESET)
1450:ThirdParty/STM32F4xx_HAL_Driver/Src/stm32f4xx_hal_can.c ****   {
1451:ThirdParty/STM32F4xx_HAL_Driver/Src/stm32f4xx_hal_can.c ****     if ((rf0rflags & CAN_RF0R_FULL0) != RESET)
1452:ThirdParty/STM32F4xx_HAL_Driver/Src/stm32f4xx_hal_can.c ****     {
1453:ThirdParty/STM32F4xx_HAL_Driver/Src/stm32f4xx_hal_can.c ****       /* Clear FIFO 0 full Flag */
1454:ThirdParty/STM32F4xx_HAL_Driver/Src/stm32f4xx_hal_can.c ****       __HAL_CAN_CLEAR_FLAG(hcan, CAN_FLAG_FF0);
1455:ThirdParty/STM32F4xx_HAL_Driver/Src/stm32f4xx_hal_can.c **** 
1456:ThirdParty/STM32F4xx_HAL_Driver/Src/stm32f4xx_hal_can.c ****       /* Receive FIFO 0 full Callback */
1457:ThirdParty/STM32F4xx_HAL_Driver/Src/stm32f4xx_hal_can.c ****       /* Call weak (surcharged) callback */
1458:ThirdParty/STM32F4xx_HAL_Driver/Src/stm32f4xx_hal_can.c ****       HAL_CAN_RxFifo0FullCallback(hcan);
1459:ThirdParty/STM32F4xx_HAL_Driver/Src/stm32f4xx_hal_can.c ****     }
1460:ThirdParty/STM32F4xx_HAL_Driver/Src/stm32f4xx_hal_can.c ****   }
1461:ThirdParty/STM32F4xx_HAL_Driver/Src/stm32f4xx_hal_can.c **** 
1462:ThirdParty/STM32F4xx_HAL_Driver/Src/stm32f4xx_hal_can.c ****   /* Receive FIFO 0 message pending interrupt management *********************/
1463:ThirdParty/STM32F4xx_HAL_Driver/Src/stm32f4xx_hal_can.c ****   if ((interrupts & CAN_IT_RX_FIFO0_MSG_PENDING) != RESET)
1464:ThirdParty/STM32F4xx_HAL_Driver/Src/stm32f4xx_hal_can.c ****   {
ARM GAS  /tmp/cc6fvD8U.s 			page 87


1465:ThirdParty/STM32F4xx_HAL_Driver/Src/stm32f4xx_hal_can.c ****     /* Check if message is still pending */
1466:ThirdParty/STM32F4xx_HAL_Driver/Src/stm32f4xx_hal_can.c ****     if ((hcan->Instance->RF0R & CAN_RF0R_FMP0) != RESET)
1467:ThirdParty/STM32F4xx_HAL_Driver/Src/stm32f4xx_hal_can.c ****     {
1468:ThirdParty/STM32F4xx_HAL_Driver/Src/stm32f4xx_hal_can.c ****       /* Receive FIFO 0 mesage pending Callback */
1469:ThirdParty/STM32F4xx_HAL_Driver/Src/stm32f4xx_hal_can.c ****       /* Call weak (surcharged) callback */
1470:ThirdParty/STM32F4xx_HAL_Driver/Src/stm32f4xx_hal_can.c ****       HAL_CAN_RxFifo0MsgPendingCallback(hcan);
1471:ThirdParty/STM32F4xx_HAL_Driver/Src/stm32f4xx_hal_can.c ****     }
1472:ThirdParty/STM32F4xx_HAL_Driver/Src/stm32f4xx_hal_can.c ****   }
1473:ThirdParty/STM32F4xx_HAL_Driver/Src/stm32f4xx_hal_can.c **** 
1474:ThirdParty/STM32F4xx_HAL_Driver/Src/stm32f4xx_hal_can.c ****   /* Receive FIFO 1 overrun interrupt management *****************************/
1475:ThirdParty/STM32F4xx_HAL_Driver/Src/stm32f4xx_hal_can.c ****   if ((interrupts & CAN_IT_RX_FIFO1_OVERRUN) != RESET)
1476:ThirdParty/STM32F4xx_HAL_Driver/Src/stm32f4xx_hal_can.c ****   {
1477:ThirdParty/STM32F4xx_HAL_Driver/Src/stm32f4xx_hal_can.c ****     if ((rf1rflags & CAN_RF1R_FOVR1) != RESET)
1478:ThirdParty/STM32F4xx_HAL_Driver/Src/stm32f4xx_hal_can.c ****     {
1479:ThirdParty/STM32F4xx_HAL_Driver/Src/stm32f4xx_hal_can.c ****       /* Set CAN error code to Rx Fifo 1 overrun error */
1480:ThirdParty/STM32F4xx_HAL_Driver/Src/stm32f4xx_hal_can.c ****       errorcode |= HAL_CAN_ERROR_RX_FOV1;
1481:ThirdParty/STM32F4xx_HAL_Driver/Src/stm32f4xx_hal_can.c **** 
1482:ThirdParty/STM32F4xx_HAL_Driver/Src/stm32f4xx_hal_can.c ****       /* Clear FIFO1 Overrun Flag */
1483:ThirdParty/STM32F4xx_HAL_Driver/Src/stm32f4xx_hal_can.c ****       __HAL_CAN_CLEAR_FLAG(hcan, CAN_FLAG_FOV1);
1484:ThirdParty/STM32F4xx_HAL_Driver/Src/stm32f4xx_hal_can.c ****     }
1485:ThirdParty/STM32F4xx_HAL_Driver/Src/stm32f4xx_hal_can.c ****   }
1486:ThirdParty/STM32F4xx_HAL_Driver/Src/stm32f4xx_hal_can.c **** 
1487:ThirdParty/STM32F4xx_HAL_Driver/Src/stm32f4xx_hal_can.c ****   /* Receive FIFO 1 full interrupt management ********************************/
1488:ThirdParty/STM32F4xx_HAL_Driver/Src/stm32f4xx_hal_can.c ****   if ((interrupts & CAN_IT_RX_FIFO1_FULL) != RESET)
1489:ThirdParty/STM32F4xx_HAL_Driver/Src/stm32f4xx_hal_can.c ****   {
1490:ThirdParty/STM32F4xx_HAL_Driver/Src/stm32f4xx_hal_can.c ****     if ((rf1rflags & CAN_RF1R_FULL1) != RESET)
1491:ThirdParty/STM32F4xx_HAL_Driver/Src/stm32f4xx_hal_can.c ****     {
1492:ThirdParty/STM32F4xx_HAL_Driver/Src/stm32f4xx_hal_can.c ****       /* Clear FIFO 1 full Flag */
1493:ThirdParty/STM32F4xx_HAL_Driver/Src/stm32f4xx_hal_can.c ****       __HAL_CAN_CLEAR_FLAG(hcan, CAN_FLAG_FF1);
1494:ThirdParty/STM32F4xx_HAL_Driver/Src/stm32f4xx_hal_can.c **** 
1495:ThirdParty/STM32F4xx_HAL_Driver/Src/stm32f4xx_hal_can.c ****       /* Receive FIFO 1 full Callback */
1496:ThirdParty/STM32F4xx_HAL_Driver/Src/stm32f4xx_hal_can.c ****       /* Call weak (surcharged) callback */
1497:ThirdParty/STM32F4xx_HAL_Driver/Src/stm32f4xx_hal_can.c ****       HAL_CAN_RxFifo1FullCallback(hcan);
1498:ThirdParty/STM32F4xx_HAL_Driver/Src/stm32f4xx_hal_can.c ****     }
1499:ThirdParty/STM32F4xx_HAL_Driver/Src/stm32f4xx_hal_can.c ****   }
1500:ThirdParty/STM32F4xx_HAL_Driver/Src/stm32f4xx_hal_can.c **** 
1501:ThirdParty/STM32F4xx_HAL_Driver/Src/stm32f4xx_hal_can.c ****   /* Receive FIFO 1 message pending interrupt management *********************/
1502:ThirdParty/STM32F4xx_HAL_Driver/Src/stm32f4xx_hal_can.c ****   if ((interrupts & CAN_IT_RX_FIFO1_MSG_PENDING) != RESET)
1503:ThirdParty/STM32F4xx_HAL_Driver/Src/stm32f4xx_hal_can.c ****   {
1504:ThirdParty/STM32F4xx_HAL_Driver/Src/stm32f4xx_hal_can.c ****     /* Check if message is still pending */
1505:ThirdParty/STM32F4xx_HAL_Driver/Src/stm32f4xx_hal_can.c ****     if ((hcan->Instance->RF1R & CAN_RF1R_FMP1) != RESET)
1506:ThirdParty/STM32F4xx_HAL_Driver/Src/stm32f4xx_hal_can.c ****     {
1507:ThirdParty/STM32F4xx_HAL_Driver/Src/stm32f4xx_hal_can.c ****       /* Receive FIFO 1 mesage pending Callback */
1508:ThirdParty/STM32F4xx_HAL_Driver/Src/stm32f4xx_hal_can.c ****       /* Call weak (surcharged) callback */
1509:ThirdParty/STM32F4xx_HAL_Driver/Src/stm32f4xx_hal_can.c ****       HAL_CAN_RxFifo1MsgPendingCallback(hcan);
1510:ThirdParty/STM32F4xx_HAL_Driver/Src/stm32f4xx_hal_can.c ****     }
1511:ThirdParty/STM32F4xx_HAL_Driver/Src/stm32f4xx_hal_can.c ****   }
1512:ThirdParty/STM32F4xx_HAL_Driver/Src/stm32f4xx_hal_can.c **** 
1513:ThirdParty/STM32F4xx_HAL_Driver/Src/stm32f4xx_hal_can.c ****   /* Sleep interrupt management *********************************************/
1514:ThirdParty/STM32F4xx_HAL_Driver/Src/stm32f4xx_hal_can.c ****   if ((interrupts & CAN_IT_SLEEP_ACK) != RESET)
1515:ThirdParty/STM32F4xx_HAL_Driver/Src/stm32f4xx_hal_can.c ****   {
1516:ThirdParty/STM32F4xx_HAL_Driver/Src/stm32f4xx_hal_can.c ****     if ((msrflags & CAN_MSR_SLAKI) != RESET)
1517:ThirdParty/STM32F4xx_HAL_Driver/Src/stm32f4xx_hal_can.c ****     {
1518:ThirdParty/STM32F4xx_HAL_Driver/Src/stm32f4xx_hal_can.c ****       /* Clear Sleep interrupt Flag */
1519:ThirdParty/STM32F4xx_HAL_Driver/Src/stm32f4xx_hal_can.c ****       __HAL_CAN_CLEAR_FLAG(hcan, CAN_FLAG_SLAKI);
1520:ThirdParty/STM32F4xx_HAL_Driver/Src/stm32f4xx_hal_can.c **** 
1521:ThirdParty/STM32F4xx_HAL_Driver/Src/stm32f4xx_hal_can.c ****       /* Sleep Callback */
ARM GAS  /tmp/cc6fvD8U.s 			page 88


1522:ThirdParty/STM32F4xx_HAL_Driver/Src/stm32f4xx_hal_can.c ****       /* Call weak (surcharged) callback */
1523:ThirdParty/STM32F4xx_HAL_Driver/Src/stm32f4xx_hal_can.c ****       HAL_CAN_SleepCallback(hcan);
1524:ThirdParty/STM32F4xx_HAL_Driver/Src/stm32f4xx_hal_can.c ****     }
1525:ThirdParty/STM32F4xx_HAL_Driver/Src/stm32f4xx_hal_can.c ****   }
1526:ThirdParty/STM32F4xx_HAL_Driver/Src/stm32f4xx_hal_can.c **** 
1527:ThirdParty/STM32F4xx_HAL_Driver/Src/stm32f4xx_hal_can.c ****   /* WakeUp interrupt management *********************************************/
1528:ThirdParty/STM32F4xx_HAL_Driver/Src/stm32f4xx_hal_can.c ****   if ((interrupts & CAN_IT_WAKEUP) != RESET)
1529:ThirdParty/STM32F4xx_HAL_Driver/Src/stm32f4xx_hal_can.c ****   {
1530:ThirdParty/STM32F4xx_HAL_Driver/Src/stm32f4xx_hal_can.c ****     if ((msrflags & CAN_MSR_WKUI) != RESET)
1531:ThirdParty/STM32F4xx_HAL_Driver/Src/stm32f4xx_hal_can.c ****     {
1532:ThirdParty/STM32F4xx_HAL_Driver/Src/stm32f4xx_hal_can.c ****       /* Clear WakeUp Flag */
1533:ThirdParty/STM32F4xx_HAL_Driver/Src/stm32f4xx_hal_can.c ****       __HAL_CAN_CLEAR_FLAG(hcan, CAN_FLAG_WKU);
1534:ThirdParty/STM32F4xx_HAL_Driver/Src/stm32f4xx_hal_can.c **** 
1535:ThirdParty/STM32F4xx_HAL_Driver/Src/stm32f4xx_hal_can.c ****       /* WakeUp Callback */
1536:ThirdParty/STM32F4xx_HAL_Driver/Src/stm32f4xx_hal_can.c ****       /* Call weak (surcharged) callback */
1537:ThirdParty/STM32F4xx_HAL_Driver/Src/stm32f4xx_hal_can.c ****       HAL_CAN_WakeUpFromRxMsgCallback(hcan);
1538:ThirdParty/STM32F4xx_HAL_Driver/Src/stm32f4xx_hal_can.c ****     }
1539:ThirdParty/STM32F4xx_HAL_Driver/Src/stm32f4xx_hal_can.c ****   }
1540:ThirdParty/STM32F4xx_HAL_Driver/Src/stm32f4xx_hal_can.c **** 
1541:ThirdParty/STM32F4xx_HAL_Driver/Src/stm32f4xx_hal_can.c ****   /* Error interrupts management *********************************************/
1542:ThirdParty/STM32F4xx_HAL_Driver/Src/stm32f4xx_hal_can.c ****   if ((interrupts & CAN_IT_ERROR) != RESET)
1543:ThirdParty/STM32F4xx_HAL_Driver/Src/stm32f4xx_hal_can.c ****   {
1544:ThirdParty/STM32F4xx_HAL_Driver/Src/stm32f4xx_hal_can.c ****     if ((msrflags & CAN_MSR_ERRI) != RESET)
1545:ThirdParty/STM32F4xx_HAL_Driver/Src/stm32f4xx_hal_can.c ****     {
1546:ThirdParty/STM32F4xx_HAL_Driver/Src/stm32f4xx_hal_can.c ****       /* Check Error Warning Flag */
1547:ThirdParty/STM32F4xx_HAL_Driver/Src/stm32f4xx_hal_can.c ****       if (((interrupts & CAN_IT_ERROR_WARNING) != RESET) &&
1548:ThirdParty/STM32F4xx_HAL_Driver/Src/stm32f4xx_hal_can.c ****           ((esrflags & CAN_ESR_EWGF) != RESET))
1549:ThirdParty/STM32F4xx_HAL_Driver/Src/stm32f4xx_hal_can.c ****       {
1550:ThirdParty/STM32F4xx_HAL_Driver/Src/stm32f4xx_hal_can.c ****         /* Set CAN error code to Error Warning */
1551:ThirdParty/STM32F4xx_HAL_Driver/Src/stm32f4xx_hal_can.c ****         errorcode |= HAL_CAN_ERROR_EWG;
1552:ThirdParty/STM32F4xx_HAL_Driver/Src/stm32f4xx_hal_can.c **** 
1553:ThirdParty/STM32F4xx_HAL_Driver/Src/stm32f4xx_hal_can.c ****         /* No need for clear of Error Warning Flag as read-only */
1554:ThirdParty/STM32F4xx_HAL_Driver/Src/stm32f4xx_hal_can.c ****       }
1555:ThirdParty/STM32F4xx_HAL_Driver/Src/stm32f4xx_hal_can.c **** 
1556:ThirdParty/STM32F4xx_HAL_Driver/Src/stm32f4xx_hal_can.c ****       /* Check Error Passive Flag */
1557:ThirdParty/STM32F4xx_HAL_Driver/Src/stm32f4xx_hal_can.c ****       if (((interrupts & CAN_IT_ERROR_PASSIVE) != RESET) &&
1558:ThirdParty/STM32F4xx_HAL_Driver/Src/stm32f4xx_hal_can.c ****           ((esrflags & CAN_ESR_EPVF) != RESET))
1559:ThirdParty/STM32F4xx_HAL_Driver/Src/stm32f4xx_hal_can.c ****       {
1560:ThirdParty/STM32F4xx_HAL_Driver/Src/stm32f4xx_hal_can.c ****         /* Set CAN error code to Error Passive */
1561:ThirdParty/STM32F4xx_HAL_Driver/Src/stm32f4xx_hal_can.c ****         errorcode |= HAL_CAN_ERROR_EPV;
1562:ThirdParty/STM32F4xx_HAL_Driver/Src/stm32f4xx_hal_can.c **** 
1563:ThirdParty/STM32F4xx_HAL_Driver/Src/stm32f4xx_hal_can.c ****         /* No need for clear of Error Passive Flag as read-only */
1564:ThirdParty/STM32F4xx_HAL_Driver/Src/stm32f4xx_hal_can.c ****       }
1565:ThirdParty/STM32F4xx_HAL_Driver/Src/stm32f4xx_hal_can.c **** 
1566:ThirdParty/STM32F4xx_HAL_Driver/Src/stm32f4xx_hal_can.c ****       /* Check Bus-off Flag */
1567:ThirdParty/STM32F4xx_HAL_Driver/Src/stm32f4xx_hal_can.c ****       if (((interrupts & CAN_IT_BUSOFF) != RESET) &&
1568:ThirdParty/STM32F4xx_HAL_Driver/Src/stm32f4xx_hal_can.c ****           ((esrflags & CAN_ESR_BOFF) != RESET))
1569:ThirdParty/STM32F4xx_HAL_Driver/Src/stm32f4xx_hal_can.c ****       {
1570:ThirdParty/STM32F4xx_HAL_Driver/Src/stm32f4xx_hal_can.c ****         /* Set CAN error code to Bus-Off */
1571:ThirdParty/STM32F4xx_HAL_Driver/Src/stm32f4xx_hal_can.c ****         errorcode |= HAL_CAN_ERROR_BOF;
1572:ThirdParty/STM32F4xx_HAL_Driver/Src/stm32f4xx_hal_can.c **** 
1573:ThirdParty/STM32F4xx_HAL_Driver/Src/stm32f4xx_hal_can.c ****         /* No need for clear of Error Bus-Off as read-only */
1574:ThirdParty/STM32F4xx_HAL_Driver/Src/stm32f4xx_hal_can.c ****       }
1575:ThirdParty/STM32F4xx_HAL_Driver/Src/stm32f4xx_hal_can.c **** 
1576:ThirdParty/STM32F4xx_HAL_Driver/Src/stm32f4xx_hal_can.c ****       /* Check Last Error Code Flag */
1577:ThirdParty/STM32F4xx_HAL_Driver/Src/stm32f4xx_hal_can.c ****       if (((interrupts & CAN_IT_LAST_ERROR_CODE) != RESET) &&
1578:ThirdParty/STM32F4xx_HAL_Driver/Src/stm32f4xx_hal_can.c ****           ((esrflags & CAN_ESR_LEC) != RESET))
ARM GAS  /tmp/cc6fvD8U.s 			page 89


1579:ThirdParty/STM32F4xx_HAL_Driver/Src/stm32f4xx_hal_can.c ****       {
1580:ThirdParty/STM32F4xx_HAL_Driver/Src/stm32f4xx_hal_can.c ****         switch (esrflags & CAN_ESR_LEC)
1581:ThirdParty/STM32F4xx_HAL_Driver/Src/stm32f4xx_hal_can.c ****         {
1582:ThirdParty/STM32F4xx_HAL_Driver/Src/stm32f4xx_hal_can.c ****           case (CAN_ESR_LEC_0):
1583:ThirdParty/STM32F4xx_HAL_Driver/Src/stm32f4xx_hal_can.c ****             /* Set CAN error code to Stuff error */
1584:ThirdParty/STM32F4xx_HAL_Driver/Src/stm32f4xx_hal_can.c ****             errorcode |= HAL_CAN_ERROR_STF;
1585:ThirdParty/STM32F4xx_HAL_Driver/Src/stm32f4xx_hal_can.c ****             break;
1586:ThirdParty/STM32F4xx_HAL_Driver/Src/stm32f4xx_hal_can.c ****           case (CAN_ESR_LEC_1):
1587:ThirdParty/STM32F4xx_HAL_Driver/Src/stm32f4xx_hal_can.c ****             /* Set CAN error code to Form error */
1588:ThirdParty/STM32F4xx_HAL_Driver/Src/stm32f4xx_hal_can.c ****             errorcode |= HAL_CAN_ERROR_FOR;
1589:ThirdParty/STM32F4xx_HAL_Driver/Src/stm32f4xx_hal_can.c ****             break;
1590:ThirdParty/STM32F4xx_HAL_Driver/Src/stm32f4xx_hal_can.c ****           case (CAN_ESR_LEC_1 | CAN_ESR_LEC_0):
1591:ThirdParty/STM32F4xx_HAL_Driver/Src/stm32f4xx_hal_can.c ****             /* Set CAN error code to Acknowledgement error */
1592:ThirdParty/STM32F4xx_HAL_Driver/Src/stm32f4xx_hal_can.c ****             errorcode |= HAL_CAN_ERROR_ACK;
1593:ThirdParty/STM32F4xx_HAL_Driver/Src/stm32f4xx_hal_can.c ****             break;
1594:ThirdParty/STM32F4xx_HAL_Driver/Src/stm32f4xx_hal_can.c ****           case (CAN_ESR_LEC_2):
1595:ThirdParty/STM32F4xx_HAL_Driver/Src/stm32f4xx_hal_can.c ****             /* Set CAN error code to Bit recessive error */
1596:ThirdParty/STM32F4xx_HAL_Driver/Src/stm32f4xx_hal_can.c ****             errorcode |= HAL_CAN_ERROR_BR;
1597:ThirdParty/STM32F4xx_HAL_Driver/Src/stm32f4xx_hal_can.c ****             break;
1598:ThirdParty/STM32F4xx_HAL_Driver/Src/stm32f4xx_hal_can.c ****           case (CAN_ESR_LEC_2 | CAN_ESR_LEC_0):
1599:ThirdParty/STM32F4xx_HAL_Driver/Src/stm32f4xx_hal_can.c ****             /* Set CAN error code to Bit Dominant error */
1600:ThirdParty/STM32F4xx_HAL_Driver/Src/stm32f4xx_hal_can.c ****             errorcode |= HAL_CAN_ERROR_BD;
1601:ThirdParty/STM32F4xx_HAL_Driver/Src/stm32f4xx_hal_can.c ****             break;
1602:ThirdParty/STM32F4xx_HAL_Driver/Src/stm32f4xx_hal_can.c ****           case (CAN_ESR_LEC_2 | CAN_ESR_LEC_1):
1603:ThirdParty/STM32F4xx_HAL_Driver/Src/stm32f4xx_hal_can.c ****             /* Set CAN error code to CRC error */
1604:ThirdParty/STM32F4xx_HAL_Driver/Src/stm32f4xx_hal_can.c ****             errorcode |= HAL_CAN_ERROR_CRC;
1605:ThirdParty/STM32F4xx_HAL_Driver/Src/stm32f4xx_hal_can.c ****             break;
1606:ThirdParty/STM32F4xx_HAL_Driver/Src/stm32f4xx_hal_can.c ****           default:
1607:ThirdParty/STM32F4xx_HAL_Driver/Src/stm32f4xx_hal_can.c ****             break;
1608:ThirdParty/STM32F4xx_HAL_Driver/Src/stm32f4xx_hal_can.c ****         }
1609:ThirdParty/STM32F4xx_HAL_Driver/Src/stm32f4xx_hal_can.c **** 
1610:ThirdParty/STM32F4xx_HAL_Driver/Src/stm32f4xx_hal_can.c ****         /* Clear Last error code Flag */
1611:ThirdParty/STM32F4xx_HAL_Driver/Src/stm32f4xx_hal_can.c ****         CLEAR_BIT(hcan->Instance->ESR, CAN_ESR_LEC);
1612:ThirdParty/STM32F4xx_HAL_Driver/Src/stm32f4xx_hal_can.c ****       }
1613:ThirdParty/STM32F4xx_HAL_Driver/Src/stm32f4xx_hal_can.c ****     }
1614:ThirdParty/STM32F4xx_HAL_Driver/Src/stm32f4xx_hal_can.c **** 
1615:ThirdParty/STM32F4xx_HAL_Driver/Src/stm32f4xx_hal_can.c ****     /* Clear ERRI Flag */
1616:ThirdParty/STM32F4xx_HAL_Driver/Src/stm32f4xx_hal_can.c ****     __HAL_CAN_CLEAR_FLAG(hcan, CAN_FLAG_ERRI);
1617:ThirdParty/STM32F4xx_HAL_Driver/Src/stm32f4xx_hal_can.c ****   }
1618:ThirdParty/STM32F4xx_HAL_Driver/Src/stm32f4xx_hal_can.c **** 
1619:ThirdParty/STM32F4xx_HAL_Driver/Src/stm32f4xx_hal_can.c ****   /* Call the Error call Back in case of Errors */
1620:ThirdParty/STM32F4xx_HAL_Driver/Src/stm32f4xx_hal_can.c ****   if (errorcode != HAL_CAN_ERROR_NONE)
1621:ThirdParty/STM32F4xx_HAL_Driver/Src/stm32f4xx_hal_can.c ****   {
1622:ThirdParty/STM32F4xx_HAL_Driver/Src/stm32f4xx_hal_can.c ****     /* Update error code in handle */
1623:ThirdParty/STM32F4xx_HAL_Driver/Src/stm32f4xx_hal_can.c ****     hcan->ErrorCode |= errorcode;
1624:ThirdParty/STM32F4xx_HAL_Driver/Src/stm32f4xx_hal_can.c **** 
1625:ThirdParty/STM32F4xx_HAL_Driver/Src/stm32f4xx_hal_can.c ****     /* Call Error callback function */
1626:ThirdParty/STM32F4xx_HAL_Driver/Src/stm32f4xx_hal_can.c ****     /* Call weak (surcharged) callback */
1627:ThirdParty/STM32F4xx_HAL_Driver/Src/stm32f4xx_hal_can.c ****     HAL_CAN_ErrorCallback(hcan);
1628:ThirdParty/STM32F4xx_HAL_Driver/Src/stm32f4xx_hal_can.c ****   }
1629:ThirdParty/STM32F4xx_HAL_Driver/Src/stm32f4xx_hal_can.c **** }
1630:ThirdParty/STM32F4xx_HAL_Driver/Src/stm32f4xx_hal_can.c **** 
1631:ThirdParty/STM32F4xx_HAL_Driver/Src/stm32f4xx_hal_can.c **** /**
1632:ThirdParty/STM32F4xx_HAL_Driver/Src/stm32f4xx_hal_can.c ****   * @}
1633:ThirdParty/STM32F4xx_HAL_Driver/Src/stm32f4xx_hal_can.c ****   */
1634:ThirdParty/STM32F4xx_HAL_Driver/Src/stm32f4xx_hal_can.c **** 
1635:ThirdParty/STM32F4xx_HAL_Driver/Src/stm32f4xx_hal_can.c **** /** @defgroup CAN_Exported_Functions_Group5 Callback functions
ARM GAS  /tmp/cc6fvD8U.s 			page 90


1636:ThirdParty/STM32F4xx_HAL_Driver/Src/stm32f4xx_hal_can.c ****  *  @brief   CAN Callback functions
1637:ThirdParty/STM32F4xx_HAL_Driver/Src/stm32f4xx_hal_can.c ****  *
1638:ThirdParty/STM32F4xx_HAL_Driver/Src/stm32f4xx_hal_can.c **** @verbatim
1639:ThirdParty/STM32F4xx_HAL_Driver/Src/stm32f4xx_hal_can.c ****   ==============================================================================
1640:ThirdParty/STM32F4xx_HAL_Driver/Src/stm32f4xx_hal_can.c ****                           ##### Callback functions #####
1641:ThirdParty/STM32F4xx_HAL_Driver/Src/stm32f4xx_hal_can.c ****   ==============================================================================
1642:ThirdParty/STM32F4xx_HAL_Driver/Src/stm32f4xx_hal_can.c ****     [..]
1643:ThirdParty/STM32F4xx_HAL_Driver/Src/stm32f4xx_hal_can.c ****     This subsection provides the following callback functions:
1644:ThirdParty/STM32F4xx_HAL_Driver/Src/stm32f4xx_hal_can.c ****       (+) HAL_CAN_TxMailbox0CompleteCallback
1645:ThirdParty/STM32F4xx_HAL_Driver/Src/stm32f4xx_hal_can.c ****       (+) HAL_CAN_TxMailbox1CompleteCallback
1646:ThirdParty/STM32F4xx_HAL_Driver/Src/stm32f4xx_hal_can.c ****       (+) HAL_CAN_TxMailbox2CompleteCallback
1647:ThirdParty/STM32F4xx_HAL_Driver/Src/stm32f4xx_hal_can.c ****       (+) HAL_CAN_TxMailbox0AbortCallback
1648:ThirdParty/STM32F4xx_HAL_Driver/Src/stm32f4xx_hal_can.c ****       (+) HAL_CAN_TxMailbox1AbortCallback
1649:ThirdParty/STM32F4xx_HAL_Driver/Src/stm32f4xx_hal_can.c ****       (+) HAL_CAN_TxMailbox2AbortCallback
1650:ThirdParty/STM32F4xx_HAL_Driver/Src/stm32f4xx_hal_can.c ****       (+) HAL_CAN_RxFifo0MsgPendingCallback
1651:ThirdParty/STM32F4xx_HAL_Driver/Src/stm32f4xx_hal_can.c ****       (+) HAL_CAN_RxFifo0FullCallback
1652:ThirdParty/STM32F4xx_HAL_Driver/Src/stm32f4xx_hal_can.c ****       (+) HAL_CAN_RxFifo1MsgPendingCallback
1653:ThirdParty/STM32F4xx_HAL_Driver/Src/stm32f4xx_hal_can.c ****       (+) HAL_CAN_RxFifo1FullCallback
1654:ThirdParty/STM32F4xx_HAL_Driver/Src/stm32f4xx_hal_can.c ****       (+) HAL_CAN_SleepCallback
1655:ThirdParty/STM32F4xx_HAL_Driver/Src/stm32f4xx_hal_can.c ****       (+) HAL_CAN_WakeUpFromRxMsgCallback
1656:ThirdParty/STM32F4xx_HAL_Driver/Src/stm32f4xx_hal_can.c ****       (+) HAL_CAN_ErrorCallback
1657:ThirdParty/STM32F4xx_HAL_Driver/Src/stm32f4xx_hal_can.c **** 
1658:ThirdParty/STM32F4xx_HAL_Driver/Src/stm32f4xx_hal_can.c **** @endverbatim
1659:ThirdParty/STM32F4xx_HAL_Driver/Src/stm32f4xx_hal_can.c ****   * @{
1660:ThirdParty/STM32F4xx_HAL_Driver/Src/stm32f4xx_hal_can.c ****   */
1661:ThirdParty/STM32F4xx_HAL_Driver/Src/stm32f4xx_hal_can.c **** 
1662:ThirdParty/STM32F4xx_HAL_Driver/Src/stm32f4xx_hal_can.c **** /**
1663:ThirdParty/STM32F4xx_HAL_Driver/Src/stm32f4xx_hal_can.c ****   * @brief  Transmission Mailbox 0 complete callback.
1664:ThirdParty/STM32F4xx_HAL_Driver/Src/stm32f4xx_hal_can.c ****   * @param  hcan pointer to a CAN_HandleTypeDef structure that contains
1665:ThirdParty/STM32F4xx_HAL_Driver/Src/stm32f4xx_hal_can.c ****   *         the configuration information for the specified CAN.
1666:ThirdParty/STM32F4xx_HAL_Driver/Src/stm32f4xx_hal_can.c ****   * @retval None
1667:ThirdParty/STM32F4xx_HAL_Driver/Src/stm32f4xx_hal_can.c ****   */
1668:ThirdParty/STM32F4xx_HAL_Driver/Src/stm32f4xx_hal_can.c **** __weak void HAL_CAN_TxMailbox0CompleteCallback(CAN_HandleTypeDef *hcan)
1669:ThirdParty/STM32F4xx_HAL_Driver/Src/stm32f4xx_hal_can.c **** {
 2113              		.loc 1 1669 1 is_stmt 1 view -0
 2114              		.cfi_startproc
 2115              		@ args = 0, pretend = 0, frame = 0
 2116              		@ frame_needed = 0, uses_anonymous_args = 0
 2117              		@ link register save eliminated.
1670:ThirdParty/STM32F4xx_HAL_Driver/Src/stm32f4xx_hal_can.c ****   /* Prevent unused argument(s) compilation warning */
1671:ThirdParty/STM32F4xx_HAL_Driver/Src/stm32f4xx_hal_can.c ****   UNUSED(hcan);
 2118              		.loc 1 1671 3 view .LVU682
1672:ThirdParty/STM32F4xx_HAL_Driver/Src/stm32f4xx_hal_can.c **** 
1673:ThirdParty/STM32F4xx_HAL_Driver/Src/stm32f4xx_hal_can.c ****   /* NOTE : This function Should not be modified, when the callback is needed,
1674:ThirdParty/STM32F4xx_HAL_Driver/Src/stm32f4xx_hal_can.c ****             the HAL_CAN_TxMailbox0CompleteCallback could be implemented in the
1675:ThirdParty/STM32F4xx_HAL_Driver/Src/stm32f4xx_hal_can.c ****             user file
1676:ThirdParty/STM32F4xx_HAL_Driver/Src/stm32f4xx_hal_can.c ****    */
1677:ThirdParty/STM32F4xx_HAL_Driver/Src/stm32f4xx_hal_can.c **** }
 2119              		.loc 1 1677 1 is_stmt 0 view .LVU683
 2120 0000 7047     		bx	lr
 2121              		.cfi_endproc
 2122              	.LFE153:
 2124              		.section	.text.HAL_CAN_TxMailbox1CompleteCallback,"ax",%progbits
 2125              		.align	1
 2126              		.weak	HAL_CAN_TxMailbox1CompleteCallback
 2127              		.syntax unified
 2128              		.thumb
ARM GAS  /tmp/cc6fvD8U.s 			page 91


 2129              		.thumb_func
 2131              	HAL_CAN_TxMailbox1CompleteCallback:
 2132              	.LVL136:
 2133              	.LFB154:
1678:ThirdParty/STM32F4xx_HAL_Driver/Src/stm32f4xx_hal_can.c **** 
1679:ThirdParty/STM32F4xx_HAL_Driver/Src/stm32f4xx_hal_can.c **** /**
1680:ThirdParty/STM32F4xx_HAL_Driver/Src/stm32f4xx_hal_can.c ****   * @brief  Transmission Mailbox 1 complete callback.
1681:ThirdParty/STM32F4xx_HAL_Driver/Src/stm32f4xx_hal_can.c ****   * @param  hcan pointer to a CAN_HandleTypeDef structure that contains
1682:ThirdParty/STM32F4xx_HAL_Driver/Src/stm32f4xx_hal_can.c ****   *         the configuration information for the specified CAN.
1683:ThirdParty/STM32F4xx_HAL_Driver/Src/stm32f4xx_hal_can.c ****   * @retval None
1684:ThirdParty/STM32F4xx_HAL_Driver/Src/stm32f4xx_hal_can.c ****   */
1685:ThirdParty/STM32F4xx_HAL_Driver/Src/stm32f4xx_hal_can.c **** __weak void HAL_CAN_TxMailbox1CompleteCallback(CAN_HandleTypeDef *hcan)
1686:ThirdParty/STM32F4xx_HAL_Driver/Src/stm32f4xx_hal_can.c **** {
 2134              		.loc 1 1686 1 is_stmt 1 view -0
 2135              		.cfi_startproc
 2136              		@ args = 0, pretend = 0, frame = 0
 2137              		@ frame_needed = 0, uses_anonymous_args = 0
 2138              		@ link register save eliminated.
1687:ThirdParty/STM32F4xx_HAL_Driver/Src/stm32f4xx_hal_can.c ****   /* Prevent unused argument(s) compilation warning */
1688:ThirdParty/STM32F4xx_HAL_Driver/Src/stm32f4xx_hal_can.c ****   UNUSED(hcan);
 2139              		.loc 1 1688 3 view .LVU685
1689:ThirdParty/STM32F4xx_HAL_Driver/Src/stm32f4xx_hal_can.c **** 
1690:ThirdParty/STM32F4xx_HAL_Driver/Src/stm32f4xx_hal_can.c ****   /* NOTE : This function Should not be modified, when the callback is needed,
1691:ThirdParty/STM32F4xx_HAL_Driver/Src/stm32f4xx_hal_can.c ****             the HAL_CAN_TxMailbox1CompleteCallback could be implemented in the
1692:ThirdParty/STM32F4xx_HAL_Driver/Src/stm32f4xx_hal_can.c ****             user file
1693:ThirdParty/STM32F4xx_HAL_Driver/Src/stm32f4xx_hal_can.c ****    */
1694:ThirdParty/STM32F4xx_HAL_Driver/Src/stm32f4xx_hal_can.c **** }
 2140              		.loc 1 1694 1 is_stmt 0 view .LVU686
 2141 0000 7047     		bx	lr
 2142              		.cfi_endproc
 2143              	.LFE154:
 2145              		.section	.text.HAL_CAN_TxMailbox2CompleteCallback,"ax",%progbits
 2146              		.align	1
 2147              		.weak	HAL_CAN_TxMailbox2CompleteCallback
 2148              		.syntax unified
 2149              		.thumb
 2150              		.thumb_func
 2152              	HAL_CAN_TxMailbox2CompleteCallback:
 2153              	.LVL137:
 2154              	.LFB155:
1695:ThirdParty/STM32F4xx_HAL_Driver/Src/stm32f4xx_hal_can.c **** 
1696:ThirdParty/STM32F4xx_HAL_Driver/Src/stm32f4xx_hal_can.c **** /**
1697:ThirdParty/STM32F4xx_HAL_Driver/Src/stm32f4xx_hal_can.c ****   * @brief  Transmission Mailbox 2 complete callback.
1698:ThirdParty/STM32F4xx_HAL_Driver/Src/stm32f4xx_hal_can.c ****   * @param  hcan pointer to a CAN_HandleTypeDef structure that contains
1699:ThirdParty/STM32F4xx_HAL_Driver/Src/stm32f4xx_hal_can.c ****   *         the configuration information for the specified CAN.
1700:ThirdParty/STM32F4xx_HAL_Driver/Src/stm32f4xx_hal_can.c ****   * @retval None
1701:ThirdParty/STM32F4xx_HAL_Driver/Src/stm32f4xx_hal_can.c ****   */
1702:ThirdParty/STM32F4xx_HAL_Driver/Src/stm32f4xx_hal_can.c **** __weak void HAL_CAN_TxMailbox2CompleteCallback(CAN_HandleTypeDef *hcan)
1703:ThirdParty/STM32F4xx_HAL_Driver/Src/stm32f4xx_hal_can.c **** {
 2155              		.loc 1 1703 1 is_stmt 1 view -0
 2156              		.cfi_startproc
 2157              		@ args = 0, pretend = 0, frame = 0
 2158              		@ frame_needed = 0, uses_anonymous_args = 0
 2159              		@ link register save eliminated.
1704:ThirdParty/STM32F4xx_HAL_Driver/Src/stm32f4xx_hal_can.c ****   /* Prevent unused argument(s) compilation warning */
1705:ThirdParty/STM32F4xx_HAL_Driver/Src/stm32f4xx_hal_can.c ****   UNUSED(hcan);
 2160              		.loc 1 1705 3 view .LVU688
ARM GAS  /tmp/cc6fvD8U.s 			page 92


1706:ThirdParty/STM32F4xx_HAL_Driver/Src/stm32f4xx_hal_can.c **** 
1707:ThirdParty/STM32F4xx_HAL_Driver/Src/stm32f4xx_hal_can.c ****   /* NOTE : This function Should not be modified, when the callback is needed,
1708:ThirdParty/STM32F4xx_HAL_Driver/Src/stm32f4xx_hal_can.c ****             the HAL_CAN_TxMailbox2CompleteCallback could be implemented in the
1709:ThirdParty/STM32F4xx_HAL_Driver/Src/stm32f4xx_hal_can.c ****             user file
1710:ThirdParty/STM32F4xx_HAL_Driver/Src/stm32f4xx_hal_can.c ****    */
1711:ThirdParty/STM32F4xx_HAL_Driver/Src/stm32f4xx_hal_can.c **** }
 2161              		.loc 1 1711 1 is_stmt 0 view .LVU689
 2162 0000 7047     		bx	lr
 2163              		.cfi_endproc
 2164              	.LFE155:
 2166              		.section	.text.HAL_CAN_TxMailbox0AbortCallback,"ax",%progbits
 2167              		.align	1
 2168              		.weak	HAL_CAN_TxMailbox0AbortCallback
 2169              		.syntax unified
 2170              		.thumb
 2171              		.thumb_func
 2173              	HAL_CAN_TxMailbox0AbortCallback:
 2174              	.LVL138:
 2175              	.LFB156:
1712:ThirdParty/STM32F4xx_HAL_Driver/Src/stm32f4xx_hal_can.c **** 
1713:ThirdParty/STM32F4xx_HAL_Driver/Src/stm32f4xx_hal_can.c **** /**
1714:ThirdParty/STM32F4xx_HAL_Driver/Src/stm32f4xx_hal_can.c ****   * @brief  Transmission Mailbox 0 Cancellation callback.
1715:ThirdParty/STM32F4xx_HAL_Driver/Src/stm32f4xx_hal_can.c ****   * @param  hcan pointer to an CAN_HandleTypeDef structure that contains
1716:ThirdParty/STM32F4xx_HAL_Driver/Src/stm32f4xx_hal_can.c ****   *         the configuration information for the specified CAN.
1717:ThirdParty/STM32F4xx_HAL_Driver/Src/stm32f4xx_hal_can.c ****   * @retval None
1718:ThirdParty/STM32F4xx_HAL_Driver/Src/stm32f4xx_hal_can.c ****   */
1719:ThirdParty/STM32F4xx_HAL_Driver/Src/stm32f4xx_hal_can.c **** __weak void HAL_CAN_TxMailbox0AbortCallback(CAN_HandleTypeDef *hcan)
1720:ThirdParty/STM32F4xx_HAL_Driver/Src/stm32f4xx_hal_can.c **** {
 2176              		.loc 1 1720 1 is_stmt 1 view -0
 2177              		.cfi_startproc
 2178              		@ args = 0, pretend = 0, frame = 0
 2179              		@ frame_needed = 0, uses_anonymous_args = 0
 2180              		@ link register save eliminated.
1721:ThirdParty/STM32F4xx_HAL_Driver/Src/stm32f4xx_hal_can.c ****   /* Prevent unused argument(s) compilation warning */
1722:ThirdParty/STM32F4xx_HAL_Driver/Src/stm32f4xx_hal_can.c ****   UNUSED(hcan);
 2181              		.loc 1 1722 3 view .LVU691
1723:ThirdParty/STM32F4xx_HAL_Driver/Src/stm32f4xx_hal_can.c **** 
1724:ThirdParty/STM32F4xx_HAL_Driver/Src/stm32f4xx_hal_can.c ****   /* NOTE : This function Should not be modified, when the callback is needed,
1725:ThirdParty/STM32F4xx_HAL_Driver/Src/stm32f4xx_hal_can.c ****             the HAL_CAN_TxMailbox0AbortCallback could be implemented in the
1726:ThirdParty/STM32F4xx_HAL_Driver/Src/stm32f4xx_hal_can.c ****             user file
1727:ThirdParty/STM32F4xx_HAL_Driver/Src/stm32f4xx_hal_can.c ****    */
1728:ThirdParty/STM32F4xx_HAL_Driver/Src/stm32f4xx_hal_can.c **** }
 2182              		.loc 1 1728 1 is_stmt 0 view .LVU692
 2183 0000 7047     		bx	lr
 2184              		.cfi_endproc
 2185              	.LFE156:
 2187              		.section	.text.HAL_CAN_TxMailbox1AbortCallback,"ax",%progbits
 2188              		.align	1
 2189              		.weak	HAL_CAN_TxMailbox1AbortCallback
 2190              		.syntax unified
 2191              		.thumb
 2192              		.thumb_func
 2194              	HAL_CAN_TxMailbox1AbortCallback:
 2195              	.LVL139:
 2196              	.LFB157:
1729:ThirdParty/STM32F4xx_HAL_Driver/Src/stm32f4xx_hal_can.c **** 
1730:ThirdParty/STM32F4xx_HAL_Driver/Src/stm32f4xx_hal_can.c **** /**
ARM GAS  /tmp/cc6fvD8U.s 			page 93


1731:ThirdParty/STM32F4xx_HAL_Driver/Src/stm32f4xx_hal_can.c ****   * @brief  Transmission Mailbox 1 Cancellation callback.
1732:ThirdParty/STM32F4xx_HAL_Driver/Src/stm32f4xx_hal_can.c ****   * @param  hcan pointer to an CAN_HandleTypeDef structure that contains
1733:ThirdParty/STM32F4xx_HAL_Driver/Src/stm32f4xx_hal_can.c ****   *         the configuration information for the specified CAN.
1734:ThirdParty/STM32F4xx_HAL_Driver/Src/stm32f4xx_hal_can.c ****   * @retval None
1735:ThirdParty/STM32F4xx_HAL_Driver/Src/stm32f4xx_hal_can.c ****   */
1736:ThirdParty/STM32F4xx_HAL_Driver/Src/stm32f4xx_hal_can.c **** __weak void HAL_CAN_TxMailbox1AbortCallback(CAN_HandleTypeDef *hcan)
1737:ThirdParty/STM32F4xx_HAL_Driver/Src/stm32f4xx_hal_can.c **** {
 2197              		.loc 1 1737 1 is_stmt 1 view -0
 2198              		.cfi_startproc
 2199              		@ args = 0, pretend = 0, frame = 0
 2200              		@ frame_needed = 0, uses_anonymous_args = 0
 2201              		@ link register save eliminated.
1738:ThirdParty/STM32F4xx_HAL_Driver/Src/stm32f4xx_hal_can.c ****   /* Prevent unused argument(s) compilation warning */
1739:ThirdParty/STM32F4xx_HAL_Driver/Src/stm32f4xx_hal_can.c ****   UNUSED(hcan);
 2202              		.loc 1 1739 3 view .LVU694
1740:ThirdParty/STM32F4xx_HAL_Driver/Src/stm32f4xx_hal_can.c **** 
1741:ThirdParty/STM32F4xx_HAL_Driver/Src/stm32f4xx_hal_can.c ****   /* NOTE : This function Should not be modified, when the callback is needed,
1742:ThirdParty/STM32F4xx_HAL_Driver/Src/stm32f4xx_hal_can.c ****             the HAL_CAN_TxMailbox1AbortCallback could be implemented in the
1743:ThirdParty/STM32F4xx_HAL_Driver/Src/stm32f4xx_hal_can.c ****             user file
1744:ThirdParty/STM32F4xx_HAL_Driver/Src/stm32f4xx_hal_can.c ****    */
1745:ThirdParty/STM32F4xx_HAL_Driver/Src/stm32f4xx_hal_can.c **** }
 2203              		.loc 1 1745 1 is_stmt 0 view .LVU695
 2204 0000 7047     		bx	lr
 2205              		.cfi_endproc
 2206              	.LFE157:
 2208              		.section	.text.HAL_CAN_TxMailbox2AbortCallback,"ax",%progbits
 2209              		.align	1
 2210              		.weak	HAL_CAN_TxMailbox2AbortCallback
 2211              		.syntax unified
 2212              		.thumb
 2213              		.thumb_func
 2215              	HAL_CAN_TxMailbox2AbortCallback:
 2216              	.LVL140:
 2217              	.LFB158:
1746:ThirdParty/STM32F4xx_HAL_Driver/Src/stm32f4xx_hal_can.c **** 
1747:ThirdParty/STM32F4xx_HAL_Driver/Src/stm32f4xx_hal_can.c **** /**
1748:ThirdParty/STM32F4xx_HAL_Driver/Src/stm32f4xx_hal_can.c ****   * @brief  Transmission Mailbox 2 Cancellation callback.
1749:ThirdParty/STM32F4xx_HAL_Driver/Src/stm32f4xx_hal_can.c ****   * @param  hcan pointer to an CAN_HandleTypeDef structure that contains
1750:ThirdParty/STM32F4xx_HAL_Driver/Src/stm32f4xx_hal_can.c ****   *         the configuration information for the specified CAN.
1751:ThirdParty/STM32F4xx_HAL_Driver/Src/stm32f4xx_hal_can.c ****   * @retval None
1752:ThirdParty/STM32F4xx_HAL_Driver/Src/stm32f4xx_hal_can.c ****   */
1753:ThirdParty/STM32F4xx_HAL_Driver/Src/stm32f4xx_hal_can.c **** __weak void HAL_CAN_TxMailbox2AbortCallback(CAN_HandleTypeDef *hcan)
1754:ThirdParty/STM32F4xx_HAL_Driver/Src/stm32f4xx_hal_can.c **** {
 2218              		.loc 1 1754 1 is_stmt 1 view -0
 2219              		.cfi_startproc
 2220              		@ args = 0, pretend = 0, frame = 0
 2221              		@ frame_needed = 0, uses_anonymous_args = 0
 2222              		@ link register save eliminated.
1755:ThirdParty/STM32F4xx_HAL_Driver/Src/stm32f4xx_hal_can.c ****   /* Prevent unused argument(s) compilation warning */
1756:ThirdParty/STM32F4xx_HAL_Driver/Src/stm32f4xx_hal_can.c ****   UNUSED(hcan);
 2223              		.loc 1 1756 3 view .LVU697
1757:ThirdParty/STM32F4xx_HAL_Driver/Src/stm32f4xx_hal_can.c **** 
1758:ThirdParty/STM32F4xx_HAL_Driver/Src/stm32f4xx_hal_can.c ****   /* NOTE : This function Should not be modified, when the callback is needed,
1759:ThirdParty/STM32F4xx_HAL_Driver/Src/stm32f4xx_hal_can.c ****             the HAL_CAN_TxMailbox2AbortCallback could be implemented in the
1760:ThirdParty/STM32F4xx_HAL_Driver/Src/stm32f4xx_hal_can.c ****             user file
1761:ThirdParty/STM32F4xx_HAL_Driver/Src/stm32f4xx_hal_can.c ****    */
1762:ThirdParty/STM32F4xx_HAL_Driver/Src/stm32f4xx_hal_can.c **** }
ARM GAS  /tmp/cc6fvD8U.s 			page 94


 2224              		.loc 1 1762 1 is_stmt 0 view .LVU698
 2225 0000 7047     		bx	lr
 2226              		.cfi_endproc
 2227              	.LFE158:
 2229              		.section	.text.HAL_CAN_RxFifo0MsgPendingCallback,"ax",%progbits
 2230              		.align	1
 2231              		.weak	HAL_CAN_RxFifo0MsgPendingCallback
 2232              		.syntax unified
 2233              		.thumb
 2234              		.thumb_func
 2236              	HAL_CAN_RxFifo0MsgPendingCallback:
 2237              	.LVL141:
 2238              	.LFB159:
1763:ThirdParty/STM32F4xx_HAL_Driver/Src/stm32f4xx_hal_can.c **** 
1764:ThirdParty/STM32F4xx_HAL_Driver/Src/stm32f4xx_hal_can.c **** /**
1765:ThirdParty/STM32F4xx_HAL_Driver/Src/stm32f4xx_hal_can.c ****   * @brief  Rx FIFO 0 message pending callback.
1766:ThirdParty/STM32F4xx_HAL_Driver/Src/stm32f4xx_hal_can.c ****   * @param  hcan pointer to a CAN_HandleTypeDef structure that contains
1767:ThirdParty/STM32F4xx_HAL_Driver/Src/stm32f4xx_hal_can.c ****   *         the configuration information for the specified CAN.
1768:ThirdParty/STM32F4xx_HAL_Driver/Src/stm32f4xx_hal_can.c ****   * @retval None
1769:ThirdParty/STM32F4xx_HAL_Driver/Src/stm32f4xx_hal_can.c ****   */
1770:ThirdParty/STM32F4xx_HAL_Driver/Src/stm32f4xx_hal_can.c **** __weak void HAL_CAN_RxFifo0MsgPendingCallback(CAN_HandleTypeDef *hcan)
1771:ThirdParty/STM32F4xx_HAL_Driver/Src/stm32f4xx_hal_can.c **** {
 2239              		.loc 1 1771 1 is_stmt 1 view -0
 2240              		.cfi_startproc
 2241              		@ args = 0, pretend = 0, frame = 0
 2242              		@ frame_needed = 0, uses_anonymous_args = 0
 2243              		@ link register save eliminated.
1772:ThirdParty/STM32F4xx_HAL_Driver/Src/stm32f4xx_hal_can.c ****   /* Prevent unused argument(s) compilation warning */
1773:ThirdParty/STM32F4xx_HAL_Driver/Src/stm32f4xx_hal_can.c ****   UNUSED(hcan);
 2244              		.loc 1 1773 3 view .LVU700
1774:ThirdParty/STM32F4xx_HAL_Driver/Src/stm32f4xx_hal_can.c **** 
1775:ThirdParty/STM32F4xx_HAL_Driver/Src/stm32f4xx_hal_can.c ****   /* NOTE : This function Should not be modified, when the callback is needed,
1776:ThirdParty/STM32F4xx_HAL_Driver/Src/stm32f4xx_hal_can.c ****             the HAL_CAN_RxFifo0MsgPendingCallback could be implemented in the
1777:ThirdParty/STM32F4xx_HAL_Driver/Src/stm32f4xx_hal_can.c ****             user file
1778:ThirdParty/STM32F4xx_HAL_Driver/Src/stm32f4xx_hal_can.c ****    */
1779:ThirdParty/STM32F4xx_HAL_Driver/Src/stm32f4xx_hal_can.c **** }
 2245              		.loc 1 1779 1 is_stmt 0 view .LVU701
 2246 0000 7047     		bx	lr
 2247              		.cfi_endproc
 2248              	.LFE159:
 2250              		.section	.text.HAL_CAN_RxFifo0FullCallback,"ax",%progbits
 2251              		.align	1
 2252              		.weak	HAL_CAN_RxFifo0FullCallback
 2253              		.syntax unified
 2254              		.thumb
 2255              		.thumb_func
 2257              	HAL_CAN_RxFifo0FullCallback:
 2258              	.LVL142:
 2259              	.LFB160:
1780:ThirdParty/STM32F4xx_HAL_Driver/Src/stm32f4xx_hal_can.c **** 
1781:ThirdParty/STM32F4xx_HAL_Driver/Src/stm32f4xx_hal_can.c **** /**
1782:ThirdParty/STM32F4xx_HAL_Driver/Src/stm32f4xx_hal_can.c ****   * @brief  Rx FIFO 0 full callback.
1783:ThirdParty/STM32F4xx_HAL_Driver/Src/stm32f4xx_hal_can.c ****   * @param  hcan pointer to a CAN_HandleTypeDef structure that contains
1784:ThirdParty/STM32F4xx_HAL_Driver/Src/stm32f4xx_hal_can.c ****   *         the configuration information for the specified CAN.
1785:ThirdParty/STM32F4xx_HAL_Driver/Src/stm32f4xx_hal_can.c ****   * @retval None
1786:ThirdParty/STM32F4xx_HAL_Driver/Src/stm32f4xx_hal_can.c ****   */
1787:ThirdParty/STM32F4xx_HAL_Driver/Src/stm32f4xx_hal_can.c **** __weak void HAL_CAN_RxFifo0FullCallback(CAN_HandleTypeDef *hcan)
ARM GAS  /tmp/cc6fvD8U.s 			page 95


1788:ThirdParty/STM32F4xx_HAL_Driver/Src/stm32f4xx_hal_can.c **** {
 2260              		.loc 1 1788 1 is_stmt 1 view -0
 2261              		.cfi_startproc
 2262              		@ args = 0, pretend = 0, frame = 0
 2263              		@ frame_needed = 0, uses_anonymous_args = 0
 2264              		@ link register save eliminated.
1789:ThirdParty/STM32F4xx_HAL_Driver/Src/stm32f4xx_hal_can.c ****   /* Prevent unused argument(s) compilation warning */
1790:ThirdParty/STM32F4xx_HAL_Driver/Src/stm32f4xx_hal_can.c ****   UNUSED(hcan);
 2265              		.loc 1 1790 3 view .LVU703
1791:ThirdParty/STM32F4xx_HAL_Driver/Src/stm32f4xx_hal_can.c **** 
1792:ThirdParty/STM32F4xx_HAL_Driver/Src/stm32f4xx_hal_can.c ****   /* NOTE : This function Should not be modified, when the callback is needed,
1793:ThirdParty/STM32F4xx_HAL_Driver/Src/stm32f4xx_hal_can.c ****             the HAL_CAN_RxFifo0FullCallback could be implemented in the user
1794:ThirdParty/STM32F4xx_HAL_Driver/Src/stm32f4xx_hal_can.c ****             file
1795:ThirdParty/STM32F4xx_HAL_Driver/Src/stm32f4xx_hal_can.c ****    */
1796:ThirdParty/STM32F4xx_HAL_Driver/Src/stm32f4xx_hal_can.c **** }
 2266              		.loc 1 1796 1 is_stmt 0 view .LVU704
 2267 0000 7047     		bx	lr
 2268              		.cfi_endproc
 2269              	.LFE160:
 2271              		.section	.text.HAL_CAN_RxFifo1MsgPendingCallback,"ax",%progbits
 2272              		.align	1
 2273              		.weak	HAL_CAN_RxFifo1MsgPendingCallback
 2274              		.syntax unified
 2275              		.thumb
 2276              		.thumb_func
 2278              	HAL_CAN_RxFifo1MsgPendingCallback:
 2279              	.LVL143:
 2280              	.LFB161:
1797:ThirdParty/STM32F4xx_HAL_Driver/Src/stm32f4xx_hal_can.c **** 
1798:ThirdParty/STM32F4xx_HAL_Driver/Src/stm32f4xx_hal_can.c **** /**
1799:ThirdParty/STM32F4xx_HAL_Driver/Src/stm32f4xx_hal_can.c ****   * @brief  Rx FIFO 1 message pending callback.
1800:ThirdParty/STM32F4xx_HAL_Driver/Src/stm32f4xx_hal_can.c ****   * @param  hcan pointer to a CAN_HandleTypeDef structure that contains
1801:ThirdParty/STM32F4xx_HAL_Driver/Src/stm32f4xx_hal_can.c ****   *         the configuration information for the specified CAN.
1802:ThirdParty/STM32F4xx_HAL_Driver/Src/stm32f4xx_hal_can.c ****   * @retval None
1803:ThirdParty/STM32F4xx_HAL_Driver/Src/stm32f4xx_hal_can.c ****   */
1804:ThirdParty/STM32F4xx_HAL_Driver/Src/stm32f4xx_hal_can.c **** __weak void HAL_CAN_RxFifo1MsgPendingCallback(CAN_HandleTypeDef *hcan)
1805:ThirdParty/STM32F4xx_HAL_Driver/Src/stm32f4xx_hal_can.c **** {
 2281              		.loc 1 1805 1 is_stmt 1 view -0
 2282              		.cfi_startproc
 2283              		@ args = 0, pretend = 0, frame = 0
 2284              		@ frame_needed = 0, uses_anonymous_args = 0
 2285              		@ link register save eliminated.
1806:ThirdParty/STM32F4xx_HAL_Driver/Src/stm32f4xx_hal_can.c ****   /* Prevent unused argument(s) compilation warning */
1807:ThirdParty/STM32F4xx_HAL_Driver/Src/stm32f4xx_hal_can.c ****   UNUSED(hcan);
 2286              		.loc 1 1807 3 view .LVU706
1808:ThirdParty/STM32F4xx_HAL_Driver/Src/stm32f4xx_hal_can.c **** 
1809:ThirdParty/STM32F4xx_HAL_Driver/Src/stm32f4xx_hal_can.c ****   /* NOTE : This function Should not be modified, when the callback is needed,
1810:ThirdParty/STM32F4xx_HAL_Driver/Src/stm32f4xx_hal_can.c ****             the HAL_CAN_RxFifo1MsgPendingCallback could be implemented in the
1811:ThirdParty/STM32F4xx_HAL_Driver/Src/stm32f4xx_hal_can.c ****             user file
1812:ThirdParty/STM32F4xx_HAL_Driver/Src/stm32f4xx_hal_can.c ****    */
1813:ThirdParty/STM32F4xx_HAL_Driver/Src/stm32f4xx_hal_can.c **** }
 2287              		.loc 1 1813 1 is_stmt 0 view .LVU707
 2288 0000 7047     		bx	lr
 2289              		.cfi_endproc
 2290              	.LFE161:
 2292              		.section	.text.HAL_CAN_RxFifo1FullCallback,"ax",%progbits
 2293              		.align	1
ARM GAS  /tmp/cc6fvD8U.s 			page 96


 2294              		.weak	HAL_CAN_RxFifo1FullCallback
 2295              		.syntax unified
 2296              		.thumb
 2297              		.thumb_func
 2299              	HAL_CAN_RxFifo1FullCallback:
 2300              	.LVL144:
 2301              	.LFB162:
1814:ThirdParty/STM32F4xx_HAL_Driver/Src/stm32f4xx_hal_can.c **** 
1815:ThirdParty/STM32F4xx_HAL_Driver/Src/stm32f4xx_hal_can.c **** /**
1816:ThirdParty/STM32F4xx_HAL_Driver/Src/stm32f4xx_hal_can.c ****   * @brief  Rx FIFO 1 full callback.
1817:ThirdParty/STM32F4xx_HAL_Driver/Src/stm32f4xx_hal_can.c ****   * @param  hcan pointer to a CAN_HandleTypeDef structure that contains
1818:ThirdParty/STM32F4xx_HAL_Driver/Src/stm32f4xx_hal_can.c ****   *         the configuration information for the specified CAN.
1819:ThirdParty/STM32F4xx_HAL_Driver/Src/stm32f4xx_hal_can.c ****   * @retval None
1820:ThirdParty/STM32F4xx_HAL_Driver/Src/stm32f4xx_hal_can.c ****   */
1821:ThirdParty/STM32F4xx_HAL_Driver/Src/stm32f4xx_hal_can.c **** __weak void HAL_CAN_RxFifo1FullCallback(CAN_HandleTypeDef *hcan)
1822:ThirdParty/STM32F4xx_HAL_Driver/Src/stm32f4xx_hal_can.c **** {
 2302              		.loc 1 1822 1 is_stmt 1 view -0
 2303              		.cfi_startproc
 2304              		@ args = 0, pretend = 0, frame = 0
 2305              		@ frame_needed = 0, uses_anonymous_args = 0
 2306              		@ link register save eliminated.
1823:ThirdParty/STM32F4xx_HAL_Driver/Src/stm32f4xx_hal_can.c ****   /* Prevent unused argument(s) compilation warning */
1824:ThirdParty/STM32F4xx_HAL_Driver/Src/stm32f4xx_hal_can.c ****   UNUSED(hcan);
 2307              		.loc 1 1824 3 view .LVU709
1825:ThirdParty/STM32F4xx_HAL_Driver/Src/stm32f4xx_hal_can.c **** 
1826:ThirdParty/STM32F4xx_HAL_Driver/Src/stm32f4xx_hal_can.c ****   /* NOTE : This function Should not be modified, when the callback is needed,
1827:ThirdParty/STM32F4xx_HAL_Driver/Src/stm32f4xx_hal_can.c ****             the HAL_CAN_RxFifo1FullCallback could be implemented in the user
1828:ThirdParty/STM32F4xx_HAL_Driver/Src/stm32f4xx_hal_can.c ****             file
1829:ThirdParty/STM32F4xx_HAL_Driver/Src/stm32f4xx_hal_can.c ****    */
1830:ThirdParty/STM32F4xx_HAL_Driver/Src/stm32f4xx_hal_can.c **** }
 2308              		.loc 1 1830 1 is_stmt 0 view .LVU710
 2309 0000 7047     		bx	lr
 2310              		.cfi_endproc
 2311              	.LFE162:
 2313              		.section	.text.HAL_CAN_SleepCallback,"ax",%progbits
 2314              		.align	1
 2315              		.weak	HAL_CAN_SleepCallback
 2316              		.syntax unified
 2317              		.thumb
 2318              		.thumb_func
 2320              	HAL_CAN_SleepCallback:
 2321              	.LVL145:
 2322              	.LFB163:
1831:ThirdParty/STM32F4xx_HAL_Driver/Src/stm32f4xx_hal_can.c **** 
1832:ThirdParty/STM32F4xx_HAL_Driver/Src/stm32f4xx_hal_can.c **** /**
1833:ThirdParty/STM32F4xx_HAL_Driver/Src/stm32f4xx_hal_can.c ****   * @brief  Sleep callback.
1834:ThirdParty/STM32F4xx_HAL_Driver/Src/stm32f4xx_hal_can.c ****   * @param  hcan pointer to a CAN_HandleTypeDef structure that contains
1835:ThirdParty/STM32F4xx_HAL_Driver/Src/stm32f4xx_hal_can.c ****   *         the configuration information for the specified CAN.
1836:ThirdParty/STM32F4xx_HAL_Driver/Src/stm32f4xx_hal_can.c ****   * @retval None
1837:ThirdParty/STM32F4xx_HAL_Driver/Src/stm32f4xx_hal_can.c ****   */
1838:ThirdParty/STM32F4xx_HAL_Driver/Src/stm32f4xx_hal_can.c **** __weak void HAL_CAN_SleepCallback(CAN_HandleTypeDef *hcan)
1839:ThirdParty/STM32F4xx_HAL_Driver/Src/stm32f4xx_hal_can.c **** {
 2323              		.loc 1 1839 1 is_stmt 1 view -0
 2324              		.cfi_startproc
 2325              		@ args = 0, pretend = 0, frame = 0
 2326              		@ frame_needed = 0, uses_anonymous_args = 0
 2327              		@ link register save eliminated.
ARM GAS  /tmp/cc6fvD8U.s 			page 97


1840:ThirdParty/STM32F4xx_HAL_Driver/Src/stm32f4xx_hal_can.c ****   /* Prevent unused argument(s) compilation warning */
1841:ThirdParty/STM32F4xx_HAL_Driver/Src/stm32f4xx_hal_can.c ****   UNUSED(hcan);
 2328              		.loc 1 1841 3 view .LVU712
1842:ThirdParty/STM32F4xx_HAL_Driver/Src/stm32f4xx_hal_can.c **** 
1843:ThirdParty/STM32F4xx_HAL_Driver/Src/stm32f4xx_hal_can.c ****   /* NOTE : This function Should not be modified, when the callback is needed,
1844:ThirdParty/STM32F4xx_HAL_Driver/Src/stm32f4xx_hal_can.c ****             the HAL_CAN_SleepCallback could be implemented in the user file
1845:ThirdParty/STM32F4xx_HAL_Driver/Src/stm32f4xx_hal_can.c ****    */
1846:ThirdParty/STM32F4xx_HAL_Driver/Src/stm32f4xx_hal_can.c **** }
 2329              		.loc 1 1846 1 is_stmt 0 view .LVU713
 2330 0000 7047     		bx	lr
 2331              		.cfi_endproc
 2332              	.LFE163:
 2334              		.section	.text.HAL_CAN_WakeUpFromRxMsgCallback,"ax",%progbits
 2335              		.align	1
 2336              		.weak	HAL_CAN_WakeUpFromRxMsgCallback
 2337              		.syntax unified
 2338              		.thumb
 2339              		.thumb_func
 2341              	HAL_CAN_WakeUpFromRxMsgCallback:
 2342              	.LVL146:
 2343              	.LFB164:
1847:ThirdParty/STM32F4xx_HAL_Driver/Src/stm32f4xx_hal_can.c **** 
1848:ThirdParty/STM32F4xx_HAL_Driver/Src/stm32f4xx_hal_can.c **** /**
1849:ThirdParty/STM32F4xx_HAL_Driver/Src/stm32f4xx_hal_can.c ****   * @brief  WakeUp from Rx message callback.
1850:ThirdParty/STM32F4xx_HAL_Driver/Src/stm32f4xx_hal_can.c ****   * @param  hcan pointer to a CAN_HandleTypeDef structure that contains
1851:ThirdParty/STM32F4xx_HAL_Driver/Src/stm32f4xx_hal_can.c ****   *         the configuration information for the specified CAN.
1852:ThirdParty/STM32F4xx_HAL_Driver/Src/stm32f4xx_hal_can.c ****   * @retval None
1853:ThirdParty/STM32F4xx_HAL_Driver/Src/stm32f4xx_hal_can.c ****   */
1854:ThirdParty/STM32F4xx_HAL_Driver/Src/stm32f4xx_hal_can.c **** __weak void HAL_CAN_WakeUpFromRxMsgCallback(CAN_HandleTypeDef *hcan)
1855:ThirdParty/STM32F4xx_HAL_Driver/Src/stm32f4xx_hal_can.c **** {
 2344              		.loc 1 1855 1 is_stmt 1 view -0
 2345              		.cfi_startproc
 2346              		@ args = 0, pretend = 0, frame = 0
 2347              		@ frame_needed = 0, uses_anonymous_args = 0
 2348              		@ link register save eliminated.
1856:ThirdParty/STM32F4xx_HAL_Driver/Src/stm32f4xx_hal_can.c ****   /* Prevent unused argument(s) compilation warning */
1857:ThirdParty/STM32F4xx_HAL_Driver/Src/stm32f4xx_hal_can.c ****   UNUSED(hcan);
 2349              		.loc 1 1857 3 view .LVU715
1858:ThirdParty/STM32F4xx_HAL_Driver/Src/stm32f4xx_hal_can.c **** 
1859:ThirdParty/STM32F4xx_HAL_Driver/Src/stm32f4xx_hal_can.c ****   /* NOTE : This function Should not be modified, when the callback is needed,
1860:ThirdParty/STM32F4xx_HAL_Driver/Src/stm32f4xx_hal_can.c ****             the HAL_CAN_WakeUpFromRxMsgCallback could be implemented in the
1861:ThirdParty/STM32F4xx_HAL_Driver/Src/stm32f4xx_hal_can.c ****             user file
1862:ThirdParty/STM32F4xx_HAL_Driver/Src/stm32f4xx_hal_can.c ****    */
1863:ThirdParty/STM32F4xx_HAL_Driver/Src/stm32f4xx_hal_can.c **** }
 2350              		.loc 1 1863 1 is_stmt 0 view .LVU716
 2351 0000 7047     		bx	lr
 2352              		.cfi_endproc
 2353              	.LFE164:
 2355              		.section	.text.HAL_CAN_ErrorCallback,"ax",%progbits
 2356              		.align	1
 2357              		.weak	HAL_CAN_ErrorCallback
 2358              		.syntax unified
 2359              		.thumb
 2360              		.thumb_func
 2362              	HAL_CAN_ErrorCallback:
 2363              	.LVL147:
 2364              	.LFB165:
ARM GAS  /tmp/cc6fvD8U.s 			page 98


1864:ThirdParty/STM32F4xx_HAL_Driver/Src/stm32f4xx_hal_can.c **** 
1865:ThirdParty/STM32F4xx_HAL_Driver/Src/stm32f4xx_hal_can.c **** /**
1866:ThirdParty/STM32F4xx_HAL_Driver/Src/stm32f4xx_hal_can.c ****   * @brief  Error CAN callback.
1867:ThirdParty/STM32F4xx_HAL_Driver/Src/stm32f4xx_hal_can.c ****   * @param  hcan pointer to a CAN_HandleTypeDef structure that contains
1868:ThirdParty/STM32F4xx_HAL_Driver/Src/stm32f4xx_hal_can.c ****   *         the configuration information for the specified CAN.
1869:ThirdParty/STM32F4xx_HAL_Driver/Src/stm32f4xx_hal_can.c ****   * @retval None
1870:ThirdParty/STM32F4xx_HAL_Driver/Src/stm32f4xx_hal_can.c ****   */
1871:ThirdParty/STM32F4xx_HAL_Driver/Src/stm32f4xx_hal_can.c **** __weak void HAL_CAN_ErrorCallback(CAN_HandleTypeDef *hcan)
1872:ThirdParty/STM32F4xx_HAL_Driver/Src/stm32f4xx_hal_can.c **** {
 2365              		.loc 1 1872 1 is_stmt 1 view -0
 2366              		.cfi_startproc
 2367              		@ args = 0, pretend = 0, frame = 0
 2368              		@ frame_needed = 0, uses_anonymous_args = 0
 2369              		@ link register save eliminated.
1873:ThirdParty/STM32F4xx_HAL_Driver/Src/stm32f4xx_hal_can.c ****   /* Prevent unused argument(s) compilation warning */
1874:ThirdParty/STM32F4xx_HAL_Driver/Src/stm32f4xx_hal_can.c ****   UNUSED(hcan);
 2370              		.loc 1 1874 3 view .LVU718
1875:ThirdParty/STM32F4xx_HAL_Driver/Src/stm32f4xx_hal_can.c **** 
1876:ThirdParty/STM32F4xx_HAL_Driver/Src/stm32f4xx_hal_can.c ****   /* NOTE : This function Should not be modified, when the callback is needed,
1877:ThirdParty/STM32F4xx_HAL_Driver/Src/stm32f4xx_hal_can.c ****             the HAL_CAN_ErrorCallback could be implemented in the user file
1878:ThirdParty/STM32F4xx_HAL_Driver/Src/stm32f4xx_hal_can.c ****    */
1879:ThirdParty/STM32F4xx_HAL_Driver/Src/stm32f4xx_hal_can.c **** }
 2371              		.loc 1 1879 1 is_stmt 0 view .LVU719
 2372 0000 7047     		bx	lr
 2373              		.cfi_endproc
 2374              	.LFE165:
 2376              		.section	.text.HAL_CAN_IRQHandler,"ax",%progbits
 2377              		.align	1
 2378              		.global	HAL_CAN_IRQHandler
 2379              		.syntax unified
 2380              		.thumb
 2381              		.thumb_func
 2383              	HAL_CAN_IRQHandler:
 2384              	.LVL148:
 2385              	.LFB152:
1323:ThirdParty/STM32F4xx_HAL_Driver/Src/stm32f4xx_hal_can.c ****   uint32_t errorcode = HAL_CAN_ERROR_NONE;
 2386              		.loc 1 1323 1 is_stmt 1 view -0
 2387              		.cfi_startproc
 2388              		@ args = 0, pretend = 0, frame = 0
 2389              		@ frame_needed = 0, uses_anonymous_args = 0
1323:ThirdParty/STM32F4xx_HAL_Driver/Src/stm32f4xx_hal_can.c ****   uint32_t errorcode = HAL_CAN_ERROR_NONE;
 2390              		.loc 1 1323 1 is_stmt 0 view .LVU721
 2391 0000 2DE9F84F 		push	{r3, r4, r5, r6, r7, r8, r9, r10, fp, lr}
 2392              	.LCFI18:
 2393              		.cfi_def_cfa_offset 40
 2394              		.cfi_offset 3, -40
 2395              		.cfi_offset 4, -36
 2396              		.cfi_offset 5, -32
 2397              		.cfi_offset 6, -28
 2398              		.cfi_offset 7, -24
 2399              		.cfi_offset 8, -20
 2400              		.cfi_offset 9, -16
 2401              		.cfi_offset 10, -12
 2402              		.cfi_offset 11, -8
 2403              		.cfi_offset 14, -4
 2404 0004 0546     		mov	r5, r0
1324:ThirdParty/STM32F4xx_HAL_Driver/Src/stm32f4xx_hal_can.c ****   uint32_t interrupts = READ_REG(hcan->Instance->IER);
ARM GAS  /tmp/cc6fvD8U.s 			page 99


 2405              		.loc 1 1324 3 is_stmt 1 view .LVU722
 2406              	.LVL149:
1325:ThirdParty/STM32F4xx_HAL_Driver/Src/stm32f4xx_hal_can.c ****   uint32_t msrflags = READ_REG(hcan->Instance->MSR);
 2407              		.loc 1 1325 3 view .LVU723
1325:ThirdParty/STM32F4xx_HAL_Driver/Src/stm32f4xx_hal_can.c ****   uint32_t msrflags = READ_REG(hcan->Instance->MSR);
 2408              		.loc 1 1325 25 is_stmt 0 view .LVU724
 2409 0006 0368     		ldr	r3, [r0]
1325:ThirdParty/STM32F4xx_HAL_Driver/Src/stm32f4xx_hal_can.c ****   uint32_t msrflags = READ_REG(hcan->Instance->MSR);
 2410              		.loc 1 1325 12 view .LVU725
 2411 0008 5C69     		ldr	r4, [r3, #20]
 2412              	.LVL150:
1326:ThirdParty/STM32F4xx_HAL_Driver/Src/stm32f4xx_hal_can.c ****   uint32_t tsrflags = READ_REG(hcan->Instance->TSR);
 2413              		.loc 1 1326 3 is_stmt 1 view .LVU726
1326:ThirdParty/STM32F4xx_HAL_Driver/Src/stm32f4xx_hal_can.c ****   uint32_t tsrflags = READ_REG(hcan->Instance->TSR);
 2414              		.loc 1 1326 12 is_stmt 0 view .LVU727
 2415 000a D3F80480 		ldr	r8, [r3, #4]
 2416              	.LVL151:
1327:ThirdParty/STM32F4xx_HAL_Driver/Src/stm32f4xx_hal_can.c ****   uint32_t rf0rflags = READ_REG(hcan->Instance->RF0R);
 2417              		.loc 1 1327 3 is_stmt 1 view .LVU728
1327:ThirdParty/STM32F4xx_HAL_Driver/Src/stm32f4xx_hal_can.c ****   uint32_t rf0rflags = READ_REG(hcan->Instance->RF0R);
 2418              		.loc 1 1327 12 is_stmt 0 view .LVU729
 2419 000e 9F68     		ldr	r7, [r3, #8]
 2420              	.LVL152:
1328:ThirdParty/STM32F4xx_HAL_Driver/Src/stm32f4xx_hal_can.c ****   uint32_t rf1rflags = READ_REG(hcan->Instance->RF1R);
 2421              		.loc 1 1328 3 is_stmt 1 view .LVU730
1328:ThirdParty/STM32F4xx_HAL_Driver/Src/stm32f4xx_hal_can.c ****   uint32_t rf1rflags = READ_REG(hcan->Instance->RF1R);
 2422              		.loc 1 1328 12 is_stmt 0 view .LVU731
 2423 0010 D3F80CB0 		ldr	fp, [r3, #12]
 2424              	.LVL153:
1329:ThirdParty/STM32F4xx_HAL_Driver/Src/stm32f4xx_hal_can.c ****   uint32_t esrflags = READ_REG(hcan->Instance->ESR);
 2425              		.loc 1 1329 3 is_stmt 1 view .LVU732
1329:ThirdParty/STM32F4xx_HAL_Driver/Src/stm32f4xx_hal_can.c ****   uint32_t esrflags = READ_REG(hcan->Instance->ESR);
 2426              		.loc 1 1329 12 is_stmt 0 view .LVU733
 2427 0014 D3F810A0 		ldr	r10, [r3, #16]
 2428              	.LVL154:
1330:ThirdParty/STM32F4xx_HAL_Driver/Src/stm32f4xx_hal_can.c **** 
 2429              		.loc 1 1330 3 is_stmt 1 view .LVU734
1330:ThirdParty/STM32F4xx_HAL_Driver/Src/stm32f4xx_hal_can.c **** 
 2430              		.loc 1 1330 12 is_stmt 0 view .LVU735
 2431 0018 D3F81890 		ldr	r9, [r3, #24]
 2432              	.LVL155:
1333:ThirdParty/STM32F4xx_HAL_Driver/Src/stm32f4xx_hal_can.c ****   {
 2433              		.loc 1 1333 3 is_stmt 1 view .LVU736
1333:ThirdParty/STM32F4xx_HAL_Driver/Src/stm32f4xx_hal_can.c ****   {
 2434              		.loc 1 1333 6 is_stmt 0 view .LVU737
 2435 001c 14F00106 		ands	r6, r4, #1
 2436 0020 3BD0     		beq	.L173
1336:ThirdParty/STM32F4xx_HAL_Driver/Src/stm32f4xx_hal_can.c ****     {
 2437              		.loc 1 1336 5 is_stmt 1 view .LVU738
1336:ThirdParty/STM32F4xx_HAL_Driver/Src/stm32f4xx_hal_can.c ****     {
 2438              		.loc 1 1336 8 is_stmt 0 view .LVU739
 2439 0022 17F00106 		ands	r6, r7, #1
 2440 0026 16D0     		beq	.L174
1339:ThirdParty/STM32F4xx_HAL_Driver/Src/stm32f4xx_hal_can.c **** 
 2441              		.loc 1 1339 7 is_stmt 1 view .LVU740
 2442 0028 0122     		movs	r2, #1
 2443 002a 9A60     		str	r2, [r3, #8]
ARM GAS  /tmp/cc6fvD8U.s 			page 100


1341:ThirdParty/STM32F4xx_HAL_Driver/Src/stm32f4xx_hal_can.c ****       {
 2444              		.loc 1 1341 7 view .LVU741
1341:ThirdParty/STM32F4xx_HAL_Driver/Src/stm32f4xx_hal_can.c ****       {
 2445              		.loc 1 1341 10 is_stmt 0 view .LVU742
 2446 002c 17F0020F 		tst	r7, #2
 2447 0030 08D1     		bne	.L208
1349:ThirdParty/STM32F4xx_HAL_Driver/Src/stm32f4xx_hal_can.c ****         {
 2448              		.loc 1 1349 9 is_stmt 1 view .LVU743
1349:ThirdParty/STM32F4xx_HAL_Driver/Src/stm32f4xx_hal_can.c ****         {
 2449              		.loc 1 1349 12 is_stmt 0 view .LVU744
 2450 0032 17F0040F 		tst	r7, #4
 2451 0036 0CD1     		bne	.L205
1354:ThirdParty/STM32F4xx_HAL_Driver/Src/stm32f4xx_hal_can.c ****         {
 2452              		.loc 1 1354 14 is_stmt 1 view .LVU745
1354:ThirdParty/STM32F4xx_HAL_Driver/Src/stm32f4xx_hal_can.c ****         {
 2453              		.loc 1 1354 17 is_stmt 0 view .LVU746
 2454 0038 17F00806 		ands	r6, r7, #8
 2455 003c 06D0     		beq	.L209
1357:ThirdParty/STM32F4xx_HAL_Driver/Src/stm32f4xx_hal_can.c ****         }
 2456              		.loc 1 1357 21 view .LVU747
 2457 003e 4FF48056 		mov	r6, #4096
 2458 0042 08E0     		b	.L174
 2459              	.L208:
1345:ThirdParty/STM32F4xx_HAL_Driver/Src/stm32f4xx_hal_can.c ****       }
 2460              		.loc 1 1345 9 is_stmt 1 view .LVU748
 2461 0044 FFF7FEFF 		bl	HAL_CAN_TxMailbox0CompleteCallback
 2462              	.LVL156:
1324:ThirdParty/STM32F4xx_HAL_Driver/Src/stm32f4xx_hal_can.c ****   uint32_t interrupts = READ_REG(hcan->Instance->IER);
 2463              		.loc 1 1324 12 is_stmt 0 view .LVU749
 2464 0048 0026     		movs	r6, #0
 2465 004a 04E0     		b	.L174
 2466              	.LVL157:
 2467              	.L209:
1363:ThirdParty/STM32F4xx_HAL_Driver/Src/stm32f4xx_hal_can.c ****         }
 2468              		.loc 1 1363 11 is_stmt 1 view .LVU750
 2469 004c FFF7FEFF 		bl	HAL_CAN_TxMailbox0AbortCallback
 2470              	.LVL158:
1363:ThirdParty/STM32F4xx_HAL_Driver/Src/stm32f4xx_hal_can.c ****         }
 2471              		.loc 1 1363 11 is_stmt 0 view .LVU751
 2472 0050 01E0     		b	.L174
 2473              	.LVL159:
 2474              	.L205:
1352:ThirdParty/STM32F4xx_HAL_Driver/Src/stm32f4xx_hal_can.c ****         }
 2475              		.loc 1 1352 21 view .LVU752
 2476 0052 4FF40066 		mov	r6, #2048
 2477              	.LVL160:
 2478              	.L174:
1369:ThirdParty/STM32F4xx_HAL_Driver/Src/stm32f4xx_hal_can.c ****     {
 2479              		.loc 1 1369 5 is_stmt 1 view .LVU753
1369:ThirdParty/STM32F4xx_HAL_Driver/Src/stm32f4xx_hal_can.c ****     {
 2480              		.loc 1 1369 8 is_stmt 0 view .LVU754
 2481 0056 17F4807F 		tst	r7, #256
 2482 005a 0DD0     		beq	.L176
1372:ThirdParty/STM32F4xx_HAL_Driver/Src/stm32f4xx_hal_can.c **** 
 2483              		.loc 1 1372 7 is_stmt 1 view .LVU755
 2484 005c 2B68     		ldr	r3, [r5]
 2485 005e 4FF48072 		mov	r2, #256
ARM GAS  /tmp/cc6fvD8U.s 			page 101


 2486 0062 9A60     		str	r2, [r3, #8]
1374:ThirdParty/STM32F4xx_HAL_Driver/Src/stm32f4xx_hal_can.c ****       {
 2487              		.loc 1 1374 7 view .LVU756
1374:ThirdParty/STM32F4xx_HAL_Driver/Src/stm32f4xx_hal_can.c ****       {
 2488              		.loc 1 1374 10 is_stmt 0 view .LVU757
 2489 0064 17F4007F 		tst	r7, #512
 2490 0068 40F08680 		bne	.L210
1382:ThirdParty/STM32F4xx_HAL_Driver/Src/stm32f4xx_hal_can.c ****         {
 2491              		.loc 1 1382 9 is_stmt 1 view .LVU758
1382:ThirdParty/STM32F4xx_HAL_Driver/Src/stm32f4xx_hal_can.c ****         {
 2492              		.loc 1 1382 12 is_stmt 0 view .LVU759
 2493 006c 17F4806F 		tst	r7, #1024
 2494 0070 00F08680 		beq	.L178
1385:ThirdParty/STM32F4xx_HAL_Driver/Src/stm32f4xx_hal_can.c ****         }
 2495              		.loc 1 1385 11 is_stmt 1 view .LVU760
1385:ThirdParty/STM32F4xx_HAL_Driver/Src/stm32f4xx_hal_can.c ****         }
 2496              		.loc 1 1385 21 is_stmt 0 view .LVU761
 2497 0074 46F40056 		orr	r6, r6, #8192
 2498              	.LVL161:
 2499              	.L176:
1402:ThirdParty/STM32F4xx_HAL_Driver/Src/stm32f4xx_hal_can.c ****     {
 2500              		.loc 1 1402 5 is_stmt 1 view .LVU762
1402:ThirdParty/STM32F4xx_HAL_Driver/Src/stm32f4xx_hal_can.c ****     {
 2501              		.loc 1 1402 8 is_stmt 0 view .LVU763
 2502 0078 17F4803F 		tst	r7, #65536
 2503 007c 0DD0     		beq	.L173
1405:ThirdParty/STM32F4xx_HAL_Driver/Src/stm32f4xx_hal_can.c **** 
 2504              		.loc 1 1405 7 is_stmt 1 view .LVU764
 2505 007e 2B68     		ldr	r3, [r5]
 2506 0080 4FF48032 		mov	r2, #65536
 2507 0084 9A60     		str	r2, [r3, #8]
1407:ThirdParty/STM32F4xx_HAL_Driver/Src/stm32f4xx_hal_can.c ****       {
 2508              		.loc 1 1407 7 view .LVU765
1407:ThirdParty/STM32F4xx_HAL_Driver/Src/stm32f4xx_hal_can.c ****       {
 2509              		.loc 1 1407 10 is_stmt 0 view .LVU766
 2510 0086 17F4003F 		tst	r7, #131072
 2511 008a 40F08380 		bne	.L211
1415:ThirdParty/STM32F4xx_HAL_Driver/Src/stm32f4xx_hal_can.c ****         {
 2512              		.loc 1 1415 9 is_stmt 1 view .LVU767
1415:ThirdParty/STM32F4xx_HAL_Driver/Src/stm32f4xx_hal_can.c ****         {
 2513              		.loc 1 1415 12 is_stmt 0 view .LVU768
 2514 008e 17F4802F 		tst	r7, #262144
 2515 0092 00F08380 		beq	.L181
1418:ThirdParty/STM32F4xx_HAL_Driver/Src/stm32f4xx_hal_can.c ****         }
 2516              		.loc 1 1418 11 is_stmt 1 view .LVU769
1418:ThirdParty/STM32F4xx_HAL_Driver/Src/stm32f4xx_hal_can.c ****         }
 2517              		.loc 1 1418 21 is_stmt 0 view .LVU770
 2518 0096 46F40046 		orr	r6, r6, #32768
 2519              	.LVL162:
 2520              	.L173:
1436:ThirdParty/STM32F4xx_HAL_Driver/Src/stm32f4xx_hal_can.c ****   {
 2521              		.loc 1 1436 3 is_stmt 1 view .LVU771
1436:ThirdParty/STM32F4xx_HAL_Driver/Src/stm32f4xx_hal_can.c ****   {
 2522              		.loc 1 1436 6 is_stmt 0 view .LVU772
 2523 009a 14F0080F 		tst	r4, #8
 2524 009e 07D0     		beq	.L183
1438:ThirdParty/STM32F4xx_HAL_Driver/Src/stm32f4xx_hal_can.c ****     {
ARM GAS  /tmp/cc6fvD8U.s 			page 102


 2525              		.loc 1 1438 5 is_stmt 1 view .LVU773
1438:ThirdParty/STM32F4xx_HAL_Driver/Src/stm32f4xx_hal_can.c ****     {
 2526              		.loc 1 1438 8 is_stmt 0 view .LVU774
 2527 00a0 1BF0100F 		tst	fp, #16
 2528 00a4 04D0     		beq	.L183
1441:ThirdParty/STM32F4xx_HAL_Driver/Src/stm32f4xx_hal_can.c **** 
 2529              		.loc 1 1441 7 is_stmt 1 view .LVU775
1441:ThirdParty/STM32F4xx_HAL_Driver/Src/stm32f4xx_hal_can.c **** 
 2530              		.loc 1 1441 17 is_stmt 0 view .LVU776
 2531 00a6 46F40076 		orr	r6, r6, #512
 2532              	.LVL163:
1444:ThirdParty/STM32F4xx_HAL_Driver/Src/stm32f4xx_hal_can.c ****     }
 2533              		.loc 1 1444 7 is_stmt 1 view .LVU777
 2534 00aa 2B68     		ldr	r3, [r5]
 2535 00ac 1022     		movs	r2, #16
 2536 00ae DA60     		str	r2, [r3, #12]
 2537              	.L183:
1449:ThirdParty/STM32F4xx_HAL_Driver/Src/stm32f4xx_hal_can.c ****   {
 2538              		.loc 1 1449 3 view .LVU778
1449:ThirdParty/STM32F4xx_HAL_Driver/Src/stm32f4xx_hal_can.c ****   {
 2539              		.loc 1 1449 6 is_stmt 0 view .LVU779
 2540 00b0 14F0040F 		tst	r4, #4
 2541 00b4 02D0     		beq	.L184
1451:ThirdParty/STM32F4xx_HAL_Driver/Src/stm32f4xx_hal_can.c ****     {
 2542              		.loc 1 1451 5 is_stmt 1 view .LVU780
1451:ThirdParty/STM32F4xx_HAL_Driver/Src/stm32f4xx_hal_can.c ****     {
 2543              		.loc 1 1451 8 is_stmt 0 view .LVU781
 2544 00b6 1BF0080F 		tst	fp, #8
 2545 00ba 79D1     		bne	.L212
 2546              	.L184:
1463:ThirdParty/STM32F4xx_HAL_Driver/Src/stm32f4xx_hal_can.c ****   {
 2547              		.loc 1 1463 3 is_stmt 1 view .LVU782
1463:ThirdParty/STM32F4xx_HAL_Driver/Src/stm32f4xx_hal_can.c ****   {
 2548              		.loc 1 1463 6 is_stmt 0 view .LVU783
 2549 00bc 14F0020F 		tst	r4, #2
 2550 00c0 04D0     		beq	.L185
1466:ThirdParty/STM32F4xx_HAL_Driver/Src/stm32f4xx_hal_can.c ****     {
 2551              		.loc 1 1466 5 is_stmt 1 view .LVU784
1466:ThirdParty/STM32F4xx_HAL_Driver/Src/stm32f4xx_hal_can.c ****     {
 2552              		.loc 1 1466 14 is_stmt 0 view .LVU785
 2553 00c2 2B68     		ldr	r3, [r5]
1466:ThirdParty/STM32F4xx_HAL_Driver/Src/stm32f4xx_hal_can.c ****     {
 2554              		.loc 1 1466 24 view .LVU786
 2555 00c4 DB68     		ldr	r3, [r3, #12]
1466:ThirdParty/STM32F4xx_HAL_Driver/Src/stm32f4xx_hal_can.c ****     {
 2556              		.loc 1 1466 8 view .LVU787
 2557 00c6 13F0030F 		tst	r3, #3
 2558 00ca 78D1     		bne	.L213
 2559              	.L185:
1475:ThirdParty/STM32F4xx_HAL_Driver/Src/stm32f4xx_hal_can.c ****   {
 2560              		.loc 1 1475 3 is_stmt 1 view .LVU788
1475:ThirdParty/STM32F4xx_HAL_Driver/Src/stm32f4xx_hal_can.c ****   {
 2561              		.loc 1 1475 6 is_stmt 0 view .LVU789
 2562 00cc 14F0400F 		tst	r4, #64
 2563 00d0 07D0     		beq	.L186
1477:ThirdParty/STM32F4xx_HAL_Driver/Src/stm32f4xx_hal_can.c ****     {
 2564              		.loc 1 1477 5 is_stmt 1 view .LVU790
ARM GAS  /tmp/cc6fvD8U.s 			page 103


1477:ThirdParty/STM32F4xx_HAL_Driver/Src/stm32f4xx_hal_can.c ****     {
 2565              		.loc 1 1477 8 is_stmt 0 view .LVU791
 2566 00d2 1AF0100F 		tst	r10, #16
 2567 00d6 04D0     		beq	.L186
1480:ThirdParty/STM32F4xx_HAL_Driver/Src/stm32f4xx_hal_can.c **** 
 2568              		.loc 1 1480 7 is_stmt 1 view .LVU792
1480:ThirdParty/STM32F4xx_HAL_Driver/Src/stm32f4xx_hal_can.c **** 
 2569              		.loc 1 1480 17 is_stmt 0 view .LVU793
 2570 00d8 46F48066 		orr	r6, r6, #1024
 2571              	.LVL164:
1483:ThirdParty/STM32F4xx_HAL_Driver/Src/stm32f4xx_hal_can.c ****     }
 2572              		.loc 1 1483 7 is_stmt 1 view .LVU794
 2573 00dc 2B68     		ldr	r3, [r5]
 2574 00de 1022     		movs	r2, #16
 2575 00e0 1A61     		str	r2, [r3, #16]
 2576              	.L186:
1488:ThirdParty/STM32F4xx_HAL_Driver/Src/stm32f4xx_hal_can.c ****   {
 2577              		.loc 1 1488 3 view .LVU795
1488:ThirdParty/STM32F4xx_HAL_Driver/Src/stm32f4xx_hal_can.c ****   {
 2578              		.loc 1 1488 6 is_stmt 0 view .LVU796
 2579 00e2 14F0200F 		tst	r4, #32
 2580 00e6 02D0     		beq	.L187
1490:ThirdParty/STM32F4xx_HAL_Driver/Src/stm32f4xx_hal_can.c ****     {
 2581              		.loc 1 1490 5 is_stmt 1 view .LVU797
1490:ThirdParty/STM32F4xx_HAL_Driver/Src/stm32f4xx_hal_can.c ****     {
 2582              		.loc 1 1490 8 is_stmt 0 view .LVU798
 2583 00e8 1AF0080F 		tst	r10, #8
 2584 00ec 6BD1     		bne	.L214
 2585              	.L187:
1502:ThirdParty/STM32F4xx_HAL_Driver/Src/stm32f4xx_hal_can.c ****   {
 2586              		.loc 1 1502 3 is_stmt 1 view .LVU799
1502:ThirdParty/STM32F4xx_HAL_Driver/Src/stm32f4xx_hal_can.c ****   {
 2587              		.loc 1 1502 6 is_stmt 0 view .LVU800
 2588 00ee 14F0100F 		tst	r4, #16
 2589 00f2 04D0     		beq	.L188
1505:ThirdParty/STM32F4xx_HAL_Driver/Src/stm32f4xx_hal_can.c ****     {
 2590              		.loc 1 1505 5 is_stmt 1 view .LVU801
1505:ThirdParty/STM32F4xx_HAL_Driver/Src/stm32f4xx_hal_can.c ****     {
 2591              		.loc 1 1505 14 is_stmt 0 view .LVU802
 2592 00f4 2B68     		ldr	r3, [r5]
1505:ThirdParty/STM32F4xx_HAL_Driver/Src/stm32f4xx_hal_can.c ****     {
 2593              		.loc 1 1505 24 view .LVU803
 2594 00f6 1B69     		ldr	r3, [r3, #16]
1505:ThirdParty/STM32F4xx_HAL_Driver/Src/stm32f4xx_hal_can.c ****     {
 2595              		.loc 1 1505 8 view .LVU804
 2596 00f8 13F0030F 		tst	r3, #3
 2597 00fc 6AD1     		bne	.L215
 2598              	.L188:
1514:ThirdParty/STM32F4xx_HAL_Driver/Src/stm32f4xx_hal_can.c ****   {
 2599              		.loc 1 1514 3 is_stmt 1 view .LVU805
1514:ThirdParty/STM32F4xx_HAL_Driver/Src/stm32f4xx_hal_can.c ****   {
 2600              		.loc 1 1514 6 is_stmt 0 view .LVU806
 2601 00fe 14F4003F 		tst	r4, #131072
 2602 0102 02D0     		beq	.L189
1516:ThirdParty/STM32F4xx_HAL_Driver/Src/stm32f4xx_hal_can.c ****     {
 2603              		.loc 1 1516 5 is_stmt 1 view .LVU807
1516:ThirdParty/STM32F4xx_HAL_Driver/Src/stm32f4xx_hal_can.c ****     {
ARM GAS  /tmp/cc6fvD8U.s 			page 104


 2604              		.loc 1 1516 8 is_stmt 0 view .LVU808
 2605 0104 18F0100F 		tst	r8, #16
 2606 0108 68D1     		bne	.L216
 2607              	.L189:
1528:ThirdParty/STM32F4xx_HAL_Driver/Src/stm32f4xx_hal_can.c ****   {
 2608              		.loc 1 1528 3 is_stmt 1 view .LVU809
1528:ThirdParty/STM32F4xx_HAL_Driver/Src/stm32f4xx_hal_can.c ****   {
 2609              		.loc 1 1528 6 is_stmt 0 view .LVU810
 2610 010a 14F4803F 		tst	r4, #65536
 2611 010e 02D0     		beq	.L190
1530:ThirdParty/STM32F4xx_HAL_Driver/Src/stm32f4xx_hal_can.c ****     {
 2612              		.loc 1 1530 5 is_stmt 1 view .LVU811
1530:ThirdParty/STM32F4xx_HAL_Driver/Src/stm32f4xx_hal_can.c ****     {
 2613              		.loc 1 1530 8 is_stmt 0 view .LVU812
 2614 0110 18F0080F 		tst	r8, #8
 2615 0114 69D1     		bne	.L217
 2616              	.L190:
1542:ThirdParty/STM32F4xx_HAL_Driver/Src/stm32f4xx_hal_can.c ****   {
 2617              		.loc 1 1542 3 is_stmt 1 view .LVU813
1542:ThirdParty/STM32F4xx_HAL_Driver/Src/stm32f4xx_hal_can.c ****   {
 2618              		.loc 1 1542 6 is_stmt 0 view .LVU814
 2619 0116 14F4004F 		tst	r4, #32768
 2620 011a 7AD0     		beq	.L191
1544:ThirdParty/STM32F4xx_HAL_Driver/Src/stm32f4xx_hal_can.c ****     {
 2621              		.loc 1 1544 5 is_stmt 1 view .LVU815
1544:ThirdParty/STM32F4xx_HAL_Driver/Src/stm32f4xx_hal_can.c ****     {
 2622              		.loc 1 1544 8 is_stmt 0 view .LVU816
 2623 011c 18F0040F 		tst	r8, #4
 2624 0120 74D0     		beq	.L192
1547:ThirdParty/STM32F4xx_HAL_Driver/Src/stm32f4xx_hal_can.c ****           ((esrflags & CAN_ESR_EWGF) != RESET))
 2625              		.loc 1 1547 7 is_stmt 1 view .LVU817
1547:ThirdParty/STM32F4xx_HAL_Driver/Src/stm32f4xx_hal_can.c ****           ((esrflags & CAN_ESR_EWGF) != RESET))
 2626              		.loc 1 1547 10 is_stmt 0 view .LVU818
 2627 0122 14F4807F 		tst	r4, #256
 2628 0126 04D0     		beq	.L193
1547:ThirdParty/STM32F4xx_HAL_Driver/Src/stm32f4xx_hal_can.c ****           ((esrflags & CAN_ESR_EWGF) != RESET))
 2629              		.loc 1 1547 58 discriminator 1 view .LVU819
 2630 0128 19F0010F 		tst	r9, #1
 2631 012c 01D0     		beq	.L193
1551:ThirdParty/STM32F4xx_HAL_Driver/Src/stm32f4xx_hal_can.c **** 
 2632              		.loc 1 1551 9 is_stmt 1 view .LVU820
1551:ThirdParty/STM32F4xx_HAL_Driver/Src/stm32f4xx_hal_can.c **** 
 2633              		.loc 1 1551 19 is_stmt 0 view .LVU821
 2634 012e 46F00106 		orr	r6, r6, #1
 2635              	.LVL165:
 2636              	.L193:
1557:ThirdParty/STM32F4xx_HAL_Driver/Src/stm32f4xx_hal_can.c ****           ((esrflags & CAN_ESR_EPVF) != RESET))
 2637              		.loc 1 1557 7 is_stmt 1 view .LVU822
1557:ThirdParty/STM32F4xx_HAL_Driver/Src/stm32f4xx_hal_can.c ****           ((esrflags & CAN_ESR_EPVF) != RESET))
 2638              		.loc 1 1557 10 is_stmt 0 view .LVU823
 2639 0132 14F4007F 		tst	r4, #512
 2640 0136 04D0     		beq	.L194
1557:ThirdParty/STM32F4xx_HAL_Driver/Src/stm32f4xx_hal_can.c ****           ((esrflags & CAN_ESR_EPVF) != RESET))
 2641              		.loc 1 1557 58 discriminator 1 view .LVU824
 2642 0138 19F0020F 		tst	r9, #2
 2643 013c 01D0     		beq	.L194
1561:ThirdParty/STM32F4xx_HAL_Driver/Src/stm32f4xx_hal_can.c **** 
ARM GAS  /tmp/cc6fvD8U.s 			page 105


 2644              		.loc 1 1561 9 is_stmt 1 view .LVU825
1561:ThirdParty/STM32F4xx_HAL_Driver/Src/stm32f4xx_hal_can.c **** 
 2645              		.loc 1 1561 19 is_stmt 0 view .LVU826
 2646 013e 46F00206 		orr	r6, r6, #2
 2647              	.LVL166:
 2648              	.L194:
1567:ThirdParty/STM32F4xx_HAL_Driver/Src/stm32f4xx_hal_can.c ****           ((esrflags & CAN_ESR_BOFF) != RESET))
 2649              		.loc 1 1567 7 is_stmt 1 view .LVU827
1567:ThirdParty/STM32F4xx_HAL_Driver/Src/stm32f4xx_hal_can.c ****           ((esrflags & CAN_ESR_BOFF) != RESET))
 2650              		.loc 1 1567 10 is_stmt 0 view .LVU828
 2651 0142 14F4806F 		tst	r4, #1024
 2652 0146 04D0     		beq	.L195
1567:ThirdParty/STM32F4xx_HAL_Driver/Src/stm32f4xx_hal_can.c ****           ((esrflags & CAN_ESR_BOFF) != RESET))
 2653              		.loc 1 1567 51 discriminator 1 view .LVU829
 2654 0148 19F0040F 		tst	r9, #4
 2655 014c 01D0     		beq	.L195
1571:ThirdParty/STM32F4xx_HAL_Driver/Src/stm32f4xx_hal_can.c **** 
 2656              		.loc 1 1571 9 is_stmt 1 view .LVU830
1571:ThirdParty/STM32F4xx_HAL_Driver/Src/stm32f4xx_hal_can.c **** 
 2657              		.loc 1 1571 19 is_stmt 0 view .LVU831
 2658 014e 46F00406 		orr	r6, r6, #4
 2659              	.LVL167:
 2660              	.L195:
1577:ThirdParty/STM32F4xx_HAL_Driver/Src/stm32f4xx_hal_can.c ****           ((esrflags & CAN_ESR_LEC) != RESET))
 2661              		.loc 1 1577 7 is_stmt 1 view .LVU832
1577:ThirdParty/STM32F4xx_HAL_Driver/Src/stm32f4xx_hal_can.c ****           ((esrflags & CAN_ESR_LEC) != RESET))
 2662              		.loc 1 1577 10 is_stmt 0 view .LVU833
 2663 0152 14F4006F 		tst	r4, #2048
 2664 0156 59D0     		beq	.L192
1577:ThirdParty/STM32F4xx_HAL_Driver/Src/stm32f4xx_hal_can.c ****           ((esrflags & CAN_ESR_LEC) != RESET))
 2665              		.loc 1 1577 60 discriminator 1 view .LVU834
 2666 0158 19F07009 		ands	r9, r9, #112
 2667              	.LVL168:
1577:ThirdParty/STM32F4xx_HAL_Driver/Src/stm32f4xx_hal_can.c ****           ((esrflags & CAN_ESR_LEC) != RESET))
 2668              		.loc 1 1577 60 discriminator 1 view .LVU835
 2669 015c 56D0     		beq	.L192
1580:ThirdParty/STM32F4xx_HAL_Driver/Src/stm32f4xx_hal_can.c ****         {
 2670              		.loc 1 1580 9 is_stmt 1 view .LVU836
 2671 015e B9F1400F 		cmp	r9, #64
 2672 0162 65D0     		beq	.L196
 2673 0164 58D8     		bhi	.L197
 2674 0166 B9F1200F 		cmp	r9, #32
 2675 016a 5ED0     		beq	.L198
 2676 016c B9F1300F 		cmp	r9, #48
 2677 0170 42D1     		bne	.L218
1592:ThirdParty/STM32F4xx_HAL_Driver/Src/stm32f4xx_hal_can.c ****             break;
 2678              		.loc 1 1592 13 view .LVU837
1592:ThirdParty/STM32F4xx_HAL_Driver/Src/stm32f4xx_hal_can.c ****             break;
 2679              		.loc 1 1592 23 is_stmt 0 view .LVU838
 2680 0172 46F02006 		orr	r6, r6, #32
 2681              	.LVL169:
1593:ThirdParty/STM32F4xx_HAL_Driver/Src/stm32f4xx_hal_can.c ****           case (CAN_ESR_LEC_2):
 2682              		.loc 1 1593 13 is_stmt 1 view .LVU839
 2683 0176 44E0     		b	.L201
 2684              	.LVL170:
 2685              	.L210:
1378:ThirdParty/STM32F4xx_HAL_Driver/Src/stm32f4xx_hal_can.c ****       }
ARM GAS  /tmp/cc6fvD8U.s 			page 106


 2686              		.loc 1 1378 9 view .LVU840
 2687 0178 2846     		mov	r0, r5
 2688 017a FFF7FEFF 		bl	HAL_CAN_TxMailbox1CompleteCallback
 2689              	.LVL171:
 2690 017e 7BE7     		b	.L176
 2691              	.L178:
1387:ThirdParty/STM32F4xx_HAL_Driver/Src/stm32f4xx_hal_can.c ****         {
 2692              		.loc 1 1387 14 view .LVU841
1387:ThirdParty/STM32F4xx_HAL_Driver/Src/stm32f4xx_hal_can.c ****         {
 2693              		.loc 1 1387 17 is_stmt 0 view .LVU842
 2694 0180 17F4006F 		tst	r7, #2048
 2695 0184 02D0     		beq	.L179
1390:ThirdParty/STM32F4xx_HAL_Driver/Src/stm32f4xx_hal_can.c ****         }
 2696              		.loc 1 1390 11 is_stmt 1 view .LVU843
1390:ThirdParty/STM32F4xx_HAL_Driver/Src/stm32f4xx_hal_can.c ****         }
 2697              		.loc 1 1390 21 is_stmt 0 view .LVU844
 2698 0186 46F48046 		orr	r6, r6, #16384
 2699              	.LVL172:
1390:ThirdParty/STM32F4xx_HAL_Driver/Src/stm32f4xx_hal_can.c ****         }
 2700              		.loc 1 1390 21 view .LVU845
 2701 018a 75E7     		b	.L176
 2702              	.L179:
1396:ThirdParty/STM32F4xx_HAL_Driver/Src/stm32f4xx_hal_can.c ****         }
 2703              		.loc 1 1396 11 is_stmt 1 view .LVU846
 2704 018c 2846     		mov	r0, r5
 2705 018e FFF7FEFF 		bl	HAL_CAN_TxMailbox1AbortCallback
 2706              	.LVL173:
 2707 0192 71E7     		b	.L176
 2708              	.L211:
1411:ThirdParty/STM32F4xx_HAL_Driver/Src/stm32f4xx_hal_can.c ****       }
 2709              		.loc 1 1411 9 view .LVU847
 2710 0194 2846     		mov	r0, r5
 2711 0196 FFF7FEFF 		bl	HAL_CAN_TxMailbox2CompleteCallback
 2712              	.LVL174:
 2713 019a 7EE7     		b	.L173
 2714              	.L181:
1420:ThirdParty/STM32F4xx_HAL_Driver/Src/stm32f4xx_hal_can.c ****         {
 2715              		.loc 1 1420 14 view .LVU848
1420:ThirdParty/STM32F4xx_HAL_Driver/Src/stm32f4xx_hal_can.c ****         {
 2716              		.loc 1 1420 17 is_stmt 0 view .LVU849
 2717 019c 17F4002F 		tst	r7, #524288
 2718 01a0 02D0     		beq	.L182
1423:ThirdParty/STM32F4xx_HAL_Driver/Src/stm32f4xx_hal_can.c ****         }
 2719              		.loc 1 1423 11 is_stmt 1 view .LVU850
1423:ThirdParty/STM32F4xx_HAL_Driver/Src/stm32f4xx_hal_can.c ****         }
 2720              		.loc 1 1423 21 is_stmt 0 view .LVU851
 2721 01a2 46F48036 		orr	r6, r6, #65536
 2722              	.LVL175:
1423:ThirdParty/STM32F4xx_HAL_Driver/Src/stm32f4xx_hal_can.c ****         }
 2723              		.loc 1 1423 21 view .LVU852
 2724 01a6 78E7     		b	.L173
 2725              	.L182:
1429:ThirdParty/STM32F4xx_HAL_Driver/Src/stm32f4xx_hal_can.c ****         }
 2726              		.loc 1 1429 11 is_stmt 1 view .LVU853
 2727 01a8 2846     		mov	r0, r5
 2728 01aa FFF7FEFF 		bl	HAL_CAN_TxMailbox2AbortCallback
 2729              	.LVL176:
ARM GAS  /tmp/cc6fvD8U.s 			page 107


 2730 01ae 74E7     		b	.L173
 2731              	.L212:
1454:ThirdParty/STM32F4xx_HAL_Driver/Src/stm32f4xx_hal_can.c **** 
 2732              		.loc 1 1454 7 view .LVU854
 2733 01b0 2B68     		ldr	r3, [r5]
 2734 01b2 0822     		movs	r2, #8
 2735 01b4 DA60     		str	r2, [r3, #12]
1458:ThirdParty/STM32F4xx_HAL_Driver/Src/stm32f4xx_hal_can.c ****     }
 2736              		.loc 1 1458 7 view .LVU855
 2737 01b6 2846     		mov	r0, r5
 2738 01b8 FFF7FEFF 		bl	HAL_CAN_RxFifo0FullCallback
 2739              	.LVL177:
 2740 01bc 7EE7     		b	.L184
 2741              	.L213:
1470:ThirdParty/STM32F4xx_HAL_Driver/Src/stm32f4xx_hal_can.c ****     }
 2742              		.loc 1 1470 7 view .LVU856
 2743 01be 2846     		mov	r0, r5
 2744 01c0 FFF7FEFF 		bl	HAL_CAN_RxFifo0MsgPendingCallback
 2745              	.LVL178:
 2746 01c4 82E7     		b	.L185
 2747              	.L214:
1493:ThirdParty/STM32F4xx_HAL_Driver/Src/stm32f4xx_hal_can.c **** 
 2748              		.loc 1 1493 7 view .LVU857
 2749 01c6 2B68     		ldr	r3, [r5]
 2750 01c8 0822     		movs	r2, #8
 2751 01ca 1A61     		str	r2, [r3, #16]
1497:ThirdParty/STM32F4xx_HAL_Driver/Src/stm32f4xx_hal_can.c ****     }
 2752              		.loc 1 1497 7 view .LVU858
 2753 01cc 2846     		mov	r0, r5
 2754 01ce FFF7FEFF 		bl	HAL_CAN_RxFifo1FullCallback
 2755              	.LVL179:
 2756 01d2 8CE7     		b	.L187
 2757              	.L215:
1509:ThirdParty/STM32F4xx_HAL_Driver/Src/stm32f4xx_hal_can.c ****     }
 2758              		.loc 1 1509 7 view .LVU859
 2759 01d4 2846     		mov	r0, r5
 2760 01d6 FFF7FEFF 		bl	HAL_CAN_RxFifo1MsgPendingCallback
 2761              	.LVL180:
 2762 01da 90E7     		b	.L188
 2763              	.L216:
1519:ThirdParty/STM32F4xx_HAL_Driver/Src/stm32f4xx_hal_can.c **** 
 2764              		.loc 1 1519 7 view .LVU860
 2765 01dc 2B68     		ldr	r3, [r5]
 2766 01de 1022     		movs	r2, #16
 2767 01e0 5A60     		str	r2, [r3, #4]
1523:ThirdParty/STM32F4xx_HAL_Driver/Src/stm32f4xx_hal_can.c ****     }
 2768              		.loc 1 1523 7 view .LVU861
 2769 01e2 2846     		mov	r0, r5
 2770 01e4 FFF7FEFF 		bl	HAL_CAN_SleepCallback
 2771              	.LVL181:
 2772 01e8 8FE7     		b	.L189
 2773              	.L217:
1533:ThirdParty/STM32F4xx_HAL_Driver/Src/stm32f4xx_hal_can.c **** 
 2774              		.loc 1 1533 7 view .LVU862
 2775 01ea 2B68     		ldr	r3, [r5]
 2776 01ec 0822     		movs	r2, #8
 2777 01ee 5A60     		str	r2, [r3, #4]
ARM GAS  /tmp/cc6fvD8U.s 			page 108


1537:ThirdParty/STM32F4xx_HAL_Driver/Src/stm32f4xx_hal_can.c ****     }
 2778              		.loc 1 1537 7 view .LVU863
 2779 01f0 2846     		mov	r0, r5
 2780 01f2 FFF7FEFF 		bl	HAL_CAN_WakeUpFromRxMsgCallback
 2781              	.LVL182:
 2782 01f6 8EE7     		b	.L190
 2783              	.LVL183:
 2784              	.L218:
1580:ThirdParty/STM32F4xx_HAL_Driver/Src/stm32f4xx_hal_can.c ****         {
 2785              		.loc 1 1580 9 is_stmt 0 view .LVU864
 2786 01f8 B9F1100F 		cmp	r9, #16
 2787 01fc 01D1     		bne	.L201
1584:ThirdParty/STM32F4xx_HAL_Driver/Src/stm32f4xx_hal_can.c ****             break;
 2788              		.loc 1 1584 13 is_stmt 1 view .LVU865
1584:ThirdParty/STM32F4xx_HAL_Driver/Src/stm32f4xx_hal_can.c ****             break;
 2789              		.loc 1 1584 23 is_stmt 0 view .LVU866
 2790 01fe 46F00806 		orr	r6, r6, #8
 2791              	.LVL184:
1585:ThirdParty/STM32F4xx_HAL_Driver/Src/stm32f4xx_hal_can.c ****           case (CAN_ESR_LEC_1):
 2792              		.loc 1 1585 13 is_stmt 1 view .LVU867
 2793              	.L201:
1611:ThirdParty/STM32F4xx_HAL_Driver/Src/stm32f4xx_hal_can.c ****       }
 2794              		.loc 1 1611 9 view .LVU868
 2795 0202 2A68     		ldr	r2, [r5]
 2796 0204 9369     		ldr	r3, [r2, #24]
 2797 0206 23F07003 		bic	r3, r3, #112
 2798 020a 9361     		str	r3, [r2, #24]
 2799              	.L192:
1616:ThirdParty/STM32F4xx_HAL_Driver/Src/stm32f4xx_hal_can.c ****   }
 2800              		.loc 1 1616 5 view .LVU869
 2801 020c 2B68     		ldr	r3, [r5]
 2802 020e 0422     		movs	r2, #4
 2803 0210 5A60     		str	r2, [r3, #4]
 2804              	.L191:
1620:ThirdParty/STM32F4xx_HAL_Driver/Src/stm32f4xx_hal_can.c ****   {
 2805              		.loc 1 1620 3 view .LVU870
1620:ThirdParty/STM32F4xx_HAL_Driver/Src/stm32f4xx_hal_can.c ****   {
 2806              		.loc 1 1620 6 is_stmt 0 view .LVU871
 2807 0212 9EB9     		cbnz	r6, .L219
 2808              	.LVL185:
 2809              	.L172:
1629:ThirdParty/STM32F4xx_HAL_Driver/Src/stm32f4xx_hal_can.c **** 
 2810              		.loc 1 1629 1 view .LVU872
 2811 0214 BDE8F88F 		pop	{r3, r4, r5, r6, r7, r8, r9, r10, fp, pc}
 2812              	.LVL186:
 2813              	.L197:
1580:ThirdParty/STM32F4xx_HAL_Driver/Src/stm32f4xx_hal_can.c ****         {
 2814              		.loc 1 1580 9 view .LVU873
 2815 0218 B9F1500F 		cmp	r9, #80
 2816 021c 0BD0     		beq	.L202
 2817 021e B9F1600F 		cmp	r9, #96
 2818 0222 EED1     		bne	.L201
1604:ThirdParty/STM32F4xx_HAL_Driver/Src/stm32f4xx_hal_can.c ****             break;
 2819              		.loc 1 1604 13 is_stmt 1 view .LVU874
1604:ThirdParty/STM32F4xx_HAL_Driver/Src/stm32f4xx_hal_can.c ****             break;
 2820              		.loc 1 1604 23 is_stmt 0 view .LVU875
 2821 0224 46F48076 		orr	r6, r6, #256
ARM GAS  /tmp/cc6fvD8U.s 			page 109


 2822              	.LVL187:
1605:ThirdParty/STM32F4xx_HAL_Driver/Src/stm32f4xx_hal_can.c ****           default:
 2823              		.loc 1 1605 13 is_stmt 1 view .LVU876
 2824 0228 EBE7     		b	.L201
 2825              	.L198:
1588:ThirdParty/STM32F4xx_HAL_Driver/Src/stm32f4xx_hal_can.c ****             break;
 2826              		.loc 1 1588 13 view .LVU877
1588:ThirdParty/STM32F4xx_HAL_Driver/Src/stm32f4xx_hal_can.c ****             break;
 2827              		.loc 1 1588 23 is_stmt 0 view .LVU878
 2828 022a 46F01006 		orr	r6, r6, #16
 2829              	.LVL188:
1589:ThirdParty/STM32F4xx_HAL_Driver/Src/stm32f4xx_hal_can.c ****           case (CAN_ESR_LEC_1 | CAN_ESR_LEC_0):
 2830              		.loc 1 1589 13 is_stmt 1 view .LVU879
 2831 022e E8E7     		b	.L201
 2832              	.L196:
1596:ThirdParty/STM32F4xx_HAL_Driver/Src/stm32f4xx_hal_can.c ****             break;
 2833              		.loc 1 1596 13 view .LVU880
1596:ThirdParty/STM32F4xx_HAL_Driver/Src/stm32f4xx_hal_can.c ****             break;
 2834              		.loc 1 1596 23 is_stmt 0 view .LVU881
 2835 0230 46F04006 		orr	r6, r6, #64
 2836              	.LVL189:
1597:ThirdParty/STM32F4xx_HAL_Driver/Src/stm32f4xx_hal_can.c ****           case (CAN_ESR_LEC_2 | CAN_ESR_LEC_0):
 2837              		.loc 1 1597 13 is_stmt 1 view .LVU882
 2838 0234 E5E7     		b	.L201
 2839              	.L202:
1600:ThirdParty/STM32F4xx_HAL_Driver/Src/stm32f4xx_hal_can.c ****             break;
 2840              		.loc 1 1600 13 view .LVU883
1600:ThirdParty/STM32F4xx_HAL_Driver/Src/stm32f4xx_hal_can.c ****             break;
 2841              		.loc 1 1600 23 is_stmt 0 view .LVU884
 2842 0236 46F08006 		orr	r6, r6, #128
 2843              	.LVL190:
1601:ThirdParty/STM32F4xx_HAL_Driver/Src/stm32f4xx_hal_can.c ****           case (CAN_ESR_LEC_2 | CAN_ESR_LEC_1):
 2844              		.loc 1 1601 13 is_stmt 1 view .LVU885
 2845 023a E2E7     		b	.L201
 2846              	.L219:
1623:ThirdParty/STM32F4xx_HAL_Driver/Src/stm32f4xx_hal_can.c **** 
 2847              		.loc 1 1623 5 view .LVU886
1623:ThirdParty/STM32F4xx_HAL_Driver/Src/stm32f4xx_hal_can.c **** 
 2848              		.loc 1 1623 21 is_stmt 0 view .LVU887
 2849 023c 6B6A     		ldr	r3, [r5, #36]
 2850 023e 1E43     		orrs	r6, r6, r3
 2851              	.LVL191:
1623:ThirdParty/STM32F4xx_HAL_Driver/Src/stm32f4xx_hal_can.c **** 
 2852              		.loc 1 1623 21 view .LVU888
 2853 0240 6E62     		str	r6, [r5, #36]
1627:ThirdParty/STM32F4xx_HAL_Driver/Src/stm32f4xx_hal_can.c ****   }
 2854              		.loc 1 1627 5 is_stmt 1 view .LVU889
 2855 0242 2846     		mov	r0, r5
 2856 0244 FFF7FEFF 		bl	HAL_CAN_ErrorCallback
 2857              	.LVL192:
1629:ThirdParty/STM32F4xx_HAL_Driver/Src/stm32f4xx_hal_can.c **** 
 2858              		.loc 1 1629 1 is_stmt 0 view .LVU890
 2859 0248 E4E7     		b	.L172
 2860              		.cfi_endproc
 2861              	.LFE152:
 2863              		.section	.text.HAL_CAN_GetState,"ax",%progbits
 2864              		.align	1
ARM GAS  /tmp/cc6fvD8U.s 			page 110


 2865              		.global	HAL_CAN_GetState
 2866              		.syntax unified
 2867              		.thumb
 2868              		.thumb_func
 2870              	HAL_CAN_GetState:
 2871              	.LVL193:
 2872              	.LFB166:
1880:ThirdParty/STM32F4xx_HAL_Driver/Src/stm32f4xx_hal_can.c **** 
1881:ThirdParty/STM32F4xx_HAL_Driver/Src/stm32f4xx_hal_can.c **** /**
1882:ThirdParty/STM32F4xx_HAL_Driver/Src/stm32f4xx_hal_can.c ****   * @}
1883:ThirdParty/STM32F4xx_HAL_Driver/Src/stm32f4xx_hal_can.c ****   */
1884:ThirdParty/STM32F4xx_HAL_Driver/Src/stm32f4xx_hal_can.c **** 
1885:ThirdParty/STM32F4xx_HAL_Driver/Src/stm32f4xx_hal_can.c **** /** @defgroup CAN_Exported_Functions_Group6 Peripheral State and Error functions
1886:ThirdParty/STM32F4xx_HAL_Driver/Src/stm32f4xx_hal_can.c ****  *  @brief   CAN Peripheral State functions
1887:ThirdParty/STM32F4xx_HAL_Driver/Src/stm32f4xx_hal_can.c ****  *
1888:ThirdParty/STM32F4xx_HAL_Driver/Src/stm32f4xx_hal_can.c **** @verbatim
1889:ThirdParty/STM32F4xx_HAL_Driver/Src/stm32f4xx_hal_can.c ****   ==============================================================================
1890:ThirdParty/STM32F4xx_HAL_Driver/Src/stm32f4xx_hal_can.c ****             ##### Peripheral State and Error functions #####
1891:ThirdParty/STM32F4xx_HAL_Driver/Src/stm32f4xx_hal_can.c ****   ==============================================================================
1892:ThirdParty/STM32F4xx_HAL_Driver/Src/stm32f4xx_hal_can.c ****     [..]
1893:ThirdParty/STM32F4xx_HAL_Driver/Src/stm32f4xx_hal_can.c ****     This subsection provides functions allowing to :
1894:ThirdParty/STM32F4xx_HAL_Driver/Src/stm32f4xx_hal_can.c ****       (+) HAL_CAN_GetState()  : Return the CAN state.
1895:ThirdParty/STM32F4xx_HAL_Driver/Src/stm32f4xx_hal_can.c ****       (+) HAL_CAN_GetError()  : Return the CAN error codes if any.
1896:ThirdParty/STM32F4xx_HAL_Driver/Src/stm32f4xx_hal_can.c ****       (+) HAL_CAN_ResetError(): Reset the CAN error codes if any.
1897:ThirdParty/STM32F4xx_HAL_Driver/Src/stm32f4xx_hal_can.c **** 
1898:ThirdParty/STM32F4xx_HAL_Driver/Src/stm32f4xx_hal_can.c **** @endverbatim
1899:ThirdParty/STM32F4xx_HAL_Driver/Src/stm32f4xx_hal_can.c ****   * @{
1900:ThirdParty/STM32F4xx_HAL_Driver/Src/stm32f4xx_hal_can.c ****   */
1901:ThirdParty/STM32F4xx_HAL_Driver/Src/stm32f4xx_hal_can.c **** 
1902:ThirdParty/STM32F4xx_HAL_Driver/Src/stm32f4xx_hal_can.c **** /**
1903:ThirdParty/STM32F4xx_HAL_Driver/Src/stm32f4xx_hal_can.c ****   * @brief  Return the CAN state.
1904:ThirdParty/STM32F4xx_HAL_Driver/Src/stm32f4xx_hal_can.c ****   * @param  hcan pointer to a CAN_HandleTypeDef structure that contains
1905:ThirdParty/STM32F4xx_HAL_Driver/Src/stm32f4xx_hal_can.c ****   *         the configuration information for the specified CAN.
1906:ThirdParty/STM32F4xx_HAL_Driver/Src/stm32f4xx_hal_can.c ****   * @retval HAL state
1907:ThirdParty/STM32F4xx_HAL_Driver/Src/stm32f4xx_hal_can.c ****   */
1908:ThirdParty/STM32F4xx_HAL_Driver/Src/stm32f4xx_hal_can.c **** HAL_CAN_StateTypeDef HAL_CAN_GetState(CAN_HandleTypeDef *hcan)
1909:ThirdParty/STM32F4xx_HAL_Driver/Src/stm32f4xx_hal_can.c **** {
 2873              		.loc 1 1909 1 is_stmt 1 view -0
 2874              		.cfi_startproc
 2875              		@ args = 0, pretend = 0, frame = 0
 2876              		@ frame_needed = 0, uses_anonymous_args = 0
 2877              		@ link register save eliminated.
 2878              		.loc 1 1909 1 is_stmt 0 view .LVU892
 2879 0000 0346     		mov	r3, r0
1910:ThirdParty/STM32F4xx_HAL_Driver/Src/stm32f4xx_hal_can.c ****   HAL_CAN_StateTypeDef state = hcan->State;
 2880              		.loc 1 1910 3 is_stmt 1 view .LVU893
 2881              		.loc 1 1910 24 is_stmt 0 view .LVU894
 2882 0002 90F82000 		ldrb	r0, [r0, #32]	@ zero_extendqisi2
 2883              	.LVL194:
 2884              		.loc 1 1910 24 view .LVU895
 2885 0006 C0B2     		uxtb	r0, r0
 2886              	.LVL195:
1911:ThirdParty/STM32F4xx_HAL_Driver/Src/stm32f4xx_hal_can.c **** 
1912:ThirdParty/STM32F4xx_HAL_Driver/Src/stm32f4xx_hal_can.c ****   if ((hcan->State == HAL_CAN_STATE_READY) ||
 2887              		.loc 1 1912 3 is_stmt 1 view .LVU896
 2888              		.loc 1 1912 12 is_stmt 0 view .LVU897
 2889 0008 93F82020 		ldrb	r2, [r3, #32]	@ zero_extendqisi2
ARM GAS  /tmp/cc6fvD8U.s 			page 111


 2890 000c D2B2     		uxtb	r2, r2
 2891              		.loc 1 1912 6 view .LVU898
 2892 000e 012A     		cmp	r2, #1
 2893 0010 05D0     		beq	.L221
1913:ThirdParty/STM32F4xx_HAL_Driver/Src/stm32f4xx_hal_can.c ****       (hcan->State == HAL_CAN_STATE_LISTENING))
 2894              		.loc 1 1913 12 discriminator 1 view .LVU899
 2895 0012 93F82020 		ldrb	r2, [r3, #32]	@ zero_extendqisi2
 2896 0016 D2B2     		uxtb	r2, r2
1912:ThirdParty/STM32F4xx_HAL_Driver/Src/stm32f4xx_hal_can.c ****       (hcan->State == HAL_CAN_STATE_LISTENING))
 2897              		.loc 1 1912 44 discriminator 1 view .LVU900
 2898 0018 022A     		cmp	r2, #2
 2899 001a 00D0     		beq	.L221
 2900              	.LVL196:
 2901              	.L222:
1914:ThirdParty/STM32F4xx_HAL_Driver/Src/stm32f4xx_hal_can.c ****   {
1915:ThirdParty/STM32F4xx_HAL_Driver/Src/stm32f4xx_hal_can.c ****     /* Check sleep mode acknowledge flag */
1916:ThirdParty/STM32F4xx_HAL_Driver/Src/stm32f4xx_hal_can.c ****     if ((hcan->Instance->MSR & CAN_MSR_SLAK) != RESET)
1917:ThirdParty/STM32F4xx_HAL_Driver/Src/stm32f4xx_hal_can.c ****     {
1918:ThirdParty/STM32F4xx_HAL_Driver/Src/stm32f4xx_hal_can.c ****       /* Sleep mode is active */
1919:ThirdParty/STM32F4xx_HAL_Driver/Src/stm32f4xx_hal_can.c ****       state = HAL_CAN_STATE_SLEEP_ACTIVE;
1920:ThirdParty/STM32F4xx_HAL_Driver/Src/stm32f4xx_hal_can.c ****     }
1921:ThirdParty/STM32F4xx_HAL_Driver/Src/stm32f4xx_hal_can.c ****     /* Check sleep mode request flag */
1922:ThirdParty/STM32F4xx_HAL_Driver/Src/stm32f4xx_hal_can.c ****     else if ((hcan->Instance->MCR & CAN_MCR_SLEEP) != RESET)
1923:ThirdParty/STM32F4xx_HAL_Driver/Src/stm32f4xx_hal_can.c ****     {
1924:ThirdParty/STM32F4xx_HAL_Driver/Src/stm32f4xx_hal_can.c ****       /* Sleep mode request is pending */
1925:ThirdParty/STM32F4xx_HAL_Driver/Src/stm32f4xx_hal_can.c ****       state = HAL_CAN_STATE_SLEEP_PENDING;
1926:ThirdParty/STM32F4xx_HAL_Driver/Src/stm32f4xx_hal_can.c ****     }
1927:ThirdParty/STM32F4xx_HAL_Driver/Src/stm32f4xx_hal_can.c ****   }
1928:ThirdParty/STM32F4xx_HAL_Driver/Src/stm32f4xx_hal_can.c **** 
1929:ThirdParty/STM32F4xx_HAL_Driver/Src/stm32f4xx_hal_can.c ****   /* Return CAN state */
1930:ThirdParty/STM32F4xx_HAL_Driver/Src/stm32f4xx_hal_can.c ****   return state;
 2902              		.loc 1 1930 3 is_stmt 1 view .LVU901
1931:ThirdParty/STM32F4xx_HAL_Driver/Src/stm32f4xx_hal_can.c **** }
 2903              		.loc 1 1931 1 is_stmt 0 view .LVU902
 2904 001c 7047     		bx	lr
 2905              	.LVL197:
 2906              	.L221:
1916:ThirdParty/STM32F4xx_HAL_Driver/Src/stm32f4xx_hal_can.c ****     {
 2907              		.loc 1 1916 5 is_stmt 1 view .LVU903
1916:ThirdParty/STM32F4xx_HAL_Driver/Src/stm32f4xx_hal_can.c ****     {
 2908              		.loc 1 1916 14 is_stmt 0 view .LVU904
 2909 001e 1B68     		ldr	r3, [r3]
 2910              	.LVL198:
1916:ThirdParty/STM32F4xx_HAL_Driver/Src/stm32f4xx_hal_can.c ****     {
 2911              		.loc 1 1916 24 view .LVU905
 2912 0020 5A68     		ldr	r2, [r3, #4]
1916:ThirdParty/STM32F4xx_HAL_Driver/Src/stm32f4xx_hal_can.c ****     {
 2913              		.loc 1 1916 8 view .LVU906
 2914 0022 12F0020F 		tst	r2, #2
 2915 0026 05D1     		bne	.L223
1922:ThirdParty/STM32F4xx_HAL_Driver/Src/stm32f4xx_hal_can.c ****     {
 2916              		.loc 1 1922 10 is_stmt 1 view .LVU907
1922:ThirdParty/STM32F4xx_HAL_Driver/Src/stm32f4xx_hal_can.c ****     {
 2917              		.loc 1 1922 29 is_stmt 0 view .LVU908
 2918 0028 1B68     		ldr	r3, [r3]
1922:ThirdParty/STM32F4xx_HAL_Driver/Src/stm32f4xx_hal_can.c ****     {
 2919              		.loc 1 1922 13 view .LVU909
ARM GAS  /tmp/cc6fvD8U.s 			page 112


 2920 002a 13F0020F 		tst	r3, #2
 2921 002e F5D0     		beq	.L222
1925:ThirdParty/STM32F4xx_HAL_Driver/Src/stm32f4xx_hal_can.c ****     }
 2922              		.loc 1 1925 13 view .LVU910
 2923 0030 0320     		movs	r0, #3
 2924              	.LVL199:
1925:ThirdParty/STM32F4xx_HAL_Driver/Src/stm32f4xx_hal_can.c ****     }
 2925              		.loc 1 1925 13 view .LVU911
 2926 0032 F3E7     		b	.L222
 2927              	.LVL200:
 2928              	.L223:
1919:ThirdParty/STM32F4xx_HAL_Driver/Src/stm32f4xx_hal_can.c ****     }
 2929              		.loc 1 1919 13 view .LVU912
 2930 0034 0420     		movs	r0, #4
 2931              	.LVL201:
1919:ThirdParty/STM32F4xx_HAL_Driver/Src/stm32f4xx_hal_can.c ****     }
 2932              		.loc 1 1919 13 view .LVU913
 2933 0036 7047     		bx	lr
 2934              		.cfi_endproc
 2935              	.LFE166:
 2937              		.section	.text.HAL_CAN_GetError,"ax",%progbits
 2938              		.align	1
 2939              		.global	HAL_CAN_GetError
 2940              		.syntax unified
 2941              		.thumb
 2942              		.thumb_func
 2944              	HAL_CAN_GetError:
 2945              	.LVL202:
 2946              	.LFB167:
1932:ThirdParty/STM32F4xx_HAL_Driver/Src/stm32f4xx_hal_can.c **** 
1933:ThirdParty/STM32F4xx_HAL_Driver/Src/stm32f4xx_hal_can.c **** /**
1934:ThirdParty/STM32F4xx_HAL_Driver/Src/stm32f4xx_hal_can.c ****   * @brief  Return the CAN error code.
1935:ThirdParty/STM32F4xx_HAL_Driver/Src/stm32f4xx_hal_can.c ****   * @param  hcan pointer to a CAN_HandleTypeDef structure that contains
1936:ThirdParty/STM32F4xx_HAL_Driver/Src/stm32f4xx_hal_can.c ****   *         the configuration information for the specified CAN.
1937:ThirdParty/STM32F4xx_HAL_Driver/Src/stm32f4xx_hal_can.c ****   * @retval CAN Error Code
1938:ThirdParty/STM32F4xx_HAL_Driver/Src/stm32f4xx_hal_can.c ****   */
1939:ThirdParty/STM32F4xx_HAL_Driver/Src/stm32f4xx_hal_can.c **** uint32_t HAL_CAN_GetError(CAN_HandleTypeDef *hcan)
1940:ThirdParty/STM32F4xx_HAL_Driver/Src/stm32f4xx_hal_can.c **** {
 2947              		.loc 1 1940 1 is_stmt 1 view -0
 2948              		.cfi_startproc
 2949              		@ args = 0, pretend = 0, frame = 0
 2950              		@ frame_needed = 0, uses_anonymous_args = 0
 2951              		@ link register save eliminated.
1941:ThirdParty/STM32F4xx_HAL_Driver/Src/stm32f4xx_hal_can.c ****   /* Return CAN error code */
1942:ThirdParty/STM32F4xx_HAL_Driver/Src/stm32f4xx_hal_can.c ****   return hcan->ErrorCode;
 2952              		.loc 1 1942 3 view .LVU915
 2953              		.loc 1 1942 14 is_stmt 0 view .LVU916
 2954 0000 406A     		ldr	r0, [r0, #36]
 2955              	.LVL203:
1943:ThirdParty/STM32F4xx_HAL_Driver/Src/stm32f4xx_hal_can.c **** }
 2956              		.loc 1 1943 1 view .LVU917
 2957 0002 7047     		bx	lr
 2958              		.cfi_endproc
 2959              	.LFE167:
 2961              		.section	.text.HAL_CAN_ResetError,"ax",%progbits
 2962              		.align	1
 2963              		.global	HAL_CAN_ResetError
ARM GAS  /tmp/cc6fvD8U.s 			page 113


 2964              		.syntax unified
 2965              		.thumb
 2966              		.thumb_func
 2968              	HAL_CAN_ResetError:
 2969              	.LVL204:
 2970              	.LFB168:
1944:ThirdParty/STM32F4xx_HAL_Driver/Src/stm32f4xx_hal_can.c **** 
1945:ThirdParty/STM32F4xx_HAL_Driver/Src/stm32f4xx_hal_can.c **** /**
1946:ThirdParty/STM32F4xx_HAL_Driver/Src/stm32f4xx_hal_can.c ****   * @brief  Reset the CAN error code.
1947:ThirdParty/STM32F4xx_HAL_Driver/Src/stm32f4xx_hal_can.c ****   * @param  hcan pointer to a CAN_HandleTypeDef structure that contains
1948:ThirdParty/STM32F4xx_HAL_Driver/Src/stm32f4xx_hal_can.c ****   *         the configuration information for the specified CAN.
1949:ThirdParty/STM32F4xx_HAL_Driver/Src/stm32f4xx_hal_can.c ****   * @retval HAL status
1950:ThirdParty/STM32F4xx_HAL_Driver/Src/stm32f4xx_hal_can.c ****   */
1951:ThirdParty/STM32F4xx_HAL_Driver/Src/stm32f4xx_hal_can.c **** HAL_StatusTypeDef HAL_CAN_ResetError(CAN_HandleTypeDef *hcan)
1952:ThirdParty/STM32F4xx_HAL_Driver/Src/stm32f4xx_hal_can.c **** {
 2971              		.loc 1 1952 1 is_stmt 1 view -0
 2972              		.cfi_startproc
 2973              		@ args = 0, pretend = 0, frame = 0
 2974              		@ frame_needed = 0, uses_anonymous_args = 0
 2975              		@ link register save eliminated.
1953:ThirdParty/STM32F4xx_HAL_Driver/Src/stm32f4xx_hal_can.c ****   HAL_StatusTypeDef status = HAL_OK;
 2976              		.loc 1 1953 3 view .LVU919
1954:ThirdParty/STM32F4xx_HAL_Driver/Src/stm32f4xx_hal_can.c **** 
1955:ThirdParty/STM32F4xx_HAL_Driver/Src/stm32f4xx_hal_can.c ****   if ((hcan->State == HAL_CAN_STATE_READY) ||
 2977              		.loc 1 1955 3 view .LVU920
 2978              		.loc 1 1955 12 is_stmt 0 view .LVU921
 2979 0000 90F82030 		ldrb	r3, [r0, #32]	@ zero_extendqisi2
 2980 0004 DBB2     		uxtb	r3, r3
 2981              		.loc 1 1955 6 view .LVU922
 2982 0006 012B     		cmp	r3, #1
 2983 0008 0AD0     		beq	.L227
1956:ThirdParty/STM32F4xx_HAL_Driver/Src/stm32f4xx_hal_can.c ****       (hcan->State == HAL_CAN_STATE_LISTENING))
 2984              		.loc 1 1956 12 discriminator 1 view .LVU923
 2985 000a 90F82030 		ldrb	r3, [r0, #32]	@ zero_extendqisi2
 2986 000e DBB2     		uxtb	r3, r3
1955:ThirdParty/STM32F4xx_HAL_Driver/Src/stm32f4xx_hal_can.c ****       (hcan->State == HAL_CAN_STATE_LISTENING))
 2987              		.loc 1 1955 44 discriminator 1 view .LVU924
 2988 0010 022B     		cmp	r3, #2
 2989 0012 05D0     		beq	.L227
1957:ThirdParty/STM32F4xx_HAL_Driver/Src/stm32f4xx_hal_can.c ****   {
1958:ThirdParty/STM32F4xx_HAL_Driver/Src/stm32f4xx_hal_can.c ****     /* Reset CAN error code */
1959:ThirdParty/STM32F4xx_HAL_Driver/Src/stm32f4xx_hal_can.c ****     hcan->ErrorCode = 0U;
1960:ThirdParty/STM32F4xx_HAL_Driver/Src/stm32f4xx_hal_can.c ****   }
1961:ThirdParty/STM32F4xx_HAL_Driver/Src/stm32f4xx_hal_can.c ****   else
1962:ThirdParty/STM32F4xx_HAL_Driver/Src/stm32f4xx_hal_can.c ****   {
1963:ThirdParty/STM32F4xx_HAL_Driver/Src/stm32f4xx_hal_can.c ****     /* Update error code */
1964:ThirdParty/STM32F4xx_HAL_Driver/Src/stm32f4xx_hal_can.c ****     hcan->ErrorCode |= HAL_CAN_ERROR_NOT_INITIALIZED;
 2990              		.loc 1 1964 5 is_stmt 1 view .LVU925
 2991              		.loc 1 1964 21 is_stmt 0 view .LVU926
 2992 0014 436A     		ldr	r3, [r0, #36]
 2993 0016 43F48023 		orr	r3, r3, #262144
 2994 001a 4362     		str	r3, [r0, #36]
1965:ThirdParty/STM32F4xx_HAL_Driver/Src/stm32f4xx_hal_can.c **** 
1966:ThirdParty/STM32F4xx_HAL_Driver/Src/stm32f4xx_hal_can.c ****     status = HAL_ERROR;
 2995              		.loc 1 1966 5 is_stmt 1 view .LVU927
 2996              	.LVL205:
 2997              		.loc 1 1966 12 is_stmt 0 view .LVU928
ARM GAS  /tmp/cc6fvD8U.s 			page 114


 2998 001c 0120     		movs	r0, #1
 2999              	.LVL206:
1967:ThirdParty/STM32F4xx_HAL_Driver/Src/stm32f4xx_hal_can.c ****   }
1968:ThirdParty/STM32F4xx_HAL_Driver/Src/stm32f4xx_hal_can.c **** 
1969:ThirdParty/STM32F4xx_HAL_Driver/Src/stm32f4xx_hal_can.c ****   /* Return the status */
1970:ThirdParty/STM32F4xx_HAL_Driver/Src/stm32f4xx_hal_can.c ****   return status;
 3000              		.loc 1 1970 3 is_stmt 1 view .LVU929
1971:ThirdParty/STM32F4xx_HAL_Driver/Src/stm32f4xx_hal_can.c **** }
 3001              		.loc 1 1971 1 is_stmt 0 view .LVU930
 3002 001e 7047     		bx	lr
 3003              	.LVL207:
 3004              	.L227:
1959:ThirdParty/STM32F4xx_HAL_Driver/Src/stm32f4xx_hal_can.c ****   }
 3005              		.loc 1 1959 5 is_stmt 1 view .LVU931
1959:ThirdParty/STM32F4xx_HAL_Driver/Src/stm32f4xx_hal_can.c ****   }
 3006              		.loc 1 1959 21 is_stmt 0 view .LVU932
 3007 0020 0023     		movs	r3, #0
 3008 0022 4362     		str	r3, [r0, #36]
1953:ThirdParty/STM32F4xx_HAL_Driver/Src/stm32f4xx_hal_can.c **** 
 3009              		.loc 1 1953 21 view .LVU933
 3010 0024 1846     		mov	r0, r3
 3011              	.LVL208:
1959:ThirdParty/STM32F4xx_HAL_Driver/Src/stm32f4xx_hal_can.c ****   }
 3012              		.loc 1 1959 21 view .LVU934
 3013 0026 7047     		bx	lr
 3014              		.cfi_endproc
 3015              	.LFE168:
 3017              		.text
 3018              	.Letext0:
 3019              		.file 3 "/opt/gcc-arm-none-eabi/arm-none-eabi/include/machine/_default_types.h"
 3020              		.file 4 "/opt/gcc-arm-none-eabi/arm-none-eabi/include/sys/_stdint.h"
 3021              		.file 5 "ThirdParty/CMSIS/Device/ST/STM32F4xx/Include/stm32f405xx.h"
 3022              		.file 6 "ThirdParty/CMSIS/Device/ST/STM32F4xx/Include/stm32f4xx.h"
 3023              		.file 7 "ThirdParty/STM32F4xx_HAL_Driver/Inc/stm32f4xx_hal_def.h"
 3024              		.file 8 "ThirdParty/STM32F4xx_HAL_Driver/Inc/stm32f4xx_hal_can.h"
 3025              		.file 9 "ThirdParty/STM32F4xx_HAL_Driver/Inc/stm32f4xx_hal.h"
ARM GAS  /tmp/cc6fvD8U.s 			page 115


DEFINED SYMBOLS
                            *ABS*:0000000000000000 stm32f4xx_hal_can.c
     /tmp/cc6fvD8U.s:20     .text.HAL_CAN_MspInit:0000000000000000 $t
     /tmp/cc6fvD8U.s:26     .text.HAL_CAN_MspInit:0000000000000000 HAL_CAN_MspInit
     /tmp/cc6fvD8U.s:42     .text.HAL_CAN_Init:0000000000000000 $t
     /tmp/cc6fvD8U.s:48     .text.HAL_CAN_Init:0000000000000000 HAL_CAN_Init
     /tmp/cc6fvD8U.s:338    .text.HAL_CAN_MspDeInit:0000000000000000 $t
     /tmp/cc6fvD8U.s:344    .text.HAL_CAN_MspDeInit:0000000000000000 HAL_CAN_MspDeInit
     /tmp/cc6fvD8U.s:359    .text.HAL_CAN_ConfigFilter:0000000000000000 $t
     /tmp/cc6fvD8U.s:365    .text.HAL_CAN_ConfigFilter:0000000000000000 HAL_CAN_ConfigFilter
     /tmp/cc6fvD8U.s:588    .text.HAL_CAN_ConfigFilter:0000000000000138 $d
     /tmp/cc6fvD8U.s:593    .text.HAL_CAN_Start:0000000000000000 $t
     /tmp/cc6fvD8U.s:599    .text.HAL_CAN_Start:0000000000000000 HAL_CAN_Start
     /tmp/cc6fvD8U.s:698    .text.HAL_CAN_Stop:0000000000000000 $t
     /tmp/cc6fvD8U.s:704    .text.HAL_CAN_Stop:0000000000000000 HAL_CAN_Stop
     /tmp/cc6fvD8U.s:804    .text.HAL_CAN_DeInit:0000000000000000 $t
     /tmp/cc6fvD8U.s:810    .text.HAL_CAN_DeInit:0000000000000000 HAL_CAN_DeInit
     /tmp/cc6fvD8U.s:865    .text.HAL_CAN_RequestSleep:0000000000000000 $t
     /tmp/cc6fvD8U.s:871    .text.HAL_CAN_RequestSleep:0000000000000000 HAL_CAN_RequestSleep
     /tmp/cc6fvD8U.s:920    .text.HAL_CAN_WakeUp:0000000000000000 $t
     /tmp/cc6fvD8U.s:926    .text.HAL_CAN_WakeUp:0000000000000000 HAL_CAN_WakeUp
     /tmp/cc6fvD8U.s:1024   .text.HAL_CAN_WakeUp:0000000000000058 $d
     /tmp/cc6fvD8U.s:1029   .text.HAL_CAN_IsSleepActive:0000000000000000 $t
     /tmp/cc6fvD8U.s:1035   .text.HAL_CAN_IsSleepActive:0000000000000000 HAL_CAN_IsSleepActive
     /tmp/cc6fvD8U.s:1085   .text.HAL_CAN_AddTxMessage:0000000000000000 $t
     /tmp/cc6fvD8U.s:1091   .text.HAL_CAN_AddTxMessage:0000000000000000 HAL_CAN_AddTxMessage
     /tmp/cc6fvD8U.s:1311   .text.HAL_CAN_AbortTxRequest:0000000000000000 $t
     /tmp/cc6fvD8U.s:1317   .text.HAL_CAN_AbortTxRequest:0000000000000000 HAL_CAN_AbortTxRequest
     /tmp/cc6fvD8U.s:1392   .text.HAL_CAN_GetTxMailboxesFreeLevel:0000000000000000 $t
     /tmp/cc6fvD8U.s:1398   .text.HAL_CAN_GetTxMailboxesFreeLevel:0000000000000000 HAL_CAN_GetTxMailboxesFreeLevel
     /tmp/cc6fvD8U.s:1469   .text.HAL_CAN_IsTxMessagePending:0000000000000000 $t
     /tmp/cc6fvD8U.s:1475   .text.HAL_CAN_IsTxMessagePending:0000000000000000 HAL_CAN_IsTxMessagePending
     /tmp/cc6fvD8U.s:1532   .text.HAL_CAN_GetTxTimestamp:0000000000000000 $t
     /tmp/cc6fvD8U.s:1538   .text.HAL_CAN_GetTxTimestamp:0000000000000000 HAL_CAN_GetTxTimestamp
     /tmp/cc6fvD8U.s:1613   .text.HAL_CAN_GetRxMessage:0000000000000000 $t
     /tmp/cc6fvD8U.s:1619   .text.HAL_CAN_GetRxMessage:0000000000000000 HAL_CAN_GetRxMessage
     /tmp/cc6fvD8U.s:1920   .text.HAL_CAN_GetRxFifoFillLevel:0000000000000000 $t
     /tmp/cc6fvD8U.s:1926   .text.HAL_CAN_GetRxFifoFillLevel:0000000000000000 HAL_CAN_GetRxFifoFillLevel
     /tmp/cc6fvD8U.s:1988   .text.HAL_CAN_ActivateNotification:0000000000000000 $t
     /tmp/cc6fvD8U.s:1994   .text.HAL_CAN_ActivateNotification:0000000000000000 HAL_CAN_ActivateNotification
     /tmp/cc6fvD8U.s:2046   .text.HAL_CAN_DeactivateNotification:0000000000000000 $t
     /tmp/cc6fvD8U.s:2052   .text.HAL_CAN_DeactivateNotification:0000000000000000 HAL_CAN_DeactivateNotification
     /tmp/cc6fvD8U.s:2104   .text.HAL_CAN_TxMailbox0CompleteCallback:0000000000000000 $t
     /tmp/cc6fvD8U.s:2110   .text.HAL_CAN_TxMailbox0CompleteCallback:0000000000000000 HAL_CAN_TxMailbox0CompleteCallback
     /tmp/cc6fvD8U.s:2125   .text.HAL_CAN_TxMailbox1CompleteCallback:0000000000000000 $t
     /tmp/cc6fvD8U.s:2131   .text.HAL_CAN_TxMailbox1CompleteCallback:0000000000000000 HAL_CAN_TxMailbox1CompleteCallback
     /tmp/cc6fvD8U.s:2146   .text.HAL_CAN_TxMailbox2CompleteCallback:0000000000000000 $t
     /tmp/cc6fvD8U.s:2152   .text.HAL_CAN_TxMailbox2CompleteCallback:0000000000000000 HAL_CAN_TxMailbox2CompleteCallback
     /tmp/cc6fvD8U.s:2167   .text.HAL_CAN_TxMailbox0AbortCallback:0000000000000000 $t
     /tmp/cc6fvD8U.s:2173   .text.HAL_CAN_TxMailbox0AbortCallback:0000000000000000 HAL_CAN_TxMailbox0AbortCallback
     /tmp/cc6fvD8U.s:2188   .text.HAL_CAN_TxMailbox1AbortCallback:0000000000000000 $t
     /tmp/cc6fvD8U.s:2194   .text.HAL_CAN_TxMailbox1AbortCallback:0000000000000000 HAL_CAN_TxMailbox1AbortCallback
     /tmp/cc6fvD8U.s:2209   .text.HAL_CAN_TxMailbox2AbortCallback:0000000000000000 $t
     /tmp/cc6fvD8U.s:2215   .text.HAL_CAN_TxMailbox2AbortCallback:0000000000000000 HAL_CAN_TxMailbox2AbortCallback
     /tmp/cc6fvD8U.s:2230   .text.HAL_CAN_RxFifo0MsgPendingCallback:0000000000000000 $t
     /tmp/cc6fvD8U.s:2236   .text.HAL_CAN_RxFifo0MsgPendingCallback:0000000000000000 HAL_CAN_RxFifo0MsgPendingCallback
     /tmp/cc6fvD8U.s:2251   .text.HAL_CAN_RxFifo0FullCallback:0000000000000000 $t
ARM GAS  /tmp/cc6fvD8U.s 			page 116


     /tmp/cc6fvD8U.s:2257   .text.HAL_CAN_RxFifo0FullCallback:0000000000000000 HAL_CAN_RxFifo0FullCallback
     /tmp/cc6fvD8U.s:2272   .text.HAL_CAN_RxFifo1MsgPendingCallback:0000000000000000 $t
     /tmp/cc6fvD8U.s:2278   .text.HAL_CAN_RxFifo1MsgPendingCallback:0000000000000000 HAL_CAN_RxFifo1MsgPendingCallback
     /tmp/cc6fvD8U.s:2293   .text.HAL_CAN_RxFifo1FullCallback:0000000000000000 $t
     /tmp/cc6fvD8U.s:2299   .text.HAL_CAN_RxFifo1FullCallback:0000000000000000 HAL_CAN_RxFifo1FullCallback
     /tmp/cc6fvD8U.s:2314   .text.HAL_CAN_SleepCallback:0000000000000000 $t
     /tmp/cc6fvD8U.s:2320   .text.HAL_CAN_SleepCallback:0000000000000000 HAL_CAN_SleepCallback
     /tmp/cc6fvD8U.s:2335   .text.HAL_CAN_WakeUpFromRxMsgCallback:0000000000000000 $t
     /tmp/cc6fvD8U.s:2341   .text.HAL_CAN_WakeUpFromRxMsgCallback:0000000000000000 HAL_CAN_WakeUpFromRxMsgCallback
     /tmp/cc6fvD8U.s:2356   .text.HAL_CAN_ErrorCallback:0000000000000000 $t
     /tmp/cc6fvD8U.s:2362   .text.HAL_CAN_ErrorCallback:0000000000000000 HAL_CAN_ErrorCallback
     /tmp/cc6fvD8U.s:2377   .text.HAL_CAN_IRQHandler:0000000000000000 $t
     /tmp/cc6fvD8U.s:2383   .text.HAL_CAN_IRQHandler:0000000000000000 HAL_CAN_IRQHandler
     /tmp/cc6fvD8U.s:2864   .text.HAL_CAN_GetState:0000000000000000 $t
     /tmp/cc6fvD8U.s:2870   .text.HAL_CAN_GetState:0000000000000000 HAL_CAN_GetState
     /tmp/cc6fvD8U.s:2938   .text.HAL_CAN_GetError:0000000000000000 $t
     /tmp/cc6fvD8U.s:2944   .text.HAL_CAN_GetError:0000000000000000 HAL_CAN_GetError
     /tmp/cc6fvD8U.s:2962   .text.HAL_CAN_ResetError:0000000000000000 $t
     /tmp/cc6fvD8U.s:2968   .text.HAL_CAN_ResetError:0000000000000000 HAL_CAN_ResetError

UNDEFINED SYMBOLS
HAL_GetTick
